
/osdev/zeronix/kernel/kernel.elf:     file format elf32-i386


Disassembly of section .multiboot:

00400000 <_mb_unpaged_start-0x10>:
  400000:	02 b0 ad 1b 03 00    	add    0x31bad(%eax),%dh
  400006:	00 00                	add    %al,(%eax)
  400008:	fb                   	sti
  400009:	4f                   	dec    %edi
  40000a:	52                   	push   %edx
  40000b:	e4 00                	in     $0x0,%al
  40000d:	00 00                	add    %al,(%eax)
	...

Disassembly of section .unpaged.text:

00401000 <kboot>:
  401000:	55                   	push   %ebp
  401001:	89 e5                	mov    %esp,%ebp
  401003:	83 ec 18             	sub    $0x18,%esp
  401006:	81 7d 08 02 b0 ad 2b 	cmpl   $0x2badb002,0x8(%ebp)
  40100d:	74 10                	je     40101f <kboot+0x1f>
  40100f:	83 ec 0c             	sub    $0xc,%esp
  401012:	68 a8 71 40 f0       	push   $0xf04071a8
  401017:	e8 57 00 00 00       	call   401073 <kboot_panic>
  40101c:	83 c4 10             	add    $0x10,%esp
  40101f:	c7 45 f4 00 30 40 00 	movl   $0x403000,-0xc(%ebp)
  401026:	8b 45 0c             	mov    0xc(%ebp),%eax
  401029:	83 ec 08             	sub    $0x8,%esp
  40102c:	50                   	push   %eax
  40102d:	ff 75 f4             	push   -0xc(%ebp)
  401030:	e8 80 00 00 00       	call   4010b5 <kboot_read_mbinfo>
  401035:	83 c4 10             	add    $0x10,%esp
  401038:	83 ec 0c             	sub    $0xc,%esp
  40103b:	ff 75 f4             	push   -0xc(%ebp)
  40103e:	e8 7d 03 00 00       	call   4013c0 <kboot_tpg_identity>
  401043:	83 c4 10             	add    $0x10,%esp
  401046:	83 ec 0c             	sub    $0xc,%esp
  401049:	ff 75 f4             	push   -0xc(%ebp)
  40104c:	e8 d3 03 00 00       	call   401424 <kboot_tpg_map_kernel>
  401051:	83 c4 10             	add    $0x10,%esp
  401054:	8b 45 f4             	mov    -0xc(%ebp),%eax
  401057:	8b 80 24 03 00 00    	mov    0x324(%eax),%eax
  40105d:	83 ec 0c             	sub    $0xc,%esp
  401060:	50                   	push   %eax
  401061:	e8 9f 05 00 00       	call   401605 <tpg_write_cr3>
  401066:	83 c4 10             	add    $0x10,%esp
  401069:	e8 97 04 00 00       	call   401505 <kboot_tpg_enable_paging>
  40106e:	8b 45 f4             	mov    -0xc(%ebp),%eax
  401071:	c9                   	leave
  401072:	c3                   	ret

00401073 <kboot_panic>:
  401073:	55                   	push   %ebp
  401074:	89 e5                	mov    %esp,%ebp
  401076:	83 ec 10             	sub    $0x10,%esp
  401079:	c7 45 fc 00 80 0b 00 	movl   $0xb8000,-0x4(%ebp)
  401080:	eb 1f                	jmp    4010a1 <kboot_panic+0x2e>
  401082:	8b 45 08             	mov    0x8(%ebp),%eax
  401085:	0f b6 00             	movzbl (%eax),%eax
  401088:	66 98                	cbtw
  40108a:	80 cc 0f             	or     $0xf,%ah
  40108d:	89 c1                	mov    %eax,%ecx
  40108f:	8b 45 fc             	mov    -0x4(%ebp),%eax
  401092:	8d 50 02             	lea    0x2(%eax),%edx
  401095:	89 55 fc             	mov    %edx,-0x4(%ebp)
  401098:	89 ca                	mov    %ecx,%edx
  40109a:	66 89 10             	mov    %dx,(%eax)
  40109d:	83 45 08 01          	addl   $0x1,0x8(%ebp)
  4010a1:	83 7d 08 00          	cmpl   $0x0,0x8(%ebp)
  4010a5:	74 0c                	je     4010b3 <kboot_panic+0x40>
  4010a7:	8b 45 08             	mov    0x8(%ebp),%eax
  4010aa:	0f b6 00             	movzbl (%eax),%eax
  4010ad:	84 c0                	test   %al,%al
  4010af:	75 d1                	jne    401082 <kboot_panic+0xf>
  4010b1:	eb 00                	jmp    4010b3 <kboot_panic+0x40>
  4010b3:	eb fe                	jmp    4010b3 <kboot_panic+0x40>

004010b5 <kboot_read_mbinfo>:
  4010b5:	55                   	push   %ebp
  4010b6:	89 e5                	mov    %esp,%ebp
  4010b8:	53                   	push   %ebx
  4010b9:	83 ec 14             	sub    $0x14,%esp
  4010bc:	8b 45 08             	mov    0x8(%ebp),%eax
  4010bf:	c7 00 00 00 00 00    	movl   $0x0,(%eax)
  4010c5:	8b 45 08             	mov    0x8(%ebp),%eax
  4010c8:	c7 80 24 03 00 00 00 	movl   $0x404000,0x324(%eax)
  4010cf:	40 40 00 
  4010d2:	8b 45 08             	mov    0x8(%ebp),%eax
  4010d5:	c7 80 28 03 00 00 00 	movl   $0x0,0x328(%eax)
  4010dc:	00 00 00 
  4010df:	ba 00 00 40 f0       	mov    $0xf0400000,%edx
  4010e4:	8b 45 08             	mov    0x8(%ebp),%eax
  4010e7:	89 50 04             	mov    %edx,0x4(%eax)
  4010ea:	ba 00 50 40 f0       	mov    $0xf0405000,%edx
  4010ef:	8b 45 08             	mov    0x8(%ebp),%eax
  4010f2:	89 50 08             	mov    %edx,0x8(%eax)
  4010f5:	ba 49 24 41 f0       	mov    $0xf0412449,%edx
  4010fa:	8b 45 08             	mov    0x8(%ebp),%eax
  4010fd:	89 50 0c             	mov    %edx,0xc(%eax)
  401100:	ba 10 00 40 00       	mov    $0x400010,%edx
  401105:	8b 45 08             	mov    0x8(%ebp),%eax
  401108:	89 50 10             	mov    %edx,0x10(%eax)
  40110b:	ba 00 50 40 00       	mov    $0x405000,%edx
  401110:	b8 10 00 40 00       	mov    $0x400010,%eax
  401115:	29 c2                	sub    %eax,%edx
  401117:	8b 45 08             	mov    0x8(%ebp),%eax
  40111a:	89 50 14             	mov    %edx,0x14(%eax)
  40111d:	ba 49 24 01 00       	mov    $0x12449,%edx
  401122:	8b 45 08             	mov    0x8(%ebp),%eax
  401125:	8b 40 14             	mov    0x14(%eax),%eax
  401128:	29 c2                	sub    %eax,%edx
  40112a:	8b 45 08             	mov    0x8(%ebp),%eax
  40112d:	89 50 18             	mov    %edx,0x18(%eax)
  401130:	8b 45 08             	mov    0x8(%ebp),%eax
  401133:	c7 40 1c 00 00 00 00 	movl   $0x0,0x1c(%eax)
  40113a:	8b 45 08             	mov    0x8(%ebp),%eax
  40113d:	c7 80 20 03 00 00 00 	movl   $0x0,0x320(%eax)
  401144:	00 00 00 
  401147:	8b 45 0c             	mov    0xc(%ebp),%eax
  40114a:	8b 00                	mov    (%eax),%eax
  40114c:	83 e0 40             	and    $0x40,%eax
  40114f:	85 c0                	test   %eax,%eax
  401151:	74 73                	je     4011c6 <kboot_read_mbinfo+0x111>
  401153:	8b 45 0c             	mov    0xc(%ebp),%eax
  401156:	8b 40 30             	mov    0x30(%eax),%eax
  401159:	89 45 f4             	mov    %eax,-0xc(%ebp)
  40115c:	eb 51                	jmp    4011af <kboot_read_mbinfo+0xfa>
  40115e:	8b 45 f4             	mov    -0xc(%ebp),%eax
  401161:	8b 40 14             	mov    0x14(%eax),%eax
  401164:	83 f8 01             	cmp    $0x1,%eax
  401167:	74 12                	je     40117b <kboot_read_mbinfo+0xc6>
  401169:	8b 45 f4             	mov    -0xc(%ebp),%eax
  40116c:	8b 10                	mov    (%eax),%edx
  40116e:	8b 45 f4             	mov    -0xc(%ebp),%eax
  401171:	01 d0                	add    %edx,%eax
  401173:	83 c0 04             	add    $0x4,%eax
  401176:	89 45 f4             	mov    %eax,-0xc(%ebp)
  401179:	eb 34                	jmp    4011af <kboot_read_mbinfo+0xfa>
  40117b:	8b 45 f4             	mov    -0xc(%ebp),%eax
  40117e:	8b 48 0c             	mov    0xc(%eax),%ecx
  401181:	8b 58 10             	mov    0x10(%eax),%ebx
  401184:	8b 45 f4             	mov    -0xc(%ebp),%eax
  401187:	8b 50 08             	mov    0x8(%eax),%edx
  40118a:	8b 40 04             	mov    0x4(%eax),%eax
  40118d:	83 ec 0c             	sub    $0xc,%esp
  401190:	53                   	push   %ebx
  401191:	51                   	push   %ecx
  401192:	52                   	push   %edx
  401193:	50                   	push   %eax
  401194:	ff 75 08             	push   0x8(%ebp)
  401197:	e8 b8 00 00 00       	call   401254 <kboot_add_mmap>
  40119c:	83 c4 20             	add    $0x20,%esp
  40119f:	8b 45 f4             	mov    -0xc(%ebp),%eax
  4011a2:	8b 10                	mov    (%eax),%edx
  4011a4:	8b 45 f4             	mov    -0xc(%ebp),%eax
  4011a7:	01 d0                	add    %edx,%eax
  4011a9:	83 c0 04             	add    $0x4,%eax
  4011ac:	89 45 f4             	mov    %eax,-0xc(%ebp)
  4011af:	8b 45 0c             	mov    0xc(%ebp),%eax
  4011b2:	8b 50 30             	mov    0x30(%eax),%edx
  4011b5:	8b 45 0c             	mov    0xc(%ebp),%eax
  4011b8:	8b 40 2c             	mov    0x2c(%eax),%eax
  4011bb:	01 d0                	add    %edx,%eax
  4011bd:	8b 55 f4             	mov    -0xc(%ebp),%edx
  4011c0:	39 c2                	cmp    %eax,%edx
  4011c2:	72 9a                	jb     40115e <kboot_read_mbinfo+0xa9>
  4011c4:	eb 47                	jmp    40120d <kboot_read_mbinfo+0x158>
  4011c6:	8b 45 0c             	mov    0xc(%ebp),%eax
  4011c9:	8b 40 04             	mov    0x4(%eax),%eax
  4011cc:	c1 e0 0a             	shl    $0xa,%eax
  4011cf:	ba 00 00 00 00       	mov    $0x0,%edx
  4011d4:	83 ec 0c             	sub    $0xc,%esp
  4011d7:	52                   	push   %edx
  4011d8:	50                   	push   %eax
  4011d9:	6a 00                	push   $0x0
  4011db:	6a 00                	push   $0x0
  4011dd:	ff 75 08             	push   0x8(%ebp)
  4011e0:	e8 6f 00 00 00       	call   401254 <kboot_add_mmap>
  4011e5:	83 c4 20             	add    $0x20,%esp
  4011e8:	8b 45 0c             	mov    0xc(%ebp),%eax
  4011eb:	8b 40 08             	mov    0x8(%eax),%eax
  4011ee:	c1 e0 0a             	shl    $0xa,%eax
  4011f1:	ba 00 00 00 00       	mov    $0x0,%edx
  4011f6:	83 ec 0c             	sub    $0xc,%esp
  4011f9:	52                   	push   %edx
  4011fa:	50                   	push   %eax
  4011fb:	6a 00                	push   $0x0
  4011fd:	68 00 00 10 00       	push   $0x100000
  401202:	ff 75 08             	push   0x8(%ebp)
  401205:	e8 4a 00 00 00       	call   401254 <kboot_add_mmap>
  40120a:	83 c4 20             	add    $0x20,%esp
  40120d:	90                   	nop
  40120e:	8b 5d fc             	mov    -0x4(%ebp),%ebx
  401211:	c9                   	leave
  401212:	c3                   	ret

00401213 <kboot_round_up>:
  401213:	55                   	push   %ebp
  401214:	89 e5                	mov    %esp,%ebp
  401216:	8b 45 08             	mov    0x8(%ebp),%eax
  401219:	ba 00 00 00 00       	mov    $0x0,%edx
  40121e:	f7 75 0c             	divl   0xc(%ebp)
  401221:	89 d0                	mov    %edx,%eax
  401223:	85 c0                	test   %eax,%eax
  401225:	74 14                	je     40123b <kboot_round_up+0x28>
  401227:	8b 45 08             	mov    0x8(%ebp),%eax
  40122a:	ba 00 00 00 00       	mov    $0x0,%edx
  40122f:	f7 75 0c             	divl   0xc(%ebp)
  401232:	83 c0 01             	add    $0x1,%eax
  401235:	0f af 45 0c          	imul   0xc(%ebp),%eax
  401239:	eb 03                	jmp    40123e <kboot_round_up+0x2b>
  40123b:	8b 45 08             	mov    0x8(%ebp),%eax
  40123e:	5d                   	pop    %ebp
  40123f:	c3                   	ret

00401240 <kboot_round_down>:
  401240:	55                   	push   %ebp
  401241:	89 e5                	mov    %esp,%ebp
  401243:	8b 45 08             	mov    0x8(%ebp),%eax
  401246:	ba 00 00 00 00       	mov    $0x0,%edx
  40124b:	f7 75 0c             	divl   0xc(%ebp)
  40124e:	0f af 45 0c          	imul   0xc(%ebp),%eax
  401252:	5d                   	pop    %ebp
  401253:	c3                   	ret

00401254 <kboot_add_mmap>:
  401254:	55                   	push   %ebp
  401255:	89 e5                	mov    %esp,%ebp
  401257:	53                   	push   %ebx
  401258:	83 ec 24             	sub    $0x24,%esp
  40125b:	8b 45 0c             	mov    0xc(%ebp),%eax
  40125e:	89 45 e0             	mov    %eax,-0x20(%ebp)
  401261:	8b 45 10             	mov    0x10(%ebp),%eax
  401264:	89 45 e4             	mov    %eax,-0x1c(%ebp)
  401267:	8b 45 14             	mov    0x14(%ebp),%eax
  40126a:	89 45 d8             	mov    %eax,-0x28(%ebp)
  40126d:	8b 45 18             	mov    0x18(%ebp),%eax
  401270:	89 45 dc             	mov    %eax,-0x24(%ebp)
  401273:	ba 00 f0 ff ff       	mov    $0xfffff000,%edx
  401278:	b8 00 00 00 00       	mov    $0x0,%eax
  40127d:	3b 55 e0             	cmp    -0x20(%ebp),%edx
  401280:	1b 45 e4             	sbb    -0x1c(%ebp),%eax
  401283:	0f 82 2e 01 00 00    	jb     4013b7 <kboot_add_mmap+0x163>
  401289:	8b 4d e0             	mov    -0x20(%ebp),%ecx
  40128c:	8b 5d e4             	mov    -0x1c(%ebp),%ebx
  40128f:	8b 45 d8             	mov    -0x28(%ebp),%eax
  401292:	8b 55 dc             	mov    -0x24(%ebp),%edx
  401295:	01 c8                	add    %ecx,%eax
  401297:	11 da                	adc    %ebx,%edx
  401299:	bb 00 f0 ff ff       	mov    $0xfffff000,%ebx
  40129e:	b9 00 00 00 00       	mov    $0x0,%ecx
  4012a3:	39 c3                	cmp    %eax,%ebx
  4012a5:	19 d1                	sbb    %edx,%ecx
  4012a7:	73 28                	jae    4012d1 <kboot_add_mmap+0x7d>
  4012a9:	8b 4d e0             	mov    -0x20(%ebp),%ecx
  4012ac:	8b 5d e4             	mov    -0x1c(%ebp),%ebx
  4012af:	8b 45 d8             	mov    -0x28(%ebp),%eax
  4012b2:	8b 55 dc             	mov    -0x24(%ebp),%edx
  4012b5:	01 c1                	add    %eax,%ecx
  4012b7:	11 d3                	adc    %edx,%ebx
  4012b9:	8b 45 d8             	mov    -0x28(%ebp),%eax
  4012bc:	8b 55 dc             	mov    -0x24(%ebp),%edx
  4012bf:	29 c8                	sub    %ecx,%eax
  4012c1:	19 da                	sbb    %ebx,%edx
  4012c3:	05 00 f0 ff ff       	add    $0xfffff000,%eax
  4012c8:	83 d2 00             	adc    $0x0,%edx
  4012cb:	89 45 d8             	mov    %eax,-0x28(%ebp)
  4012ce:	89 55 dc             	mov    %edx,-0x24(%ebp)
  4012d1:	8b 45 d8             	mov    -0x28(%ebp),%eax
  4012d4:	0b 45 dc             	or     -0x24(%ebp),%eax
  4012d7:	0f 84 dd 00 00 00    	je     4013ba <kboot_add_mmap+0x166>
  4012dd:	8b 45 e0             	mov    -0x20(%ebp),%eax
  4012e0:	68 00 10 00 00       	push   $0x1000
  4012e5:	50                   	push   %eax
  4012e6:	e8 28 ff ff ff       	call   401213 <kboot_round_up>
  4012eb:	83 c4 08             	add    $0x8,%esp
  4012ee:	89 45 e0             	mov    %eax,-0x20(%ebp)
  4012f1:	c7 45 e4 00 00 00 00 	movl   $0x0,-0x1c(%ebp)
  4012f8:	8b 45 e0             	mov    -0x20(%ebp),%eax
  4012fb:	68 00 10 00 00       	push   $0x1000
  401300:	50                   	push   %eax
  401301:	e8 3a ff ff ff       	call   401240 <kboot_round_down>
  401306:	83 c4 08             	add    $0x8,%esp
  401309:	89 45 d8             	mov    %eax,-0x28(%ebp)
  40130c:	c7 45 dc 00 00 00 00 	movl   $0x0,-0x24(%ebp)
  401313:	8b 45 08             	mov    0x8(%ebp),%eax
  401316:	8b 80 20 03 00 00    	mov    0x320(%eax),%eax
  40131c:	8d 48 01             	lea    0x1(%eax),%ecx
  40131f:	8b 55 08             	mov    0x8(%ebp),%edx
  401322:	89 8a 20 03 00 00    	mov    %ecx,0x320(%edx)
  401328:	89 45 f4             	mov    %eax,-0xc(%ebp)
  40132b:	83 7d f4 1f          	cmpl   $0x1f,-0xc(%ebp)
  40132f:	76 0d                	jbe    40133e <kboot_add_mmap+0xea>
  401331:	68 cc 71 40 f0       	push   $0xf04071cc
  401336:	e8 38 fd ff ff       	call   401073 <kboot_panic>
  40133b:	83 c4 04             	add    $0x4,%esp
  40133e:	8b 4d 08             	mov    0x8(%ebp),%ecx
  401341:	8b 55 f4             	mov    -0xc(%ebp),%edx
  401344:	89 d0                	mov    %edx,%eax
  401346:	01 c0                	add    %eax,%eax
  401348:	01 d0                	add    %edx,%eax
  40134a:	c1 e0 03             	shl    $0x3,%eax
  40134d:	01 c8                	add    %ecx,%eax
  40134f:	8d 48 20             	lea    0x20(%eax),%ecx
  401352:	8b 45 e0             	mov    -0x20(%ebp),%eax
  401355:	8b 55 e4             	mov    -0x1c(%ebp),%edx
  401358:	89 41 04             	mov    %eax,0x4(%ecx)
  40135b:	89 51 08             	mov    %edx,0x8(%ecx)
  40135e:	8b 4d 08             	mov    0x8(%ebp),%ecx
  401361:	8b 55 f4             	mov    -0xc(%ebp),%edx
  401364:	89 d0                	mov    %edx,%eax
  401366:	01 c0                	add    %eax,%eax
  401368:	01 d0                	add    %edx,%eax
  40136a:	c1 e0 03             	shl    $0x3,%eax
  40136d:	01 c8                	add    %ecx,%eax
  40136f:	8d 48 20             	lea    0x20(%eax),%ecx
  401372:	8b 45 d8             	mov    -0x28(%ebp),%eax
  401375:	8b 55 dc             	mov    -0x24(%ebp),%edx
  401378:	89 41 0c             	mov    %eax,0xc(%ecx)
  40137b:	89 51 10             	mov    %edx,0x10(%ecx)
  40137e:	8b 4d 08             	mov    0x8(%ebp),%ecx
  401381:	8b 55 f4             	mov    -0xc(%ebp),%edx
  401384:	89 d0                	mov    %edx,%eax
  401386:	01 c0                	add    %eax,%eax
  401388:	01 d0                	add    %edx,%eax
  40138a:	c1 e0 03             	shl    $0x3,%eax
  40138d:	01 c8                	add    %ecx,%eax
  40138f:	83 c0 34             	add    $0x34,%eax
  401392:	c7 00 01 00 00 00    	movl   $0x1,(%eax)
  401398:	8b 55 e0             	mov    -0x20(%ebp),%edx
  40139b:	8b 45 d8             	mov    -0x28(%ebp),%eax
  40139e:	01 d0                	add    %edx,%eax
  4013a0:	89 45 f0             	mov    %eax,-0x10(%ebp)
  4013a3:	8b 45 08             	mov    0x8(%ebp),%eax
  4013a6:	8b 00                	mov    (%eax),%eax
  4013a8:	3b 45 f0             	cmp    -0x10(%ebp),%eax
  4013ab:	73 0e                	jae    4013bb <kboot_add_mmap+0x167>
  4013ad:	8b 45 08             	mov    0x8(%ebp),%eax
  4013b0:	8b 55 f0             	mov    -0x10(%ebp),%edx
  4013b3:	89 10                	mov    %edx,(%eax)
  4013b5:	eb 04                	jmp    4013bb <kboot_add_mmap+0x167>
  4013b7:	90                   	nop
  4013b8:	eb 01                	jmp    4013bb <kboot_add_mmap+0x167>
  4013ba:	90                   	nop
  4013bb:	8b 5d fc             	mov    -0x4(%ebp),%ebx
  4013be:	c9                   	leave
  4013bf:	c3                   	ret

004013c0 <kboot_tpg_identity>:
  4013c0:	55                   	push   %ebp
  4013c1:	89 e5                	mov    %esp,%ebp
  4013c3:	83 ec 10             	sub    $0x10,%esp
  4013c6:	c7 45 fc 00 00 00 00 	movl   $0x0,-0x4(%ebp)
  4013cd:	eb 48                	jmp    401417 <kboot_tpg_identity+0x57>
  4013cf:	c7 45 f8 87 00 00 00 	movl   $0x87,-0x8(%ebp)
  4013d6:	8b 45 fc             	mov    -0x4(%ebp),%eax
  4013d9:	c1 e0 16             	shl    $0x16,%eax
  4013dc:	89 45 f4             	mov    %eax,-0xc(%ebp)
  4013df:	8b 45 08             	mov    0x8(%ebp),%eax
  4013e2:	8b 00                	mov    (%eax),%eax
  4013e4:	25 00 00 c0 ff       	and    $0xffc00000,%eax
  4013e9:	8b 55 f4             	mov    -0xc(%ebp),%edx
  4013ec:	81 e2 00 00 c0 ff    	and    $0xffc00000,%edx
  4013f2:	39 c2                	cmp    %eax,%edx
  4013f4:	72 04                	jb     4013fa <kboot_tpg_identity+0x3a>
  4013f6:	83 4d f8 18          	orl    $0x18,-0x8(%ebp)
  4013fa:	8b 45 08             	mov    0x8(%ebp),%eax
  4013fd:	8b 80 24 03 00 00    	mov    0x324(%eax),%eax
  401403:	8b 55 fc             	mov    -0x4(%ebp),%edx
  401406:	c1 e2 02             	shl    $0x2,%edx
  401409:	01 c2                	add    %eax,%edx
  40140b:	8b 45 f4             	mov    -0xc(%ebp),%eax
  40140e:	0b 45 f8             	or     -0x8(%ebp),%eax
  401411:	89 02                	mov    %eax,(%edx)
  401413:	83 45 fc 01          	addl   $0x1,-0x4(%ebp)
  401417:	81 7d fc ff 03 00 00 	cmpl   $0x3ff,-0x4(%ebp)
  40141e:	76 af                	jbe    4013cf <kboot_tpg_identity+0xf>
  401420:	90                   	nop
  401421:	90                   	nop
  401422:	c9                   	leave
  401423:	c3                   	ret

00401424 <kboot_tpg_map_kernel>:
  401424:	55                   	push   %ebp
  401425:	89 e5                	mov    %esp,%ebp
  401427:	83 ec 10             	sub    $0x10,%esp
  40142a:	c7 45 fc 00 00 00 00 	movl   $0x0,-0x4(%ebp)
  401431:	c7 45 f8 00 00 40 00 	movl   $0x400000,-0x8(%ebp)
  401438:	b8 00 00 40 f0       	mov    $0xf0400000,%eax
  40143d:	c1 e8 16             	shr    $0x16,%eax
  401440:	89 45 f4             	mov    %eax,-0xc(%ebp)
  401443:	eb 2b                	jmp    401470 <kboot_tpg_map_kernel+0x4c>
  401445:	8b 45 08             	mov    0x8(%ebp),%eax
  401448:	8b 80 24 03 00 00    	mov    0x324(%eax),%eax
  40144e:	8b 55 f4             	mov    -0xc(%ebp),%edx
  401451:	c1 e2 02             	shl    $0x2,%edx
  401454:	01 d0                	add    %edx,%eax
  401456:	8b 55 f8             	mov    -0x8(%ebp),%edx
  401459:	80 ca 83             	or     $0x83,%dl
  40145c:	89 10                	mov    %edx,(%eax)
  40145e:	81 45 fc 00 00 40 00 	addl   $0x400000,-0x4(%ebp)
  401465:	81 45 f8 00 00 40 00 	addl   $0x400000,-0x8(%ebp)
  40146c:	83 45 f4 01          	addl   $0x1,-0xc(%ebp)
  401470:	b8 49 24 01 00       	mov    $0x12449,%eax
  401475:	39 45 fc             	cmp    %eax,-0x4(%ebp)
  401478:	72 cb                	jb     401445 <kboot_tpg_map_kernel+0x21>
  40147a:	8b 45 08             	mov    0x8(%ebp),%eax
  40147d:	8b 55 f4             	mov    -0xc(%ebp),%edx
  401480:	89 90 28 03 00 00    	mov    %edx,0x328(%eax)
  401486:	90                   	nop
  401487:	c9                   	leave
  401488:	c3                   	ret

00401489 <kboot_tpg_check_cpuf>:
  401489:	55                   	push   %ebp
  40148a:	89 e5                	mov    %esp,%ebp
  40148c:	83 ec 28             	sub    $0x28,%esp
  40148f:	c7 45 f0 00 00 00 00 	movl   $0x0,-0x10(%ebp)
  401496:	8d 45 e4             	lea    -0x1c(%ebp),%eax
  401499:	50                   	push   %eax
  40149a:	8d 45 e8             	lea    -0x18(%ebp),%eax
  40149d:	50                   	push   %eax
  40149e:	8d 45 ec             	lea    -0x14(%ebp),%eax
  4014a1:	50                   	push   %eax
  4014a2:	8d 45 f0             	lea    -0x10(%ebp),%eax
  4014a5:	50                   	push   %eax
  4014a6:	e8 74 01 00 00       	call   40161f <tpg_cpuid>
  4014ab:	83 c4 10             	add    $0x10,%esp
  4014ae:	8b 45 f0             	mov    -0x10(%ebp),%eax
  4014b1:	85 c0                	test   %eax,%eax
  4014b3:	75 07                	jne    4014bc <kboot_tpg_check_cpuf+0x33>
  4014b5:	b8 00 00 00 00       	mov    $0x0,%eax
  4014ba:	eb 47                	jmp    401503 <kboot_tpg_check_cpuf+0x7a>
  4014bc:	c7 45 f0 01 00 00 00 	movl   $0x1,-0x10(%ebp)
  4014c3:	8d 45 e4             	lea    -0x1c(%ebp),%eax
  4014c6:	50                   	push   %eax
  4014c7:	8d 45 e8             	lea    -0x18(%ebp),%eax
  4014ca:	50                   	push   %eax
  4014cb:	8d 45 ec             	lea    -0x14(%ebp),%eax
  4014ce:	50                   	push   %eax
  4014cf:	8d 45 f0             	lea    -0x10(%ebp),%eax
  4014d2:	50                   	push   %eax
  4014d3:	e8 47 01 00 00       	call   40161f <tpg_cpuid>
  4014d8:	83 c4 10             	add    $0x10,%esp
  4014db:	c7 45 f4 00 00 00 00 	movl   $0x0,-0xc(%ebp)
  4014e2:	8b 45 e8             	mov    -0x18(%ebp),%eax
  4014e5:	25 00 20 00 00       	and    $0x2000,%eax
  4014ea:	85 c0                	test   %eax,%eax
  4014ec:	74 04                	je     4014f2 <kboot_tpg_check_cpuf+0x69>
  4014ee:	83 4d f4 02          	orl    $0x2,-0xc(%ebp)
  4014f2:	8b 45 e8             	mov    -0x18(%ebp),%eax
  4014f5:	83 e0 40             	and    $0x40,%eax
  4014f8:	85 c0                	test   %eax,%eax
  4014fa:	74 04                	je     401500 <kboot_tpg_check_cpuf+0x77>
  4014fc:	83 4d f4 01          	orl    $0x1,-0xc(%ebp)
  401500:	8b 45 f4             	mov    -0xc(%ebp),%eax
  401503:	c9                   	leave
  401504:	c3                   	ret

00401505 <kboot_tpg_enable_paging>:
  401505:	55                   	push   %ebp
  401506:	89 e5                	mov    %esp,%ebp
  401508:	83 ec 18             	sub    $0x18,%esp
  40150b:	e8 79 ff ff ff       	call   401489 <kboot_tpg_check_cpuf>
  401510:	89 45 f0             	mov    %eax,-0x10(%ebp)
  401513:	e8 c8 00 00 00       	call   4015e0 <tpg_read_cr0>
  401518:	89 45 ec             	mov    %eax,-0x14(%ebp)
  40151b:	e8 d0 00 00 00       	call   4015f0 <tpg_read_cr4>
  401520:	89 45 f4             	mov    %eax,-0xc(%ebp)
  401523:	8b 45 ec             	mov    -0x14(%ebp),%eax
  401526:	25 ff ff ff 7f       	and    $0x7fffffff,%eax
  40152b:	83 ec 0c             	sub    $0xc,%esp
  40152e:	50                   	push   %eax
  40152f:	e8 c4 00 00 00       	call   4015f8 <tpg_write_cr0>
  401534:	83 c4 10             	add    $0x10,%esp
  401537:	8b 45 f4             	mov    -0xc(%ebp),%eax
  40153a:	24 6f                	and    $0x6f,%al
  40153c:	83 ec 0c             	sub    $0xc,%esp
  40153f:	50                   	push   %eax
  401540:	e8 cd 00 00 00       	call   401612 <tpg_write_cr4>
  401545:	83 c4 10             	add    $0x10,%esp
  401548:	e8 93 00 00 00       	call   4015e0 <tpg_read_cr0>
  40154d:	89 45 ec             	mov    %eax,-0x14(%ebp)
  401550:	e8 9b 00 00 00       	call   4015f0 <tpg_read_cr4>
  401555:	89 45 f4             	mov    %eax,-0xc(%ebp)
  401558:	83 4d f4 10          	orl    $0x10,-0xc(%ebp)
  40155c:	83 ec 0c             	sub    $0xc,%esp
  40155f:	ff 75 f4             	push   -0xc(%ebp)
  401562:	e8 ab 00 00 00       	call   401612 <tpg_write_cr4>
  401567:	83 c4 10             	add    $0x10,%esp
  40156a:	81 4d ec 00 00 00 80 	orl    $0x80000000,-0x14(%ebp)
  401571:	83 ec 0c             	sub    $0xc,%esp
  401574:	ff 75 ec             	push   -0x14(%ebp)
  401577:	e8 7c 00 00 00       	call   4015f8 <tpg_write_cr0>
  40157c:	83 c4 10             	add    $0x10,%esp
  40157f:	81 4d ec 00 00 01 00 	orl    $0x10000,-0x14(%ebp)
  401586:	83 ec 0c             	sub    $0xc,%esp
  401589:	ff 75 ec             	push   -0x14(%ebp)
  40158c:	e8 67 00 00 00       	call   4015f8 <tpg_write_cr0>
  401591:	83 c4 10             	add    $0x10,%esp
  401594:	8b 45 f0             	mov    -0x10(%ebp),%eax
  401597:	83 e0 02             	and    $0x2,%eax
  40159a:	85 c0                	test   %eax,%eax
  40159c:	74 07                	je     4015a5 <kboot_tpg_enable_paging+0xa0>
  40159e:	81 4d f4 80 00 00 00 	orl    $0x80,-0xc(%ebp)
  4015a5:	83 ec 0c             	sub    $0xc,%esp
  4015a8:	ff 75 f4             	push   -0xc(%ebp)
  4015ab:	e8 62 00 00 00       	call   401612 <tpg_write_cr4>
  4015b0:	83 c4 10             	add    $0x10,%esp
  4015b3:	90                   	nop
  4015b4:	c9                   	leave
  4015b5:	c3                   	ret
  4015b6:	66 90                	xchg   %ax,%ax
  4015b8:	66 90                	xchg   %ax,%ax
  4015ba:	66 90                	xchg   %ax,%ax
  4015bc:	66 90                	xchg   %ax,%ax
  4015be:	66 90                	xchg   %ax,%ax

004015c0 <_start>:
  4015c0:	fa                   	cli
  4015c1:	bc 00 24 40 00       	mov    $0x402400,%esp
  4015c6:	89 e5                	mov    %esp,%ebp
  4015c8:	53                   	push   %ebx
  4015c9:	50                   	push   %eax
  4015ca:	e8 31 fa ff ff       	call   401000 <kboot>
  4015cf:	83 c4 08             	add    $0x8,%esp
  4015d2:	e9 89 3a 00 f0       	jmp    f0405060 <__karch_init>
  4015d7:	66 90                	xchg   %ax,%ax
  4015d9:	66 90                	xchg   %ax,%ax
  4015db:	66 90                	xchg   %ax,%ax
  4015dd:	66 90                	xchg   %ax,%ax
  4015df:	90                   	nop

004015e0 <tpg_read_cr0>:
  4015e0:	55                   	push   %ebp
  4015e1:	89 e5                	mov    %esp,%ebp
  4015e3:	0f 20 c0             	mov    %cr0,%eax
  4015e6:	5d                   	pop    %ebp
  4015e7:	c3                   	ret

004015e8 <tpg_read_cr3>:
  4015e8:	55                   	push   %ebp
  4015e9:	89 e5                	mov    %esp,%ebp
  4015eb:	0f 20 d8             	mov    %cr3,%eax
  4015ee:	5d                   	pop    %ebp
  4015ef:	c3                   	ret

004015f0 <tpg_read_cr4>:
  4015f0:	55                   	push   %ebp
  4015f1:	89 e5                	mov    %esp,%ebp
  4015f3:	0f 20 e0             	mov    %cr4,%eax
  4015f6:	5d                   	pop    %ebp
  4015f7:	c3                   	ret

004015f8 <tpg_write_cr0>:
  4015f8:	55                   	push   %ebp
  4015f9:	89 e5                	mov    %esp,%ebp
  4015fb:	8b 45 08             	mov    0x8(%ebp),%eax
  4015fe:	0f 22 c0             	mov    %eax,%cr0
  401601:	eb 00                	jmp    401603 <tpg_write_cr0.done>

00401603 <tpg_write_cr0.done>:
  401603:	5d                   	pop    %ebp
  401604:	c3                   	ret

00401605 <tpg_write_cr3>:
  401605:	55                   	push   %ebp
  401606:	89 e5                	mov    %esp,%ebp
  401608:	8b 45 08             	mov    0x8(%ebp),%eax
  40160b:	0f 22 d8             	mov    %eax,%cr3
  40160e:	eb 00                	jmp    401610 <tpg_write_cr3.done>

00401610 <tpg_write_cr3.done>:
  401610:	5d                   	pop    %ebp
  401611:	c3                   	ret

00401612 <tpg_write_cr4>:
  401612:	55                   	push   %ebp
  401613:	89 e5                	mov    %esp,%ebp
  401615:	8b 45 08             	mov    0x8(%ebp),%eax
  401618:	0f 22 e0             	mov    %eax,%cr4
  40161b:	eb 00                	jmp    40161d <tpg_write_cr4.done>

0040161d <tpg_write_cr4.done>:
  40161d:	5d                   	pop    %ebp
  40161e:	c3                   	ret

0040161f <tpg_cpuid>:
  40161f:	55                   	push   %ebp
  401620:	53                   	push   %ebx
  401621:	8b 6c 24 0c          	mov    0xc(%esp),%ebp
  401625:	8b 45 00             	mov    0x0(%ebp),%eax
  401628:	8b 6c 24 10          	mov    0x10(%esp),%ebp
  40162c:	8b 5d 00             	mov    0x0(%ebp),%ebx
  40162f:	8b 6c 24 14          	mov    0x14(%esp),%ebp
  401633:	8b 4d 00             	mov    0x0(%ebp),%ecx
  401636:	8b 6c 24 18          	mov    0x18(%esp),%ebp
  40163a:	8b 55 00             	mov    0x0(%ebp),%edx
  40163d:	0f a2                	cpuid
  40163f:	8b 6c 24 0c          	mov    0xc(%esp),%ebp
  401643:	89 45 00             	mov    %eax,0x0(%ebp)
  401646:	8b 6c 24 10          	mov    0x10(%esp),%ebp
  40164a:	89 5d 00             	mov    %ebx,0x0(%ebp)
  40164d:	8b 6c 24 14          	mov    0x14(%esp),%ebp
  401651:	89 4d 00             	mov    %ecx,0x0(%ebp)
  401654:	8b 6c 24 18          	mov    0x18(%esp),%ebp
  401658:	89 55 00             	mov    %edx,0x0(%ebp)
  40165b:	5b                   	pop    %ebx
  40165c:	5d                   	pop    %ebp
  40165d:	c3                   	ret

Disassembly of section .unpaged.bss:

00402000 <_kstack_head>:
	...

00402400 <_kstack_tail>:
	...

00403000 <temp_bootinfo>:
	...

00404000 <pagedir>:
	...

Disassembly of section .text:

f0405000 <karch_init>:
f0405000:	55                   	push   %ebp
f0405001:	89 e5                	mov    %esp,%ebp
f0405003:	83 ec 08             	sub    $0x8,%esp
f0405006:	83 ec 04             	sub    $0x4,%esp
f0405009:	68 2c 03 00 00       	push   $0x32c
f040500e:	ff 75 08             	push   0x8(%ebp)
f0405011:	68 00 10 41 f0       	push   $0xf0411000
f0405016:	e8 bf 15 00 00       	call   f04065da <kmemcpy>
f040501b:	83 c4 10             	add    $0x10,%esp
f040501e:	e8 9e 08 00 00       	call   f04058c1 <karch_init_gdt>
f0405023:	e8 b1 12 00 00       	call   f04062d9 <karch_init_tss>
f0405028:	e8 2d 09 00 00       	call   f040595a <karch_flush_gdt>
f040502d:	e8 a9 10 00 00       	call   f04060db <karch_init_idt>
f0405032:	e8 39 0d 00 00       	call   f0405d70 <karch_init_i8259>
f0405037:	e8 62 07 00 00       	call   f040579e <karch_init_except>
f040503c:	e8 cd 10 00 00       	call   f040610e <karch_flush_idt>
f0405041:	83 ec 0c             	sub    $0xc,%esp
f0405044:	68 00 10 41 f0       	push   $0xf0411000
f0405049:	e8 88 11 00 00       	call   f04061d6 <karch_init_page>
f040504e:	83 c4 10             	add    $0x10,%esp
f0405051:	90                   	nop
f0405052:	c9                   	leave
f0405053:	c3                   	ret
f0405054:	66 90                	xchg   %ax,%ax
f0405056:	66 90                	xchg   %ax,%ax
f0405058:	66 90                	xchg   %ax,%ax
f040505a:	66 90                	xchg   %ax,%ax
f040505c:	66 90                	xchg   %ax,%ax
f040505e:	66 90                	xchg   %ax,%ax

f0405060 <__karch_init>:
f0405060:	bc 00 d0 40 f0       	mov    $0xf040d000,%esp
f0405065:	89 e5                	mov    %esp,%ebp
f0405067:	6a 00                	push   $0x0
f0405069:	50                   	push   %eax
f040506a:	e8 91 ff ff ff       	call   f0405000 <karch_init>
f040506f:	bb 00 90 40 f0       	mov    $0xf0409000,%ebx
f0405074:	eb 05                	jmp    f040507b <__karch_init.p2>

f0405076 <__karch_init.p1>:
f0405076:	ff 13                	call   *(%ebx)
f0405078:	83 c3 04             	add    $0x4,%ebx

f040507b <__karch_init.p2>:
f040507b:	81 fb 00 90 40 f0    	cmp    $0xf0409000,%ebx
f0405081:	72 f3                	jb     f0405076 <__karch_init.p1>
f0405083:	e8 ee 16 00 00       	call   f0406776 <kmain>

f0405088 <__karch_init.hang>:
f0405088:	f4                   	hlt
f0405089:	eb fd                	jmp    f0405088 <__karch_init.hang>

f040508b <kcpuinfo>:
f040508b:	55                   	push   %ebp
f040508c:	89 e5                	mov    %esp,%ebp
f040508e:	83 ec 38             	sub    $0x38,%esp
f0405091:	83 7d 08 00          	cmpl   $0x0,0x8(%ebp)
f0405095:	75 0a                	jne    f04050a1 <kcpuinfo+0x16>
f0405097:	b8 00 00 00 00       	mov    $0x0,%eax
f040509c:	e9 60 02 00 00       	jmp    f0405301 <kcpuinfo+0x276>
f04050a1:	c7 45 e4 00 00 00 00 	movl   $0x0,-0x1c(%ebp)
f04050a8:	c7 45 d4 00 00 00 00 	movl   $0x0,-0x2c(%ebp)
f04050af:	c7 45 d0 00 00 00 00 	movl   $0x0,-0x30(%ebp)
f04050b6:	c7 45 cc 00 00 00 00 	movl   $0x0,-0x34(%ebp)
f04050bd:	c7 45 c8 00 00 00 00 	movl   $0x0,-0x38(%ebp)
f04050c4:	8d 45 d8             	lea    -0x28(%ebp),%eax
f04050c7:	50                   	push   %eax
f04050c8:	8d 45 dc             	lea    -0x24(%ebp),%eax
f04050cb:	50                   	push   %eax
f04050cc:	8d 45 e0             	lea    -0x20(%ebp),%eax
f04050cf:	50                   	push   %eax
f04050d0:	8d 45 e4             	lea    -0x1c(%ebp),%eax
f04050d3:	50                   	push   %eax
f04050d4:	e8 82 02 00 00       	call   f040535b <read_cpuid>
f04050d9:	83 c4 10             	add    $0x10,%esp
f04050dc:	8b 45 e4             	mov    -0x1c(%ebp),%eax
f04050df:	85 c0                	test   %eax,%eax
f04050e1:	75 0a                	jne    f04050ed <kcpuinfo+0x62>
f04050e3:	b8 00 00 00 00       	mov    $0x0,%eax
f04050e8:	e9 14 02 00 00       	jmp    f0405301 <kcpuinfo+0x276>
f04050ed:	a1 00 80 40 f0       	mov    0xf0408000,%eax
f04050f2:	8b 10                	mov    (%eax),%edx
f04050f4:	8b 45 d8             	mov    -0x28(%ebp),%eax
f04050f7:	39 c2                	cmp    %eax,%edx
f04050f9:	0f 94 c0             	sete   %al
f04050fc:	88 45 ef             	mov    %al,-0x11(%ebp)
f04050ff:	a1 04 80 40 f0       	mov    0xf0408004,%eax
f0405104:	8b 10                	mov    (%eax),%edx
f0405106:	8b 45 d8             	mov    -0x28(%ebp),%eax
f0405109:	39 c2                	cmp    %eax,%edx
f040510b:	0f 94 c0             	sete   %al
f040510e:	88 45 ee             	mov    %al,-0x12(%ebp)
f0405111:	c7 45 e4 01 00 00 00 	movl   $0x1,-0x1c(%ebp)
f0405118:	8d 45 d8             	lea    -0x28(%ebp),%eax
f040511b:	50                   	push   %eax
f040511c:	8d 45 dc             	lea    -0x24(%ebp),%eax
f040511f:	50                   	push   %eax
f0405120:	8d 45 e0             	lea    -0x20(%ebp),%eax
f0405123:	50                   	push   %eax
f0405124:	8d 45 e4             	lea    -0x1c(%ebp),%eax
f0405127:	50                   	push   %eax
f0405128:	e8 2e 02 00 00       	call   f040535b <read_cpuid>
f040512d:	83 c4 10             	add    $0x10,%esp
f0405130:	8b 45 e4             	mov    -0x1c(%ebp),%eax
f0405133:	83 e0 0f             	and    $0xf,%eax
f0405136:	89 45 e8             	mov    %eax,-0x18(%ebp)
f0405139:	8b 45 e4             	mov    -0x1c(%ebp),%eax
f040513c:	c1 e8 04             	shr    $0x4,%eax
f040513f:	83 e0 0f             	and    $0xf,%eax
f0405142:	89 45 f4             	mov    %eax,-0xc(%ebp)
f0405145:	83 7d f4 0f          	cmpl   $0xf,-0xc(%ebp)
f0405149:	74 06                	je     f0405151 <kcpuinfo+0xc6>
f040514b:	83 7d f4 06          	cmpl   $0x6,-0xc(%ebp)
f040514f:	75 0f                	jne    f0405160 <kcpuinfo+0xd5>
f0405151:	8b 45 e4             	mov    -0x1c(%ebp),%eax
f0405154:	c1 e8 10             	shr    $0x10,%eax
f0405157:	c1 e0 04             	shl    $0x4,%eax
f040515a:	0f b6 c0             	movzbl %al,%eax
f040515d:	01 45 f4             	add    %eax,-0xc(%ebp)
f0405160:	8b 45 e4             	mov    -0x1c(%ebp),%eax
f0405163:	c1 e8 08             	shr    $0x8,%eax
f0405166:	83 e0 0f             	and    $0xf,%eax
f0405169:	89 45 f0             	mov    %eax,-0x10(%ebp)
f040516c:	83 7d f0 0f          	cmpl   $0xf,-0x10(%ebp)
f0405170:	75 0c                	jne    f040517e <kcpuinfo+0xf3>
f0405172:	8b 45 e4             	mov    -0x1c(%ebp),%eax
f0405175:	c1 e8 14             	shr    $0x14,%eax
f0405178:	0f b6 c0             	movzbl %al,%eax
f040517b:	01 45 f0             	add    %eax,-0x10(%ebp)
f040517e:	80 7d ee 00          	cmpb   $0x0,-0x12(%ebp)
f0405182:	74 1f                	je     f04051a3 <kcpuinfo+0x118>
f0405184:	c7 45 d4 01 00 00 80 	movl   $0x80000001,-0x2c(%ebp)
f040518b:	8d 45 cc             	lea    -0x34(%ebp),%eax
f040518e:	50                   	push   %eax
f040518f:	8d 45 c8             	lea    -0x38(%ebp),%eax
f0405192:	50                   	push   %eax
f0405193:	8d 45 d0             	lea    -0x30(%ebp),%eax
f0405196:	50                   	push   %eax
f0405197:	8d 45 d4             	lea    -0x2c(%ebp),%eax
f040519a:	50                   	push   %eax
f040519b:	e8 bb 01 00 00       	call   f040535b <read_cpuid>
f04051a0:	83 c4 10             	add    $0x10,%esp
f04051a3:	83 7d 08 12          	cmpl   $0x12,0x8(%ebp)
f04051a7:	0f 87 4f 01 00 00    	ja     f04052fc <kcpuinfo+0x271>
f04051ad:	8b 45 08             	mov    0x8(%ebp),%eax
f04051b0:	c1 e0 02             	shl    $0x2,%eax
f04051b3:	05 0c 70 40 f0       	add    $0xf040700c,%eax
f04051b8:	8b 00                	mov    (%eax),%eax
f04051ba:	ff e0                	jmp    *%eax
f04051bc:	8b 45 dc             	mov    -0x24(%ebp),%eax
f04051bf:	83 e0 08             	and    $0x8,%eax
f04051c2:	e9 3a 01 00 00       	jmp    f0405301 <kcpuinfo+0x276>
f04051c7:	8b 45 dc             	mov    -0x24(%ebp),%eax
f04051ca:	83 e0 40             	and    $0x40,%eax
f04051cd:	e9 2f 01 00 00       	jmp    f0405301 <kcpuinfo+0x276>
f04051d2:	8b 45 dc             	mov    -0x24(%ebp),%eax
f04051d5:	25 00 02 00 00       	and    $0x200,%eax
f04051da:	e9 22 01 00 00       	jmp    f0405301 <kcpuinfo+0x276>
f04051df:	8b 45 dc             	mov    -0x24(%ebp),%eax
f04051e2:	83 e0 10             	and    $0x10,%eax
f04051e5:	e9 17 01 00 00       	jmp    f0405301 <kcpuinfo+0x276>
f04051ea:	8b 45 dc             	mov    -0x24(%ebp),%eax
f04051ed:	83 e0 01             	and    $0x1,%eax
f04051f0:	e9 0c 01 00 00       	jmp    f0405301 <kcpuinfo+0x276>
f04051f5:	8b 45 dc             	mov    -0x24(%ebp),%eax
f04051f8:	25 00 00 00 07       	and    $0x7000000,%eax
f04051fd:	3d 00 00 00 07       	cmp    $0x7000000,%eax
f0405202:	75 19                	jne    f040521d <kcpuinfo+0x192>
f0405204:	8b 45 d8             	mov    -0x28(%ebp),%eax
f0405207:	25 01 02 18 00       	and    $0x180201,%eax
f040520c:	3d 01 02 18 00       	cmp    $0x180201,%eax
f0405211:	75 0a                	jne    f040521d <kcpuinfo+0x192>
f0405213:	b8 01 00 00 00       	mov    $0x1,%eax
f0405218:	e9 e4 00 00 00       	jmp    f0405301 <kcpuinfo+0x276>
f040521d:	b8 00 00 00 00       	mov    $0x0,%eax
f0405222:	e9 da 00 00 00       	jmp    f0405301 <kcpuinfo+0x276>
f0405227:	8b 45 dc             	mov    -0x24(%ebp),%eax
f040522a:	25 00 00 00 01       	and    $0x1000000,%eax
f040522f:	e9 cd 00 00 00       	jmp    f0405301 <kcpuinfo+0x276>
f0405234:	8b 45 dc             	mov    -0x24(%ebp),%eax
f0405237:	25 00 00 00 02       	and    $0x2000000,%eax
f040523c:	e9 c0 00 00 00       	jmp    f0405301 <kcpuinfo+0x276>
f0405241:	8b 45 dc             	mov    -0x24(%ebp),%eax
f0405244:	25 00 00 00 04       	and    $0x4000000,%eax
f0405249:	e9 b3 00 00 00       	jmp    f0405301 <kcpuinfo+0x276>
f040524e:	8b 45 d8             	mov    -0x28(%ebp),%eax
f0405251:	83 e0 01             	and    $0x1,%eax
f0405254:	e9 a8 00 00 00       	jmp    f0405301 <kcpuinfo+0x276>
f0405259:	8b 45 d8             	mov    -0x28(%ebp),%eax
f040525c:	25 00 02 00 00       	and    $0x200,%eax
f0405261:	e9 9b 00 00 00       	jmp    f0405301 <kcpuinfo+0x276>
f0405266:	8b 45 d8             	mov    -0x28(%ebp),%eax
f0405269:	25 00 00 08 00       	and    $0x80000,%eax
f040526e:	e9 8e 00 00 00       	jmp    f0405301 <kcpuinfo+0x276>
f0405273:	8b 45 d8             	mov    -0x28(%ebp),%eax
f0405276:	25 00 00 10 00       	and    $0x100000,%eax
f040527b:	e9 81 00 00 00       	jmp    f0405301 <kcpuinfo+0x276>
f0405280:	8b 45 dc             	mov    -0x24(%ebp),%eax
f0405283:	25 00 00 00 10       	and    $0x10000000,%eax
f0405288:	eb 77                	jmp    f0405301 <kcpuinfo+0x276>
f040528a:	8b 45 e0             	mov    -0x20(%ebp),%eax
f040528d:	c1 e8 10             	shr    $0x10,%eax
f0405290:	0f b6 c0             	movzbl %al,%eax
f0405293:	eb 6c                	jmp    f0405301 <kcpuinfo+0x276>
f0405295:	80 7d ef 00          	cmpb   $0x0,-0x11(%ebp)
f0405299:	75 07                	jne    f04052a2 <kcpuinfo+0x217>
f040529b:	b8 00 00 00 00       	mov    $0x0,%eax
f04052a0:	eb 5f                	jmp    f0405301 <kcpuinfo+0x276>
f04052a2:	8b 45 dc             	mov    -0x24(%ebp),%eax
f04052a5:	25 00 08 00 00       	and    $0x800,%eax
f04052aa:	85 c0                	test   %eax,%eax
f04052ac:	75 07                	jne    f04052b5 <kcpuinfo+0x22a>
f04052ae:	b8 00 00 00 00       	mov    $0x0,%eax
f04052b3:	eb 4c                	jmp    f0405301 <kcpuinfo+0x276>
f04052b5:	83 7d f0 06          	cmpl   $0x6,-0x10(%ebp)
f04052b9:	75 13                	jne    f04052ce <kcpuinfo+0x243>
f04052bb:	83 7d f4 02          	cmpl   $0x2,-0xc(%ebp)
f04052bf:	77 0d                	ja     f04052ce <kcpuinfo+0x243>
f04052c1:	83 7d e8 02          	cmpl   $0x2,-0x18(%ebp)
f04052c5:	77 07                	ja     f04052ce <kcpuinfo+0x243>
f04052c7:	b8 00 00 00 00       	mov    $0x0,%eax
f04052cc:	eb 33                	jmp    f0405301 <kcpuinfo+0x276>
f04052ce:	b8 01 00 00 00       	mov    $0x1,%eax
f04052d3:	eb 2c                	jmp    f0405301 <kcpuinfo+0x276>
f04052d5:	80 7d ee 00          	cmpb   $0x0,-0x12(%ebp)
f04052d9:	75 07                	jne    f04052e2 <kcpuinfo+0x257>
f04052db:	b8 00 00 00 00       	mov    $0x0,%eax
f04052e0:	eb 1f                	jmp    f0405301 <kcpuinfo+0x276>
f04052e2:	8b 45 cc             	mov    -0x34(%ebp),%eax
f04052e5:	25 00 08 00 00       	and    $0x800,%eax
f04052ea:	85 c0                	test   %eax,%eax
f04052ec:	75 07                	jne    f04052f5 <kcpuinfo+0x26a>
f04052ee:	b8 00 00 00 00       	mov    $0x0,%eax
f04052f3:	eb 0c                	jmp    f0405301 <kcpuinfo+0x276>
f04052f5:	b8 01 00 00 00       	mov    $0x1,%eax
f04052fa:	eb 05                	jmp    f0405301 <kcpuinfo+0x276>
f04052fc:	b8 00 00 00 00       	mov    $0x0,%eax
f0405301:	c9                   	leave
f0405302:	c3                   	ret
f0405303:	66 90                	xchg   %ax,%ax
f0405305:	66 90                	xchg   %ax,%ax
f0405307:	66 90                	xchg   %ax,%ax
f0405309:	66 90                	xchg   %ax,%ax
f040530b:	66 90                	xchg   %ax,%ax
f040530d:	66 90                	xchg   %ax,%ax
f040530f:	90                   	nop

f0405310 <read_cr0>:
f0405310:	55                   	push   %ebp
f0405311:	89 e5                	mov    %esp,%ebp
f0405313:	0f 20 c0             	mov    %cr0,%eax
f0405316:	89 ec                	mov    %ebp,%esp
f0405318:	5d                   	pop    %ebp
f0405319:	c3                   	ret

f040531a <read_cr3>:
f040531a:	55                   	push   %ebp
f040531b:	89 e5                	mov    %esp,%ebp
f040531d:	0f 20 d8             	mov    %cr3,%eax
f0405320:	89 ec                	mov    %ebp,%esp
f0405322:	5d                   	pop    %ebp
f0405323:	c3                   	ret

f0405324 <read_cr4>:
f0405324:	55                   	push   %ebp
f0405325:	89 e5                	mov    %esp,%ebp
f0405327:	0f 20 e0             	mov    %cr4,%eax
f040532a:	89 ec                	mov    %ebp,%esp
f040532c:	5d                   	pop    %ebp
f040532d:	c3                   	ret

f040532e <write_cr0>:
f040532e:	55                   	push   %ebp
f040532f:	89 e5                	mov    %esp,%ebp
f0405331:	8b 45 08             	mov    0x8(%ebp),%eax
f0405334:	0f 22 c0             	mov    %eax,%cr0
f0405337:	eb 00                	jmp    f0405339 <write_cr0.done>

f0405339 <write_cr0.done>:
f0405339:	89 ec                	mov    %ebp,%esp
f040533b:	5d                   	pop    %ebp
f040533c:	c3                   	ret

f040533d <write_cr3>:
f040533d:	55                   	push   %ebp
f040533e:	89 e5                	mov    %esp,%ebp
f0405340:	8b 45 08             	mov    0x8(%ebp),%eax
f0405343:	0f 22 d8             	mov    %eax,%cr3
f0405346:	eb 00                	jmp    f0405348 <write_cr3.done>

f0405348 <write_cr3.done>:
f0405348:	89 ec                	mov    %ebp,%esp
f040534a:	5d                   	pop    %ebp
f040534b:	c3                   	ret

f040534c <write_cr4>:
f040534c:	55                   	push   %ebp
f040534d:	89 e5                	mov    %esp,%ebp
f040534f:	8b 45 08             	mov    0x8(%ebp),%eax
f0405352:	0f 22 e0             	mov    %eax,%cr4
f0405355:	eb 00                	jmp    f0405357 <write_cr4.done>

f0405357 <write_cr4.done>:
f0405357:	89 ec                	mov    %ebp,%esp
f0405359:	5d                   	pop    %ebp
f040535a:	c3                   	ret

f040535b <read_cpuid>:
f040535b:	55                   	push   %ebp
f040535c:	53                   	push   %ebx
f040535d:	8b 6c 24 0c          	mov    0xc(%esp),%ebp
f0405361:	8b 45 00             	mov    0x0(%ebp),%eax
f0405364:	8b 6c 24 10          	mov    0x10(%esp),%ebp
f0405368:	8b 5d 00             	mov    0x0(%ebp),%ebx
f040536b:	8b 6c 24 14          	mov    0x14(%esp),%ebp
f040536f:	8b 4d 00             	mov    0x0(%ebp),%ecx
f0405372:	8b 6c 24 18          	mov    0x18(%esp),%ebp
f0405376:	8b 55 00             	mov    0x0(%ebp),%edx
f0405379:	0f a2                	cpuid
f040537b:	8b 6c 24 0c          	mov    0xc(%esp),%ebp
f040537f:	89 45 00             	mov    %eax,0x0(%ebp)
f0405382:	8b 6c 24 10          	mov    0x10(%esp),%ebp
f0405386:	89 5d 00             	mov    %ebx,0x0(%ebp)
f0405389:	8b 6c 24 14          	mov    0x14(%esp),%ebp
f040538d:	89 4d 00             	mov    %ecx,0x0(%ebp)
f0405390:	8b 6c 24 18          	mov    0x18(%esp),%ebp
f0405394:	89 55 00             	mov    %edx,0x0(%ebp)
f0405397:	5b                   	pop    %ebx
f0405398:	5d                   	pop    %ebp
f0405399:	c3                   	ret

f040539a <read_msr>:
f040539a:	55                   	push   %ebp
f040539b:	89 e5                	mov    %esp,%ebp
f040539d:	8b 4d 08             	mov    0x8(%ebp),%ecx
f04053a0:	0f 32                	rdmsr
f04053a2:	8b 4d 0c             	mov    0xc(%ebp),%ecx
f04053a5:	89 11                	mov    %edx,(%ecx)
f04053a7:	8b 4d 10             	mov    0x10(%ebp),%ecx
f04053aa:	89 01                	mov    %eax,(%ecx)
f04053ac:	89 ec                	mov    %ebp,%esp
f04053ae:	5d                   	pop    %ebp
f04053af:	c3                   	ret

f04053b0 <write_msr>:
f04053b0:	55                   	push   %ebp
f04053b1:	89 e5                	mov    %esp,%ebp
f04053b3:	8b 55 0c             	mov    0xc(%ebp),%edx
f04053b6:	8b 45 10             	mov    0x10(%ebp),%eax
f04053b9:	8b 4d 08             	mov    0x8(%ebp),%ecx
f04053bc:	0f 30                	wrmsr
f04053be:	89 ec                	mov    %ebp,%esp
f04053c0:	5d                   	pop    %ebp
f04053c1:	c3                   	ret

f04053c2 <load_gdt>:
f04053c2:	55                   	push   %ebp
f04053c3:	89 e5                	mov    %esp,%ebp
f04053c5:	8b 45 08             	mov    0x8(%ebp),%eax
f04053c8:	0f 01 10             	lgdtl  (%eax)
f04053cb:	89 ec                	mov    %ebp,%esp
f04053cd:	5d                   	pop    %ebp
f04053ce:	c3                   	ret

f04053cf <load_idt>:
f04053cf:	55                   	push   %ebp
f04053d0:	89 e5                	mov    %esp,%ebp
f04053d2:	8b 45 08             	mov    0x8(%ebp),%eax
f04053d5:	0f 01 18             	lidtl  (%eax)
f04053d8:	89 ec                	mov    %ebp,%esp
f04053da:	5d                   	pop    %ebp
f04053db:	c3                   	ret

f04053dc <cpu_hlt>:
f04053dc:	f4                   	hlt
f04053dd:	c3                   	ret

f04053de <cpu_cli>:
f04053de:	fa                   	cli
f04053df:	c3                   	ret

f04053e0 <cpu_sti>:
f04053e0:	fb                   	sti
f04053e1:	c3                   	ret

f04053e2 <cpu_stihlt>:
f04053e2:	fb                   	sti
f04053e3:	f4                   	hlt
f04053e4:	c3                   	ret

f04053e5 <cpu_in8>:
f04053e5:	55                   	push   %ebp
f04053e6:	89 e5                	mov    %esp,%ebp
f04053e8:	52                   	push   %edx
f04053e9:	8b 55 08             	mov    0x8(%ebp),%edx
f04053ec:	b8 00 00 00 00       	mov    $0x0,%eax
f04053f1:	ec                   	in     (%dx),%al
f04053f2:	5a                   	pop    %edx
f04053f3:	89 ec                	mov    %ebp,%esp
f04053f5:	5d                   	pop    %ebp
f04053f6:	c3                   	ret

f04053f7 <cpu_in16>:
f04053f7:	55                   	push   %ebp
f04053f8:	89 e5                	mov    %esp,%ebp
f04053fa:	52                   	push   %edx
f04053fb:	8b 55 08             	mov    0x8(%ebp),%edx
f04053fe:	b8 00 00 00 00       	mov    $0x0,%eax
f0405403:	66 ed                	in     (%dx),%ax
f0405405:	5a                   	pop    %edx
f0405406:	89 ec                	mov    %ebp,%esp
f0405408:	5d                   	pop    %ebp
f0405409:	c3                   	ret

f040540a <cpu_in32>:
f040540a:	55                   	push   %ebp
f040540b:	89 e5                	mov    %esp,%ebp
f040540d:	52                   	push   %edx
f040540e:	8b 55 08             	mov    0x8(%ebp),%edx
f0405411:	b8 00 00 00 00       	mov    $0x0,%eax
f0405416:	ed                   	in     (%dx),%eax
f0405417:	5a                   	pop    %edx
f0405418:	89 ec                	mov    %ebp,%esp
f040541a:	5d                   	pop    %ebp
f040541b:	c3                   	ret

f040541c <cpu_out8>:
f040541c:	55                   	push   %ebp
f040541d:	89 e5                	mov    %esp,%ebp
f040541f:	52                   	push   %edx
f0405420:	8b 55 08             	mov    0x8(%ebp),%edx
f0405423:	8a 45 0c             	mov    0xc(%ebp),%al
f0405426:	ee                   	out    %al,(%dx)
f0405427:	5a                   	pop    %edx
f0405428:	89 ec                	mov    %ebp,%esp
f040542a:	5d                   	pop    %ebp
f040542b:	c3                   	ret

f040542c <cpu_out16>:
f040542c:	55                   	push   %ebp
f040542d:	89 e5                	mov    %esp,%ebp
f040542f:	52                   	push   %edx
f0405430:	8b 55 08             	mov    0x8(%ebp),%edx
f0405433:	66 8b 45 0c          	mov    0xc(%ebp),%ax
f0405437:	66 ef                	out    %ax,(%dx)
f0405439:	5a                   	pop    %edx
f040543a:	89 ec                	mov    %ebp,%esp
f040543c:	5d                   	pop    %ebp
f040543d:	c3                   	ret

f040543e <cpu_out32>:
f040543e:	55                   	push   %ebp
f040543f:	89 e5                	mov    %esp,%ebp
f0405441:	52                   	push   %edx
f0405442:	8b 55 08             	mov    0x8(%ebp),%edx
f0405445:	8b 45 0c             	mov    0xc(%ebp),%eax
f0405448:	ef                   	out    %eax,(%dx)
f0405449:	5a                   	pop    %edx
f040544a:	89 ec                	mov    %ebp,%esp
f040544c:	5d                   	pop    %ebp
f040544d:	c3                   	ret
f040544e:	66 90                	xchg   %ax,%ax

f0405450 <karch_except_00>:
f0405450:	55                   	push   %ebp
f0405451:	53                   	push   %ebx
f0405452:	50                   	push   %eax
f0405453:	89 e5                	mov    %esp,%ebp
f0405455:	83 7d 10 08          	cmpl   $0x8,0x10(%ebp)
f0405459:	74 1d                	je     f0405478 <karch_except_00.kern>
f040545b:	bb 00 00 00 00       	mov    $0x0,%ebx

f0405460 <karch_except_00.all>:
f0405460:	89 e8                	mov    %ebp,%eax
f0405462:	83 e8 0c             	sub    $0xc,%eax
f0405465:	50                   	push   %eax
f0405466:	53                   	push   %ebx
f0405467:	b8 00 00 00 00       	mov    $0x0,%eax
f040546c:	50                   	push   %eax
f040546d:	e8 03 04 00 00       	call   f0405875 <karch_except>
f0405472:	89 ec                	mov    %ebp,%esp
f0405474:	58                   	pop    %eax
f0405475:	5b                   	pop    %ebx
f0405476:	5d                   	pop    %ebp
f0405477:	cf                   	iret

f0405478 <karch_except_00.kern>:
f0405478:	bb 01 00 00 00       	mov    $0x1,%ebx
f040547d:	eb e1                	jmp    f0405460 <karch_except_00.all>

f040547f <karch_except_01>:
f040547f:	55                   	push   %ebp
f0405480:	53                   	push   %ebx
f0405481:	50                   	push   %eax
f0405482:	89 e5                	mov    %esp,%ebp
f0405484:	83 7d 10 08          	cmpl   $0x8,0x10(%ebp)
f0405488:	74 1d                	je     f04054a7 <karch_except_01.kern>
f040548a:	bb 00 00 00 00       	mov    $0x0,%ebx

f040548f <karch_except_01.all>:
f040548f:	89 e8                	mov    %ebp,%eax
f0405491:	83 e8 0c             	sub    $0xc,%eax
f0405494:	50                   	push   %eax
f0405495:	53                   	push   %ebx
f0405496:	b8 01 00 00 00       	mov    $0x1,%eax
f040549b:	50                   	push   %eax
f040549c:	e8 d4 03 00 00       	call   f0405875 <karch_except>
f04054a1:	89 ec                	mov    %ebp,%esp
f04054a3:	58                   	pop    %eax
f04054a4:	5b                   	pop    %ebx
f04054a5:	5d                   	pop    %ebp
f04054a6:	cf                   	iret

f04054a7 <karch_except_01.kern>:
f04054a7:	bb 01 00 00 00       	mov    $0x1,%ebx
f04054ac:	eb e1                	jmp    f040548f <karch_except_01.all>

f04054ae <karch_except_02>:
f04054ae:	55                   	push   %ebp
f04054af:	53                   	push   %ebx
f04054b0:	50                   	push   %eax
f04054b1:	89 e5                	mov    %esp,%ebp
f04054b3:	83 7d 10 08          	cmpl   $0x8,0x10(%ebp)
f04054b7:	74 1d                	je     f04054d6 <karch_except_02.kern>
f04054b9:	bb 00 00 00 00       	mov    $0x0,%ebx

f04054be <karch_except_02.all>:
f04054be:	89 e8                	mov    %ebp,%eax
f04054c0:	83 e8 0c             	sub    $0xc,%eax
f04054c3:	50                   	push   %eax
f04054c4:	53                   	push   %ebx
f04054c5:	b8 02 00 00 00       	mov    $0x2,%eax
f04054ca:	50                   	push   %eax
f04054cb:	e8 a5 03 00 00       	call   f0405875 <karch_except>
f04054d0:	89 ec                	mov    %ebp,%esp
f04054d2:	58                   	pop    %eax
f04054d3:	5b                   	pop    %ebx
f04054d4:	5d                   	pop    %ebp
f04054d5:	cf                   	iret

f04054d6 <karch_except_02.kern>:
f04054d6:	bb 01 00 00 00       	mov    $0x1,%ebx
f04054db:	eb e1                	jmp    f04054be <karch_except_02.all>

f04054dd <karch_except_03>:
f04054dd:	55                   	push   %ebp
f04054de:	53                   	push   %ebx
f04054df:	50                   	push   %eax
f04054e0:	89 e5                	mov    %esp,%ebp
f04054e2:	83 7d 10 08          	cmpl   $0x8,0x10(%ebp)
f04054e6:	74 1d                	je     f0405505 <karch_except_03.kern>
f04054e8:	bb 00 00 00 00       	mov    $0x0,%ebx

f04054ed <karch_except_03.all>:
f04054ed:	89 e8                	mov    %ebp,%eax
f04054ef:	83 e8 0c             	sub    $0xc,%eax
f04054f2:	50                   	push   %eax
f04054f3:	53                   	push   %ebx
f04054f4:	b8 03 00 00 00       	mov    $0x3,%eax
f04054f9:	50                   	push   %eax
f04054fa:	e8 76 03 00 00       	call   f0405875 <karch_except>
f04054ff:	89 ec                	mov    %ebp,%esp
f0405501:	58                   	pop    %eax
f0405502:	5b                   	pop    %ebx
f0405503:	5d                   	pop    %ebp
f0405504:	cf                   	iret

f0405505 <karch_except_03.kern>:
f0405505:	bb 01 00 00 00       	mov    $0x1,%ebx
f040550a:	eb e1                	jmp    f04054ed <karch_except_03.all>

f040550c <karch_except_04>:
f040550c:	55                   	push   %ebp
f040550d:	53                   	push   %ebx
f040550e:	50                   	push   %eax
f040550f:	89 e5                	mov    %esp,%ebp
f0405511:	83 7d 10 08          	cmpl   $0x8,0x10(%ebp)
f0405515:	74 1d                	je     f0405534 <karch_except_04.kern>
f0405517:	bb 00 00 00 00       	mov    $0x0,%ebx

f040551c <karch_except_04.all>:
f040551c:	89 e8                	mov    %ebp,%eax
f040551e:	83 e8 0c             	sub    $0xc,%eax
f0405521:	50                   	push   %eax
f0405522:	53                   	push   %ebx
f0405523:	b8 04 00 00 00       	mov    $0x4,%eax
f0405528:	50                   	push   %eax
f0405529:	e8 47 03 00 00       	call   f0405875 <karch_except>
f040552e:	89 ec                	mov    %ebp,%esp
f0405530:	58                   	pop    %eax
f0405531:	5b                   	pop    %ebx
f0405532:	5d                   	pop    %ebp
f0405533:	cf                   	iret

f0405534 <karch_except_04.kern>:
f0405534:	bb 01 00 00 00       	mov    $0x1,%ebx
f0405539:	eb e1                	jmp    f040551c <karch_except_04.all>

f040553b <karch_except_05>:
f040553b:	55                   	push   %ebp
f040553c:	53                   	push   %ebx
f040553d:	50                   	push   %eax
f040553e:	89 e5                	mov    %esp,%ebp
f0405540:	83 7d 10 08          	cmpl   $0x8,0x10(%ebp)
f0405544:	74 1d                	je     f0405563 <karch_except_05.kern>
f0405546:	bb 00 00 00 00       	mov    $0x0,%ebx

f040554b <karch_except_05.all>:
f040554b:	89 e8                	mov    %ebp,%eax
f040554d:	83 e8 0c             	sub    $0xc,%eax
f0405550:	50                   	push   %eax
f0405551:	53                   	push   %ebx
f0405552:	b8 05 00 00 00       	mov    $0x5,%eax
f0405557:	50                   	push   %eax
f0405558:	e8 18 03 00 00       	call   f0405875 <karch_except>
f040555d:	89 ec                	mov    %ebp,%esp
f040555f:	58                   	pop    %eax
f0405560:	5b                   	pop    %ebx
f0405561:	5d                   	pop    %ebp
f0405562:	cf                   	iret

f0405563 <karch_except_05.kern>:
f0405563:	bb 01 00 00 00       	mov    $0x1,%ebx
f0405568:	eb e1                	jmp    f040554b <karch_except_05.all>

f040556a <karch_except_06>:
f040556a:	55                   	push   %ebp
f040556b:	53                   	push   %ebx
f040556c:	50                   	push   %eax
f040556d:	89 e5                	mov    %esp,%ebp
f040556f:	83 7d 10 08          	cmpl   $0x8,0x10(%ebp)
f0405573:	74 1d                	je     f0405592 <karch_except_06.kern>
f0405575:	bb 00 00 00 00       	mov    $0x0,%ebx

f040557a <karch_except_06.all>:
f040557a:	89 e8                	mov    %ebp,%eax
f040557c:	83 e8 0c             	sub    $0xc,%eax
f040557f:	50                   	push   %eax
f0405580:	53                   	push   %ebx
f0405581:	b8 06 00 00 00       	mov    $0x6,%eax
f0405586:	50                   	push   %eax
f0405587:	e8 e9 02 00 00       	call   f0405875 <karch_except>
f040558c:	89 ec                	mov    %ebp,%esp
f040558e:	58                   	pop    %eax
f040558f:	5b                   	pop    %ebx
f0405590:	5d                   	pop    %ebp
f0405591:	cf                   	iret

f0405592 <karch_except_06.kern>:
f0405592:	bb 01 00 00 00       	mov    $0x1,%ebx
f0405597:	eb e1                	jmp    f040557a <karch_except_06.all>

f0405599 <karch_except_07>:
f0405599:	55                   	push   %ebp
f040559a:	53                   	push   %ebx
f040559b:	50                   	push   %eax
f040559c:	89 e5                	mov    %esp,%ebp
f040559e:	83 7d 10 08          	cmpl   $0x8,0x10(%ebp)
f04055a2:	74 1d                	je     f04055c1 <karch_except_07.kern>
f04055a4:	bb 00 00 00 00       	mov    $0x0,%ebx

f04055a9 <karch_except_07.all>:
f04055a9:	89 e8                	mov    %ebp,%eax
f04055ab:	83 e8 0c             	sub    $0xc,%eax
f04055ae:	50                   	push   %eax
f04055af:	53                   	push   %ebx
f04055b0:	b8 07 00 00 00       	mov    $0x7,%eax
f04055b5:	50                   	push   %eax
f04055b6:	e8 ba 02 00 00       	call   f0405875 <karch_except>
f04055bb:	89 ec                	mov    %ebp,%esp
f04055bd:	58                   	pop    %eax
f04055be:	5b                   	pop    %ebx
f04055bf:	5d                   	pop    %ebp
f04055c0:	cf                   	iret

f04055c1 <karch_except_07.kern>:
f04055c1:	bb 01 00 00 00       	mov    $0x1,%ebx
f04055c6:	eb e1                	jmp    f04055a9 <karch_except_07.all>

f04055c8 <karch_except_08>:
f04055c8:	55                   	push   %ebp
f04055c9:	53                   	push   %ebx
f04055ca:	50                   	push   %eax
f04055cb:	89 e5                	mov    %esp,%ebp
f04055cd:	83 7d 10 08          	cmpl   $0x8,0x10(%ebp)
f04055d1:	74 1d                	je     f04055f0 <karch_except_08.kern>
f04055d3:	bb 00 00 00 00       	mov    $0x0,%ebx

f04055d8 <karch_except_08.all>:
f04055d8:	89 e8                	mov    %ebp,%eax
f04055da:	83 e8 0c             	sub    $0xc,%eax
f04055dd:	50                   	push   %eax
f04055de:	53                   	push   %ebx
f04055df:	b8 08 00 00 00       	mov    $0x8,%eax
f04055e4:	50                   	push   %eax
f04055e5:	e8 8b 02 00 00       	call   f0405875 <karch_except>
f04055ea:	89 ec                	mov    %ebp,%esp
f04055ec:	58                   	pop    %eax
f04055ed:	5b                   	pop    %ebx
f04055ee:	5d                   	pop    %ebp
f04055ef:	cf                   	iret

f04055f0 <karch_except_08.kern>:
f04055f0:	bb 01 00 00 00       	mov    $0x1,%ebx
f04055f5:	eb e1                	jmp    f04055d8 <karch_except_08.all>

f04055f7 <karch_except_09>:
f04055f7:	55                   	push   %ebp
f04055f8:	53                   	push   %ebx
f04055f9:	50                   	push   %eax
f04055fa:	89 e5                	mov    %esp,%ebp
f04055fc:	83 7d 10 08          	cmpl   $0x8,0x10(%ebp)
f0405600:	74 1d                	je     f040561f <karch_except_09.kern>
f0405602:	bb 00 00 00 00       	mov    $0x0,%ebx

f0405607 <karch_except_09.all>:
f0405607:	89 e8                	mov    %ebp,%eax
f0405609:	83 e8 0c             	sub    $0xc,%eax
f040560c:	50                   	push   %eax
f040560d:	53                   	push   %ebx
f040560e:	b8 09 00 00 00       	mov    $0x9,%eax
f0405613:	50                   	push   %eax
f0405614:	e8 5c 02 00 00       	call   f0405875 <karch_except>
f0405619:	89 ec                	mov    %ebp,%esp
f040561b:	58                   	pop    %eax
f040561c:	5b                   	pop    %ebx
f040561d:	5d                   	pop    %ebp
f040561e:	cf                   	iret

f040561f <karch_except_09.kern>:
f040561f:	bb 01 00 00 00       	mov    $0x1,%ebx
f0405624:	eb e1                	jmp    f0405607 <karch_except_09.all>

f0405626 <karch_except_10>:
f0405626:	55                   	push   %ebp
f0405627:	53                   	push   %ebx
f0405628:	50                   	push   %eax
f0405629:	89 e5                	mov    %esp,%ebp
f040562b:	83 7d 10 08          	cmpl   $0x8,0x10(%ebp)
f040562f:	74 1d                	je     f040564e <karch_except_10.kern>
f0405631:	bb 00 00 00 00       	mov    $0x0,%ebx

f0405636 <karch_except_10.all>:
f0405636:	89 e8                	mov    %ebp,%eax
f0405638:	83 e8 0c             	sub    $0xc,%eax
f040563b:	50                   	push   %eax
f040563c:	53                   	push   %ebx
f040563d:	b8 0a 00 00 00       	mov    $0xa,%eax
f0405642:	50                   	push   %eax
f0405643:	e8 2d 02 00 00       	call   f0405875 <karch_except>
f0405648:	89 ec                	mov    %ebp,%esp
f040564a:	58                   	pop    %eax
f040564b:	5b                   	pop    %ebx
f040564c:	5d                   	pop    %ebp
f040564d:	cf                   	iret

f040564e <karch_except_10.kern>:
f040564e:	bb 01 00 00 00       	mov    $0x1,%ebx
f0405653:	eb e1                	jmp    f0405636 <karch_except_10.all>

f0405655 <karch_except_11>:
f0405655:	55                   	push   %ebp
f0405656:	53                   	push   %ebx
f0405657:	50                   	push   %eax
f0405658:	89 e5                	mov    %esp,%ebp
f040565a:	83 7d 10 08          	cmpl   $0x8,0x10(%ebp)
f040565e:	74 1d                	je     f040567d <karch_except_11.kern>
f0405660:	bb 00 00 00 00       	mov    $0x0,%ebx

f0405665 <karch_except_11.all>:
f0405665:	89 e8                	mov    %ebp,%eax
f0405667:	83 e8 0c             	sub    $0xc,%eax
f040566a:	50                   	push   %eax
f040566b:	53                   	push   %ebx
f040566c:	b8 0b 00 00 00       	mov    $0xb,%eax
f0405671:	50                   	push   %eax
f0405672:	e8 fe 01 00 00       	call   f0405875 <karch_except>
f0405677:	89 ec                	mov    %ebp,%esp
f0405679:	58                   	pop    %eax
f040567a:	5b                   	pop    %ebx
f040567b:	5d                   	pop    %ebp
f040567c:	cf                   	iret

f040567d <karch_except_11.kern>:
f040567d:	bb 01 00 00 00       	mov    $0x1,%ebx
f0405682:	eb e1                	jmp    f0405665 <karch_except_11.all>

f0405684 <karch_except_12>:
f0405684:	55                   	push   %ebp
f0405685:	53                   	push   %ebx
f0405686:	50                   	push   %eax
f0405687:	89 e5                	mov    %esp,%ebp
f0405689:	83 7d 10 08          	cmpl   $0x8,0x10(%ebp)
f040568d:	74 1d                	je     f04056ac <karch_except_12.kern>
f040568f:	bb 00 00 00 00       	mov    $0x0,%ebx

f0405694 <karch_except_12.all>:
f0405694:	89 e8                	mov    %ebp,%eax
f0405696:	83 e8 0c             	sub    $0xc,%eax
f0405699:	50                   	push   %eax
f040569a:	53                   	push   %ebx
f040569b:	b8 0c 00 00 00       	mov    $0xc,%eax
f04056a0:	50                   	push   %eax
f04056a1:	e8 cf 01 00 00       	call   f0405875 <karch_except>
f04056a6:	89 ec                	mov    %ebp,%esp
f04056a8:	58                   	pop    %eax
f04056a9:	5b                   	pop    %ebx
f04056aa:	5d                   	pop    %ebp
f04056ab:	cf                   	iret

f04056ac <karch_except_12.kern>:
f04056ac:	bb 01 00 00 00       	mov    $0x1,%ebx
f04056b1:	eb e1                	jmp    f0405694 <karch_except_12.all>

f04056b3 <karch_except_13>:
f04056b3:	55                   	push   %ebp
f04056b4:	53                   	push   %ebx
f04056b5:	50                   	push   %eax
f04056b6:	89 e5                	mov    %esp,%ebp
f04056b8:	83 7d 10 08          	cmpl   $0x8,0x10(%ebp)
f04056bc:	74 1d                	je     f04056db <karch_except_13.kern>
f04056be:	bb 00 00 00 00       	mov    $0x0,%ebx

f04056c3 <karch_except_13.all>:
f04056c3:	89 e8                	mov    %ebp,%eax
f04056c5:	83 e8 0c             	sub    $0xc,%eax
f04056c8:	50                   	push   %eax
f04056c9:	53                   	push   %ebx
f04056ca:	b8 0d 00 00 00       	mov    $0xd,%eax
f04056cf:	50                   	push   %eax
f04056d0:	e8 a0 01 00 00       	call   f0405875 <karch_except>
f04056d5:	89 ec                	mov    %ebp,%esp
f04056d7:	58                   	pop    %eax
f04056d8:	5b                   	pop    %ebx
f04056d9:	5d                   	pop    %ebp
f04056da:	cf                   	iret

f04056db <karch_except_13.kern>:
f04056db:	bb 01 00 00 00       	mov    $0x1,%ebx
f04056e0:	eb e1                	jmp    f04056c3 <karch_except_13.all>

f04056e2 <karch_except_14>:
f04056e2:	55                   	push   %ebp
f04056e3:	53                   	push   %ebx
f04056e4:	50                   	push   %eax
f04056e5:	89 e5                	mov    %esp,%ebp
f04056e7:	83 7d 10 08          	cmpl   $0x8,0x10(%ebp)
f04056eb:	74 1d                	je     f040570a <karch_except_14.kern>
f04056ed:	bb 00 00 00 00       	mov    $0x0,%ebx

f04056f2 <karch_except_14.all>:
f04056f2:	89 e8                	mov    %ebp,%eax
f04056f4:	83 e8 0c             	sub    $0xc,%eax
f04056f7:	50                   	push   %eax
f04056f8:	53                   	push   %ebx
f04056f9:	b8 0e 00 00 00       	mov    $0xe,%eax
f04056fe:	50                   	push   %eax
f04056ff:	e8 71 01 00 00       	call   f0405875 <karch_except>
f0405704:	89 ec                	mov    %ebp,%esp
f0405706:	58                   	pop    %eax
f0405707:	5b                   	pop    %ebx
f0405708:	5d                   	pop    %ebp
f0405709:	cf                   	iret

f040570a <karch_except_14.kern>:
f040570a:	bb 01 00 00 00       	mov    $0x1,%ebx
f040570f:	eb e1                	jmp    f04056f2 <karch_except_14.all>

f0405711 <karch_except_16>:
f0405711:	55                   	push   %ebp
f0405712:	53                   	push   %ebx
f0405713:	50                   	push   %eax
f0405714:	89 e5                	mov    %esp,%ebp
f0405716:	83 7d 10 08          	cmpl   $0x8,0x10(%ebp)
f040571a:	74 1d                	je     f0405739 <karch_except_16.kern>
f040571c:	bb 00 00 00 00       	mov    $0x0,%ebx

f0405721 <karch_except_16.all>:
f0405721:	89 e8                	mov    %ebp,%eax
f0405723:	83 e8 0c             	sub    $0xc,%eax
f0405726:	50                   	push   %eax
f0405727:	53                   	push   %ebx
f0405728:	b8 10 00 00 00       	mov    $0x10,%eax
f040572d:	50                   	push   %eax
f040572e:	e8 42 01 00 00       	call   f0405875 <karch_except>
f0405733:	89 ec                	mov    %ebp,%esp
f0405735:	58                   	pop    %eax
f0405736:	5b                   	pop    %ebx
f0405737:	5d                   	pop    %ebp
f0405738:	cf                   	iret

f0405739 <karch_except_16.kern>:
f0405739:	bb 01 00 00 00       	mov    $0x1,%ebx
f040573e:	eb e1                	jmp    f0405721 <karch_except_16.all>

f0405740 <karch_except_17>:
f0405740:	55                   	push   %ebp
f0405741:	53                   	push   %ebx
f0405742:	50                   	push   %eax
f0405743:	89 e5                	mov    %esp,%ebp
f0405745:	83 7d 10 08          	cmpl   $0x8,0x10(%ebp)
f0405749:	74 1d                	je     f0405768 <karch_except_17.kern>
f040574b:	bb 00 00 00 00       	mov    $0x0,%ebx

f0405750 <karch_except_17.all>:
f0405750:	89 e8                	mov    %ebp,%eax
f0405752:	83 e8 0c             	sub    $0xc,%eax
f0405755:	50                   	push   %eax
f0405756:	53                   	push   %ebx
f0405757:	b8 11 00 00 00       	mov    $0x11,%eax
f040575c:	50                   	push   %eax
f040575d:	e8 13 01 00 00       	call   f0405875 <karch_except>
f0405762:	89 ec                	mov    %ebp,%esp
f0405764:	58                   	pop    %eax
f0405765:	5b                   	pop    %ebx
f0405766:	5d                   	pop    %ebp
f0405767:	cf                   	iret

f0405768 <karch_except_17.kern>:
f0405768:	bb 01 00 00 00       	mov    $0x1,%ebx
f040576d:	eb e1                	jmp    f0405750 <karch_except_17.all>

f040576f <karch_except_18>:
f040576f:	55                   	push   %ebp
f0405770:	53                   	push   %ebx
f0405771:	50                   	push   %eax
f0405772:	89 e5                	mov    %esp,%ebp
f0405774:	83 7d 10 08          	cmpl   $0x8,0x10(%ebp)
f0405778:	74 1d                	je     f0405797 <karch_except_18.kern>
f040577a:	bb 00 00 00 00       	mov    $0x0,%ebx

f040577f <karch_except_18.all>:
f040577f:	89 e8                	mov    %ebp,%eax
f0405781:	83 e8 0c             	sub    $0xc,%eax
f0405784:	50                   	push   %eax
f0405785:	53                   	push   %ebx
f0405786:	b8 12 00 00 00       	mov    $0x12,%eax
f040578b:	50                   	push   %eax
f040578c:	e8 e4 00 00 00       	call   f0405875 <karch_except>
f0405791:	89 ec                	mov    %ebp,%esp
f0405793:	58                   	pop    %eax
f0405794:	5b                   	pop    %ebx
f0405795:	5d                   	pop    %ebp
f0405796:	cf                   	iret

f0405797 <karch_except_18.kern>:
f0405797:	bb 01 00 00 00       	mov    $0x1,%ebx
f040579c:	eb e1                	jmp    f040577f <karch_except_18.all>

f040579e <karch_init_except>:
f040579e:	55                   	push   %ebp
f040579f:	89 e5                	mov    %esp,%ebp
f04057a1:	83 ec 08             	sub    $0x8,%esp
f04057a4:	83 ec 04             	sub    $0x4,%esp
f04057a7:	6a 4c                	push   $0x4c
f04057a9:	6a 00                	push   $0x0
f04057ab:	68 40 13 41 f0       	push   $0xf0411340
f04057b0:	e8 9d 0d 00 00       	call   f0406552 <kmemset>
f04057b5:	83 c4 10             	add    $0x10,%esp
f04057b8:	83 ec 04             	sub    $0x4,%esp
f04057bb:	6a 4c                	push   $0x4c
f04057bd:	6a 00                	push   $0x0
f04057bf:	68 a0 13 41 f0       	push   $0xf04113a0
f04057c4:	e8 89 0d 00 00       	call   f0406552 <kmemset>
f04057c9:	83 c4 10             	add    $0x10,%esp
f04057cc:	83 ec 08             	sub    $0x8,%esp
f04057cf:	6a 00                	push   $0x0
f04057d1:	68 60 70 40 f0       	push   $0xf0407060
f04057d6:	e8 98 09 00 00       	call   f0406173 <karch_load_idt_gatevec>
f04057db:	83 c4 10             	add    $0x10,%esp
f04057de:	90                   	nop
f04057df:	c9                   	leave
f04057e0:	c3                   	ret

f04057e1 <karch_get_except>:
f04057e1:	55                   	push   %ebp
f04057e2:	89 e5                	mov    %esp,%ebp
f04057e4:	83 ec 04             	sub    $0x4,%esp
f04057e7:	8b 45 08             	mov    0x8(%ebp),%eax
f04057ea:	88 45 fc             	mov    %al,-0x4(%ebp)
f04057ed:	80 7d fc 13          	cmpb   $0x13,-0x4(%ebp)
f04057f1:	77 06                	ja     f04057f9 <karch_get_except+0x18>
f04057f3:	80 7d fc 0f          	cmpb   $0xf,-0x4(%ebp)
f04057f7:	75 07                	jne    f0405800 <karch_get_except+0x1f>
f04057f9:	b8 00 00 00 00       	mov    $0x0,%eax
f04057fe:	eb 31                	jmp    f0405831 <karch_get_except+0x50>
f0405800:	83 7d 0c 00          	cmpl   $0x0,0xc(%ebp)
f0405804:	74 10                	je     f0405816 <karch_get_except+0x35>
f0405806:	0f b6 45 fc          	movzbl -0x4(%ebp),%eax
f040580a:	8b 14 85 40 13 41 f0 	mov    -0xfbeecc0(,%eax,4),%edx
f0405811:	8b 45 0c             	mov    0xc(%ebp),%eax
f0405814:	89 10                	mov    %edx,(%eax)
f0405816:	83 7d 10 00          	cmpl   $0x0,0x10(%ebp)
f040581a:	74 10                	je     f040582c <karch_get_except+0x4b>
f040581c:	0f b6 45 fc          	movzbl -0x4(%ebp),%eax
f0405820:	8b 14 85 a0 13 41 f0 	mov    -0xfbeec60(,%eax,4),%edx
f0405827:	8b 45 10             	mov    0x10(%ebp),%eax
f040582a:	89 10                	mov    %edx,(%eax)
f040582c:	b8 01 00 00 00       	mov    $0x1,%eax
f0405831:	c9                   	leave
f0405832:	c3                   	ret

f0405833 <karch_set_except>:
f0405833:	55                   	push   %ebp
f0405834:	89 e5                	mov    %esp,%ebp
f0405836:	83 ec 04             	sub    $0x4,%esp
f0405839:	8b 45 08             	mov    0x8(%ebp),%eax
f040583c:	88 45 fc             	mov    %al,-0x4(%ebp)
f040583f:	80 7d fc 13          	cmpb   $0x13,-0x4(%ebp)
f0405843:	77 06                	ja     f040584b <karch_set_except+0x18>
f0405845:	80 7d fc 0f          	cmpb   $0xf,-0x4(%ebp)
f0405849:	75 07                	jne    f0405852 <karch_set_except+0x1f>
f040584b:	b8 00 00 00 00       	mov    $0x0,%eax
f0405850:	eb 21                	jmp    f0405873 <karch_set_except+0x40>
f0405852:	0f b6 45 fc          	movzbl -0x4(%ebp),%eax
f0405856:	8b 55 0c             	mov    0xc(%ebp),%edx
f0405859:	89 14 85 40 13 41 f0 	mov    %edx,-0xfbeecc0(,%eax,4)
f0405860:	0f b6 45 fc          	movzbl -0x4(%ebp),%eax
f0405864:	8b 55 10             	mov    0x10(%ebp),%edx
f0405867:	89 14 85 a0 13 41 f0 	mov    %edx,-0xfbeec60(,%eax,4)
f040586e:	b8 01 00 00 00       	mov    $0x1,%eax
f0405873:	c9                   	leave
f0405874:	c3                   	ret

f0405875 <karch_except>:
f0405875:	55                   	push   %ebp
f0405876:	89 e5                	mov    %esp,%ebp
f0405878:	83 ec 18             	sub    $0x18,%esp
f040587b:	8b 45 08             	mov    0x8(%ebp),%eax
f040587e:	8b 04 85 40 13 41 f0 	mov    -0xfbeecc0(,%eax,4),%eax
f0405885:	85 c0                	test   %eax,%eax
f0405887:	74 35                	je     f04058be <karch_except+0x49>
f0405889:	8b 45 08             	mov    0x8(%ebp),%eax
f040588c:	89 45 e8             	mov    %eax,-0x18(%ebp)
f040588f:	8b 45 0c             	mov    0xc(%ebp),%eax
f0405892:	89 45 ec             	mov    %eax,-0x14(%ebp)
f0405895:	8b 45 10             	mov    0x10(%ebp),%eax
f0405898:	89 45 f0             	mov    %eax,-0x10(%ebp)
f040589b:	8b 45 08             	mov    0x8(%ebp),%eax
f040589e:	8b 04 85 a0 13 41 f0 	mov    -0xfbeec60(,%eax,4),%eax
f04058a5:	89 45 f4             	mov    %eax,-0xc(%ebp)
f04058a8:	8b 45 08             	mov    0x8(%ebp),%eax
f04058ab:	8b 04 85 40 13 41 f0 	mov    -0xfbeecc0(,%eax,4),%eax
f04058b2:	83 ec 0c             	sub    $0xc,%esp
f04058b5:	8d 55 e8             	lea    -0x18(%ebp),%edx
f04058b8:	52                   	push   %edx
f04058b9:	ff d0                	call   *%eax
f04058bb:	83 c4 10             	add    $0x10,%esp
f04058be:	90                   	nop
f04058bf:	c9                   	leave
f04058c0:	c3                   	ret

f04058c1 <karch_init_gdt>:
f04058c1:	55                   	push   %ebp
f04058c2:	89 e5                	mov    %esp,%ebp
f04058c4:	83 ec 08             	sub    $0x8,%esp
f04058c7:	83 ec 04             	sub    $0x4,%esp
f04058ca:	68 b0 00 00 00       	push   $0xb0
f04058cf:	6a 00                	push   $0x0
f04058d1:	68 f8 13 41 f0       	push   $0xf04113f8
f04058d6:	e8 77 0c 00 00       	call   f0406552 <kmemset>
f04058db:	83 c4 10             	add    $0x10,%esp
f04058de:	b8 f8 13 41 f0       	mov    $0xf04113f8,%eax
f04058e3:	a3 f2 13 41 f0       	mov    %eax,0xf04113f2
f04058e8:	66 c7 05 f0 13 41 f0 	movw   $0xaf,0xf04113f0
f04058ef:	af 00 
f04058f1:	6a 00                	push   $0x0
f04058f3:	6a 00                	push   $0x0
f04058f5:	6a 00                	push   $0x0
f04058f7:	68 20 14 41 f0       	push   $0xf0411420
f04058fc:	e8 20 01 00 00       	call   f0405a21 <karch_set_gdt_data>
f0405901:	83 c4 10             	add    $0x10,%esp
f0405904:	c6 05 25 14 41 f0 82 	movb   $0x82,0xf0411425
f040590b:	6a 00                	push   $0x0
f040590d:	6a ff                	push   $0xffffffff
f040590f:	6a 00                	push   $0x0
f0405911:	68 00 14 41 f0       	push   $0xf0411400
f0405916:	e8 2e 01 00 00       	call   f0405a49 <karch_set_gdt_code>
f040591b:	83 c4 10             	add    $0x10,%esp
f040591e:	6a 00                	push   $0x0
f0405920:	6a ff                	push   $0xffffffff
f0405922:	6a 00                	push   $0x0
f0405924:	68 08 14 41 f0       	push   $0xf0411408
f0405929:	e8 f3 00 00 00       	call   f0405a21 <karch_set_gdt_data>
f040592e:	83 c4 10             	add    $0x10,%esp
f0405931:	6a 03                	push   $0x3
f0405933:	6a ff                	push   $0xffffffff
f0405935:	6a 00                	push   $0x0
f0405937:	68 00 14 41 f0       	push   $0xf0411400
f040593c:	e8 08 01 00 00       	call   f0405a49 <karch_set_gdt_code>
f0405941:	83 c4 10             	add    $0x10,%esp
f0405944:	6a 03                	push   $0x3
f0405946:	6a ff                	push   $0xffffffff
f0405948:	6a 00                	push   $0x0
f040594a:	68 08 14 41 f0       	push   $0xf0411408
f040594f:	e8 cd 00 00 00       	call   f0405a21 <karch_set_gdt_data>
f0405954:	83 c4 10             	add    $0x10,%esp
f0405957:	90                   	nop
f0405958:	c9                   	leave
f0405959:	c3                   	ret

f040595a <karch_flush_gdt>:
f040595a:	55                   	push   %ebp
f040595b:	89 e5                	mov    %esp,%ebp
f040595d:	83 ec 08             	sub    $0x8,%esp
f0405960:	83 ec 0c             	sub    $0xc,%esp
f0405963:	68 f0 13 41 f0       	push   $0xf04113f0
f0405968:	e8 55 fa ff ff       	call   f04053c2 <load_gdt>
f040596d:	83 c4 10             	add    $0x10,%esp
f0405970:	90                   	nop
f0405971:	c9                   	leave
f0405972:	c3                   	ret

f0405973 <karch_get_gdt>:
f0405973:	55                   	push   %ebp
f0405974:	89 e5                	mov    %esp,%ebp
f0405976:	83 ec 04             	sub    $0x4,%esp
f0405979:	8b 45 08             	mov    0x8(%ebp),%eax
f040597c:	88 45 fc             	mov    %al,-0x4(%ebp)
f040597f:	80 7d fc 15          	cmpb   $0x15,-0x4(%ebp)
f0405983:	76 07                	jbe    f040598c <karch_get_gdt+0x19>
f0405985:	b8 00 00 00 00       	mov    $0x0,%eax
f040598a:	eb 0c                	jmp    f0405998 <karch_get_gdt+0x25>
f040598c:	0f b6 45 fc          	movzbl -0x4(%ebp),%eax
f0405990:	c1 e0 03             	shl    $0x3,%eax
f0405993:	05 f8 13 41 f0       	add    $0xf04113f8,%eax
f0405998:	c9                   	leave
f0405999:	c3                   	ret

f040599a <karch_set_gdt>:
f040599a:	55                   	push   %ebp
f040599b:	89 e5                	mov    %esp,%ebp
f040599d:	8b 45 0c             	mov    0xc(%ebp),%eax
f04059a0:	89 c2                	mov    %eax,%edx
f04059a2:	8b 45 08             	mov    0x8(%ebp),%eax
f04059a5:	66 89 50 02          	mov    %dx,0x2(%eax)
f04059a9:	8b 45 0c             	mov    0xc(%ebp),%eax
f04059ac:	c1 e8 10             	shr    $0x10,%eax
f04059af:	89 c2                	mov    %eax,%edx
f04059b1:	8b 45 08             	mov    0x8(%ebp),%eax
f04059b4:	88 50 04             	mov    %dl,0x4(%eax)
f04059b7:	8b 45 0c             	mov    0xc(%ebp),%eax
f04059ba:	c1 e8 18             	shr    $0x18,%eax
f04059bd:	89 c2                	mov    %eax,%edx
f04059bf:	8b 45 08             	mov    0x8(%ebp),%eax
f04059c2:	88 50 07             	mov    %dl,0x7(%eax)
f04059c5:	83 6d 10 01          	subl   $0x1,0x10(%ebp)
f04059c9:	81 7d 10 ff ff 0f 00 	cmpl   $0xfffff,0x10(%ebp)
f04059d0:	76 21                	jbe    f04059f3 <karch_set_gdt+0x59>
f04059d2:	8b 45 10             	mov    0x10(%ebp),%eax
f04059d5:	c1 e8 10             	shr    $0x10,%eax
f04059d8:	89 c2                	mov    %eax,%edx
f04059da:	8b 45 08             	mov    0x8(%ebp),%eax
f04059dd:	66 89 10             	mov    %dx,(%eax)
f04059e0:	8b 45 10             	mov    0x10(%ebp),%eax
f04059e3:	c1 e8 0c             	shr    $0xc,%eax
f04059e6:	83 c8 80             	or     $0xffffff80,%eax
f04059e9:	89 c2                	mov    %eax,%edx
f04059eb:	8b 45 08             	mov    0x8(%ebp),%eax
f04059ee:	88 50 06             	mov    %dl,0x6(%eax)
f04059f1:	eb 19                	jmp    f0405a0c <karch_set_gdt+0x72>
f04059f3:	8b 45 10             	mov    0x10(%ebp),%eax
f04059f6:	89 c2                	mov    %eax,%edx
f04059f8:	8b 45 08             	mov    0x8(%ebp),%eax
f04059fb:	66 89 10             	mov    %dx,(%eax)
f04059fe:	8b 45 10             	mov    0x10(%ebp),%eax
f0405a01:	c1 e8 10             	shr    $0x10,%eax
f0405a04:	89 c2                	mov    %eax,%edx
f0405a06:	8b 45 08             	mov    0x8(%ebp),%eax
f0405a09:	88 50 06             	mov    %dl,0x6(%eax)
f0405a0c:	8b 45 08             	mov    0x8(%ebp),%eax
f0405a0f:	0f b6 40 06          	movzbl 0x6(%eax),%eax
f0405a13:	83 c8 40             	or     $0x40,%eax
f0405a16:	89 c2                	mov    %eax,%edx
f0405a18:	8b 45 08             	mov    0x8(%ebp),%eax
f0405a1b:	88 50 06             	mov    %dl,0x6(%eax)
f0405a1e:	90                   	nop
f0405a1f:	5d                   	pop    %ebp
f0405a20:	c3                   	ret

f0405a21 <karch_set_gdt_data>:
f0405a21:	55                   	push   %ebp
f0405a22:	89 e5                	mov    %esp,%ebp
f0405a24:	ff 75 10             	push   0x10(%ebp)
f0405a27:	ff 75 0c             	push   0xc(%ebp)
f0405a2a:	ff 75 08             	push   0x8(%ebp)
f0405a2d:	e8 68 ff ff ff       	call   f040599a <karch_set_gdt>
f0405a32:	83 c4 0c             	add    $0xc,%esp
f0405a35:	8b 45 14             	mov    0x14(%ebp),%eax
f0405a38:	c1 e8 05             	shr    $0x5,%eax
f0405a3b:	83 c8 93             	or     $0xffffff93,%eax
f0405a3e:	89 c2                	mov    %eax,%edx
f0405a40:	8b 45 08             	mov    0x8(%ebp),%eax
f0405a43:	88 50 05             	mov    %dl,0x5(%eax)
f0405a46:	90                   	nop
f0405a47:	c9                   	leave
f0405a48:	c3                   	ret

f0405a49 <karch_set_gdt_code>:
f0405a49:	55                   	push   %ebp
f0405a4a:	89 e5                	mov    %esp,%ebp
f0405a4c:	ff 75 10             	push   0x10(%ebp)
f0405a4f:	ff 75 0c             	push   0xc(%ebp)
f0405a52:	ff 75 08             	push   0x8(%ebp)
f0405a55:	e8 40 ff ff ff       	call   f040599a <karch_set_gdt>
f0405a5a:	83 c4 0c             	add    $0xc,%esp
f0405a5d:	8b 45 14             	mov    0x14(%ebp),%eax
f0405a60:	c1 e8 05             	shr    $0x5,%eax
f0405a63:	83 c8 9a             	or     $0xffffff9a,%eax
f0405a66:	89 c2                	mov    %eax,%edx
f0405a68:	8b 45 08             	mov    0x8(%ebp),%eax
f0405a6b:	88 50 05             	mov    %dl,0x5(%eax)
f0405a6e:	90                   	nop
f0405a6f:	c9                   	leave
f0405a70:	c3                   	ret
f0405a71:	66 90                	xchg   %ax,%ax
f0405a73:	66 90                	xchg   %ax,%ax
f0405a75:	66 90                	xchg   %ax,%ax
f0405a77:	66 90                	xchg   %ax,%ax
f0405a79:	66 90                	xchg   %ax,%ax
f0405a7b:	66 90                	xchg   %ax,%ax
f0405a7d:	66 90                	xchg   %ax,%ax
f0405a7f:	90                   	nop

f0405a80 <karch_i8259_hwint_00>:
f0405a80:	55                   	push   %ebp
f0405a81:	53                   	push   %ebx
f0405a82:	50                   	push   %eax
f0405a83:	89 e5                	mov    %esp,%ebp
f0405a85:	83 7d 10 08          	cmpl   $0x8,0x10(%ebp)
f0405a89:	74 1d                	je     f0405aa8 <karch_i8259_hwint_00.kern>
f0405a8b:	bb 00 00 00 00       	mov    $0x0,%ebx

f0405a90 <karch_i8259_hwint_00.all>:
f0405a90:	89 e8                	mov    %ebp,%eax
f0405a92:	83 e8 0c             	sub    $0xc,%eax
f0405a95:	50                   	push   %eax
f0405a96:	53                   	push   %ebx
f0405a97:	b8 00 00 00 00       	mov    $0x0,%eax
f0405a9c:	50                   	push   %eax
f0405a9d:	e8 df 05 00 00       	call   f0406081 <karch_i8259_hwint>
f0405aa2:	89 ec                	mov    %ebp,%esp
f0405aa4:	58                   	pop    %eax
f0405aa5:	5b                   	pop    %ebx
f0405aa6:	5d                   	pop    %ebp
f0405aa7:	cf                   	iret

f0405aa8 <karch_i8259_hwint_00.kern>:
f0405aa8:	bb 01 00 00 00       	mov    $0x1,%ebx
f0405aad:	eb e1                	jmp    f0405a90 <karch_i8259_hwint_00.all>

f0405aaf <karch_i8259_hwint_01>:
f0405aaf:	55                   	push   %ebp
f0405ab0:	53                   	push   %ebx
f0405ab1:	50                   	push   %eax
f0405ab2:	89 e5                	mov    %esp,%ebp
f0405ab4:	83 7d 10 08          	cmpl   $0x8,0x10(%ebp)
f0405ab8:	74 1d                	je     f0405ad7 <karch_i8259_hwint_01.kern>
f0405aba:	bb 00 00 00 00       	mov    $0x0,%ebx

f0405abf <karch_i8259_hwint_01.all>:
f0405abf:	89 e8                	mov    %ebp,%eax
f0405ac1:	83 e8 0c             	sub    $0xc,%eax
f0405ac4:	50                   	push   %eax
f0405ac5:	53                   	push   %ebx
f0405ac6:	b8 01 00 00 00       	mov    $0x1,%eax
f0405acb:	50                   	push   %eax
f0405acc:	e8 b0 05 00 00       	call   f0406081 <karch_i8259_hwint>
f0405ad1:	89 ec                	mov    %ebp,%esp
f0405ad3:	58                   	pop    %eax
f0405ad4:	5b                   	pop    %ebx
f0405ad5:	5d                   	pop    %ebp
f0405ad6:	cf                   	iret

f0405ad7 <karch_i8259_hwint_01.kern>:
f0405ad7:	bb 01 00 00 00       	mov    $0x1,%ebx
f0405adc:	eb e1                	jmp    f0405abf <karch_i8259_hwint_01.all>

f0405ade <karch_i8259_hwint_02>:
f0405ade:	55                   	push   %ebp
f0405adf:	53                   	push   %ebx
f0405ae0:	50                   	push   %eax
f0405ae1:	89 e5                	mov    %esp,%ebp
f0405ae3:	83 7d 10 08          	cmpl   $0x8,0x10(%ebp)
f0405ae7:	74 1d                	je     f0405b06 <karch_i8259_hwint_02.kern>
f0405ae9:	bb 00 00 00 00       	mov    $0x0,%ebx

f0405aee <karch_i8259_hwint_02.all>:
f0405aee:	89 e8                	mov    %ebp,%eax
f0405af0:	83 e8 0c             	sub    $0xc,%eax
f0405af3:	50                   	push   %eax
f0405af4:	53                   	push   %ebx
f0405af5:	b8 02 00 00 00       	mov    $0x2,%eax
f0405afa:	50                   	push   %eax
f0405afb:	e8 81 05 00 00       	call   f0406081 <karch_i8259_hwint>
f0405b00:	89 ec                	mov    %ebp,%esp
f0405b02:	58                   	pop    %eax
f0405b03:	5b                   	pop    %ebx
f0405b04:	5d                   	pop    %ebp
f0405b05:	cf                   	iret

f0405b06 <karch_i8259_hwint_02.kern>:
f0405b06:	bb 01 00 00 00       	mov    $0x1,%ebx
f0405b0b:	eb e1                	jmp    f0405aee <karch_i8259_hwint_02.all>

f0405b0d <karch_i8259_hwint_03>:
f0405b0d:	55                   	push   %ebp
f0405b0e:	53                   	push   %ebx
f0405b0f:	50                   	push   %eax
f0405b10:	89 e5                	mov    %esp,%ebp
f0405b12:	83 7d 10 08          	cmpl   $0x8,0x10(%ebp)
f0405b16:	74 1d                	je     f0405b35 <karch_i8259_hwint_03.kern>
f0405b18:	bb 00 00 00 00       	mov    $0x0,%ebx

f0405b1d <karch_i8259_hwint_03.all>:
f0405b1d:	89 e8                	mov    %ebp,%eax
f0405b1f:	83 e8 0c             	sub    $0xc,%eax
f0405b22:	50                   	push   %eax
f0405b23:	53                   	push   %ebx
f0405b24:	b8 03 00 00 00       	mov    $0x3,%eax
f0405b29:	50                   	push   %eax
f0405b2a:	e8 52 05 00 00       	call   f0406081 <karch_i8259_hwint>
f0405b2f:	89 ec                	mov    %ebp,%esp
f0405b31:	58                   	pop    %eax
f0405b32:	5b                   	pop    %ebx
f0405b33:	5d                   	pop    %ebp
f0405b34:	cf                   	iret

f0405b35 <karch_i8259_hwint_03.kern>:
f0405b35:	bb 01 00 00 00       	mov    $0x1,%ebx
f0405b3a:	eb e1                	jmp    f0405b1d <karch_i8259_hwint_03.all>

f0405b3c <karch_i8259_hwint_04>:
f0405b3c:	55                   	push   %ebp
f0405b3d:	53                   	push   %ebx
f0405b3e:	50                   	push   %eax
f0405b3f:	89 e5                	mov    %esp,%ebp
f0405b41:	83 7d 10 08          	cmpl   $0x8,0x10(%ebp)
f0405b45:	74 1d                	je     f0405b64 <karch_i8259_hwint_04.kern>
f0405b47:	bb 00 00 00 00       	mov    $0x0,%ebx

f0405b4c <karch_i8259_hwint_04.all>:
f0405b4c:	89 e8                	mov    %ebp,%eax
f0405b4e:	83 e8 0c             	sub    $0xc,%eax
f0405b51:	50                   	push   %eax
f0405b52:	53                   	push   %ebx
f0405b53:	b8 04 00 00 00       	mov    $0x4,%eax
f0405b58:	50                   	push   %eax
f0405b59:	e8 23 05 00 00       	call   f0406081 <karch_i8259_hwint>
f0405b5e:	89 ec                	mov    %ebp,%esp
f0405b60:	58                   	pop    %eax
f0405b61:	5b                   	pop    %ebx
f0405b62:	5d                   	pop    %ebp
f0405b63:	cf                   	iret

f0405b64 <karch_i8259_hwint_04.kern>:
f0405b64:	bb 01 00 00 00       	mov    $0x1,%ebx
f0405b69:	eb e1                	jmp    f0405b4c <karch_i8259_hwint_04.all>

f0405b6b <karch_i8259_hwint_05>:
f0405b6b:	55                   	push   %ebp
f0405b6c:	53                   	push   %ebx
f0405b6d:	50                   	push   %eax
f0405b6e:	89 e5                	mov    %esp,%ebp
f0405b70:	83 7d 10 08          	cmpl   $0x8,0x10(%ebp)
f0405b74:	74 1d                	je     f0405b93 <karch_i8259_hwint_05.kern>
f0405b76:	bb 00 00 00 00       	mov    $0x0,%ebx

f0405b7b <karch_i8259_hwint_05.all>:
f0405b7b:	89 e8                	mov    %ebp,%eax
f0405b7d:	83 e8 0c             	sub    $0xc,%eax
f0405b80:	50                   	push   %eax
f0405b81:	53                   	push   %ebx
f0405b82:	b8 05 00 00 00       	mov    $0x5,%eax
f0405b87:	50                   	push   %eax
f0405b88:	e8 f4 04 00 00       	call   f0406081 <karch_i8259_hwint>
f0405b8d:	89 ec                	mov    %ebp,%esp
f0405b8f:	58                   	pop    %eax
f0405b90:	5b                   	pop    %ebx
f0405b91:	5d                   	pop    %ebp
f0405b92:	cf                   	iret

f0405b93 <karch_i8259_hwint_05.kern>:
f0405b93:	bb 01 00 00 00       	mov    $0x1,%ebx
f0405b98:	eb e1                	jmp    f0405b7b <karch_i8259_hwint_05.all>

f0405b9a <karch_i8259_hwint_06>:
f0405b9a:	55                   	push   %ebp
f0405b9b:	53                   	push   %ebx
f0405b9c:	50                   	push   %eax
f0405b9d:	89 e5                	mov    %esp,%ebp
f0405b9f:	83 7d 10 08          	cmpl   $0x8,0x10(%ebp)
f0405ba3:	74 1d                	je     f0405bc2 <karch_i8259_hwint_06.kern>
f0405ba5:	bb 00 00 00 00       	mov    $0x0,%ebx

f0405baa <karch_i8259_hwint_06.all>:
f0405baa:	89 e8                	mov    %ebp,%eax
f0405bac:	83 e8 0c             	sub    $0xc,%eax
f0405baf:	50                   	push   %eax
f0405bb0:	53                   	push   %ebx
f0405bb1:	b8 06 00 00 00       	mov    $0x6,%eax
f0405bb6:	50                   	push   %eax
f0405bb7:	e8 c5 04 00 00       	call   f0406081 <karch_i8259_hwint>
f0405bbc:	89 ec                	mov    %ebp,%esp
f0405bbe:	58                   	pop    %eax
f0405bbf:	5b                   	pop    %ebx
f0405bc0:	5d                   	pop    %ebp
f0405bc1:	cf                   	iret

f0405bc2 <karch_i8259_hwint_06.kern>:
f0405bc2:	bb 01 00 00 00       	mov    $0x1,%ebx
f0405bc7:	eb e1                	jmp    f0405baa <karch_i8259_hwint_06.all>

f0405bc9 <karch_i8259_hwint_07>:
f0405bc9:	55                   	push   %ebp
f0405bca:	53                   	push   %ebx
f0405bcb:	50                   	push   %eax
f0405bcc:	89 e5                	mov    %esp,%ebp
f0405bce:	83 7d 10 08          	cmpl   $0x8,0x10(%ebp)
f0405bd2:	74 1d                	je     f0405bf1 <karch_i8259_hwint_07.kern>
f0405bd4:	bb 00 00 00 00       	mov    $0x0,%ebx

f0405bd9 <karch_i8259_hwint_07.all>:
f0405bd9:	89 e8                	mov    %ebp,%eax
f0405bdb:	83 e8 0c             	sub    $0xc,%eax
f0405bde:	50                   	push   %eax
f0405bdf:	53                   	push   %ebx
f0405be0:	b8 07 00 00 00       	mov    $0x7,%eax
f0405be5:	50                   	push   %eax
f0405be6:	e8 96 04 00 00       	call   f0406081 <karch_i8259_hwint>
f0405beb:	89 ec                	mov    %ebp,%esp
f0405bed:	58                   	pop    %eax
f0405bee:	5b                   	pop    %ebx
f0405bef:	5d                   	pop    %ebp
f0405bf0:	cf                   	iret

f0405bf1 <karch_i8259_hwint_07.kern>:
f0405bf1:	bb 01 00 00 00       	mov    $0x1,%ebx
f0405bf6:	eb e1                	jmp    f0405bd9 <karch_i8259_hwint_07.all>

f0405bf8 <karch_i8259_hwint_08>:
f0405bf8:	55                   	push   %ebp
f0405bf9:	53                   	push   %ebx
f0405bfa:	50                   	push   %eax
f0405bfb:	89 e5                	mov    %esp,%ebp
f0405bfd:	83 7d 10 08          	cmpl   $0x8,0x10(%ebp)
f0405c01:	74 1d                	je     f0405c20 <karch_i8259_hwint_08.kern>
f0405c03:	bb 00 00 00 00       	mov    $0x0,%ebx

f0405c08 <karch_i8259_hwint_08.all>:
f0405c08:	89 e8                	mov    %ebp,%eax
f0405c0a:	83 e8 0c             	sub    $0xc,%eax
f0405c0d:	50                   	push   %eax
f0405c0e:	53                   	push   %ebx
f0405c0f:	b8 08 00 00 00       	mov    $0x8,%eax
f0405c14:	50                   	push   %eax
f0405c15:	e8 67 04 00 00       	call   f0406081 <karch_i8259_hwint>
f0405c1a:	89 ec                	mov    %ebp,%esp
f0405c1c:	58                   	pop    %eax
f0405c1d:	5b                   	pop    %ebx
f0405c1e:	5d                   	pop    %ebp
f0405c1f:	cf                   	iret

f0405c20 <karch_i8259_hwint_08.kern>:
f0405c20:	bb 01 00 00 00       	mov    $0x1,%ebx
f0405c25:	eb e1                	jmp    f0405c08 <karch_i8259_hwint_08.all>

f0405c27 <karch_i8259_hwint_09>:
f0405c27:	55                   	push   %ebp
f0405c28:	53                   	push   %ebx
f0405c29:	50                   	push   %eax
f0405c2a:	89 e5                	mov    %esp,%ebp
f0405c2c:	83 7d 10 08          	cmpl   $0x8,0x10(%ebp)
f0405c30:	74 1d                	je     f0405c4f <karch_i8259_hwint_09.kern>
f0405c32:	bb 00 00 00 00       	mov    $0x0,%ebx

f0405c37 <karch_i8259_hwint_09.all>:
f0405c37:	89 e8                	mov    %ebp,%eax
f0405c39:	83 e8 0c             	sub    $0xc,%eax
f0405c3c:	50                   	push   %eax
f0405c3d:	53                   	push   %ebx
f0405c3e:	b8 09 00 00 00       	mov    $0x9,%eax
f0405c43:	50                   	push   %eax
f0405c44:	e8 38 04 00 00       	call   f0406081 <karch_i8259_hwint>
f0405c49:	89 ec                	mov    %ebp,%esp
f0405c4b:	58                   	pop    %eax
f0405c4c:	5b                   	pop    %ebx
f0405c4d:	5d                   	pop    %ebp
f0405c4e:	cf                   	iret

f0405c4f <karch_i8259_hwint_09.kern>:
f0405c4f:	bb 01 00 00 00       	mov    $0x1,%ebx
f0405c54:	eb e1                	jmp    f0405c37 <karch_i8259_hwint_09.all>

f0405c56 <karch_i8259_hwint_10>:
f0405c56:	55                   	push   %ebp
f0405c57:	53                   	push   %ebx
f0405c58:	50                   	push   %eax
f0405c59:	89 e5                	mov    %esp,%ebp
f0405c5b:	83 7d 10 08          	cmpl   $0x8,0x10(%ebp)
f0405c5f:	74 1d                	je     f0405c7e <karch_i8259_hwint_10.kern>
f0405c61:	bb 00 00 00 00       	mov    $0x0,%ebx

f0405c66 <karch_i8259_hwint_10.all>:
f0405c66:	89 e8                	mov    %ebp,%eax
f0405c68:	83 e8 0c             	sub    $0xc,%eax
f0405c6b:	50                   	push   %eax
f0405c6c:	53                   	push   %ebx
f0405c6d:	b8 0a 00 00 00       	mov    $0xa,%eax
f0405c72:	50                   	push   %eax
f0405c73:	e8 09 04 00 00       	call   f0406081 <karch_i8259_hwint>
f0405c78:	89 ec                	mov    %ebp,%esp
f0405c7a:	58                   	pop    %eax
f0405c7b:	5b                   	pop    %ebx
f0405c7c:	5d                   	pop    %ebp
f0405c7d:	cf                   	iret

f0405c7e <karch_i8259_hwint_10.kern>:
f0405c7e:	bb 01 00 00 00       	mov    $0x1,%ebx
f0405c83:	eb e1                	jmp    f0405c66 <karch_i8259_hwint_10.all>

f0405c85 <karch_i8259_hwint_11>:
f0405c85:	55                   	push   %ebp
f0405c86:	53                   	push   %ebx
f0405c87:	50                   	push   %eax
f0405c88:	89 e5                	mov    %esp,%ebp
f0405c8a:	83 7d 10 08          	cmpl   $0x8,0x10(%ebp)
f0405c8e:	74 1d                	je     f0405cad <karch_i8259_hwint_11.kern>
f0405c90:	bb 00 00 00 00       	mov    $0x0,%ebx

f0405c95 <karch_i8259_hwint_11.all>:
f0405c95:	89 e8                	mov    %ebp,%eax
f0405c97:	83 e8 0c             	sub    $0xc,%eax
f0405c9a:	50                   	push   %eax
f0405c9b:	53                   	push   %ebx
f0405c9c:	b8 0b 00 00 00       	mov    $0xb,%eax
f0405ca1:	50                   	push   %eax
f0405ca2:	e8 da 03 00 00       	call   f0406081 <karch_i8259_hwint>
f0405ca7:	89 ec                	mov    %ebp,%esp
f0405ca9:	58                   	pop    %eax
f0405caa:	5b                   	pop    %ebx
f0405cab:	5d                   	pop    %ebp
f0405cac:	cf                   	iret

f0405cad <karch_i8259_hwint_11.kern>:
f0405cad:	bb 01 00 00 00       	mov    $0x1,%ebx
f0405cb2:	eb e1                	jmp    f0405c95 <karch_i8259_hwint_11.all>

f0405cb4 <karch_i8259_hwint_12>:
f0405cb4:	55                   	push   %ebp
f0405cb5:	53                   	push   %ebx
f0405cb6:	50                   	push   %eax
f0405cb7:	89 e5                	mov    %esp,%ebp
f0405cb9:	83 7d 10 08          	cmpl   $0x8,0x10(%ebp)
f0405cbd:	74 1d                	je     f0405cdc <karch_i8259_hwint_12.kern>
f0405cbf:	bb 00 00 00 00       	mov    $0x0,%ebx

f0405cc4 <karch_i8259_hwint_12.all>:
f0405cc4:	89 e8                	mov    %ebp,%eax
f0405cc6:	83 e8 0c             	sub    $0xc,%eax
f0405cc9:	50                   	push   %eax
f0405cca:	53                   	push   %ebx
f0405ccb:	b8 0c 00 00 00       	mov    $0xc,%eax
f0405cd0:	50                   	push   %eax
f0405cd1:	e8 ab 03 00 00       	call   f0406081 <karch_i8259_hwint>
f0405cd6:	89 ec                	mov    %ebp,%esp
f0405cd8:	58                   	pop    %eax
f0405cd9:	5b                   	pop    %ebx
f0405cda:	5d                   	pop    %ebp
f0405cdb:	cf                   	iret

f0405cdc <karch_i8259_hwint_12.kern>:
f0405cdc:	bb 01 00 00 00       	mov    $0x1,%ebx
f0405ce1:	eb e1                	jmp    f0405cc4 <karch_i8259_hwint_12.all>

f0405ce3 <karch_i8259_hwint_13>:
f0405ce3:	55                   	push   %ebp
f0405ce4:	53                   	push   %ebx
f0405ce5:	50                   	push   %eax
f0405ce6:	89 e5                	mov    %esp,%ebp
f0405ce8:	83 7d 10 08          	cmpl   $0x8,0x10(%ebp)
f0405cec:	74 1d                	je     f0405d0b <karch_i8259_hwint_13.kern>
f0405cee:	bb 00 00 00 00       	mov    $0x0,%ebx

f0405cf3 <karch_i8259_hwint_13.all>:
f0405cf3:	89 e8                	mov    %ebp,%eax
f0405cf5:	83 e8 0c             	sub    $0xc,%eax
f0405cf8:	50                   	push   %eax
f0405cf9:	53                   	push   %ebx
f0405cfa:	b8 0d 00 00 00       	mov    $0xd,%eax
f0405cff:	50                   	push   %eax
f0405d00:	e8 7c 03 00 00       	call   f0406081 <karch_i8259_hwint>
f0405d05:	89 ec                	mov    %ebp,%esp
f0405d07:	58                   	pop    %eax
f0405d08:	5b                   	pop    %ebx
f0405d09:	5d                   	pop    %ebp
f0405d0a:	cf                   	iret

f0405d0b <karch_i8259_hwint_13.kern>:
f0405d0b:	bb 01 00 00 00       	mov    $0x1,%ebx
f0405d10:	eb e1                	jmp    f0405cf3 <karch_i8259_hwint_13.all>

f0405d12 <karch_i8259_hwint_14>:
f0405d12:	55                   	push   %ebp
f0405d13:	53                   	push   %ebx
f0405d14:	50                   	push   %eax
f0405d15:	89 e5                	mov    %esp,%ebp
f0405d17:	83 7d 10 08          	cmpl   $0x8,0x10(%ebp)
f0405d1b:	74 1d                	je     f0405d3a <karch_i8259_hwint_14.kern>
f0405d1d:	bb 00 00 00 00       	mov    $0x0,%ebx

f0405d22 <karch_i8259_hwint_14.all>:
f0405d22:	89 e8                	mov    %ebp,%eax
f0405d24:	83 e8 0c             	sub    $0xc,%eax
f0405d27:	50                   	push   %eax
f0405d28:	53                   	push   %ebx
f0405d29:	b8 0e 00 00 00       	mov    $0xe,%eax
f0405d2e:	50                   	push   %eax
f0405d2f:	e8 4d 03 00 00       	call   f0406081 <karch_i8259_hwint>
f0405d34:	89 ec                	mov    %ebp,%esp
f0405d36:	58                   	pop    %eax
f0405d37:	5b                   	pop    %ebx
f0405d38:	5d                   	pop    %ebp
f0405d39:	cf                   	iret

f0405d3a <karch_i8259_hwint_14.kern>:
f0405d3a:	bb 01 00 00 00       	mov    $0x1,%ebx
f0405d3f:	eb e1                	jmp    f0405d22 <karch_i8259_hwint_14.all>

f0405d41 <karch_i8259_hwint_15>:
f0405d41:	55                   	push   %ebp
f0405d42:	53                   	push   %ebx
f0405d43:	50                   	push   %eax
f0405d44:	89 e5                	mov    %esp,%ebp
f0405d46:	83 7d 10 08          	cmpl   $0x8,0x10(%ebp)
f0405d4a:	74 1d                	je     f0405d69 <karch_i8259_hwint_15.kern>
f0405d4c:	bb 00 00 00 00       	mov    $0x0,%ebx

f0405d51 <karch_i8259_hwint_15.all>:
f0405d51:	89 e8                	mov    %ebp,%eax
f0405d53:	83 e8 0c             	sub    $0xc,%eax
f0405d56:	50                   	push   %eax
f0405d57:	53                   	push   %ebx
f0405d58:	b8 0f 00 00 00       	mov    $0xf,%eax
f0405d5d:	50                   	push   %eax
f0405d5e:	e8 1e 03 00 00       	call   f0406081 <karch_i8259_hwint>
f0405d63:	89 ec                	mov    %ebp,%esp
f0405d65:	58                   	pop    %eax
f0405d66:	5b                   	pop    %ebx
f0405d67:	5d                   	pop    %ebp
f0405d68:	cf                   	iret

f0405d69 <karch_i8259_hwint_15.kern>:
f0405d69:	bb 01 00 00 00       	mov    $0x1,%ebx
f0405d6e:	eb e1                	jmp    f0405d51 <karch_i8259_hwint_15.all>

f0405d70 <karch_init_i8259>:
f0405d70:	55                   	push   %ebp
f0405d71:	89 e5                	mov    %esp,%ebp
f0405d73:	83 ec 08             	sub    $0x8,%esp
f0405d76:	83 ec 04             	sub    $0x4,%esp
f0405d79:	6a 40                	push   $0x40
f0405d7b:	6a 00                	push   $0x0
f0405d7d:	68 c0 14 41 f0       	push   $0xf04114c0
f0405d82:	e8 cb 07 00 00       	call   f0406552 <kmemset>
f0405d87:	83 c4 10             	add    $0x10,%esp
f0405d8a:	83 ec 04             	sub    $0x4,%esp
f0405d8d:	6a 40                	push   $0x40
f0405d8f:	6a 00                	push   $0x0
f0405d91:	68 00 15 41 f0       	push   $0xf0411500
f0405d96:	e8 b7 07 00 00       	call   f0406552 <kmemset>
f0405d9b:	83 c4 10             	add    $0x10,%esp
f0405d9e:	83 ec 08             	sub    $0x8,%esp
f0405da1:	6a 50                	push   $0x50
f0405da3:	68 00 71 40 f0       	push   $0xf0407100
f0405da8:	e8 c6 03 00 00       	call   f0406173 <karch_load_idt_gatevec>
f0405dad:	83 c4 10             	add    $0x10,%esp
f0405db0:	83 ec 08             	sub    $0x8,%esp
f0405db3:	6a 70                	push   $0x70
f0405db5:	68 60 71 40 f0       	push   $0xf0407160
f0405dba:	e8 b4 03 00 00       	call   f0406173 <karch_load_idt_gatevec>
f0405dbf:	83 c4 10             	add    $0x10,%esp
f0405dc2:	e8 03 00 00 00       	call   f0405dca <karch_program_i8259>
f0405dc7:	90                   	nop
f0405dc8:	c9                   	leave
f0405dc9:	c3                   	ret

f0405dca <karch_program_i8259>:
f0405dca:	55                   	push   %ebp
f0405dcb:	89 e5                	mov    %esp,%ebp
f0405dcd:	83 ec 08             	sub    $0x8,%esp
f0405dd0:	83 ec 08             	sub    $0x8,%esp
f0405dd3:	6a 11                	push   $0x11
f0405dd5:	6a 20                	push   $0x20
f0405dd7:	e8 40 f6 ff ff       	call   f040541c <cpu_out8>
f0405ddc:	83 c4 10             	add    $0x10,%esp
f0405ddf:	83 ec 08             	sub    $0x8,%esp
f0405de2:	6a 50                	push   $0x50
f0405de4:	6a 21                	push   $0x21
f0405de6:	e8 31 f6 ff ff       	call   f040541c <cpu_out8>
f0405deb:	83 c4 10             	add    $0x10,%esp
f0405dee:	83 ec 08             	sub    $0x8,%esp
f0405df1:	6a 04                	push   $0x4
f0405df3:	6a 21                	push   $0x21
f0405df5:	e8 22 f6 ff ff       	call   f040541c <cpu_out8>
f0405dfa:	83 c4 10             	add    $0x10,%esp
f0405dfd:	83 ec 08             	sub    $0x8,%esp
f0405e00:	6a 05                	push   $0x5
f0405e02:	6a 21                	push   $0x21
f0405e04:	e8 13 f6 ff ff       	call   f040541c <cpu_out8>
f0405e09:	83 c4 10             	add    $0x10,%esp
f0405e0c:	83 ec 08             	sub    $0x8,%esp
f0405e0f:	6a ff                	push   $0xffffffff
f0405e11:	6a 21                	push   $0x21
f0405e13:	e8 04 f6 ff ff       	call   f040541c <cpu_out8>
f0405e18:	83 c4 10             	add    $0x10,%esp
f0405e1b:	83 ec 08             	sub    $0x8,%esp
f0405e1e:	6a 11                	push   $0x11
f0405e20:	68 a0 00 00 00       	push   $0xa0
f0405e25:	e8 f2 f5 ff ff       	call   f040541c <cpu_out8>
f0405e2a:	83 c4 10             	add    $0x10,%esp
f0405e2d:	83 ec 08             	sub    $0x8,%esp
f0405e30:	6a 70                	push   $0x70
f0405e32:	68 a1 00 00 00       	push   $0xa1
f0405e37:	e8 e0 f5 ff ff       	call   f040541c <cpu_out8>
f0405e3c:	83 c4 10             	add    $0x10,%esp
f0405e3f:	83 ec 08             	sub    $0x8,%esp
f0405e42:	6a 02                	push   $0x2
f0405e44:	68 a1 00 00 00       	push   $0xa1
f0405e49:	e8 ce f5 ff ff       	call   f040541c <cpu_out8>
f0405e4e:	83 c4 10             	add    $0x10,%esp
f0405e51:	83 ec 08             	sub    $0x8,%esp
f0405e54:	6a 01                	push   $0x1
f0405e56:	68 a1 00 00 00       	push   $0xa1
f0405e5b:	e8 bc f5 ff ff       	call   f040541c <cpu_out8>
f0405e60:	83 c4 10             	add    $0x10,%esp
f0405e63:	83 ec 08             	sub    $0x8,%esp
f0405e66:	6a ff                	push   $0xffffffff
f0405e68:	68 a1 00 00 00       	push   $0xa1
f0405e6d:	e8 aa f5 ff ff       	call   f040541c <cpu_out8>
f0405e72:	83 c4 10             	add    $0x10,%esp
f0405e75:	90                   	nop
f0405e76:	c9                   	leave
f0405e77:	c3                   	ret

f0405e78 <karch_unmask_i8259>:
f0405e78:	55                   	push   %ebp
f0405e79:	89 e5                	mov    %esp,%ebp
f0405e7b:	53                   	push   %ebx
f0405e7c:	83 ec 24             	sub    $0x24,%esp
f0405e7f:	8b 45 08             	mov    0x8(%ebp),%eax
f0405e82:	88 45 e4             	mov    %al,-0x1c(%ebp)
f0405e85:	80 7d e4 07          	cmpb   $0x7,-0x1c(%ebp)
f0405e89:	77 07                	ja     f0405e92 <karch_unmask_i8259+0x1a>
f0405e8b:	b8 21 00 00 00       	mov    $0x21,%eax
f0405e90:	eb 05                	jmp    f0405e97 <karch_unmask_i8259+0x1f>
f0405e92:	b8 a1 ff ff ff       	mov    $0xffffffa1,%eax
f0405e97:	88 45 f7             	mov    %al,-0x9(%ebp)
f0405e9a:	0f b6 45 f7          	movzbl -0x9(%ebp),%eax
f0405e9e:	83 ec 0c             	sub    $0xc,%esp
f0405ea1:	50                   	push   %eax
f0405ea2:	e8 3e f5 ff ff       	call   f04053e5 <cpu_in8>
f0405ea7:	83 c4 10             	add    $0x10,%esp
f0405eaa:	88 45 f6             	mov    %al,-0xa(%ebp)
f0405ead:	0f b6 45 f6          	movzbl -0xa(%ebp),%eax
f0405eb1:	0f b6 55 e4          	movzbl -0x1c(%ebp),%edx
f0405eb5:	83 e2 07             	and    $0x7,%edx
f0405eb8:	bb 01 00 00 00       	mov    $0x1,%ebx
f0405ebd:	89 d1                	mov    %edx,%ecx
f0405ebf:	d3 e3                	shl    %cl,%ebx
f0405ec1:	89 da                	mov    %ebx,%edx
f0405ec3:	f7 d2                	not    %edx
f0405ec5:	21 d0                	and    %edx,%eax
f0405ec7:	89 c2                	mov    %eax,%edx
f0405ec9:	0f b6 45 f7          	movzbl -0x9(%ebp),%eax
f0405ecd:	83 ec 08             	sub    $0x8,%esp
f0405ed0:	52                   	push   %edx
f0405ed1:	50                   	push   %eax
f0405ed2:	e8 45 f5 ff ff       	call   f040541c <cpu_out8>
f0405ed7:	83 c4 10             	add    $0x10,%esp
f0405eda:	80 7d e4 07          	cmpb   $0x7,-0x1c(%ebp)
f0405ede:	76 13                	jbe    f0405ef3 <karch_unmask_i8259+0x7b>
f0405ee0:	80 7d f6 ff          	cmpb   $0xff,-0xa(%ebp)
f0405ee4:	75 0d                	jne    f0405ef3 <karch_unmask_i8259+0x7b>
f0405ee6:	83 ec 0c             	sub    $0xc,%esp
f0405ee9:	6a 02                	push   $0x2
f0405eeb:	e8 88 ff ff ff       	call   f0405e78 <karch_unmask_i8259>
f0405ef0:	83 c4 10             	add    $0x10,%esp
f0405ef3:	90                   	nop
f0405ef4:	8b 5d fc             	mov    -0x4(%ebp),%ebx
f0405ef7:	c9                   	leave
f0405ef8:	c3                   	ret

f0405ef9 <karch_mask_i8259>:
f0405ef9:	55                   	push   %ebp
f0405efa:	89 e5                	mov    %esp,%ebp
f0405efc:	83 ec 28             	sub    $0x28,%esp
f0405eff:	8b 45 08             	mov    0x8(%ebp),%eax
f0405f02:	88 45 e4             	mov    %al,-0x1c(%ebp)
f0405f05:	80 7d e4 07          	cmpb   $0x7,-0x1c(%ebp)
f0405f09:	77 07                	ja     f0405f12 <karch_mask_i8259+0x19>
f0405f0b:	b8 21 00 00 00       	mov    $0x21,%eax
f0405f10:	eb 05                	jmp    f0405f17 <karch_mask_i8259+0x1e>
f0405f12:	b8 a1 ff ff ff       	mov    $0xffffffa1,%eax
f0405f17:	88 45 f7             	mov    %al,-0x9(%ebp)
f0405f1a:	0f b6 45 f7          	movzbl -0x9(%ebp),%eax
f0405f1e:	83 ec 0c             	sub    $0xc,%esp
f0405f21:	50                   	push   %eax
f0405f22:	e8 be f4 ff ff       	call   f04053e5 <cpu_in8>
f0405f27:	83 c4 10             	add    $0x10,%esp
f0405f2a:	88 45 f6             	mov    %al,-0xa(%ebp)
f0405f2d:	0f b6 45 e4          	movzbl -0x1c(%ebp),%eax
f0405f31:	83 e0 07             	and    $0x7,%eax
f0405f34:	ba 01 00 00 00       	mov    $0x1,%edx
f0405f39:	89 c1                	mov    %eax,%ecx
f0405f3b:	d3 e2                	shl    %cl,%edx
f0405f3d:	89 d0                	mov    %edx,%eax
f0405f3f:	89 c2                	mov    %eax,%edx
f0405f41:	0f b6 45 f6          	movzbl -0xa(%ebp),%eax
f0405f45:	09 d0                	or     %edx,%eax
f0405f47:	88 45 f5             	mov    %al,-0xb(%ebp)
f0405f4a:	0f b6 55 f5          	movzbl -0xb(%ebp),%edx
f0405f4e:	0f b6 45 f7          	movzbl -0x9(%ebp),%eax
f0405f52:	83 ec 08             	sub    $0x8,%esp
f0405f55:	52                   	push   %edx
f0405f56:	50                   	push   %eax
f0405f57:	e8 c0 f4 ff ff       	call   f040541c <cpu_out8>
f0405f5c:	83 c4 10             	add    $0x10,%esp
f0405f5f:	80 7d e4 07          	cmpb   $0x7,-0x1c(%ebp)
f0405f63:	76 13                	jbe    f0405f78 <karch_mask_i8259+0x7f>
f0405f65:	80 7d f5 ff          	cmpb   $0xff,-0xb(%ebp)
f0405f69:	75 0d                	jne    f0405f78 <karch_mask_i8259+0x7f>
f0405f6b:	83 ec 0c             	sub    $0xc,%esp
f0405f6e:	6a 02                	push   $0x2
f0405f70:	e8 84 ff ff ff       	call   f0405ef9 <karch_mask_i8259>
f0405f75:	83 c4 10             	add    $0x10,%esp
f0405f78:	90                   	nop
f0405f79:	c9                   	leave
f0405f7a:	c3                   	ret

f0405f7b <karch_disable_i8259>:
f0405f7b:	55                   	push   %ebp
f0405f7c:	89 e5                	mov    %esp,%ebp
f0405f7e:	83 ec 08             	sub    $0x8,%esp
f0405f81:	83 ec 08             	sub    $0x8,%esp
f0405f84:	68 ff 00 00 00       	push   $0xff
f0405f89:	68 a1 00 00 00       	push   $0xa1
f0405f8e:	e8 89 f4 ff ff       	call   f040541c <cpu_out8>
f0405f93:	83 c4 10             	add    $0x10,%esp
f0405f96:	83 ec 08             	sub    $0x8,%esp
f0405f99:	68 ff 00 00 00       	push   $0xff
f0405f9e:	6a 21                	push   $0x21
f0405fa0:	e8 77 f4 ff ff       	call   f040541c <cpu_out8>
f0405fa5:	83 c4 10             	add    $0x10,%esp
f0405fa8:	83 ec 0c             	sub    $0xc,%esp
f0405fab:	6a 21                	push   $0x21
f0405fad:	e8 33 f4 ff ff       	call   f04053e5 <cpu_in8>
f0405fb2:	83 c4 10             	add    $0x10,%esp
f0405fb5:	90                   	nop
f0405fb6:	c9                   	leave
f0405fb7:	c3                   	ret

f0405fb8 <karch_i8259_eoi>:
f0405fb8:	55                   	push   %ebp
f0405fb9:	89 e5                	mov    %esp,%ebp
f0405fbb:	83 ec 08             	sub    $0x8,%esp
f0405fbe:	83 7d 08 07          	cmpl   $0x7,0x8(%ebp)
f0405fc2:	77 11                	ja     f0405fd5 <karch_i8259_eoi+0x1d>
f0405fc4:	83 ec 08             	sub    $0x8,%esp
f0405fc7:	6a 20                	push   $0x20
f0405fc9:	6a 20                	push   $0x20
f0405fcb:	e8 4c f4 ff ff       	call   f040541c <cpu_out8>
f0405fd0:	83 c4 10             	add    $0x10,%esp
f0405fd3:	eb 21                	jmp    f0405ff6 <karch_i8259_eoi+0x3e>
f0405fd5:	83 ec 08             	sub    $0x8,%esp
f0405fd8:	6a 20                	push   $0x20
f0405fda:	6a 20                	push   $0x20
f0405fdc:	e8 3b f4 ff ff       	call   f040541c <cpu_out8>
f0405fe1:	83 c4 10             	add    $0x10,%esp
f0405fe4:	83 ec 08             	sub    $0x8,%esp
f0405fe7:	6a 20                	push   $0x20
f0405fe9:	68 a0 00 00 00       	push   $0xa0
f0405fee:	e8 29 f4 ff ff       	call   f040541c <cpu_out8>
f0405ff3:	83 c4 10             	add    $0x10,%esp
f0405ff6:	90                   	nop
f0405ff7:	c9                   	leave
f0405ff8:	c3                   	ret

f0405ff9 <karch_get_hwint_i8259>:
f0405ff9:	55                   	push   %ebp
f0405ffa:	89 e5                	mov    %esp,%ebp
f0405ffc:	83 ec 04             	sub    $0x4,%esp
f0405fff:	8b 45 08             	mov    0x8(%ebp),%eax
f0406002:	88 45 fc             	mov    %al,-0x4(%ebp)
f0406005:	80 7d fc 0f          	cmpb   $0xf,-0x4(%ebp)
f0406009:	76 07                	jbe    f0406012 <karch_get_hwint_i8259+0x19>
f040600b:	b8 00 00 00 00       	mov    $0x0,%eax
f0406010:	eb 31                	jmp    f0406043 <karch_get_hwint_i8259+0x4a>
f0406012:	83 7d 0c 00          	cmpl   $0x0,0xc(%ebp)
f0406016:	74 10                	je     f0406028 <karch_get_hwint_i8259+0x2f>
f0406018:	0f b6 45 fc          	movzbl -0x4(%ebp),%eax
f040601c:	8b 14 85 c0 14 41 f0 	mov    -0xfbeeb40(,%eax,4),%edx
f0406023:	8b 45 0c             	mov    0xc(%ebp),%eax
f0406026:	89 10                	mov    %edx,(%eax)
f0406028:	83 7d 10 00          	cmpl   $0x0,0x10(%ebp)
f040602c:	74 10                	je     f040603e <karch_get_hwint_i8259+0x45>
f040602e:	0f b6 45 fc          	movzbl -0x4(%ebp),%eax
f0406032:	8b 14 85 00 15 41 f0 	mov    -0xfbeeb00(,%eax,4),%edx
f0406039:	8b 45 10             	mov    0x10(%ebp),%eax
f040603c:	89 10                	mov    %edx,(%eax)
f040603e:	b8 01 00 00 00       	mov    $0x1,%eax
f0406043:	c9                   	leave
f0406044:	c3                   	ret

f0406045 <karch_set_hwint_i8259>:
f0406045:	55                   	push   %ebp
f0406046:	89 e5                	mov    %esp,%ebp
f0406048:	83 ec 04             	sub    $0x4,%esp
f040604b:	8b 45 08             	mov    0x8(%ebp),%eax
f040604e:	88 45 fc             	mov    %al,-0x4(%ebp)
f0406051:	80 7d fc 0f          	cmpb   $0xf,-0x4(%ebp)
f0406055:	76 07                	jbe    f040605e <karch_set_hwint_i8259+0x19>
f0406057:	b8 00 00 00 00       	mov    $0x0,%eax
f040605c:	eb 21                	jmp    f040607f <karch_set_hwint_i8259+0x3a>
f040605e:	0f b6 45 fc          	movzbl -0x4(%ebp),%eax
f0406062:	8b 55 0c             	mov    0xc(%ebp),%edx
f0406065:	89 14 85 c0 14 41 f0 	mov    %edx,-0xfbeeb40(,%eax,4)
f040606c:	0f b6 45 fc          	movzbl -0x4(%ebp),%eax
f0406070:	8b 55 10             	mov    0x10(%ebp),%edx
f0406073:	89 14 85 00 15 41 f0 	mov    %edx,-0xfbeeb00(,%eax,4)
f040607a:	b8 01 00 00 00       	mov    $0x1,%eax
f040607f:	c9                   	leave
f0406080:	c3                   	ret

f0406081 <karch_i8259_hwint>:
f0406081:	55                   	push   %ebp
f0406082:	89 e5                	mov    %esp,%ebp
f0406084:	83 ec 18             	sub    $0x18,%esp
f0406087:	8b 45 08             	mov    0x8(%ebp),%eax
f040608a:	8b 04 85 c0 14 41 f0 	mov    -0xfbeeb40(,%eax,4),%eax
f0406091:	85 c0                	test   %eax,%eax
f0406093:	74 35                	je     f04060ca <karch_i8259_hwint+0x49>
f0406095:	8b 45 08             	mov    0x8(%ebp),%eax
f0406098:	89 45 e8             	mov    %eax,-0x18(%ebp)
f040609b:	8b 45 0c             	mov    0xc(%ebp),%eax
f040609e:	89 45 ec             	mov    %eax,-0x14(%ebp)
f04060a1:	8b 45 10             	mov    0x10(%ebp),%eax
f04060a4:	89 45 f0             	mov    %eax,-0x10(%ebp)
f04060a7:	8b 45 08             	mov    0x8(%ebp),%eax
f04060aa:	8b 04 85 00 15 41 f0 	mov    -0xfbeeb00(,%eax,4),%eax
f04060b1:	89 45 f4             	mov    %eax,-0xc(%ebp)
f04060b4:	8b 45 08             	mov    0x8(%ebp),%eax
f04060b7:	8b 04 85 c0 14 41 f0 	mov    -0xfbeeb40(,%eax,4),%eax
f04060be:	83 ec 0c             	sub    $0xc,%esp
f04060c1:	8d 55 e8             	lea    -0x18(%ebp),%edx
f04060c4:	52                   	push   %edx
f04060c5:	ff d0                	call   *%eax
f04060c7:	83 c4 10             	add    $0x10,%esp
f04060ca:	83 ec 0c             	sub    $0xc,%esp
f04060cd:	ff 75 08             	push   0x8(%ebp)
f04060d0:	e8 e3 fe ff ff       	call   f0405fb8 <karch_i8259_eoi>
f04060d5:	83 c4 10             	add    $0x10,%esp
f04060d8:	90                   	nop
f04060d9:	c9                   	leave
f04060da:	c3                   	ret

f04060db <karch_init_idt>:
f04060db:	55                   	push   %ebp
f04060dc:	89 e5                	mov    %esp,%ebp
f04060de:	83 ec 08             	sub    $0x8,%esp
f04060e1:	83 ec 04             	sub    $0x4,%esp
f04060e4:	68 00 08 00 00       	push   $0x800
f04060e9:	6a 00                	push   $0x0
f04060eb:	68 48 15 41 f0       	push   $0xf0411548
f04060f0:	e8 5d 04 00 00       	call   f0406552 <kmemset>
f04060f5:	83 c4 10             	add    $0x10,%esp
f04060f8:	b8 48 15 41 f0       	mov    $0xf0411548,%eax
f04060fd:	a3 42 15 41 f0       	mov    %eax,0xf0411542
f0406102:	66 c7 05 40 15 41 f0 	movw   $0x7ff,0xf0411540
f0406109:	ff 07 
f040610b:	90                   	nop
f040610c:	c9                   	leave
f040610d:	c3                   	ret

f040610e <karch_flush_idt>:
f040610e:	55                   	push   %ebp
f040610f:	89 e5                	mov    %esp,%ebp
f0406111:	83 ec 08             	sub    $0x8,%esp
f0406114:	83 ec 0c             	sub    $0xc,%esp
f0406117:	68 40 15 41 f0       	push   $0xf0411540
f040611c:	e8 ae f2 ff ff       	call   f04053cf <load_idt>
f0406121:	83 c4 10             	add    $0x10,%esp
f0406124:	90                   	nop
f0406125:	c9                   	leave
f0406126:	c3                   	ret

f0406127 <karch_set_idt>:
f0406127:	55                   	push   %ebp
f0406128:	89 e5                	mov    %esp,%ebp
f040612a:	83 ec 14             	sub    $0x14,%esp
f040612d:	8b 45 08             	mov    0x8(%ebp),%eax
f0406130:	88 45 ec             	mov    %al,-0x14(%ebp)
f0406133:	0f b6 45 ec          	movzbl -0x14(%ebp),%eax
f0406137:	c1 e0 03             	shl    $0x3,%eax
f040613a:	05 48 15 41 f0       	add    $0xf0411548,%eax
f040613f:	89 45 fc             	mov    %eax,-0x4(%ebp)
f0406142:	8b 45 0c             	mov    0xc(%ebp),%eax
f0406145:	89 c2                	mov    %eax,%edx
f0406147:	8b 45 fc             	mov    -0x4(%ebp),%eax
f040614a:	66 89 10             	mov    %dx,(%eax)
f040614d:	8b 45 0c             	mov    0xc(%ebp),%eax
f0406150:	c1 e8 10             	shr    $0x10,%eax
f0406153:	89 c2                	mov    %eax,%edx
f0406155:	8b 45 fc             	mov    -0x4(%ebp),%eax
f0406158:	66 89 50 06          	mov    %dx,0x6(%eax)
f040615c:	8b 45 fc             	mov    -0x4(%ebp),%eax
f040615f:	66 c7 40 02 08 00    	movw   $0x8,0x2(%eax)
f0406165:	8b 45 10             	mov    0x10(%ebp),%eax
f0406168:	89 c2                	mov    %eax,%edx
f040616a:	8b 45 fc             	mov    -0x4(%ebp),%eax
f040616d:	88 50 05             	mov    %dl,0x5(%eax)
f0406170:	90                   	nop
f0406171:	c9                   	leave
f0406172:	c3                   	ret

f0406173 <karch_load_idt_gatevec>:
f0406173:	55                   	push   %ebp
f0406174:	89 e5                	mov    %esp,%ebp
f0406176:	53                   	push   %ebx
f0406177:	83 ec 14             	sub    $0x14,%esp
f040617a:	8b 45 0c             	mov    0xc(%ebp),%eax
f040617d:	88 45 e8             	mov    %al,-0x18(%ebp)
f0406180:	eb 3f                	jmp    f04061c1 <karch_load_idt_gatevec+0x4e>
f0406182:	8b 45 08             	mov    0x8(%ebp),%eax
f0406185:	8d 50 08             	lea    0x8(%eax),%edx
f0406188:	89 55 08             	mov    %edx,0x8(%ebp)
f040618b:	89 45 f8             	mov    %eax,-0x8(%ebp)
f040618e:	8b 45 f8             	mov    -0x8(%ebp),%eax
f0406191:	0f b6 40 05          	movzbl 0x5(%eax),%eax
f0406195:	0f b6 c0             	movzbl %al,%eax
f0406198:	c1 e0 05             	shl    $0x5,%eax
f040619b:	0c 8e                	or     $0x8e,%al
f040619d:	89 c1                	mov    %eax,%ecx
f040619f:	8b 45 f8             	mov    -0x8(%ebp),%eax
f04061a2:	8b 00                	mov    (%eax),%eax
f04061a4:	89 c2                	mov    %eax,%edx
f04061a6:	8b 45 f8             	mov    -0x8(%ebp),%eax
f04061a9:	0f b6 58 04          	movzbl 0x4(%eax),%ebx
f04061ad:	0f b6 45 e8          	movzbl -0x18(%ebp),%eax
f04061b1:	01 d8                	add    %ebx,%eax
f04061b3:	0f b6 c0             	movzbl %al,%eax
f04061b6:	51                   	push   %ecx
f04061b7:	52                   	push   %edx
f04061b8:	50                   	push   %eax
f04061b9:	e8 69 ff ff ff       	call   f0406127 <karch_set_idt>
f04061be:	83 c4 0c             	add    $0xc,%esp
f04061c1:	83 7d 08 00          	cmpl   $0x0,0x8(%ebp)
f04061c5:	74 09                	je     f04061d0 <karch_load_idt_gatevec+0x5d>
f04061c7:	8b 45 08             	mov    0x8(%ebp),%eax
f04061ca:	8b 00                	mov    (%eax),%eax
f04061cc:	85 c0                	test   %eax,%eax
f04061ce:	75 b2                	jne    f0406182 <karch_load_idt_gatevec+0xf>
f04061d0:	90                   	nop
f04061d1:	8b 5d fc             	mov    -0x4(%ebp),%ebx
f04061d4:	c9                   	leave
f04061d5:	c3                   	ret

f04061d6 <karch_init_page>:
f04061d6:	55                   	push   %ebp
f04061d7:	89 e5                	mov    %esp,%ebp
f04061d9:	83 ec 08             	sub    $0x8,%esp
f04061dc:	83 ec 0c             	sub    $0xc,%esp
f04061df:	ff 75 08             	push   0x8(%ebp)
f04061e2:	e8 29 00 00 00       	call   f0406210 <karch_page_identity>
f04061e7:	83 c4 10             	add    $0x10,%esp
f04061ea:	83 ec 0c             	sub    $0xc,%esp
f04061ed:	ff 75 08             	push   0x8(%ebp)
f04061f0:	e8 7f 00 00 00       	call   f0406274 <karch_page_remap_kernel>
f04061f5:	83 c4 10             	add    $0x10,%esp
f04061f8:	8b 45 08             	mov    0x8(%ebp),%eax
f04061fb:	8b 80 24 03 00 00    	mov    0x324(%eax),%eax
f0406201:	83 ec 0c             	sub    $0xc,%esp
f0406204:	50                   	push   %eax
f0406205:	e8 33 f1 ff ff       	call   f040533d <write_cr3>
f040620a:	83 c4 10             	add    $0x10,%esp
f040620d:	90                   	nop
f040620e:	c9                   	leave
f040620f:	c3                   	ret

f0406210 <karch_page_identity>:
f0406210:	55                   	push   %ebp
f0406211:	89 e5                	mov    %esp,%ebp
f0406213:	83 ec 10             	sub    $0x10,%esp
f0406216:	c7 45 fc 00 00 00 00 	movl   $0x0,-0x4(%ebp)
f040621d:	eb 48                	jmp    f0406267 <karch_page_identity+0x57>
f040621f:	c7 45 f8 87 00 00 00 	movl   $0x87,-0x8(%ebp)
f0406226:	8b 45 fc             	mov    -0x4(%ebp),%eax
f0406229:	c1 e0 16             	shl    $0x16,%eax
f040622c:	89 45 f4             	mov    %eax,-0xc(%ebp)
f040622f:	8b 45 08             	mov    0x8(%ebp),%eax
f0406232:	8b 00                	mov    (%eax),%eax
f0406234:	25 00 00 c0 ff       	and    $0xffc00000,%eax
f0406239:	8b 55 f4             	mov    -0xc(%ebp),%edx
f040623c:	81 e2 00 00 c0 ff    	and    $0xffc00000,%edx
f0406242:	39 c2                	cmp    %eax,%edx
f0406244:	72 04                	jb     f040624a <karch_page_identity+0x3a>
f0406246:	83 4d f8 18          	orl    $0x18,-0x8(%ebp)
f040624a:	8b 45 08             	mov    0x8(%ebp),%eax
f040624d:	8b 80 24 03 00 00    	mov    0x324(%eax),%eax
f0406253:	8b 55 fc             	mov    -0x4(%ebp),%edx
f0406256:	c1 e2 02             	shl    $0x2,%edx
f0406259:	01 c2                	add    %eax,%edx
f040625b:	8b 45 f4             	mov    -0xc(%ebp),%eax
f040625e:	0b 45 f8             	or     -0x8(%ebp),%eax
f0406261:	89 02                	mov    %eax,(%edx)
f0406263:	83 45 fc 01          	addl   $0x1,-0x4(%ebp)
f0406267:	81 7d fc ff 03 00 00 	cmpl   $0x3ff,-0x4(%ebp)
f040626e:	76 af                	jbe    f040621f <karch_page_identity+0xf>
f0406270:	90                   	nop
f0406271:	90                   	nop
f0406272:	c9                   	leave
f0406273:	c3                   	ret

f0406274 <karch_page_remap_kernel>:
f0406274:	55                   	push   %ebp
f0406275:	89 e5                	mov    %esp,%ebp
f0406277:	83 ec 10             	sub    $0x10,%esp
f040627a:	c7 45 fc 00 00 00 00 	movl   $0x0,-0x4(%ebp)
f0406281:	c7 45 f8 00 00 40 00 	movl   $0x400000,-0x8(%ebp)
f0406288:	b8 00 00 40 f0       	mov    $0xf0400000,%eax
f040628d:	c1 e8 16             	shr    $0x16,%eax
f0406290:	89 45 f4             	mov    %eax,-0xc(%ebp)
f0406293:	eb 2b                	jmp    f04062c0 <karch_page_remap_kernel+0x4c>
f0406295:	8b 45 08             	mov    0x8(%ebp),%eax
f0406298:	8b 80 24 03 00 00    	mov    0x324(%eax),%eax
f040629e:	8b 55 f4             	mov    -0xc(%ebp),%edx
f04062a1:	c1 e2 02             	shl    $0x2,%edx
f04062a4:	01 d0                	add    %edx,%eax
f04062a6:	8b 55 f8             	mov    -0x8(%ebp),%edx
f04062a9:	80 ca 83             	or     $0x83,%dl
f04062ac:	89 10                	mov    %edx,(%eax)
f04062ae:	81 45 fc 00 00 40 00 	addl   $0x400000,-0x4(%ebp)
f04062b5:	81 45 f8 00 00 40 00 	addl   $0x400000,-0x8(%ebp)
f04062bc:	83 45 f4 01          	addl   $0x1,-0xc(%ebp)
f04062c0:	b8 49 24 01 00       	mov    $0x12449,%eax
f04062c5:	39 45 fc             	cmp    %eax,-0x4(%ebp)
f04062c8:	72 cb                	jb     f0406295 <karch_page_remap_kernel+0x21>
f04062ca:	8b 45 08             	mov    0x8(%ebp),%eax
f04062cd:	8b 55 f4             	mov    -0xc(%ebp),%edx
f04062d0:	89 90 28 03 00 00    	mov    %edx,0x328(%eax)
f04062d6:	90                   	nop
f04062d7:	c9                   	leave
f04062d8:	c3                   	ret

f04062d9 <karch_init_tss>:
f04062d9:	55                   	push   %ebp
f04062da:	89 e5                	mov    %esp,%ebp
f04062dc:	83 ec 08             	sub    $0x8,%esp
f04062df:	83 ec 04             	sub    $0x4,%esp
f04062e2:	68 c0 06 00 00       	push   $0x6c0
f04062e7:	6a 00                	push   $0x0
f04062e9:	68 48 1d 41 f0       	push   $0xf0411d48
f04062ee:	e8 5f 02 00 00       	call   f0406552 <kmemset>
f04062f3:	83 c4 10             	add    $0x10,%esp
f04062f6:	83 ec 04             	sub    $0x4,%esp
f04062f9:	6a 40                	push   $0x40
f04062fb:	6a 00                	push   $0x0
f04062fd:	68 08 24 41 f0       	push   $0xf0412408
f0406302:	e8 4b 02 00 00       	call   f0406552 <kmemset>
f0406307:	83 c4 10             	add    $0x10,%esp
f040630a:	c6 05 48 24 41 f0 00 	movb   $0x0,0xf0412448
f0406311:	83 ec 0c             	sub    $0xc,%esp
f0406314:	6a 11                	push   $0x11
f0406316:	e8 70 ed ff ff       	call   f040508b <kcpuinfo>
f040631b:	83 c4 10             	add    $0x10,%esp
f040631e:	85 c0                	test   %eax,%eax
f0406320:	0f 95 c0             	setne  %al
f0406323:	0f b6 c0             	movzbl %al,%eax
f0406326:	89 c2                	mov    %eax,%edx
f0406328:	0f b6 05 48 24 41 f0 	movzbl 0xf0412448,%eax
f040632f:	09 d0                	or     %edx,%eax
f0406331:	a2 48 24 41 f0       	mov    %al,0xf0412448
f0406336:	83 ec 0c             	sub    $0xc,%esp
f0406339:	6a 12                	push   $0x12
f040633b:	e8 4b ed ff ff       	call   f040508b <kcpuinfo>
f0406340:	83 c4 10             	add    $0x10,%esp
f0406343:	85 c0                	test   %eax,%eax
f0406345:	74 07                	je     f040634e <karch_init_tss+0x75>
f0406347:	b8 02 00 00 00       	mov    $0x2,%eax
f040634c:	eb 05                	jmp    f0406353 <karch_init_tss+0x7a>
f040634e:	b8 00 00 00 00       	mov    $0x0,%eax
f0406353:	89 c2                	mov    %eax,%edx
f0406355:	0f b6 05 48 24 41 f0 	movzbl 0xf0412448,%eax
f040635c:	09 d0                	or     %edx,%eax
f040635e:	a2 48 24 41 f0       	mov    %al,0xf0412448
f0406363:	83 ec 08             	sub    $0x8,%esp
f0406366:	68 00 10 41 f0       	push   $0xf0411000
f040636b:	6a 00                	push   $0x0
f040636d:	e8 2d 00 00 00       	call   f040639f <karch_setup_tss>
f0406372:	83 c4 10             	add    $0x10,%esp
f0406375:	90                   	nop
f0406376:	c9                   	leave
f0406377:	c3                   	ret

f0406378 <karch_get_tss>:
f0406378:	55                   	push   %ebp
f0406379:	89 e5                	mov    %esp,%ebp
f040637b:	83 ec 04             	sub    $0x4,%esp
f040637e:	8b 45 08             	mov    0x8(%ebp),%eax
f0406381:	88 45 fc             	mov    %al,-0x4(%ebp)
f0406384:	80 7d fc 0f          	cmpb   $0xf,-0x4(%ebp)
f0406388:	76 07                	jbe    f0406391 <karch_get_tss+0x19>
f040638a:	b8 00 00 00 00       	mov    $0x0,%eax
f040638f:	eb 0c                	jmp    f040639d <karch_get_tss+0x25>
f0406391:	0f b6 45 fc          	movzbl -0x4(%ebp),%eax
f0406395:	6b c0 6c             	imul   $0x6c,%eax,%eax
f0406398:	05 48 1d 41 f0       	add    $0xf0411d48,%eax
f040639d:	c9                   	leave
f040639e:	c3                   	ret

f040639f <karch_setup_tss>:
f040639f:	55                   	push   %ebp
f04063a0:	89 e5                	mov    %esp,%ebp
f04063a2:	83 ec 38             	sub    $0x38,%esp
f04063a5:	8b 45 08             	mov    0x8(%ebp),%eax
f04063a8:	88 45 d4             	mov    %al,-0x2c(%ebp)
f04063ab:	0f b6 45 d4          	movzbl -0x2c(%ebp),%eax
f04063af:	50                   	push   %eax
f04063b0:	e8 c3 ff ff ff       	call   f0406378 <karch_get_tss>
f04063b5:	83 c4 04             	add    $0x4,%esp
f04063b8:	89 45 f4             	mov    %eax,-0xc(%ebp)
f04063bb:	0f b6 45 d4          	movzbl -0x2c(%ebp),%eax
f04063bf:	83 c0 06             	add    $0x6,%eax
f04063c2:	0f b6 c0             	movzbl %al,%eax
f04063c5:	83 ec 0c             	sub    $0xc,%esp
f04063c8:	50                   	push   %eax
f04063c9:	e8 a5 f5 ff ff       	call   f0405973 <karch_get_gdt>
f04063ce:	83 c4 10             	add    $0x10,%esp
f04063d1:	89 45 f0             	mov    %eax,-0x10(%ebp)
f04063d4:	83 7d f0 00          	cmpl   $0x0,-0x10(%ebp)
f04063d8:	74 06                	je     f04063e0 <karch_setup_tss+0x41>
f04063da:	83 7d 0c 00          	cmpl   $0x0,0xc(%ebp)
f04063de:	75 0a                	jne    f04063ea <karch_setup_tss+0x4b>
f04063e0:	b8 00 00 00 00       	mov    $0x0,%eax
f04063e5:	e9 66 01 00 00       	jmp    f0406550 <karch_setup_tss+0x1b1>
f04063ea:	8b 45 0c             	mov    0xc(%ebp),%eax
f04063ed:	83 e8 08             	sub    $0x8,%eax
f04063f0:	89 45 ec             	mov    %eax,-0x14(%ebp)
f04063f3:	8b 45 f4             	mov    -0xc(%ebp),%eax
f04063f6:	6a 00                	push   $0x0
f04063f8:	6a 6c                	push   $0x6c
f04063fa:	50                   	push   %eax
f04063fb:	ff 75 f0             	push   -0x10(%ebp)
f04063fe:	e8 1e f6 ff ff       	call   f0405a21 <karch_set_gdt_data>
f0406403:	83 c4 10             	add    $0x10,%esp
f0406406:	8b 45 f0             	mov    -0x10(%ebp),%eax
f0406409:	c6 40 05 89          	movb   $0x89,0x5(%eax)
f040640d:	83 ec 04             	sub    $0x4,%esp
f0406410:	6a 6c                	push   $0x6c
f0406412:	6a 00                	push   $0x0
f0406414:	ff 75 f4             	push   -0xc(%ebp)
f0406417:	e8 36 01 00 00       	call   f0406552 <kmemset>
f040641c:	83 c4 10             	add    $0x10,%esp
f040641f:	8b 45 f4             	mov    -0xc(%ebp),%eax
f0406422:	c7 40 08 02 00 00 00 	movl   $0x2,0x8(%eax)
f0406429:	8b 45 f4             	mov    -0xc(%ebp),%eax
f040642c:	8b 50 08             	mov    0x8(%eax),%edx
f040642f:	8b 45 f4             	mov    -0xc(%ebp),%eax
f0406432:	89 50 5c             	mov    %edx,0x5c(%eax)
f0406435:	8b 45 f4             	mov    -0xc(%ebp),%eax
f0406438:	8b 50 5c             	mov    0x5c(%eax),%edx
f040643b:	8b 45 f4             	mov    -0xc(%ebp),%eax
f040643e:	89 50 58             	mov    %edx,0x58(%eax)
f0406441:	8b 45 f4             	mov    -0xc(%ebp),%eax
f0406444:	8b 50 58             	mov    0x58(%eax),%edx
f0406447:	8b 45 f4             	mov    -0xc(%ebp),%eax
f040644a:	89 50 48             	mov    %edx,0x48(%eax)
f040644d:	8b 45 f4             	mov    -0xc(%ebp),%eax
f0406450:	8b 50 48             	mov    0x48(%eax),%edx
f0406453:	8b 45 f4             	mov    -0xc(%ebp),%eax
f0406456:	89 50 54             	mov    %edx,0x54(%eax)
f0406459:	8b 45 f4             	mov    -0xc(%ebp),%eax
f040645c:	c7 40 4c 01 00 00 00 	movl   $0x1,0x4c(%eax)
f0406463:	8b 45 f4             	mov    -0xc(%ebp),%eax
f0406466:	c7 40 68 6c 00 00 00 	movl   $0x6c,0x68(%eax)
f040646d:	0f b6 45 d4          	movzbl -0x2c(%ebp),%eax
f0406471:	8b 55 ec             	mov    -0x14(%ebp),%edx
f0406474:	89 14 85 08 24 41 f0 	mov    %edx,-0xfbedbf8(,%eax,4)
f040647b:	8b 04 85 08 24 41 f0 	mov    -0xfbedbf8(,%eax,4),%eax
f0406482:	89 c2                	mov    %eax,%edx
f0406484:	8b 45 f4             	mov    -0xc(%ebp),%eax
f0406487:	89 50 04             	mov    %edx,0x4(%eax)
f040648a:	0f b6 55 d4          	movzbl -0x2c(%ebp),%edx
f040648e:	8b 45 ec             	mov    -0x14(%ebp),%eax
f0406491:	89 50 04             	mov    %edx,0x4(%eax)
f0406494:	8b 45 ec             	mov    -0x14(%ebp),%eax
f0406497:	c7 00 00 00 00 00    	movl   $0x0,(%eax)
f040649d:	0f b6 05 48 24 41 f0 	movzbl 0xf0412448,%eax
f04064a4:	0f b6 c0             	movzbl %al,%eax
f04064a7:	83 e0 01             	and    $0x1,%eax
f04064aa:	85 c0                	test   %eax,%eax
f04064ac:	74 41                	je     f04064ef <karch_setup_tss+0x150>
f04064ae:	83 ec 04             	sub    $0x4,%esp
f04064b1:	6a 08                	push   $0x8
f04064b3:	6a 00                	push   $0x0
f04064b5:	68 74 01 00 00       	push   $0x174
f04064ba:	e8 f1 ee ff ff       	call   f04053b0 <write_msr>
f04064bf:	83 c4 10             	add    $0x10,%esp
f04064c2:	8b 45 f4             	mov    -0xc(%ebp),%eax
f04064c5:	8b 40 04             	mov    0x4(%eax),%eax
f04064c8:	83 ec 04             	sub    $0x4,%esp
f04064cb:	50                   	push   %eax
f04064cc:	6a 00                	push   $0x0
f04064ce:	68 75 01 00 00       	push   $0x175
f04064d3:	e8 d8 ee ff ff       	call   f04053b0 <write_msr>
f04064d8:	83 c4 10             	add    $0x10,%esp
f04064db:	83 ec 04             	sub    $0x4,%esp
f04064de:	6a 00                	push   $0x0
f04064e0:	6a 00                	push   $0x0
f04064e2:	68 76 01 00 00       	push   $0x176
f04064e7:	e8 c4 ee ff ff       	call   f04053b0 <write_msr>
f04064ec:	83 c4 10             	add    $0x10,%esp
f04064ef:	0f b6 05 48 24 41 f0 	movzbl 0xf0412448,%eax
f04064f6:	0f b6 c0             	movzbl %al,%eax
f04064f9:	83 e0 02             	and    $0x2,%eax
f04064fc:	85 c0                	test   %eax,%eax
f04064fe:	74 50                	je     f0406550 <karch_setup_tss+0x1b1>
f0406500:	83 ec 04             	sub    $0x4,%esp
f0406503:	8d 45 e8             	lea    -0x18(%ebp),%eax
f0406506:	50                   	push   %eax
f0406507:	8d 45 e4             	lea    -0x1c(%ebp),%eax
f040650a:	50                   	push   %eax
f040650b:	68 80 00 00 c0       	push   $0xc0000080
f0406510:	e8 85 ee ff ff       	call   f040539a <read_msr>
f0406515:	83 c4 10             	add    $0x10,%esp
f0406518:	8b 45 e8             	mov    -0x18(%ebp),%eax
f040651b:	83 c8 01             	or     $0x1,%eax
f040651e:	89 45 e8             	mov    %eax,-0x18(%ebp)
f0406521:	8b 55 e8             	mov    -0x18(%ebp),%edx
f0406524:	8b 45 e4             	mov    -0x1c(%ebp),%eax
f0406527:	83 ec 04             	sub    $0x4,%esp
f040652a:	52                   	push   %edx
f040652b:	50                   	push   %eax
f040652c:	68 80 00 00 c0       	push   $0xc0000080
f0406531:	e8 7a ee ff ff       	call   f04053b0 <write_msr>
f0406536:	83 c4 10             	add    $0x10,%esp
f0406539:	83 ec 04             	sub    $0x4,%esp
f040653c:	6a 00                	push   $0x0
f040653e:	68 08 00 1b 00       	push   $0x1b0008
f0406543:	68 81 00 00 c0       	push   $0xc0000081
f0406548:	e8 63 ee ff ff       	call   f04053b0 <write_msr>
f040654d:	83 c4 10             	add    $0x10,%esp
f0406550:	c9                   	leave
f0406551:	c3                   	ret

f0406552 <kmemset>:
f0406552:	55                   	push   %ebp
f0406553:	89 e5                	mov    %esp,%ebp
f0406555:	83 ec 14             	sub    $0x14,%esp
f0406558:	8b 45 0c             	mov    0xc(%ebp),%eax
f040655b:	88 45 ec             	mov    %al,-0x14(%ebp)
f040655e:	c7 45 f4 00 00 00 00 	movl   $0x0,-0xc(%ebp)
f0406565:	8d 45 f4             	lea    -0xc(%ebp),%eax
f0406568:	0f b6 55 ec          	movzbl -0x14(%ebp),%edx
f040656c:	88 10                	mov    %dl,(%eax)
f040656e:	8d 45 f4             	lea    -0xc(%ebp),%eax
f0406571:	83 c0 01             	add    $0x1,%eax
f0406574:	0f b6 55 ec          	movzbl -0x14(%ebp),%edx
f0406578:	88 10                	mov    %dl,(%eax)
f040657a:	8d 45 f4             	lea    -0xc(%ebp),%eax
f040657d:	83 c0 02             	add    $0x2,%eax
f0406580:	0f b6 55 ec          	movzbl -0x14(%ebp),%edx
f0406584:	88 10                	mov    %dl,(%eax)
f0406586:	8d 45 f4             	lea    -0xc(%ebp),%eax
f0406589:	83 c0 03             	add    $0x3,%eax
f040658c:	0f b6 55 ec          	movzbl -0x14(%ebp),%edx
f0406590:	88 10                	mov    %dl,(%eax)
f0406592:	8b 45 08             	mov    0x8(%ebp),%eax
f0406595:	89 45 f8             	mov    %eax,-0x8(%ebp)
f0406598:	c7 45 fc 00 00 00 00 	movl   $0x0,-0x4(%ebp)
f040659f:	eb 11                	jmp    f04065b2 <kmemset+0x60>
f04065a1:	8b 55 f8             	mov    -0x8(%ebp),%edx
f04065a4:	8b 45 fc             	mov    -0x4(%ebp),%eax
f04065a7:	01 c2                	add    %eax,%edx
f04065a9:	8b 45 f4             	mov    -0xc(%ebp),%eax
f04065ac:	89 02                	mov    %eax,(%edx)
f04065ae:	83 45 fc 04          	addl   $0x4,-0x4(%ebp)
f04065b2:	8b 45 fc             	mov    -0x4(%ebp),%eax
f04065b5:	3b 45 10             	cmp    0x10(%ebp),%eax
f04065b8:	72 e7                	jb     f04065a1 <kmemset+0x4f>
f04065ba:	eb 12                	jmp    f04065ce <kmemset+0x7c>
f04065bc:	8b 55 f8             	mov    -0x8(%ebp),%edx
f04065bf:	8b 45 fc             	mov    -0x4(%ebp),%eax
f04065c2:	01 c2                	add    %eax,%edx
f04065c4:	0f b6 45 ec          	movzbl -0x14(%ebp),%eax
f04065c8:	88 02                	mov    %al,(%edx)
f04065ca:	83 45 fc 01          	addl   $0x1,-0x4(%ebp)
f04065ce:	8b 45 fc             	mov    -0x4(%ebp),%eax
f04065d1:	3b 45 10             	cmp    0x10(%ebp),%eax
f04065d4:	72 e6                	jb     f04065bc <kmemset+0x6a>
f04065d6:	90                   	nop
f04065d7:	90                   	nop
f04065d8:	c9                   	leave
f04065d9:	c3                   	ret

f04065da <kmemcpy>:
f04065da:	55                   	push   %ebp
f04065db:	89 e5                	mov    %esp,%ebp
f04065dd:	83 ec 10             	sub    $0x10,%esp
f04065e0:	8b 45 08             	mov    0x8(%ebp),%eax
f04065e3:	89 45 fc             	mov    %eax,-0x4(%ebp)
f04065e6:	8b 45 0c             	mov    0xc(%ebp),%eax
f04065e9:	89 45 f8             	mov    %eax,-0x8(%ebp)
f04065ec:	eb 1a                	jmp    f0406608 <kmemcpy+0x2e>
f04065ee:	8b 55 f8             	mov    -0x8(%ebp),%edx
f04065f1:	8d 42 04             	lea    0x4(%edx),%eax
f04065f4:	89 45 f8             	mov    %eax,-0x8(%ebp)
f04065f7:	8b 45 fc             	mov    -0x4(%ebp),%eax
f04065fa:	8d 48 04             	lea    0x4(%eax),%ecx
f04065fd:	89 4d fc             	mov    %ecx,-0x4(%ebp)
f0406600:	8b 12                	mov    (%edx),%edx
f0406602:	89 10                	mov    %edx,(%eax)
f0406604:	83 6d 10 04          	subl   $0x4,0x10(%ebp)
f0406608:	83 7d 10 03          	cmpl   $0x3,0x10(%ebp)
f040660c:	77 e0                	ja     f04065ee <kmemcpy+0x14>
f040660e:	8b 45 fc             	mov    -0x4(%ebp),%eax
f0406611:	89 45 f4             	mov    %eax,-0xc(%ebp)
f0406614:	8b 45 f8             	mov    -0x8(%ebp),%eax
f0406617:	89 45 f0             	mov    %eax,-0x10(%ebp)
f040661a:	eb 1b                	jmp    f0406637 <kmemcpy+0x5d>
f040661c:	8b 55 f0             	mov    -0x10(%ebp),%edx
f040661f:	8d 42 01             	lea    0x1(%edx),%eax
f0406622:	89 45 f0             	mov    %eax,-0x10(%ebp)
f0406625:	8b 45 f4             	mov    -0xc(%ebp),%eax
f0406628:	8d 48 01             	lea    0x1(%eax),%ecx
f040662b:	89 4d f4             	mov    %ecx,-0xc(%ebp)
f040662e:	0f b6 12             	movzbl (%edx),%edx
f0406631:	88 10                	mov    %dl,(%eax)
f0406633:	83 6d 10 01          	subl   $0x1,0x10(%ebp)
f0406637:	83 7d 10 00          	cmpl   $0x0,0x10(%ebp)
f040663b:	75 df                	jne    f040661c <kmemcpy+0x42>
f040663d:	90                   	nop
f040663e:	90                   	nop
f040663f:	c9                   	leave
f0406640:	c3                   	ret

f0406641 <kmemmove>:
f0406641:	55                   	push   %ebp
f0406642:	89 e5                	mov    %esp,%ebp
f0406644:	83 ec 10             	sub    $0x10,%esp
f0406647:	83 7d 10 00          	cmpl   $0x0,0x10(%ebp)
f040664b:	74 7c                	je     f04066c9 <kmemmove+0x88>
f040664d:	8b 45 08             	mov    0x8(%ebp),%eax
f0406650:	3b 45 0c             	cmp    0xc(%ebp),%eax
f0406653:	73 13                	jae    f0406668 <kmemmove+0x27>
f0406655:	ff 75 10             	push   0x10(%ebp)
f0406658:	ff 75 0c             	push   0xc(%ebp)
f040665b:	ff 75 08             	push   0x8(%ebp)
f040665e:	e8 77 ff ff ff       	call   f04065da <kmemcpy>
f0406663:	83 c4 0c             	add    $0xc,%esp
f0406666:	eb 62                	jmp    f04066ca <kmemmove+0x89>
f0406668:	8b 55 08             	mov    0x8(%ebp),%edx
f040666b:	8b 45 10             	mov    0x10(%ebp),%eax
f040666e:	01 d0                	add    %edx,%eax
f0406670:	89 45 fc             	mov    %eax,-0x4(%ebp)
f0406673:	8b 55 0c             	mov    0xc(%ebp),%edx
f0406676:	8b 45 10             	mov    0x10(%ebp),%eax
f0406679:	01 d0                	add    %edx,%eax
f040667b:	89 45 f8             	mov    %eax,-0x8(%ebp)
f040667e:	eb 16                	jmp    f0406696 <kmemmove+0x55>
f0406680:	83 6d f8 04          	subl   $0x4,-0x8(%ebp)
f0406684:	83 6d fc 04          	subl   $0x4,-0x4(%ebp)
f0406688:	8b 45 f8             	mov    -0x8(%ebp),%eax
f040668b:	8b 10                	mov    (%eax),%edx
f040668d:	8b 45 fc             	mov    -0x4(%ebp),%eax
f0406690:	89 10                	mov    %edx,(%eax)
f0406692:	83 6d 10 04          	subl   $0x4,0x10(%ebp)
f0406696:	83 7d 10 03          	cmpl   $0x3,0x10(%ebp)
f040669a:	77 e4                	ja     f0406680 <kmemmove+0x3f>
f040669c:	8b 45 fc             	mov    -0x4(%ebp),%eax
f040669f:	89 45 f4             	mov    %eax,-0xc(%ebp)
f04066a2:	8b 45 f8             	mov    -0x8(%ebp),%eax
f04066a5:	89 45 f0             	mov    %eax,-0x10(%ebp)
f04066a8:	eb 17                	jmp    f04066c1 <kmemmove+0x80>
f04066aa:	83 6d f0 01          	subl   $0x1,-0x10(%ebp)
f04066ae:	83 6d f4 01          	subl   $0x1,-0xc(%ebp)
f04066b2:	8b 45 f0             	mov    -0x10(%ebp),%eax
f04066b5:	0f b6 10             	movzbl (%eax),%edx
f04066b8:	8b 45 f4             	mov    -0xc(%ebp),%eax
f04066bb:	88 10                	mov    %dl,(%eax)
f04066bd:	83 6d 10 01          	subl   $0x1,0x10(%ebp)
f04066c1:	83 7d 10 00          	cmpl   $0x0,0x10(%ebp)
f04066c5:	75 e3                	jne    f04066aa <kmemmove+0x69>
f04066c7:	eb 01                	jmp    f04066ca <kmemmove+0x89>
f04066c9:	90                   	nop
f04066ca:	c9                   	leave
f04066cb:	c3                   	ret

f04066cc <kmemcmp>:
f04066cc:	55                   	push   %ebp
f04066cd:	89 e5                	mov    %esp,%ebp
f04066cf:	83 ec 30             	sub    $0x30,%esp
f04066d2:	8b 45 08             	mov    0x8(%ebp),%eax
f04066d5:	89 45 fc             	mov    %eax,-0x4(%ebp)
f04066d8:	8b 45 0c             	mov    0xc(%ebp),%eax
f04066db:	89 45 f8             	mov    %eax,-0x8(%ebp)
f04066de:	c7 45 ec 00 00 00 00 	movl   $0x0,-0x14(%ebp)
f04066e5:	eb 2f                	jmp    f0406716 <kmemcmp+0x4a>
f04066e7:	8b 45 fc             	mov    -0x4(%ebp),%eax
f04066ea:	8d 50 04             	lea    0x4(%eax),%edx
f04066ed:	89 55 fc             	mov    %edx,-0x4(%ebp)
f04066f0:	8b 00                	mov    (%eax),%eax
f04066f2:	89 45 e8             	mov    %eax,-0x18(%ebp)
f04066f5:	8b 45 f8             	mov    -0x8(%ebp),%eax
f04066f8:	8d 50 04             	lea    0x4(%eax),%edx
f04066fb:	89 55 f8             	mov    %edx,-0x8(%ebp)
f04066fe:	8b 00                	mov    (%eax),%eax
f0406700:	89 45 e4             	mov    %eax,-0x1c(%ebp)
f0406703:	8b 45 e8             	mov    -0x18(%ebp),%eax
f0406706:	2b 45 e4             	sub    -0x1c(%ebp),%eax
f0406709:	89 45 ec             	mov    %eax,-0x14(%ebp)
f040670c:	83 7d ec 00          	cmpl   $0x0,-0x14(%ebp)
f0406710:	75 0c                	jne    f040671e <kmemcmp+0x52>
f0406712:	83 6d 10 04          	subl   $0x4,0x10(%ebp)
f0406716:	83 7d 10 03          	cmpl   $0x3,0x10(%ebp)
f040671a:	77 cb                	ja     f04066e7 <kmemcmp+0x1b>
f040671c:	eb 01                	jmp    f040671f <kmemcmp+0x53>
f040671e:	90                   	nop
f040671f:	8b 45 fc             	mov    -0x4(%ebp),%eax
f0406722:	89 45 f4             	mov    %eax,-0xc(%ebp)
f0406725:	8b 45 f8             	mov    -0x8(%ebp),%eax
f0406728:	89 45 f0             	mov    %eax,-0x10(%ebp)
f040672b:	eb 3c                	jmp    f0406769 <kmemcmp+0x9d>
f040672d:	8b 45 f4             	mov    -0xc(%ebp),%eax
f0406730:	8d 50 01             	lea    0x1(%eax),%edx
f0406733:	89 55 f4             	mov    %edx,-0xc(%ebp)
f0406736:	0f b6 00             	movzbl (%eax),%eax
f0406739:	0f b6 c0             	movzbl %al,%eax
f040673c:	89 45 e0             	mov    %eax,-0x20(%ebp)
f040673f:	8b 45 f0             	mov    -0x10(%ebp),%eax
f0406742:	8d 50 01             	lea    0x1(%eax),%edx
f0406745:	89 55 f0             	mov    %edx,-0x10(%ebp)
f0406748:	0f b6 00             	movzbl (%eax),%eax
f040674b:	0f b6 c0             	movzbl %al,%eax
f040674e:	89 45 dc             	mov    %eax,-0x24(%ebp)
f0406751:	8b 45 e0             	mov    -0x20(%ebp),%eax
f0406754:	2b 45 dc             	sub    -0x24(%ebp),%eax
f0406757:	89 45 ec             	mov    %eax,-0x14(%ebp)
f040675a:	83 7d ec 00          	cmpl   $0x0,-0x14(%ebp)
f040675e:	74 05                	je     f0406765 <kmemcmp+0x99>
f0406760:	8b 45 ec             	mov    -0x14(%ebp),%eax
f0406763:	eb 0f                	jmp    f0406774 <kmemcmp+0xa8>
f0406765:	83 6d 10 01          	subl   $0x1,0x10(%ebp)
f0406769:	83 7d 10 00          	cmpl   $0x0,0x10(%ebp)
f040676d:	75 be                	jne    f040672d <kmemcmp+0x61>
f040676f:	b8 00 00 00 00       	mov    $0x0,%eax
f0406774:	c9                   	leave
f0406775:	c3                   	ret

f0406776 <kmain>:
f0406776:	55                   	push   %ebp
f0406777:	89 e5                	mov    %esp,%ebp
f0406779:	83 ec 10             	sub    $0x10,%esp
f040677c:	c7 45 fc 00 80 0b 00 	movl   $0xb8000,-0x4(%ebp)
f0406783:	8b 45 fc             	mov    -0x4(%ebp),%eax
f0406786:	66 c7 00 61 0f       	movw   $0xf61,(%eax)
f040678b:	90                   	nop
f040678c:	c9                   	leave
f040678d:	c3                   	ret

Disassembly of section .rodata:

f0407000 <gv_except-0x60>:
f0407000:	6e                   	outsb  %ds:(%esi),(%dx)
f0407001:	74 65                	je     f0407068 <gv_except+0x8>
f0407003:	6c                   	insb   (%dx),%es:(%edi)
f0407004:	00 63 41             	add    %ah,0x41(%ebx)
f0407007:	4d                   	dec    %ebp
f0407008:	44                   	inc    %esp
f0407009:	00 00                	add    %al,(%eax)
f040700b:	00 fc                	add    %bh,%ah
f040700d:	52                   	push   %edx
f040700e:	40                   	inc    %eax
f040700f:	f0 bc 51 40 f0 c7    	lock mov $0xc7f04051,%esp
f0407015:	51                   	push   %ecx
f0407016:	40                   	inc    %eax
f0407017:	f0 fc                	lock cld
f0407019:	52                   	push   %edx
f040701a:	40                   	inc    %eax
f040701b:	f0 d2 51 40          	lock rclb %cl,0x40(%ecx)
f040701f:	f0 df 51 40          	lock fists 0x40(%ecx)
f0407023:	f0 ea 51 40 f0 f5 51 	lock ljmp $0x4051,$0xf5f04051
f040702a:	40 
f040702b:	f0 27                	lock daa
f040702d:	52                   	push   %edx
f040702e:	40                   	inc    %eax
f040702f:	f0 34 52             	lock xor $0x52,%al
f0407032:	40                   	inc    %eax
f0407033:	f0 41                	lock inc %ecx
f0407035:	52                   	push   %edx
f0407036:	40                   	inc    %eax
f0407037:	f0 4e                	lock dec %esi
f0407039:	52                   	push   %edx
f040703a:	40                   	inc    %eax
f040703b:	f0 59                	lock pop %ecx
f040703d:	52                   	push   %edx
f040703e:	40                   	inc    %eax
f040703f:	f0 66 52             	lock push %dx
f0407042:	40                   	inc    %eax
f0407043:	f0 73 52             	lock jae f0407098 <gv_except+0x38>
f0407046:	40                   	inc    %eax
f0407047:	f0 80 52 40 f0       	lock adcb $0xf0,0x40(%edx)
f040704c:	8a 52 40             	mov    0x40(%edx),%dl
f040704f:	f0 95                	lock xchg %eax,%ebp
f0407051:	52                   	push   %edx
f0407052:	40                   	inc    %eax
f0407053:	f0 d5 52             	lock aad $0x52
f0407056:	40                   	inc    %eax
f0407057:	f0 00 00             	lock add %al,(%eax)
f040705a:	00 00                	add    %al,(%eax)
f040705c:	00 00                	add    %al,(%eax)
	...

f0407060 <gv_except>:
f0407060:	50                   	push   %eax
f0407061:	54                   	push   %esp
f0407062:	40                   	inc    %eax
f0407063:	f0 00 00             	lock add %al,(%eax)
f0407066:	00 00                	add    %al,(%eax)
f0407068:	7f 54                	jg     f04070be <gv_except+0x5e>
f040706a:	40                   	inc    %eax
f040706b:	f0 01 00             	lock add %eax,(%eax)
f040706e:	00 00                	add    %al,(%eax)
f0407070:	ae                   	scas   %es:(%edi),%al
f0407071:	54                   	push   %esp
f0407072:	40                   	inc    %eax
f0407073:	f0 02 00             	lock add (%eax),%al
f0407076:	00 00                	add    %al,(%eax)
f0407078:	dd 54 40 f0          	fstl   -0x10(%eax,%eax,2)
f040707c:	03 03                	add    (%ebx),%eax
f040707e:	00 00                	add    %al,(%eax)
f0407080:	0c 55                	or     $0x55,%al
f0407082:	40                   	inc    %eax
f0407083:	f0 04 03             	lock add $0x3,%al
f0407086:	00 00                	add    %al,(%eax)
f0407088:	3b 55 40             	cmp    0x40(%ebp),%edx
f040708b:	f0 05 00 00 00 6a    	lock add $0x6a000000,%eax
f0407091:	55                   	push   %ebp
f0407092:	40                   	inc    %eax
f0407093:	f0 06                	lock push %es
f0407095:	00 00                	add    %al,(%eax)
f0407097:	00 99 55 40 f0 07    	add    %bl,0x7f04055(%ecx)
f040709d:	00 00                	add    %al,(%eax)
f040709f:	00 c8                	add    %cl,%al
f04070a1:	55                   	push   %ebp
f04070a2:	40                   	inc    %eax
f04070a3:	f0 08 00             	lock or %al,(%eax)
f04070a6:	00 00                	add    %al,(%eax)
f04070a8:	f7 55 40             	notl   0x40(%ebp)
f04070ab:	f0 09 00             	lock or %eax,(%eax)
f04070ae:	00 00                	add    %al,(%eax)
f04070b0:	26 56                	es push %esi
f04070b2:	40                   	inc    %eax
f04070b3:	f0 0a 00             	lock or (%eax),%al
f04070b6:	00 00                	add    %al,(%eax)
f04070b8:	55                   	push   %ebp
f04070b9:	56                   	push   %esi
f04070ba:	40                   	inc    %eax
f04070bb:	f0 0b 00             	lock or (%eax),%eax
f04070be:	00 00                	add    %al,(%eax)
f04070c0:	84 56 40             	test   %dl,0x40(%esi)
f04070c3:	f0 0c 00             	lock or $0x0,%al
f04070c6:	00 00                	add    %al,(%eax)
f04070c8:	b3 56                	mov    $0x56,%bl
f04070ca:	40                   	inc    %eax
f04070cb:	f0 0d 00 00 00 e2    	lock or $0xe2000000,%eax
f04070d1:	56                   	push   %esi
f04070d2:	40                   	inc    %eax
f04070d3:	f0 0e                	lock push %cs
f04070d5:	00 00                	add    %al,(%eax)
f04070d7:	00 11                	add    %dl,(%ecx)
f04070d9:	57                   	push   %edi
f04070da:	40                   	inc    %eax
f04070db:	f0 10 00             	lock adc %al,(%eax)
f04070de:	00 00                	add    %al,(%eax)
f04070e0:	40                   	inc    %eax
f04070e1:	57                   	push   %edi
f04070e2:	40                   	inc    %eax
f04070e3:	f0 11 00             	lock adc %eax,(%eax)
f04070e6:	00 00                	add    %al,(%eax)
f04070e8:	6f                   	outsl  %ds:(%esi),(%dx)
f04070e9:	57                   	push   %edi
f04070ea:	40                   	inc    %eax
f04070eb:	f0 12 00             	lock adc (%eax),%al
	...

f0407100 <gv_i8259_master>:
f0407100:	80 5a 40 f0          	sbbb   $0xf0,0x40(%edx)
f0407104:	00 00                	add    %al,(%eax)
f0407106:	00 00                	add    %al,(%eax)
f0407108:	af                   	scas   %es:(%edi),%eax
f0407109:	5a                   	pop    %edx
f040710a:	40                   	inc    %eax
f040710b:	f0 01 00             	lock add %eax,(%eax)
f040710e:	00 00                	add    %al,(%eax)
f0407110:	de 5a 40             	ficomps 0x40(%edx)
f0407113:	f0 02 00             	lock add (%eax),%al
f0407116:	00 00                	add    %al,(%eax)
f0407118:	0d 5b 40 f0 03       	or     $0x3f0405b,%eax
f040711d:	00 00                	add    %al,(%eax)
f040711f:	00 3c 5b             	add    %bh,(%ebx,%ebx,2)
f0407122:	40                   	inc    %eax
f0407123:	f0 04 00             	lock add $0x0,%al
f0407126:	00 00                	add    %al,(%eax)
f0407128:	6b 5b 40 f0          	imul   $0xfffffff0,0x40(%ebx),%ebx
f040712c:	05 00 00 00 9a       	add    $0x9a000000,%eax
f0407131:	5b                   	pop    %ebx
f0407132:	40                   	inc    %eax
f0407133:	f0 06                	lock push %es
f0407135:	00 00                	add    %al,(%eax)
f0407137:	00 c9                	add    %cl,%cl
f0407139:	5b                   	pop    %ebx
f040713a:	40                   	inc    %eax
f040713b:	f0 07                	lock pop %es
	...

f0407160 <gv_i8259_slave>:
f0407160:	f8                   	clc
f0407161:	5b                   	pop    %ebx
f0407162:	40                   	inc    %eax
f0407163:	f0 00 00             	lock add %al,(%eax)
f0407166:	00 00                	add    %al,(%eax)
f0407168:	27                   	daa
f0407169:	5c                   	pop    %esp
f040716a:	40                   	inc    %eax
f040716b:	f0 01 00             	lock add %eax,(%eax)
f040716e:	00 00                	add    %al,(%eax)
f0407170:	56                   	push   %esi
f0407171:	5c                   	pop    %esp
f0407172:	40                   	inc    %eax
f0407173:	f0 02 00             	lock add (%eax),%al
f0407176:	00 00                	add    %al,(%eax)
f0407178:	85 5c 40 f0          	test   %ebx,-0x10(%eax,%eax,2)
f040717c:	03 00                	add    (%eax),%eax
f040717e:	00 00                	add    %al,(%eax)
f0407180:	b4 5c                	mov    $0x5c,%ah
f0407182:	40                   	inc    %eax
f0407183:	f0 04 00             	lock add $0x0,%al
f0407186:	00 00                	add    %al,(%eax)
f0407188:	e3 5c                	jecxz  f04071e6 <gv_i8259_slave+0x86>
f040718a:	40                   	inc    %eax
f040718b:	f0 05 00 00 00 12    	lock add $0x12000000,%eax
f0407191:	5d                   	pop    %ebp
f0407192:	40                   	inc    %eax
f0407193:	f0 06                	lock push %es
f0407195:	00 00                	add    %al,(%eax)
f0407197:	00 41 5d             	add    %al,0x5d(%ecx)
f040719a:	40                   	inc    %eax
f040719b:	f0 07                	lock pop %es
	...

Disassembly of section .unpaged.rodata:

f04071a8 <.unpaged.rodata>:
f04071a8:	70 61                	jo     f040720b <gv_i8259_slave+0xab>
f04071aa:	6e                   	outsb  %ds:(%esi),(%dx)
f04071ab:	69 63 3a 20 6d 75 6c 	imul   $0x6c756d20,0x3a(%ebx),%esp
f04071b2:	74 69                	je     f040721d <gv_i8259_slave+0xbd>
f04071b4:	62 6f 6f             	bound  %ebp,0x6f(%edi)
f04071b7:	74 20                	je     f04071d9 <gv_i8259_slave+0x79>
f04071b9:	6d                   	insl   (%dx),%es:(%edi)
f04071ba:	61                   	popa
f04071bb:	67 69 63 20 6d 69 73 	imul   $0x6d73696d,0x20(%bp,%di),%esp
f04071c2:	6d 
f04071c3:	61                   	popa
f04071c4:	74 63                	je     f0407229 <gv_i8259_slave+0xc9>
f04071c6:	68 2e 0a 00 00       	push   $0xa2e
f04071cb:	00 70 61             	add    %dh,0x61(%eax)
f04071ce:	6e                   	outsb  %ds:(%esi),(%dx)
f04071cf:	69 63 3a 20 6e 6f 20 	imul   $0x206f6e20,0x3a(%ebx),%esp
f04071d6:	6d                   	insl   (%dx),%es:(%edi)
f04071d7:	6d                   	insl   (%dx),%es:(%edi)
f04071d8:	61                   	popa
f04071d9:	70 20                	jo     f04071fb <gv_i8259_slave+0x9b>
f04071db:	73 6c                	jae    f0407249 <gv_i8259_slave+0xe9>
f04071dd:	6f                   	outsl  %ds:(%esi),(%dx)
f04071de:	74 20                	je     f0407200 <gv_i8259_slave+0xa0>
f04071e0:	61                   	popa
f04071e1:	76 61                	jbe    f0407244 <gv_i8259_slave+0xe4>
f04071e3:	69 6c 61 62 6c 65 2e 	imul   $0xa2e656c,0x62(%ecx,%eiz,2),%ebp
f04071ea:	0a 
	...

Disassembly of section .data:

f0408000 <__vendor_intel>:
f0408000:	00 70 40             	add    %dh,0x40(%eax)
f0408003:	f0                   	lock

f0408004 <__vendor_amd>:
f0408004:	05                   	.byte 0x5
f0408005:	70 40                	jo     f0408047 <__vendor_amd+0x43>
f0408007:	f0                   	lock

Disassembly of section .bss:

f0409000 <_kinit_head>:
	...

f040d000 <_karch_stack_tail>:
	...

f0411000 <kinfo>:
	...

f0411340 <except_cb>:
	...

f04113a0 <except_cb_data>:
	...

f04113f0 <desc_gdt>:
	...

f04113f8 <gdt>:
	...

f04114c0 <i8259_cb>:
	...

f0411500 <i8259_cb_data>:
	...

f0411540 <desc_idt>:
	...

f0411548 <idt>:
	...

f0411d48 <tss>:
	...

f0412408 <stackmark>:
	...

f0412448 <syscall_impl>:
	...

Disassembly of section .comment:

00000000 <.comment>:
   0:	47                   	inc    %edi
   1:	43                   	inc    %ebx
   2:	43                   	inc    %ebx
   3:	3a 20                	cmp    (%eax),%ah
   5:	28 47 4e             	sub    %al,0x4e(%edi)
   8:	55                   	push   %ebp
   9:	29 20                	sub    %esp,(%eax)
   b:	31 33                	xor    %esi,(%ebx)
   d:	2e 32 2e             	xor    %cs:(%esi),%ch
  10:	30 00                	xor    %al,(%eax)

Disassembly of section .unpaged.debug_info:

00000000 <.unpaged.debug_info>:
   0:	66 09 00             	or     %ax,(%eax)
   3:	00 05 00 01 04 00    	add    %al,0x40100
   9:	00 00                	add    %al,(%eax)
   b:	00 1d da 03 00 00    	add    %bl,0x3da
  11:	0c 00                	or     $0x0,%al
  13:	00 00                	add    %al,(%eax)
  15:	00 0b                	add    %cl,(%ebx)
  17:	00 00                	add    %al,(%eax)
  19:	00 00                	add    %al,(%eax)
  1b:	10 40 00             	adc    %al,0x0(%eax)
  1e:	b6 05                	mov    $0x5,%dh
  20:	00 00                	add    %al,(%eax)
  22:	00 00                	add    %al,(%eax)
  24:	00 00                	add    %al,(%eax)
  26:	06                   	push   %es
  27:	01 06                	add    %eax,(%esi)
  29:	1b 03                	sbb    (%ebx),%eax
  2b:	00 00                	add    %al,(%eax)
  2d:	1e                   	push   %ds
  2e:	26 00 00             	add    %al,%es:(%eax)
  31:	00 06                	add    %al,(%esi)
  33:	02 05 68 00 00 00    	add    0x68,%al
  39:	1f                   	pop    %ds
  3a:	04 05                	add    $0x5,%al
  3c:	69 6e 74 00 06 08 05 	imul   $0x5080600,0x74(%esi),%ebp
  43:	0d 02 00 00 06       	or     $0x6000002,%eax
  48:	01 08                	add    %ecx,(%eax)
  4a:	12 03                	adc    (%ebx),%al
  4c:	00 00                	add    %al,(%eax)
  4e:	03 d0                	add    %eax,%edx
  50:	01 00                	add    %eax,(%eax)
  52:	00 02                	add    %al,(%edx)
  54:	0c 1d                	or     $0x1d,%al
  56:	5a                   	pop    %edx
  57:	00 00                	add    %al,(%eax)
  59:	00 06                	add    %al,(%esi)
  5b:	02 07                	add    (%edi),%al
  5d:	ad                   	lods   %ds:(%esi),%eax
  5e:	03 00                	add    (%eax),%eax
  60:	00 03                	add    %al,(%ebx)
  62:	90                   	nop
  63:	01 00                	add    %eax,(%eax)
  65:	00 02                	add    %al,(%edx)
  67:	0d 1d 6d 00 00       	or     $0x6d1d,%eax
  6c:	00 06                	add    %al,(%esi)
  6e:	04 07                	add    $0x7,%al
  70:	6d                   	insl   (%dx),%es:(%edi)
  71:	03 00                	add    (%eax),%eax
  73:	00 03                	add    %al,(%ebx)
  75:	ce                   	into
  76:	04 00                	add    $0x0,%al
  78:	00 02                	add    %al,(%edx)
  7a:	0e                   	push   %cs
  7b:	1d 80 00 00 00       	sbb    $0x80,%eax
  80:	06                   	push   %es
  81:	08 07                	or     %al,(%edi)
  83:	63 03                	arpl   %eax,(%ebx)
  85:	00 00                	add    %al,(%eax)
  87:	08 08                	or     %cl,(%eax)
  89:	03 0a                	add    (%edx),%ecx
  8b:	aa                   	stos   %al,%es:(%edi)
  8c:	00 00                	add    %al,(%eax)
  8e:	00 01                	add    %al,(%ecx)
  90:	9c                   	pushf
  91:	04 00                	add    $0x0,%al
  93:	00 03                	add    %al,(%ebx)
  95:	0b 0e                	or     (%esi),%ecx
  97:	61                   	popa
  98:	00 00                	add    %al,(%eax)
  9a:	00 00                	add    %al,(%eax)
  9c:	0d 6c 65 6e 00       	or     $0x6e656c,%eax
  a1:	03 0c 0e             	add    (%esi,%ecx,1),%ecx
  a4:	61                   	popa
  a5:	00 00                	add    %al,(%eax)
  a7:	00 04 00             	add    %al,(%eax,%eax,1)
  aa:	03 be 02 00 00 03    	add    0x3000002(%esi),%edi
  b0:	0d 03 87 00 00       	or     $0x8703,%eax
  b5:	00 0f                	add    %cl,(%edi)
  b7:	6d                   	insl   (%dx),%es:(%edi)
  b8:	00 00                	add    %al,(%eax)
  ba:	00 03                	add    %al,(%ebx)
  bc:	12 0e                	adc    (%esi),%cl
  be:	cf                   	iret
  bf:	00 00                	add    %al,(%eax)
  c1:	00 02                	add    %al,(%edx)
  c3:	ee                   	out    %al,(%dx)
  c4:	04 00                	add    $0x0,%al
  c6:	00 00                	add    %al,(%eax)
  c8:	02 d7                	add    %bh,%dl
  ca:	00 00                	add    %al,(%eax)
  cc:	00 01                	add    %al,(%ecx)
  ce:	00 08                	add    %cl,(%eax)
  d0:	18 03                	sbb    %al,(%ebx)
  d2:	1a 0c 01             	sbb    (%ecx,%eax,1),%cl
  d5:	00 00                	add    %al,(%eax)
  d7:	01 61 04             	add    %esp,0x4(%ecx)
  da:	00 00                	add    %al,(%eax)
  dc:	03 1b                	add    (%ebx),%ebx
  de:	0e                   	push   %cs
  df:	61                   	popa
  e0:	00 00                	add    %al,(%eax)
  e2:	00 00                	add    %al,(%eax)
  e4:	01 9c 04 00 00 03 1c 	add    %ebx,0x1c030000(%esp,%eax,1)
  eb:	0e                   	push   %cs
  ec:	74 00                	je     ee <SEG_KERN_CS+0xe6>
  ee:	00 00                	add    %al,(%eax)
  f0:	04 0d                	add    $0xd,%al
  f2:	6c                   	insb   (%dx),%es:(%edi)
  f3:	65 6e                	outsb  %gs:(%esi),(%dx)
  f5:	00 03                	add    %al,(%ebx)
  f7:	1d 0e 74 00 00       	sbb    $0x740e,%eax
  fc:	00 0c 01             	add    %cl,(%ecx,%eax,1)
  ff:	b9 02 00 00 03       	mov    $0x3000002,%ecx
 104:	1e                   	push   %ds
 105:	0e                   	push   %cs
 106:	61                   	popa
 107:	00 00                	add    %al,(%eax)
 109:	00 14 00             	add    %dl,(%eax,%eax,1)
 10c:	03 43 03             	add    0x3(%ebx),%eax
 10f:	00 00                	add    %al,(%eax)
 111:	03 1f                	add    (%edi),%ebx
 113:	03 cf                	add    %edi,%ecx
 115:	00 00                	add    %al,(%eax)
 117:	00 20                	add    %ah,(%eax)
 119:	2c 03                	sub    $0x3,%al
 11b:	03 27                	add    (%edi),%esp
 11d:	09 a5 01 00 00 01    	or     %esp,0x1000001(%ebp)
 123:	3e 02 00             	add    %ds:(%eax),%al
 126:	00 03                	add    %al,(%ebx)
 128:	28 0e                	sub    %cl,(%esi)
 12a:	61                   	popa
 12b:	00 00                	add    %al,(%eax)
 12d:	00 00                	add    %al,(%eax)
 12f:	01 04 05 00 00 03 2b 	add    %eax,0x2b030000(,%eax,1)
 136:	0e                   	push   %cs
 137:	61                   	popa
 138:	00 00                	add    %al,(%eax)
 13a:	00 04 01             	add    %al,(%ecx,%eax,1)
 13d:	a2 02 00 00 03       	mov    %al,0x3000002
 142:	2c 10                	sub    $0x10,%al
 144:	aa                   	stos   %al,%es:(%edi)
 145:	00 00                	add    %al,(%eax)
 147:	00 08                	add    %cl,(%eax)
 149:	01 83 01 00 00 03    	add    %eax,0x3000001(%ebx)
 14f:	2f                   	das
 150:	10 aa 00 00 00 10    	adc    %ch,0x10000000(%edx)
 156:	01 54 00 00          	add    %edx,0x0(%eax,%eax,1)
 15a:	00 03                	add    %al,(%ebx)
 15c:	32 0e                	xor    (%esi),%cl
 15e:	61                   	popa
 15f:	00 00                	add    %al,(%eax)
 161:	00 18                	add    %bl,(%eax)
 163:	01 fe                	add    %edi,%esi
 165:	01 00                	add    %eax,(%eax)
 167:	00 03                	add    %al,(%ebx)
 169:	33 0e                	xor    (%esi),%ecx
 16b:	61                   	popa
 16c:	00 00                	add    %al,(%eax)
 16e:	00 1c 01             	add    %bl,(%ecx,%eax,1)
 171:	da 02                	fiaddl (%edx)
 173:	00 00                	add    %al,(%eax)
 175:	03 36                	add    (%esi),%esi
 177:	16                   	push   %ss
 178:	a5                   	movsl  %ds:(%esi),%es:(%edi)
 179:	01 00                	add    %eax,(%eax)
 17b:	00 20                	add    %ah,(%eax)
 17d:	11 79 02             	adc    %edi,0x2(%ecx)
 180:	00 00                	add    %al,(%eax)
 182:	37                   	aaa
 183:	0e                   	push   %cs
 184:	61                   	popa
 185:	00 00                	add    %al,(%eax)
 187:	00 20                	add    %ah,(%eax)
 189:	03 11                	add    (%ecx),%edx
 18b:	ed                   	in     (%dx),%eax
 18c:	01 00                	add    %eax,(%eax)
 18e:	00 3a                	add    %bh,(%edx)
 190:	0f bc 01             	bsf    (%ecx),%eax
 193:	00 00                	add    %al,(%eax)
 195:	24 03                	and    $0x3,%al
 197:	11 e5                	adc    %esp,%ebp
 199:	01 00                	add    %eax,(%eax)
 19b:	00 3b                	add    %bh,(%ebx)
 19d:	0e                   	push   %cs
 19e:	61                   	popa
 19f:	00 00                	add    %al,(%eax)
 1a1:	00 28                	add    %ch,(%eax)
 1a3:	03 00                	add    (%eax),%eax
 1a5:	14 0c                	adc    $0xc,%al
 1a7:	01 00                	add    %eax,(%eax)
 1a9:	00 b5 01 00 00 21    	add    %dh,0x21000001(%ebp)
 1af:	b5 01                	mov    $0x1,%ch
 1b1:	00 00                	add    %al,(%eax)
 1b3:	1f                   	pop    %ds
 1b4:	00 06                	add    %al,(%esi)
 1b6:	04 07                	add    $0x7,%al
 1b8:	68 03 00 00 0b       	push   $0xb000003
 1bd:	61                   	popa
 1be:	00 00                	add    %al,(%eax)
 1c0:	00 03                	add    %al,(%ebx)
 1c2:	00 00                	add    %al,(%eax)
 1c4:	00 00                	add    %al,(%eax)
 1c6:	03 3c 03             	add    (%ebx,%eax,1),%edi
 1c9:	18 01                	sbb    %al,(%ecx)
 1cb:	00 00                	add    %al,(%eax)
 1cd:	03 2e                	add    (%esi),%ebp
 1cf:	05 00 00 04 07       	add    $0x7040000,%eax
 1d4:	1d 47 00 00 00       	sbb    $0x47,%eax
 1d9:	03 cd                	add    %ebp,%ecx
 1db:	01 00                	add    %eax,(%eax)
 1dd:	00 04 08             	add    %al,(%eax,%ecx,1)
 1e0:	1d 5a 00 00 00       	sbb    $0x5a,%eax
 1e5:	03 8d 01 00 00 04    	add    0x4000001(%ebp),%ecx
 1eb:	09 1d 6d 00 00 00    	or     %ebx,0x6d
 1f1:	03 cb                	add    %ebx,%ecx
 1f3:	04 00                	add    $0x0,%al
 1f5:	00 04 0a             	add    %al,(%edx,%ecx,1)
 1f8:	1d 80 00 00 00       	sbb    $0x80,%eax
 1fd:	08 10                	or     %dl,(%eax)
 1ff:	04 33                	add    $0x33,%al
 201:	3a 02                	cmp    (%edx),%al
 203:	00 00                	add    %al,(%eax)
 205:	01 a1 04 00 00 04    	add    %esp,0x4000004(%ecx)
 20b:	34 11                	xor    $0x11,%al
 20d:	e5 01                	in     $0x1,%eax
 20f:	00 00                	add    %al,(%eax)
 211:	00 01                	add    %al,(%ecx)
 213:	21 01                	and    %eax,(%ecx)
 215:	00 00                	add    %al,(%eax)
 217:	04 35                	add    $0x35,%al
 219:	11 e5                	adc    %esp,%ebp
 21b:	01 00                	add    %eax,(%eax)
 21d:	00 04 01             	add    %al,(%ecx,%eax,1)
 220:	9c                   	pushf
 221:	04 00                	add    $0x0,%al
 223:	00 04 36             	add    %al,(%esi,%esi,1)
 226:	11 e5                	adc    %esp,%ebp
 228:	01 00                	add    %eax,(%eax)
 22a:	00 08                	add    %cl,(%eax)
 22c:	0d 72 73 76 00       	or     $0x767372,%eax
 231:	04 37                	add    $0x37,%al
 233:	11 e5                	adc    %esp,%ebp
 235:	01 00                	add    %eax,(%eax)
 237:	00 0c 00             	add    %cl,(%eax,%eax,1)
 23a:	03 bc 01 00 00 04 38 	add    0x38040000(%ecx,%eax,1),%edi
 241:	03 fd                	add    %ebp,%edi
 243:	01 00                	add    %eax,(%eax)
 245:	00 08                	add    %cl,(%eax)
 247:	10 04 3d 83 02 00 00 	adc    %al,0x283(,%edi,1)
 24e:	0d 6e 75 6d 00       	or     $0x6d756e,%eax
 253:	04 3e                	add    $0x3e,%al
 255:	11 e5                	adc    %esp,%ebp
 257:	01 00                	add    %eax,(%eax)
 259:	00 00                	add    %al,(%eax)
 25b:	01 61 04             	add    %esp,0x4(%ecx)
 25e:	00 00                	add    %al,(%eax)
 260:	04 3f                	add    $0x3f,%al
 262:	11 e5                	adc    %esp,%ebp
 264:	01 00                	add    %eax,(%eax)
 266:	00 04 01             	add    %al,(%ecx,%eax,1)
 269:	9c                   	pushf
 26a:	04 00                	add    $0x0,%al
 26c:	00 04 40             	add    %al,(%eax,%eax,2)
 26f:	11 e5                	adc    %esp,%ebp
 271:	01 00                	add    %eax,(%eax)
 273:	00 08                	add    %cl,(%eax)
 275:	01 d1                	add    %edx,%ecx
 277:	00 00                	add    %al,(%eax)
 279:	00 04 41             	add    %al,(%ecx,%eax,2)
 27c:	11 e5                	adc    %esp,%ebp
 27e:	01 00                	add    %eax,(%eax)
 280:	00 0c 00             	add    %cl,(%eax,%eax,1)
 283:	03 2c 04             	add    (%esp,%eax,1),%ebp
 286:	00 00                	add    %al,(%eax)
 288:	04 42                	add    $0x42,%al
 28a:	03 46 02             	add    0x2(%esi),%eax
 28d:	00 00                	add    %al,(%eax)
 28f:	0f 6d                	(bad)
 291:	00 00                	add    %al,(%eax)
 293:	00 04 47             	add    %al,(%edi,%eax,2)
 296:	0e                   	push   %cs
 297:	ef                   	out    %eax,(%dx)
 298:	02 00                	add    (%eax),%al
 29a:	00 02                	add    %al,(%edx)
 29c:	9a 00 00 00 01 02 12 	lcall  $0x1202,$0x1000000
 2a3:	01 00                	add    %eax,(%eax)
 2a5:	00 02                	add    %al,(%edx)
 2a7:	02 98 03 00 00 04    	add    0x4000003(%eax),%bl
 2ad:	02 b2 00 00 00 08    	add    0x8000000(%edx),%dh
 2b3:	02 ef                	add    %bh,%ch
 2b5:	02 00                	add    (%eax),%al
 2b7:	00 10                	add    %dl,(%eax)
 2b9:	02 a9 04 00 00 20    	add    0x20000004(%ecx),%ch
 2bf:	02 a5 01 00 00 40    	add    0x40000001(%ebp),%ah
 2c5:	02 66 05             	add    0x5(%esi),%ah
 2c8:	00 00                	add    %al,(%eax)
 2ca:	80 0e 44             	orb    $0x44,(%esi)
 2cd:	00 00                	add    %al,(%eax)
 2cf:	00 00                	add    %al,(%eax)
 2d1:	01 0e                	add    %ecx,(%esi)
 2d3:	58                   	pop    %eax
 2d4:	05 00 00 00 02       	add    $0x2000000,%eax
 2d9:	0e                   	push   %cs
 2da:	c0 03 00             	rolb   $0x0,(%ebx)
 2dd:	00 00                	add    %al,(%eax)
 2df:	04 0e                	add    $0xe,%al
 2e1:	df 02                	filds  (%edx)
 2e3:	00 00                	add    %al,(%eax)
 2e5:	00 08                	add    %cl,(%eax)
 2e7:	0e                   	push   %cs
 2e8:	c1 00 00             	roll   $0x0,(%eax)
 2eb:	00 00                	add    %al,(%eax)
 2ed:	10 00                	adc    %al,(%eax)
 2ef:	15 10 6c 0d 03       	adc    $0x30d6c10,%eax
 2f4:	00 00                	add    %al,(%eax)
 2f6:	16                   	push   %ss
 2f7:	27                   	daa
 2f8:	04 00                	add    $0x0,%al
 2fa:	00 6d 1a             	add    %ch,0x1a(%ebp)
 2fd:	3a 02                	cmp    (%edx),%al
 2ff:	00 00                	add    %al,(%eax)
 301:	16                   	push   %ss
 302:	3f                   	aas
 303:	00 00                	add    %al,(%eax)
 305:	00 6e 17             	add    %ch,0x17(%esi)
 308:	83 02 00             	addl   $0x0,(%edx)
 30b:	00 00                	add    %al,(%eax)
 30d:	08 08                	or     %cl,(%eax)
 30f:	04 93                	add    $0x93,%al
 311:	30 03                	xor    %al,(%ebx)
 313:	00 00                	add    %al,(%eax)
 315:	01 cf                	add    %ecx,%edi
 317:	03 00                	add    (%eax),%eax
 319:	00 04 94             	add    %al,(%esp,%edx,4)
 31c:	19 e5                	sbb    %esp,%ebp
 31e:	01 00                	add    %eax,(%eax)
 320:	00 00                	add    %al,(%eax)
 322:	01 0c 00             	add    %ecx,(%eax,%eax,1)
 325:	00 00                	add    %al,(%eax)
 327:	04 95                	add    $0x95,%al
 329:	19 d9                	sbb    %ebx,%ecx
 32b:	01 00                	add    %eax,(%eax)
 32d:	00 04 00             	add    %al,(%eax,%eax,1)
 330:	08 06                	or     %al,(%esi)
 332:	04 98                	add    $0x98,%al
 334:	87 03                	xchg   %eax,(%ebx)
 336:	00 00                	add    %al,(%eax)
 338:	01 09                	add    %ecx,(%ecx)
 33a:	03 00                	add    (%eax),%eax
 33c:	00 04 99             	add    %al,(%ecx,%ebx,4)
 33f:	19 cd                	sbb    %ecx,%ebp
 341:	01 00                	add    %eax,(%eax)
 343:	00 00                	add    %al,(%eax)
 345:	01 35 02 00 00 04    	add    %esi,0x4000002
 34b:	9a 19 cd 01 00 00 01 	lcall  $0x100,$0x1cd19
 352:	01 72 04             	add    %esi,0x4(%edx)
 355:	00 00                	add    %al,(%eax)
 357:	04 9b                	add    $0x9b,%al
 359:	19 cd                	sbb    %ecx,%ebp
 35b:	01 00                	add    %eax,(%eax)
 35d:	00 02                	add    %al,(%edx)
 35f:	01 85 03 00 00 04    	add    %eax,0x4000003(%ebp)
 365:	9c                   	pushf
 366:	19 cd                	sbb    %ecx,%ebp
 368:	01 00                	add    %eax,(%eax)
 36a:	00 03                	add    %al,(%ebx)
 36c:	01 f5                	add    %esi,%ebp
 36e:	01 00                	add    %eax,(%eax)
 370:	00 04 9d 19 cd 01 00 	add    %al,0x1cd19(,%ebx,4)
 377:	00 04 01             	add    %al,(%ecx,%eax,1)
 37a:	09 01                	or     %eax,(%ecx)
 37c:	00 00                	add    %al,(%eax)
 37e:	04 9e                	add    $0x9e,%al
 380:	19 cd                	sbb    %ecx,%ebp
 382:	01 00                	add    %eax,(%eax)
 384:	00 05 00 15 08 92    	add    %al,0x92081500
 38a:	99                   	cltd
 38b:	03 00                	add    (%eax),%eax
 38d:	00 17                	add    %dl,(%edi)
 38f:	0d 03 00 00 17       	or     $0x17000003,%eax
 394:	30 03                	xor    %al,(%ebx)
 396:	00 00                	add    %al,(%eax)
 398:	00 08                	add    %cl,(%eax)
 39a:	78 04                	js     3a0 <SEG_KERN_CS+0x398>
 39c:	5a                   	pop    %edx
 39d:	00 05 00 00 01 5d    	add    %al,0x5d010000
 3a3:	03 00                	add    (%eax),%eax
 3a5:	00 04 5b             	add    %al,(%ebx,%ebx,2)
 3a8:	11 e5                	adc    %esp,%ebp
 3aa:	01 00                	add    %eax,(%eax)
 3ac:	00 00                	add    %al,(%eax)
 3ae:	01 ac 02 00 00 04 5e 	add    %ebp,0x5e040000(%edx,%eax,1)
 3b5:	11 e5                	adc    %esp,%ebp
 3b7:	01 00                	add    %eax,(%eax)
 3b9:	00 04 01             	add    %al,(%ecx,%eax,1)
 3bc:	29 01                	sub    %eax,(%ecx)
 3be:	00 00                	add    %al,(%eax)
 3c0:	04 5f                	add    $0x5f,%al
 3c2:	11 e5                	adc    %esp,%ebp
 3c4:	01 00                	add    %eax,(%eax)
 3c6:	00 08                	add    %cl,(%eax)
 3c8:	01 b4 01 00 00 04 62 	add    %esi,0x62040000(%ecx,%eax,1)
 3cf:	11 e5                	adc    %esp,%ebp
 3d1:	01 00                	add    %eax,(%eax)
 3d3:	00 0c 01             	add    %cl,(%ecx,%eax,1)
 3d6:	39 05 00 00 04 65    	cmp    %eax,0x65040000
 3dc:	11 e5                	adc    %esp,%ebp
 3de:	01 00                	add    %eax,(%eax)
 3e0:	00 10                	add    %dl,(%eax)
 3e2:	01 20                	add    %esp,(%eax)
 3e4:	03 00                	add    (%eax),%eax
 3e6:	00 04 68             	add    %al,(%eax,%ebp,2)
 3e9:	11 e5                	adc    %esp,%ebp
 3eb:	01 00                	add    %eax,(%eax)
 3ed:	00 14 01             	add    %dl,(%ecx,%eax,1)
 3f0:	eb 00                	jmp    3f2 <SEG_KERN_CS+0x3ea>
 3f2:	00 00                	add    %al,(%eax)
 3f4:	04 69                	add    $0x69,%al
 3f6:	11 e5                	adc    %esp,%ebp
 3f8:	01 00                	add    %eax,(%eax)
 3fa:	00 18                	add    %bl,(%eax)
 3fc:	18 ef                	sbb    %ch,%bh
 3fe:	02 00                	add    (%eax),%al
 400:	00 1c 01             	add    %bl,(%ecx,%eax,1)
 403:	41                   	inc    %ecx
 404:	05 00 00 04 72       	add    $0x72040000,%eax
 409:	11 e5                	adc    %esp,%ebp
 40b:	01 00                	add    %eax,(%eax)
 40d:	00 2c 01             	add    %ch,(%ecx,%eax,1)
 410:	ff 02                	incl   (%edx)
 412:	00 00                	add    %al,(%eax)
 414:	04 73                	add    $0x73,%al
 416:	11 e5                	adc    %esp,%ebp
 418:	01 00                	add    %eax,(%eax)
 41a:	00 30                	add    %dh,(%eax)
 41c:	01 29                	add    %ebp,(%ecx)
 41e:	03 00                	add    (%eax),%eax
 420:	00 04 76             	add    %al,(%esi,%esi,2)
 423:	11 e5                	adc    %esp,%ebp
 425:	01 00                	add    %eax,(%eax)
 427:	00 34 01             	add    %dh,(%ecx,%eax,1)
 42a:	54                   	push   %esp
 42b:	01 00                	add    %eax,(%eax)
 42d:	00 04 77             	add    %al,(%edi,%esi,2)
 430:	11 e5                	adc    %esp,%ebp
 432:	01 00                	add    %eax,(%eax)
 434:	00 38                	add    %bh,(%eax)
 436:	01 60 01             	add    %esp,0x1(%eax)
 439:	00 00                	add    %al,(%eax)
 43b:	04 7a                	add    $0x7a,%al
 43d:	11 e5                	adc    %esp,%ebp
 43f:	01 00                	add    %eax,(%eax)
 441:	00 3c 01             	add    %bh,(%ecx,%eax,1)
 444:	99                   	cltd
 445:	01 00                	add    %eax,(%eax)
 447:	00 04 7d 11 e5 01 00 	add    %al,0x1e511(,%edi,2)
 44e:	00 40 01             	add    %al,0x1(%eax)
 451:	82 02 00             	addb   $0x0,(%edx)
 454:	00 04 80             	add    %al,(%eax,%eax,4)
 457:	11 e5                	adc    %esp,%ebp
 459:	01 00                	add    %eax,(%eax)
 45b:	00 44 01 28          	add    %al,0x28(%ecx,%eax,1)
 45f:	02 00                	add    (%eax),%al
 461:	00 04 83             	add    %al,(%ebx,%eax,4)
 464:	11 e5                	adc    %esp,%ebp
 466:	01 00                	add    %eax,(%eax)
 468:	00 48 01             	add    %cl,0x1(%eax)
 46b:	89 04 00             	mov    %eax,(%eax,%eax,1)
 46e:	00 04 84             	add    %al,(%esp,%eax,4)
 471:	11 e5                	adc    %esp,%ebp
 473:	01 00                	add    %eax,(%eax)
 475:	00 4c 01 54          	add    %cl,0x54(%ecx,%eax,1)
 479:	03 00                	add    (%eax),%eax
 47b:	00 04 85 11 d9 01 00 	add    %al,0x1d911(,%eax,4)
 482:	00 50 01             	add    %dl,0x1(%eax)
 485:	59                   	pop    %ecx
 486:	02 00                	add    (%eax),%al
 488:	00 04 86             	add    %al,(%esi,%eax,4)
 48b:	11 d9                	adc    %ebx,%ecx
 48d:	01 00                	add    %eax,(%eax)
 48f:	00 52 01             	add    %dl,0x1(%edx)
 492:	69 01 00 00 04 87    	imul   $0x87040000,(%ecx),%eax
 498:	11 d9                	adc    %ebx,%ecx
 49a:	01 00                	add    %eax,(%eax)
 49c:	00 54 01 1b          	add    %dl,0x1b(%ecx,%eax,1)
 4a0:	02 00                	add    (%eax),%al
 4a2:	00 04 88             	add    %al,(%eax,%ecx,4)
 4a5:	11 d9                	adc    %ebx,%ecx
 4a7:	01 00                	add    %eax,(%eax)
 4a9:	00 56 01             	add    %dl,0x1(%esi)
 4ac:	97                   	xchg   %eax,%edi
 4ad:	04 00                	add    $0x0,%al
 4af:	00 04 8b             	add    %al,(%ebx,%ecx,4)
 4b2:	11 f1                	adc    %esi,%ecx
 4b4:	01 00                	add    %eax,(%eax)
 4b6:	00 58 01             	add    %bl,0x1(%eax)
 4b9:	7a 03                	jp     4be <SEG_KERN_CS+0x4b6>
 4bb:	00 00                	add    %al,(%eax)
 4bd:	04 8c                	add    $0x8c,%al
 4bf:	11 e5                	adc    %esp,%ebp
 4c1:	01 00                	add    %eax,(%eax)
 4c3:	00 60 01             	add    %ah,0x1(%eax)
 4c6:	6e                   	outsb  %ds:(%esi),(%dx)
 4c7:	02 00                	add    (%eax),%al
 4c9:	00 04 8d 11 e5 01 00 	add    %al,0x1e511(,%ecx,4)
 4d0:	00 64 01 3a          	add    %ah,0x3a(%ecx,%eax,1)
 4d4:	04 00                	add    $0x0,%al
 4d6:	00 04 8e             	add    %al,(%esi,%ecx,4)
 4d9:	11 e5                	adc    %esp,%ebp
 4db:	01 00                	add    %eax,(%eax)
 4dd:	00 68 01             	add    %ch,0x1(%eax)
 4e0:	ab                   	stos   %eax,%es:(%edi)
 4e1:	05 00 00 04 8f       	add    $0x8f040000,%eax
 4e6:	11 cd                	adc    %ecx,%ebp
 4e8:	01 00                	add    %eax,(%eax)
 4ea:	00 6c 01 b4          	add    %ch,-0x4c(%ecx,%eax,1)
 4ee:	02 00                	add    (%eax),%al
 4f0:	00 04 90             	add    %al,(%eax,%edx,4)
 4f3:	11 cd                	adc    %ecx,%ebp
 4f5:	01 00                	add    %eax,(%eax)
 4f7:	00 6d 18             	add    %ch,0x18(%ebp)
 4fa:	87 03                	xchg   %eax,(%ebx)
 4fc:	00 00                	add    %al,(%eax)
 4fe:	70 00                	jo     500 <SEG_KERN_CS+0x4f8>
 500:	03 5f 00             	add    0x0(%edi),%ebx
 503:	00 00                	add    %al,(%eax)
 505:	04 a1                	add    $0xa1,%al
 507:	03 99 03 00 00 0f    	add    0xf000003(%ecx),%ebx
 50d:	6d                   	insl   (%dx),%es:(%edi)
 50e:	00 00                	add    %al,(%eax)
 510:	00 04 b8             	add    %al,(%eax,%edi,4)
 513:	0e                   	push   %cs
 514:	37                   	aaa
 515:	05 00 00 02 f5       	add    $0xf5020000,%eax
 51a:	00 00                	add    %al,(%eax)
 51c:	00 01                	add    %al,(%ecx)
 51e:	02 b4 05 00 00 02 02 	add    0x2020000(%ebp,%eax,1),%dh
 525:	66 04 00             	data16 add $0x0,%al
 528:	00 03                	add    %al,(%ebx)
 52a:	02 52 04             	add    0x4(%edx),%dl
 52d:	00 00                	add    %al,(%eax)
 52f:	04 02                	add    $0x2,%al
 531:	82 05 00 00 05 00 22 	addb   $0x22,0x50000
 538:	d9 01                	flds   (%ecx)
 53a:	00 00                	add    %al,(%eax)
 53c:	18 04 c3             	sbb    %al,(%ebx,%eax,8)
 53f:	08 79 05             	or     %bh,0x5(%ecx)
 542:	00 00                	add    %al,(%eax)
 544:	01 61 04             	add    %esp,0x4(%ecx)
 547:	00 00                	add    %al,(%eax)
 549:	04 c4                	add    $0xc4,%al
 54b:	11 e5                	adc    %esp,%ebp
 54d:	01 00                	add    %eax,(%eax)
 54f:	00 00                	add    %al,(%eax)
 551:	01 9c 04 00 00 04 c5 	add    %ebx,-0x3afc0000(%esp,%eax,1)
 558:	11 f1                	adc    %esi,%ecx
 55a:	01 00                	add    %eax,(%eax)
 55c:	00 04 0d 6c 65 6e 00 	add    %al,0x6e656c(,%ecx,1)
 563:	04 c6                	add    $0xc6,%al
 565:	11 f1                	adc    %esi,%ecx
 567:	01 00                	add    %eax,(%eax)
 569:	00 0c 01             	add    %cl,(%ecx,%eax,1)
 56c:	b9 02 00 00 04       	mov    $0x4000002,%ecx
 571:	c7                   	(bad)
 572:	11 e5                	adc    %esp,%ebp
 574:	01 00                	add    %eax,(%eax)
 576:	00 14 00             	add    %dl,(%eax,%eax,1)
 579:	03 db                	add    %ebx,%ebx
 57b:	01 00                	add    %eax,(%eax)
 57d:	00 04 c9             	add    %al,(%ecx,%ecx,8)
 580:	1c 37                	sbb    $0x37,%al
 582:	05 00 00 09 8c       	add    $0x8c090000,%eax
 587:	00 00                	add    %al,(%eax)
 589:	00 0a                	add    %cl,(%edx)
 58b:	8f 05 00 00 23 04    	pop    0x4230000
 591:	09 4a 05             	or     %ecx,0x5(%edx)
 594:	00 00                	add    %al,(%eax)
 596:	0b 8f 05 00 00 09    	or     0x9000005(%edi),%ecx
 59c:	b9 04 00 00 0d       	mov    $0xd000004,%ecx
 5a1:	8f 05 00 00 09 32    	pop    0x32090000
 5a7:	01 00                	add    %eax,(%eax)
 5a9:	00 0e                	add    %cl,(%esi)
 5ab:	8f 05 00 00 09 8e    	pop    0x8e090000
 5b1:	03 00                	add    (%eax),%eax
 5b3:	00 0f                	add    %cl,(%edi)
 5b5:	8f 05 00 00 09 66    	pop    0x66090000
 5bb:	02 00                	add    (%eax),%al
 5bd:	00 10                	add    %dl,(%eax)
 5bf:	8f 05 00 00 09 5d    	pop    0x5d090000
 5c5:	04 00                	add    $0x0,%al
 5c7:	00 11                	add    %dl,(%ecx)
 5c9:	8f 05 00 00 14 61    	pop    0x61140000
 5cf:	00 00                	add    %al,(%eax)
 5d1:	00 de                	add    %bl,%dh
 5d3:	05 00 00 24 b5       	add    $0xb5240000,%eax
 5d8:	01 00                	add    %eax,(%eax)
 5da:	00 ff                	add    %bh,%bh
 5dc:	03 00                	add    (%eax),%eax
 5de:	25 ed 01 00 00       	and    $0x1ed,%eax
 5e3:	01 09                	add    %ecx,(%ecx)
 5e5:	11 cd                	adc    %ecx,%ebp
 5e7:	05 00 00 00 10       	add    $0x10000000,%eax
 5ec:	05 03 00 40 40       	add    $0x40400003,%eax
 5f1:	00 26                	add    %ah,(%esi)
 5f3:	7b 04                	jnp    5f9 <SEG_KERN_CS+0x5f1>
 5f5:	00 00                	add    %al,(%eax)
 5f7:	01 0a                	add    %ecx,(%edx)
 5f9:	0d c1 01 00 00       	or     $0x1c1,%eax
 5fe:	05 03 00 30 40       	add    $0x40300003,%eax
 603:	00 0f                	add    %cl,(%edi)
 605:	6d                   	insl   (%dx),%es:(%edi)
 606:	00 00                	add    %al,(%eax)
 608:	00 01                	add    %al,(%ecx)
 60a:	18 06                	sbb    %al,(%esi)
 60c:	1d 06 00 00 02       	sbb    $0x2000006,%eax
 611:	76 01                	jbe    614 <SEG_KERN_CS+0x60c>
 613:	00 00                	add    %al,(%eax)
 615:	01 02                	add    %eax,(%edx)
 617:	90                   	nop
 618:	05 00 00 02 00       	add    $0x20000,%eax
 61d:	10 9d 05 00 00 0b    	adc    %bl,0xb000005(%ebp)
 623:	2d 06 00 00 0a       	sub    $0xa000006,%eax
 628:	61                   	popa
 629:	00 00                	add    %al,(%eax)
 62b:	00 00                	add    %al,(%eax)
 62d:	10 74 05 00          	adc    %dh,0x0(%ebp,%eax,1)
 631:	00 09                	add    %cl,(%ecx)
 633:	3d 06 00 00 0a       	cmp    $0xa000006,%eax
 638:	61                   	popa
 639:	00 00                	add    %al,(%eax)
 63b:	00 00                	add    %al,(%eax)
 63d:	19 4c 02 00          	sbb    %ecx,0x0(%edx,%eax,1)
 641:	00 07                	add    %al,(%edi)
 643:	61                   	popa
 644:	00 00                	add    %al,(%eax)
 646:	00 4d 06             	add    %cl,0x6(%ebp)
 649:	00 00                	add    %al,(%eax)
 64b:	1a 00                	sbb    (%eax),%al
 64d:	19 21                	sbb    %esp,(%ecx)
 64f:	05 00 00 06 61       	add    $0x61060000,%eax
 654:	00 00                	add    %al,(%eax)
 656:	00 5d 06             	add    %bl,0x6(%ebp)
 659:	00 00                	add    %al,(%eax)
 65b:	1a 00                	sbb    (%eax),%al
 65d:	10 a8 00 00 00 0d    	adc    %ch,0xd000000(%eax)
 663:	7c 06                	jl     66b <SEG_KERN_CS+0x663>
 665:	00 00                	add    %al,(%eax)
 667:	0a bc 01 00 00 0a bc 	or     -0x43f60000(%ecx,%eax,1),%bh
 66e:	01 00                	add    %eax,(%eax)
 670:	00 0a                	add    %cl,(%edx)
 672:	bc 01 00 00 0a       	mov    $0xa000001,%esp
 677:	bc 01 00 00 00       	mov    $0x1,%esp
 67c:	10 13                	adc    %dl,(%ebx)
 67e:	05 00 00 0a 8c       	add    $0x8c0a0000,%eax
 683:	06                   	push   %es
 684:	00 00                	add    %al,(%eax)
 686:	0a 61 00             	or     0x0(%ecx),%ah
 689:	00 00                	add    %al,(%eax)
 68b:	00 27                	add    %ah,(%edi)
 68d:	8a 02                	mov    (%edx),%al
 68f:	00 00                	add    %al,(%eax)
 691:	01 d3                	add    %edx,%ebx
 693:	06                   	push   %es
 694:	05 15 40 00 b1       	add    $0xb1004015,%eax
 699:	00 00                	add    %al,(%eax)
 69b:	00 01                	add    %al,(%ecx)
 69d:	9c                   	pushf
 69e:	cd 06                	int    $0x6
 6a0:	00 00                	add    %al,(%eax)
 6a2:	05 3a 00 00 00       	add    $0x3a,%eax
 6a7:	d4 0e                	aam    $0xe
 6a9:	61                   	popa
 6aa:	00 00                	add    %al,(%eax)
 6ac:	00 02                	add    %al,(%edx)
 6ae:	91                   	xchg   %eax,%ecx
 6af:	68 04 63 72 30       	push   $0x30726304
 6b4:	00 d5                	add    %dl,%ch
 6b6:	0e                   	push   %cs
 6b7:	61                   	popa
 6b8:	00 00                	add    %al,(%eax)
 6ba:	00 02                	add    %al,(%edx)
 6bc:	91                   	xchg   %eax,%ecx
 6bd:	64 04 63             	fs add $0x63,%al
 6c0:	72 34                	jb     6f6 <SEG_KERN_CS+0x6ee>
 6c2:	00 d5                	add    %dl,%ch
 6c4:	13 61 00             	adc    0x0(%ecx),%esp
 6c7:	00 00                	add    %al,(%eax)
 6c9:	02 91 6c 00 28 2a    	add    0x2a28006c(%ecx),%dl
 6cf:	00 00                	add    %al,(%eax)
 6d1:	00 01                	add    %al,(%ecx)
 6d3:	b9 0a 61 00 00       	mov    $0x610a,%ecx
 6d8:	00 89 14 40 00 7c    	add    %cl,0x7c004014(%ecx)
 6de:	00 00                	add    %al,(%eax)
 6e0:	00 01                	add    %al,(%ecx)
 6e2:	9c                   	pushf
 6e3:	2e 07                	cs pop %es
 6e5:	00 00                	add    %al,(%eax)
 6e7:	04 65                	add    $0x65,%al
 6e9:	61                   	popa
 6ea:	78 00                	js     6ec <SEG_KERN_CS+0x6e4>
 6ec:	ba 0e 61 00 00       	mov    $0x610e,%edx
 6f1:	00 02                	add    %al,(%edx)
 6f3:	91                   	xchg   %eax,%ecx
 6f4:	68 04 65 62 78       	push   $0x78626504
 6f9:	00 ba 17 61 00 00    	add    %bh,0x6117(%edx)
 6ff:	00 02                	add    %al,(%edx)
 701:	91                   	xchg   %eax,%ecx
 702:	64 04 65             	fs add $0x65,%al
 705:	64 78 00             	fs js  708 <SEG_KERN_CS+0x700>
 708:	ba 1c 61 00 00       	mov    $0x611c,%edx
 70d:	00 02                	add    %al,(%edx)
 70f:	91                   	xchg   %eax,%ecx
 710:	60                   	pusha
 711:	04 65                	add    $0x65,%al
 713:	63 78 00             	arpl   %edi,0x0(%eax)
 716:	ba 21 61 00 00       	mov    $0x6121,%edx
 71b:	00 02                	add    %al,(%edx)
 71d:	91                   	xchg   %eax,%ecx
 71e:	5c                   	pop    %esp
 71f:	05 02 01 00 00       	add    $0x102,%eax
 724:	c5 0e                	lds    (%esi),%ecx
 726:	61                   	popa
 727:	00 00                	add    %al,(%eax)
 729:	00 02                	add    %al,(%edx)
 72b:	91                   	xchg   %eax,%ecx
 72c:	6c                   	insb   (%dx),%es:(%edi)
 72d:	00 12                	add    %dl,(%edx)
 72f:	77 00                	ja     731 <SEG_KERN_CS+0x729>
 731:	00 00                	add    %al,(%eax)
 733:	a7                   	cmpsl  %es:(%edi),%ds:(%esi)
 734:	24 14                	and    $0x14,%al
 736:	40                   	inc    %eax
 737:	00 65 00             	add    %ah,0x0(%ebp)
 73a:	00 00                	add    %al,(%eax)
 73c:	01 9c 7b 07 00 00 07 	add    %ebx,0x7000007(%ebx,%edi,2)
 743:	92                   	xchg   %eax,%edx
 744:	04 00                	add    $0x0,%al
 746:	00 a7 28 7b 07 00    	add    %ah,0x77b28(%edi)
 74c:	00 02                	add    %al,(%edx)
 74e:	91                   	xchg   %eax,%ecx
 74f:	00 05 c9 02 00 00    	add    %al,0x2c9
 755:	a8 0e                	test   $0xe,%al
 757:	61                   	popa
 758:	00 00                	add    %al,(%eax)
 75a:	00 02                	add    %al,(%edx)
 75c:	91                   	xchg   %eax,%ecx
 75d:	74 05                	je     764 <SEG_KERN_CS+0x75c>
 75f:	47                   	inc    %edi
 760:	02 00                	add    (%eax),%al
 762:	00 a8 1a 61 00 00    	add    %ch,0x611a(%eax)
 768:	00 02                	add    %al,(%edx)
 76a:	91                   	xchg   %eax,%ecx
 76b:	70 04                	jo     771 <SEG_KERN_CS+0x769>
 76d:	70 64                	jo     7d3 <SEG_KERN_CS+0x7cb>
 76f:	65 00 a9 0e 61 00 00 	add    %ch,%gs:0x610e(%ecx)
 776:	00 02                	add    %al,(%edx)
 778:	91                   	xchg   %eax,%ecx
 779:	6c                   	insb   (%dx),%es:(%edi)
 77a:	00 0b                	add    %cl,(%ebx)
 77c:	c1 01 00             	roll   $0x0,(%ecx)
 77f:	00 12                	add    %dl,(%edx)
 781:	17                   	pop    %ss
 782:	00 00                	add    %al,(%eax)
 784:	00 95 c0 13 40 00    	add    %dl,0x4013c0(%ebp)
 78a:	64 00 00             	add    %al,%fs:(%eax)
 78d:	00 01                	add    %al,(%ecx)
 78f:	9c                   	pushf
 790:	df 07                	filds  (%edi)
 792:	00 00                	add    %al,(%eax)
 794:	07                   	pop    %es
 795:	92                   	xchg   %eax,%edx
 796:	04 00                	add    $0x0,%al
 798:	00 95 26 7b 07 00    	add    %dl,0x77b26(%ebp)
 79e:	00 02                	add    %al,(%edx)
 7a0:	91                   	xchg   %eax,%ecx
 7a1:	00 13                	add    %dl,(%ebx)
 7a3:	c6                   	(bad)
 7a4:	13 40 00             	adc    0x0(%eax),%eax
 7a7:	5a                   	pop    %edx
 7a8:	00 00                	add    %al,(%eax)
 7aa:	00 04 69             	add    %al,(%ecx,%ebp,2)
 7ad:	00 97 12 61 00 00    	add    %dl,0x6112(%edi)
 7b3:	00 02                	add    %al,(%edx)
 7b5:	91                   	xchg   %eax,%ecx
 7b6:	74 13                	je     7cb <SEG_KERN_CS+0x7c3>
 7b8:	cf                   	iret
 7b9:	13 40 00             	adc    0x0(%eax),%eax
 7bc:	44                   	inc    %esp
 7bd:	00 00                	add    %al,(%eax)
 7bf:	00 05 5d 03 00 00    	add    %al,0x35d
 7c5:	98                   	cwtl
 7c6:	12 61 00             	adc    0x0(%ecx),%ah
 7c9:	00 00                	add    %al,(%eax)
 7cb:	02 91 70 05 47 02    	add    0x2470570(%ecx),%dl
 7d1:	00 00                	add    %al,(%eax)
 7d3:	9d                   	popf
 7d4:	12 61 00             	adc    0x0(%ecx),%ah
 7d7:	00 00                	add    %al,(%eax)
 7d9:	02 91 6c 00 00 00    	add    0x6c(%ecx),%dl
 7df:	1b d0                	sbb    %eax,%edx
 7e1:	02 00                	add    (%eax),%al
 7e3:	00 75 54             	add    %dh,0x54(%ebp)
 7e6:	12 40 00             	adc    0x0(%eax),%al
 7e9:	6c                   	insb   (%dx),%es:(%edi)
 7ea:	01 00                	add    %eax,(%eax)
 7ec:	00 01                	add    %al,(%ecx)
 7ee:	9c                   	pushf
 7ef:	38 08                	cmp    %cl,(%eax)
 7f1:	00 00                	add    %al,(%eax)
 7f3:	07                   	pop    %es
 7f4:	e9 04 00 00 75       	jmp    750007fd <MAGIC+0x595257fb>
 7f9:	22 7b 07             	and    0x7(%ebx),%bh
 7fc:	00 00                	add    %al,(%eax)
 7fe:	02 91 00 07 9c 04    	add    0x49c0700(%ecx),%dl
 804:	00 00                	add    %al,(%eax)
 806:	75 31                	jne    839 <SEG_KERN_CS+0x831>
 808:	74 00                	je     80a <SEG_KERN_CS+0x802>
 80a:	00 00                	add    %al,(%eax)
 80c:	02 91 58 0c 6c 65    	add    0x656c0c58(%ecx),%dl
 812:	6e                   	outsb  %ds:(%esi),(%dx)
 813:	00 75 40             	add    %dh,0x40(%ebp)
 816:	74 00                	je     818 <SEG_KERN_CS+0x810>
 818:	00 00                	add    %al,(%eax)
 81a:	02 91 50 04 6e 00    	add    0x6e0450(%ecx),%dl
 820:	86 0e                	xchg   %cl,(%esi)
 822:	61                   	popa
 823:	00 00                	add    %al,(%eax)
 825:	00 02                	add    %al,(%edx)
 827:	91                   	xchg   %eax,%ecx
 828:	6c                   	insb   (%dx),%es:(%edi)
 829:	05 30 02 00 00       	add    $0x230,%eax
 82e:	8f                   	(bad)
 82f:	0e                   	push   %cs
 830:	61                   	popa
 831:	00 00                	add    %al,(%eax)
 833:	00 02                	add    %al,(%edx)
 835:	91                   	xchg   %eax,%ecx
 836:	68 00 1c d7 04       	push   $0x4d71c00
 83b:	00 00                	add    %al,(%eax)
 83d:	71 61                	jno    8a0 <SEG_KERN_CS+0x898>
 83f:	00 00                	add    %al,(%eax)
 841:	00 40 12             	add    %al,0x12(%eax)
 844:	40                   	inc    %eax
 845:	00 14 00             	add    %dl,(%eax,%eax,1)
 848:	00 00                	add    %al,(%eax)
 84a:	01 9c 69 08 00 00 0c 	add    %ebx,0xc000008(%ecx,%ebp,2)
 851:	6e                   	outsb  %ds:(%esi),(%dx)
 852:	00 71 24             	add    %dh,0x24(%ecx)
 855:	61                   	popa
 856:	00 00                	add    %al,(%eax)
 858:	00 02                	add    %al,(%edx)
 85a:	91                   	xchg   %eax,%ecx
 85b:	00 0c 76             	add    %cl,(%esi,%esi,2)
 85e:	00 71 30             	add    %dh,0x30(%ecx)
 861:	61                   	popa
 862:	00 00                	add    %al,(%eax)
 864:	00 02                	add    %al,(%edx)
 866:	91                   	xchg   %eax,%ecx
 867:	04 00                	add    $0x0,%al
 869:	1c 34                	sbb    $0x34,%al
 86b:	03 00                	add    (%eax),%eax
 86d:	00 69 61             	add    %ch,0x61(%ecx)
 870:	00 00                	add    %al,(%eax)
 872:	00 13                	add    %dl,(%ebx)
 874:	12 40 00             	adc    0x0(%eax),%al
 877:	2d 00 00 00 01       	sub    $0x1000000,%eax
 87c:	9c                   	pushf
 87d:	9a 08 00 00 0c 6e 00 	lcall  $0x6e,$0xc000008
 884:	69 22 61 00 00 00    	imul   $0x61,(%edx),%esp
 88a:	02 91 00 0c 76 00    	add    0x760c00(%ecx),%dl
 890:	69 2e 61 00 00 00    	imul   $0x61,(%esi),%ebp
 896:	02 91 04 00 1b 42    	add    0x421b0004(%ecx),%dl
 89c:	01 00                	add    %eax,(%eax)
 89e:	00 3d b5 10 40 00    	add    %bh,0x4010b5
 8a4:	5e                   	pop    %esi
 8a5:	01 00                	add    %eax,(%eax)
 8a7:	00 01                	add    %al,(%ecx)
 8a9:	9c                   	pushf
 8aa:	e3 08                	jecxz  8b4 <SEG_KERN_CS+0x8ac>
 8ac:	00 00                	add    %al,(%eax)
 8ae:	07                   	pop    %es
 8af:	e9 04 00 00 3d       	jmp    3d0008b8 <MAGIC+0x215258b6>
 8b4:	25 7b 07 00 00       	and    $0x77b,%eax
 8b9:	02 91 00 07 92 04    	add    0x4920700(%ecx),%dl
 8bf:	00 00                	add    %al,(%eax)
 8c1:	3d 35 e3 08 00       	cmp    $0x8e335,%eax
 8c6:	00 02                	add    %al,(%edx)
 8c8:	91                   	xchg   %eax,%ecx
 8c9:	04 13                	add    $0x13,%al
 8cb:	53                   	push   %ebx
 8cc:	11 40 00             	adc    %eax,0x0(%eax)
 8cf:	71 00                	jno    8d1 <SEG_KERN_CS+0x8c9>
 8d1:	00 00                	add    %al,(%eax)
 8d3:	05 da 02 00 00       	add    $0x2da,%eax
 8d8:	54                   	push   %esp
 8d9:	14 e8                	adc    $0xe8,%al
 8db:	08 00                	or     %al,(%eax)
 8dd:	00 02                	add    %al,(%edx)
 8df:	91                   	xchg   %eax,%ecx
 8e0:	6c                   	insb   (%dx),%es:(%edi)
 8e1:	00 00                	add    %al,(%eax)
 8e3:	0b 00                	or     (%eax),%eax
 8e5:	05 00 00 0b 79       	add    $0x790b0000,%eax
 8ea:	05 00 00 12 46       	add    $0x46120000,%eax
 8ef:	04 00                	add    $0x0,%al
 8f1:	00 32                	add    %dh,(%edx)
 8f3:	73 10                	jae    905 <SEG_KERN_CS+0x8fd>
 8f5:	40                   	inc    %eax
 8f6:	00 42 00             	add    %al,0x0(%edx)
 8f9:	00 00                	add    %al,(%eax)
 8fb:	01 9c 1e 09 00 00 07 	add    %ebx,0x7000009(%esi,%ebx,1)
 902:	72 00                	jb     904 <SEG_KERN_CS+0x8fc>
 904:	00 00                	add    %al,(%eax)
 906:	32 1e                	xor    (%esi),%bl
 908:	1e                   	push   %ds
 909:	09 00                	or     %eax,(%eax)
 90b:	00 02                	add    %al,(%edx)
 90d:	91                   	xchg   %eax,%ecx
 90e:	00 04 76             	add    %al,(%esi,%esi,2)
 911:	67 61                	addr16 popa
 913:	00 33                	add    %dh,(%ebx)
 915:	0f 23 09             	mov    %ecx,%db1
 918:	00 00                	add    %al,(%eax)
 91a:	02 91 74 00 0b 2d    	add    0x2d0b0074(%ecx),%dl
 920:	00 00                	add    %al,(%eax)
 922:	00 0b                	add    %cl,(%ebx)
 924:	4e                   	dec    %esi
 925:	00 00                	add    %al,(%eax)
 927:	00 29                	add    %ch,(%ecx)
 929:	e8 04 00 00 01       	call   1000932 <_mb_unpaged_end+0xbfb932>
 92e:	21 0e                	and    %ecx,(%esi)
 930:	7b 07                	jnp    939 <SEG_KERN_CS+0x931>
 932:	00 00                	add    %al,(%eax)
 934:	00 10                	add    %dl,(%eax)
 936:	40                   	inc    %eax
 937:	00 73 00             	add    %dh,0x0(%ebx)
 93a:	00 00                	add    %al,(%eax)
 93c:	01 9c 07 a7 03 00 00 	add    %ebx,0x3a7(%edi,%eax,1)
 943:	21 1d 61 00 00 00    	and    %ebx,0x61
 949:	02 91 00 0c 65 62    	add    0x62650c00(%ecx),%dl
 94f:	78 00                	js     951 <SEG_KERN_CS+0x949>
 951:	21 2d 61 00 00 00    	and    %ebp,0x61
 957:	02 91 04 05 e9 04    	add    0x4e90504(%ecx),%dl
 95d:	00 00                	add    %al,(%eax)
 95f:	26 12 7b 07          	adc    %es:0x7(%ebx),%bh
 963:	00 00                	add    %al,(%eax)
 965:	02                   	.byte 0x2
 966:	91                   	xchg   %eax,%ecx
 967:	6c                   	insb   (%dx),%es:(%edi)
	...

Disassembly of section .unpaged.debug_abbrev:

00000000 <.unpaged.debug_abbrev>:
   0:	01 0d 00 03 0e 3a    	add    %ecx,0x3a0e0300
   6:	0b 3b                	or     (%ebx),%edi
   8:	0b 39                	or     (%ecx),%edi
   a:	0b 49 13             	or     0x13(%ecx),%ecx
   d:	38 0b                	cmp    %cl,(%ebx)
   f:	00 00                	add    %al,(%eax)
  11:	02 28                	add    (%eax),%ch
  13:	00 03                	add    %al,(%ebx)
  15:	0e                   	push   %cs
  16:	1c 0b                	sbb    $0xb,%al
  18:	00 00                	add    %al,(%eax)
  1a:	03 16                	add    (%esi),%edx
  1c:	00 03                	add    %al,(%ebx)
  1e:	0e                   	push   %cs
  1f:	3a 0b                	cmp    (%ebx),%cl
  21:	3b 0b                	cmp    (%ebx),%ecx
  23:	39 0b                	cmp    %ecx,(%ebx)
  25:	49                   	dec    %ecx
  26:	13 00                	adc    (%eax),%eax
  28:	00 04 34             	add    %al,(%esp,%esi,1)
  2b:	00 03                	add    %al,(%ebx)
  2d:	08 3a                	or     %bh,(%edx)
  2f:	21 01                	and    %eax,(%ecx)
  31:	3b 0b                	cmp    (%ebx),%ecx
  33:	39 0b                	cmp    %ecx,(%ebx)
  35:	49                   	dec    %ecx
  36:	13 02                	adc    (%edx),%eax
  38:	18 00                	sbb    %al,(%eax)
  3a:	00 05 34 00 03 0e    	add    %al,0xe030034
  40:	3a 21                	cmp    (%ecx),%ah
  42:	01 3b                	add    %edi,(%ebx)
  44:	0b 39                	or     (%ecx),%edi
  46:	0b 49 13             	or     0x13(%ecx),%ecx
  49:	02 18                	add    (%eax),%bl
  4b:	00 00                	add    %al,(%eax)
  4d:	06                   	push   %es
  4e:	24 00                	and    $0x0,%al
  50:	0b 0b                	or     (%ebx),%ecx
  52:	3e 0b 03             	or     %ds:(%ebx),%eax
  55:	0e                   	push   %cs
  56:	00 00                	add    %al,(%eax)
  58:	07                   	pop    %es
  59:	05 00 03 0e 3a       	add    $0x3a0e0300,%eax
  5e:	21 01                	and    %eax,(%ecx)
  60:	3b 0b                	cmp    (%ebx),%ecx
  62:	39 0b                	cmp    %ecx,(%ebx)
  64:	49                   	dec    %ecx
  65:	13 02                	adc    (%edx),%eax
  67:	18 00                	sbb    %al,(%eax)
  69:	00 08                	add    %cl,(%eax)
  6b:	13 01                	adc    (%ecx),%eax
  6d:	0b 0b                	or     (%ebx),%ecx
  6f:	3a 0b                	cmp    (%ebx),%cl
  71:	3b 0b                	cmp    (%ebx),%ecx
  73:	39 21                	cmp    %esp,(%ecx)
  75:	09 01                	or     %eax,(%ecx)
  77:	13 00                	adc    (%eax),%eax
  79:	00 09                	add    %cl,(%ecx)
  7b:	34 00                	xor    $0x0,%al
  7d:	03 0e                	add    (%esi),%ecx
  7f:	3a 21                	cmp    (%ecx),%ah
  81:	05 3b 0b 39 21       	add    $0x21390b3b,%eax
  86:	0e                   	push   %cs
  87:	49                   	dec    %ecx
  88:	13 3f                	adc    (%edi),%edi
  8a:	19 3c 19             	sbb    %edi,(%ecx,%ebx,1)
  8d:	00 00                	add    %al,(%eax)
  8f:	0a 05 00 49 13 00    	or     0x134900,%al
  95:	00 0b                	add    %cl,(%ebx)
  97:	0f 00 0b             	str    (%ebx)
  9a:	21 04 49             	and    %eax,(%ecx,%ecx,2)
  9d:	13 00                	adc    (%eax),%eax
  9f:	00 0c 05 00 03 08 3a 	add    %cl,0x3a080300(,%eax,1)
  a6:	21 01                	and    %eax,(%ecx)
  a8:	3b 0b                	cmp    (%ebx),%ecx
  aa:	39 0b                	cmp    %ecx,(%ebx)
  ac:	49                   	dec    %ecx
  ad:	13 02                	adc    (%edx),%eax
  af:	18 00                	sbb    %al,(%eax)
  b1:	00 0d 0d 00 03 08    	add    %cl,0x803000d
  b7:	3a 0b                	cmp    (%ebx),%cl
  b9:	3b 0b                	cmp    (%ebx),%ecx
  bb:	39 0b                	cmp    %ecx,(%ebx)
  bd:	49                   	dec    %ecx
  be:	13 38                	adc    (%eax),%edi
  c0:	0b 00                	or     (%eax),%eax
  c2:	00 0e                	add    %cl,(%esi)
  c4:	28 00                	sub    %al,(%eax)
  c6:	03 0e                	add    (%esi),%ecx
  c8:	1c 05                	sbb    $0x5,%al
  ca:	00 00                	add    %al,(%eax)
  cc:	0f 04                	(bad)
  ce:	01 3e                	add    %edi,(%esi)
  d0:	21 07                	and    %eax,(%edi)
  d2:	0b 21                	or     (%ecx),%esp
  d4:	04 49                	add    $0x49,%al
  d6:	13 3a                	adc    (%edx),%edi
  d8:	0b 3b                	or     (%ebx),%edi
  da:	0b 39                	or     (%ecx),%edi
  dc:	0b 01                	or     (%ecx),%eax
  de:	13 00                	adc    (%eax),%eax
  e0:	00 10                	add    %dl,(%eax)
  e2:	2e 01 3f             	add    %edi,%cs:(%edi)
  e5:	19 03                	sbb    %eax,(%ebx)
  e7:	0e                   	push   %cs
  e8:	3a 21                	cmp    (%ecx),%ah
  ea:	06                   	push   %es
  eb:	3b 0b                	cmp    (%ebx),%ecx
  ed:	39 21                	cmp    %esp,(%ecx)
  ef:	0d 27 19 3c 19       	or     $0x193c1927,%eax
  f4:	01 13                	add    %edx,(%ebx)
  f6:	00 00                	add    %al,(%eax)
  f8:	11 0d 00 03 0e 3a    	adc    %ecx,0x3a0e0300
  fe:	21 03                	and    %eax,(%ebx)
 100:	3b 0b                	cmp    (%ebx),%ecx
 102:	39 0b                	cmp    %ecx,(%ebx)
 104:	49                   	dec    %ecx
 105:	13 38                	adc    (%eax),%edi
 107:	05 00 00 12 2e       	add    $0x2e120000,%eax
 10c:	01 3f                	add    %edi,(%edi)
 10e:	19 03                	sbb    %eax,(%ebx)
 110:	0e                   	push   %cs
 111:	3a 21                	cmp    (%ecx),%ah
 113:	01 3b                	add    %edi,(%ebx)
 115:	0b 39                	or     (%ecx),%edi
 117:	21 06                	and    %eax,(%esi)
 119:	27                   	daa
 11a:	19 11                	sbb    %edx,(%ecx)
 11c:	01 12                	add    %edx,(%edx)
 11e:	06                   	push   %es
 11f:	40                   	inc    %eax
 120:	18 7a 19             	sbb    %bh,0x19(%edx)
 123:	01 13                	add    %edx,(%ebx)
 125:	00 00                	add    %al,(%eax)
 127:	13 0b                	adc    (%ebx),%ecx
 129:	01 11                	add    %edx,(%ecx)
 12b:	01 12                	add    %edx,(%edx)
 12d:	06                   	push   %es
 12e:	00 00                	add    %al,(%eax)
 130:	14 01                	adc    $0x1,%al
 132:	01 49 13             	add    %ecx,0x13(%ecx)
 135:	01 13                	add    %edx,(%ebx)
 137:	00 00                	add    %al,(%eax)
 139:	15 17 01 0b 0b       	adc    $0xb0b0117,%eax
 13e:	3a 21                	cmp    (%ecx),%ah
 140:	04 3b                	add    $0x3b,%al
 142:	0b 39                	or     (%ecx),%edi
 144:	21 05 01 13 00 00    	and    %eax,0x1301
 14a:	16                   	push   %ss
 14b:	0d 00 03 0e 3a       	or     $0x3a0e0300,%eax
 150:	21 04 3b             	and    %eax,(%ebx,%edi,1)
 153:	0b 39                	or     (%ecx),%edi
 155:	0b 49 13             	or     0x13(%ecx),%ecx
 158:	00 00                	add    %al,(%eax)
 15a:	17                   	pop    %ss
 15b:	0d 00 49 13 00       	or     $0x134900,%eax
 160:	00 18                	add    %bl,(%eax)
 162:	0d 00 49 13 38       	or     $0x38134900,%eax
 167:	0b 00                	or     (%eax),%eax
 169:	00 19                	add    %bl,(%ecx)
 16b:	2e 01 3f             	add    %edi,%cs:(%edi)
 16e:	19 03                	sbb    %eax,(%ebx)
 170:	0e                   	push   %cs
 171:	3a 21                	cmp    (%ecx),%ah
 173:	06                   	push   %es
 174:	3b 0b                	cmp    (%ebx),%ecx
 176:	39 21                	cmp    %esp,(%ecx)
 178:	11 49 13             	adc    %ecx,0x13(%ecx)
 17b:	3c 19                	cmp    $0x19,%al
 17d:	01 13                	add    %edx,(%ebx)
 17f:	00 00                	add    %al,(%eax)
 181:	1a 18                	sbb    (%eax),%bl
 183:	00 00                	add    %al,(%eax)
 185:	00 1b                	add    %bl,(%ebx)
 187:	2e 01 3f             	add    %edi,%cs:(%edi)
 18a:	19 03                	sbb    %eax,(%ebx)
 18c:	0e                   	push   %cs
 18d:	3a 21                	cmp    (%ecx),%ah
 18f:	01 3b                	add    %edi,(%ebx)
 191:	0b 39                	or     (%ecx),%edi
 193:	21 06                	and    %eax,(%esi)
 195:	27                   	daa
 196:	19 11                	sbb    %edx,(%ecx)
 198:	01 12                	add    %edx,(%edx)
 19a:	06                   	push   %es
 19b:	40                   	inc    %eax
 19c:	18 7c 19 01          	sbb    %bh,0x1(%ecx,%ebx,1)
 1a0:	13 00                	adc    (%eax),%eax
 1a2:	00 1c 2e             	add    %bl,(%esi,%ebp,1)
 1a5:	01 3f                	add    %edi,(%edi)
 1a7:	19 03                	sbb    %eax,(%ebx)
 1a9:	0e                   	push   %cs
 1aa:	3a 21                	cmp    (%ecx),%ah
 1ac:	01 3b                	add    %edi,(%ebx)
 1ae:	0b 39                	or     (%ecx),%edi
 1b0:	21 0a                	and    %ecx,(%edx)
 1b2:	27                   	daa
 1b3:	19 49 13             	sbb    %ecx,0x13(%ecx)
 1b6:	11 01                	adc    %eax,(%ecx)
 1b8:	12 06                	adc    (%esi),%al
 1ba:	40                   	inc    %eax
 1bb:	18 7a 19             	sbb    %bh,0x19(%edx)
 1be:	01 13                	add    %edx,(%ebx)
 1c0:	00 00                	add    %al,(%eax)
 1c2:	1d 11 01 25 0e       	sbb    $0xe250111,%eax
 1c7:	13 0b                	adc    (%ebx),%ecx
 1c9:	03 1f                	add    (%edi),%ebx
 1cb:	1b 1f                	sbb    (%edi),%ebx
 1cd:	11 01                	adc    %eax,(%ecx)
 1cf:	12 06                	adc    (%esi),%al
 1d1:	10 17                	adc    %dl,(%edi)
 1d3:	00 00                	add    %al,(%eax)
 1d5:	1e                   	push   %ds
 1d6:	26 00 49 13          	add    %cl,%es:0x13(%ecx)
 1da:	00 00                	add    %al,(%eax)
 1dc:	1f                   	pop    %ds
 1dd:	24 00                	and    $0x0,%al
 1df:	0b 0b                	or     (%ebx),%ecx
 1e1:	3e 0b 03             	or     %ds:(%ebx),%eax
 1e4:	08 00                	or     %al,(%eax)
 1e6:	00 20                	add    %ah,(%eax)
 1e8:	13 01                	adc    (%ecx),%eax
 1ea:	0b 05 3a 0b 3b 0b    	or     0xb3b0b3a,%eax
 1f0:	39 0b                	cmp    %ecx,(%ebx)
 1f2:	01 13                	add    %edx,(%ebx)
 1f4:	00 00                	add    %al,(%eax)
 1f6:	21 21                	and    %esp,(%ecx)
 1f8:	00 49 13             	add    %cl,0x13(%ecx)
 1fb:	2f                   	das
 1fc:	0b 00                	or     (%eax),%eax
 1fe:	00 22                	add    %ah,(%edx)
 200:	13 01                	adc    (%ecx),%eax
 202:	03 0e                	add    (%esi),%ecx
 204:	0b 0b                	or     (%ebx),%ecx
 206:	3a 0b                	cmp    (%ebx),%cl
 208:	3b 0b                	cmp    (%ebx),%ecx
 20a:	39 0b                	cmp    %ecx,(%ebx)
 20c:	01 13                	add    %edx,(%ebx)
 20e:	00 00                	add    %al,(%eax)
 210:	23 0f                	and    (%edi),%ecx
 212:	00 0b                	add    %cl,(%ebx)
 214:	0b 00                	or     (%eax),%eax
 216:	00 24 21             	add    %ah,(%ecx,%eiz,1)
 219:	00 49 13             	add    %cl,0x13(%ecx)
 21c:	2f                   	das
 21d:	05 00 00 25 34       	add    $0x34250000,%eax
 222:	00 03                	add    %al,(%ebx)
 224:	0e                   	push   %cs
 225:	3a 0b                	cmp    (%ebx),%cl
 227:	3b 0b                	cmp    (%ebx),%ecx
 229:	39 0b                	cmp    %ecx,(%ebx)
 22b:	49                   	dec    %ecx
 22c:	13 88 01 05 02 18    	adc    0x18020501(%eax),%ecx
 232:	00 00                	add    %al,(%eax)
 234:	26 34 00             	es xor $0x0,%al
 237:	03 0e                	add    (%esi),%ecx
 239:	3a 0b                	cmp    (%ebx),%cl
 23b:	3b 0b                	cmp    (%ebx),%ecx
 23d:	39 0b                	cmp    %ecx,(%ebx)
 23f:	49                   	dec    %ecx
 240:	13 3f                	adc    (%edi),%edi
 242:	19 02                	sbb    %eax,(%edx)
 244:	18 00                	sbb    %al,(%eax)
 246:	00 27                	add    %ah,(%edi)
 248:	2e 01 3f             	add    %edi,%cs:(%edi)
 24b:	19 03                	sbb    %eax,(%ebx)
 24d:	0e                   	push   %cs
 24e:	3a 0b                	cmp    (%ebx),%cl
 250:	3b 0b                	cmp    (%ebx),%ecx
 252:	39 0b                	cmp    %ecx,(%ebx)
 254:	11 01                	adc    %eax,(%ecx)
 256:	12 06                	adc    (%esi),%al
 258:	40                   	inc    %eax
 259:	18 7c 19 01          	sbb    %bh,0x1(%ecx,%ebx,1)
 25d:	13 00                	adc    (%eax),%eax
 25f:	00 28                	add    %ch,(%eax)
 261:	2e 01 3f             	add    %edi,%cs:(%edi)
 264:	19 03                	sbb    %eax,(%ebx)
 266:	0e                   	push   %cs
 267:	3a 0b                	cmp    (%ebx),%cl
 269:	3b 0b                	cmp    (%ebx),%ecx
 26b:	39 0b                	cmp    %ecx,(%ebx)
 26d:	49                   	dec    %ecx
 26e:	13 11                	adc    (%ecx),%edx
 270:	01 12                	add    %edx,(%edx)
 272:	06                   	push   %es
 273:	40                   	inc    %eax
 274:	18 7c 19 01          	sbb    %bh,0x1(%ecx,%ebx,1)
 278:	13 00                	adc    (%eax),%eax
 27a:	00 29                	add    %ch,(%ecx)
 27c:	2e 01 3f             	add    %edi,%cs:(%edi)
 27f:	19 03                	sbb    %eax,(%ebx)
 281:	0e                   	push   %cs
 282:	3a 0b                	cmp    (%ebx),%cl
 284:	3b 0b                	cmp    (%ebx),%ecx
 286:	39 0b                	cmp    %ecx,(%ebx)
 288:	27                   	daa
 289:	19 49 13             	sbb    %ecx,0x13(%ecx)
 28c:	11 01                	adc    %eax,(%ecx)
 28e:	12 06                	adc    (%esi),%al
 290:	40                   	inc    %eax
 291:	18 7c 19 00          	sbb    %bh,0x0(%ecx,%ebx,1)
	...

Disassembly of section .unpaged.debug_aranges:

00000000 <.unpaged.debug_aranges>:
   0:	1c 00                	sbb    $0x0,%al
   2:	00 00                	add    %al,(%eax)
   4:	02 00                	add    (%eax),%al
   6:	00 00                	add    %al,(%eax)
   8:	00 00                	add    %al,(%eax)
   a:	04 00                	add    $0x0,%al
   c:	00 00                	add    %al,(%eax)
   e:	00 00                	add    %al,(%eax)
  10:	00 10                	add    %dl,(%eax)
  12:	40                   	inc    %eax
  13:	00 b6 05 00 00 00    	add    %dh,0x5(%esi)
  19:	00 00                	add    %al,(%eax)
  1b:	00 00                	add    %al,(%eax)
  1d:	00 00                	add    %al,(%eax)
	...

Disassembly of section .unpaged.debug_line:

00000000 <.unpaged.debug_line>:
   0:	bd 02 00 00 05       	mov    $0x5000002,%ebp
   5:	00 04 00             	add    %al,(%eax,%eax,1)
   8:	4f                   	dec    %edi
   9:	00 00                	add    %al,(%eax)
   b:	00 01                	add    %al,(%ecx)
   d:	01 01                	add    %eax,(%ecx)
   f:	fb                   	sti
  10:	0e                   	push   %cs
  11:	0d 00 01 01 01       	or     $0x1010100,%eax
  16:	01 00                	add    %eax,(%eax)
  18:	00 00                	add    %al,(%eax)
  1a:	01 00                	add    %eax,(%eax)
  1c:	00 01                	add    %al,(%ecx)
  1e:	01 01                	add    %eax,(%ecx)
  20:	1f                   	pop    %ds
  21:	04 0b                	add    $0xb,%al
  23:	00 00                	add    %al,(%eax)
  25:	00 2f                	add    %ch,(%edi)
  27:	00 00                	add    %al,(%eax)
  29:	00 33                	add    %dh,(%ebx)
  2b:	00 00                	add    %al,(%eax)
  2d:	00 68 00             	add    %ch,0x0(%eax)
  30:	00 00                	add    %al,(%eax)
  32:	02 01                	add    (%ecx),%al
  34:	1f                   	pop    %ds
  35:	02 0f                	add    (%edi),%cl
  37:	07                   	pop    %es
  38:	04 00                	add    $0x0,%al
  3a:	00 00                	add    %al,(%eax)
  3c:	01 04 00             	add    %eax,(%eax,%eax,1)
  3f:	00 00                	add    %al,(%eax)
  41:	01 a6 00 00 00 02    	add    %esp,0x2000000(%esi)
  47:	b3 00                	mov    $0x0,%bl
  49:	00 00                	add    %al,(%eax)
  4b:	02 ae 00 00 00 03    	add    0x3000000(%esi),%ch
  51:	ba 00 00 00 03       	mov    $0x3000000,%edx
  56:	c4 00                	les    (%eax),%eax
  58:	00 00                	add    %al,(%eax)
  5a:	01 05 32 00 05 02    	add    %eax,0x2050032
  60:	00 10                	add    %dl,(%eax)
  62:	40                   	inc    %eax
  63:	00 03                	add    %al,(%ebx)
  65:	20 01                	and    %al,(%ecx)
  67:	05 08 67 05 09       	add    $0x9056708,%eax
  6c:	91                   	xchg   %eax,%ecx
  6d:	05 12 f5 05 05       	add    $0x505f512,%eax
  72:	76 08                	jbe    7c <SEG_KERN_CS+0x74>
  74:	21 d8                	and    %ebx,%eax
  76:	05 22 d7 05 05       	add    $0x505d722,%eax
  7b:	90                   	nop
  7c:	bc 05 0c 59 05       	mov    $0x5590c05,%esp
  81:	01 3d 05 24 30 05    	add    %edi,0x5302405
  87:	0f 67 05 0b 75 05 12 	packuswb 0x1205750b,%mm0
  8e:	2f                   	das
  8f:	05 18 82 05 0d       	add    $0xd058218,%eax
  94:	58                   	pop    %eax
  95:	05 18 90 05 10       	add    $0x10059018,%eax
  9a:	2e 05 0d 3d 05 11    	cs add $0x11053d0d,%eax
  a0:	48                   	dec    %eax
  a1:	05 14 00 02 04       	add    $0x4020014,%eax
  a6:	01 66 05             	add    %esp,0x5(%esi)
  a9:	11 00                	adc    %eax,(%eax)
  ab:	02 04 01             	add    (%ecx,%eax,1),%al
  ae:	66 05 0a 6c          	add    $0x6c0a,%ax
  b2:	05 3b 31 05 19       	add    $0x1905313b,%eax
  b7:	75 05                	jne    be <SEG_KERN_CS+0xb6>
  b9:	13 91 c9 05 1c ca    	adc    -0x35e3fa37(%ecx),%edx
  bf:	05 1a 58 05 1c       	add    $0x1c05581a,%eax
  c4:	67 05 1a 58 05 1b    	addr16 add $0x1b05581a,%eax
  ca:	67 05 19 58 05 1c    	addr16 add $0x1c055819,%eax
  d0:	68 05 1a 58 05       	push   $0x5581a05
  d5:	1b 67 05             	sbb    0x5(%edi),%esp
  d8:	2c 58                	sub    $0x58,%al
  da:	05 2a 58 05 19       	add    $0x1905582a,%eax
  df:	2e 05 18 6d 05 31    	cs add $0x31056d18,%eax
  e5:	58                   	pop    %eax
  e6:	05 20 66 05 16       	add    $0x16056620,%eax
  eb:	2e 05 1a 67 05 14    	cs add $0x1405671a,%eax
  f1:	9f                   	lahf
  f2:	05 0e cb 05 16       	add    $0x1605cb0e,%eax
  f7:	58                   	pop    %eax
  f8:	05 08 3c 05 2c       	add    $0x2c053c08,%eax
  fd:	4b                   	dec    %ebx
  fe:	05 14 66 05 0e       	add    $0xe056614,%eax
 103:	3d 05 15 2f 05       	cmp    $0x52f1505,%eax
 108:	10 66 05             	adc    %ah,0x5(%esi)
 10b:	3a 59 05             	cmp    0x5(%ecx),%bl
 10e:	25 58 05 34 3c       	and    $0x3c340558,%eax
 113:	05 41 2e 05 16       	add    $0x16052e41,%eax
 118:	3c 05                	cmp    $0x5,%al
 11a:	11 3d 05 0d 31 05    	adc    %edi,0x5310d05
 120:	36 02 24 13          	add    %ss:(%ebx,%edx,1),%ah
 124:	05 21 58 05 30       	add    $0x30055821,%eax
 129:	3c 05                	cmp    $0x5,%al
 12b:	3d 2e 05 12 3c       	cmp    $0x3c12052e,%eax
 130:	05 24 03 79 3c       	add    $0x3c790324,%eax
 135:	05 36 66 05 30       	add    $0x30056636,%eax
 13a:	66 05 1e 2e          	add    $0x2e1e,%ax
 13e:	05 01 03 12 74       	add    $0x74120301,%eax
 143:	05 25 03 7a 2e       	add    $0x2e7a0325,%eax
 148:	05 2f 66 05 09       	add    $0x905662f,%eax
 14d:	3c 05                	cmp    $0x5,%al
 14f:	2c 08                	sub    $0x8,%al
 151:	85 05 37 66 05 09    	test   %eax,0x9056637
 157:	3c 05                	cmp    $0x5,%al
 159:	01 08                	add    %ecx,(%eax)
 15b:	af                   	scas   %es:(%edi),%eax
 15c:	05 31 68 05 0c       	add    $0xc056831,%eax
 161:	3d 05 08 c8 05       	cmp    $0x5c80805,%eax
 166:	13 4b 05             	adc    0x5(%ebx),%ecx
 169:	17                   	pop    %ss
 16a:	ac                   	lods   %ds:(%esi),%al
 16b:	05 1c 3c 05 0c       	add    $0xc053c1c,%eax
 170:	69 05 01 3d 05 33 30 	imul   $0x3d0f0530,0x33053d01,%eax
 177:	05 0f 3d 
 17a:	05 14 ac 05 01       	add    $0x105ac14,%eax
 17f:	4b                   	dec    %ebx
 180:	05 45 30 05 08       	add    $0x8053045,%eax
 185:	08 d8                	or     %bl,%al
 187:	05 0e 08 5c 05       	add    $0x55c080e,%eax
 18c:	08 f2                	or     %dh,%dl
 18e:	05 16 f3 05 0d       	add    $0xd05f316,%eax
 193:	f2 05 08 08 77 05    	repnz add $0x5770808,%eax
 199:	0c be                	or     $0xbe,%al
 19b:	05 0a 00 02 04       	add    $0x402000a,%eax
 1a0:	01 08                	add    %ecx,(%eax)
 1a2:	12 05 0b 9f 05 09    	adc    0x9059f0b,%al
 1a8:	00 02                	add    %al,(%edx)
 1aa:	04 01                	add    $0x1,%al
 1ac:	08 12                	or     %dl,(%edx)
 1ae:	05 16 a0 05 20       	add    $0x2005a016,%eax
 1b3:	90                   	nop
 1b4:	05 0e ba 05 08       	add    $0x805ba0e,%eax
 1b9:	3d 05 09 67 05       	cmp    $0x5670905,%eax
 1be:	18 cb                	sbb    %cl,%bl
 1c0:	05 17 08 e5 05       	add    $0x5e50817,%eax
 1c5:	18 08                	sbb    %cl,(%eax)
 1c7:	e5 05                	in     $0x5,%eax
 1c9:	1a 08                	sbb    (%eax),%cl
 1cb:	92                   	xchg   %eax,%edx
 1cc:	05 0e 66 05 14       	add    $0x1405660e,%eax
 1d1:	59                   	pop    %ecx
 1d2:	05 08 58 05 1d       	add    $0x1d055808,%eax
 1d7:	59                   	pop    %ecx
 1d8:	05 09 03 67 9e       	add    $0x9e670309,%eax
 1dd:	44                   	inc    %esp
 1de:	05 01 03 13 20       	add    $0x20130301,%eax
 1e3:	05 2c 5a 05 12       	add    $0x12055a2c,%eax
 1e8:	68 05 05 74 05       	push   $0x5740505
 1ed:	12 2f                	adc    (%edi),%ch
 1ef:	79 05                	jns    1f6 <SEG_KERN_CS+0x1ee>
 1f1:	0d 92 05 33 9e       	or     $0x9e330592,%eax
 1f6:	05 0c 90 05 13       	add    $0x1305900c,%eax
 1fb:	4b                   	dec    %ebx
 1fc:	05 0d 4d 05 16       	add    $0x16054d0d,%eax
 201:	90                   	nop
 202:	05 21 82 05 1a       	add    $0x1a058221,%eax
 207:	66 05 32 00          	add    $0x32,%ax
 20b:	02 04 02             	add    (%edx,%eax,1),%al
 20e:	03 74 2e 05          	add    0x5(%esi,%ebp,1),%esi
 212:	1b 00                	sbb    (%eax),%eax
 214:	02 04 01             	add    (%ecx,%eax,1),%al
 217:	4a                   	dec    %edx
 218:	05 01 03 0e 90       	add    $0x900e0301,%eax
 21d:	05 2e 4c 05 0e       	add    $0xe054c2e,%eax
 222:	67 05 1a 74 05 14    	addr16 add $0x1405741a,%eax
 228:	75 05                	jne    22f <SEG_KERN_CS+0x227>
 22a:	0e                   	push   %cs
 22b:	58                   	pop    %eax
 22c:	05 0b 68 05 0d       	add    $0xd05680b,%eax
 231:	2f                   	das
 232:	05 16 90 05 1f       	add    $0x1f059016,%eax
 237:	84 05 0d 65 05 10    	test   %al,0x1005650d
 23d:	32 05 0e 75 05 0c    	xor    0xc05750e,%al
 243:	75 05                	jne    24a <SEG_KERN_CS+0x242>
 245:	15 03 78 4a 05       	adc    $0x54a7803,%eax
 24a:	13 58 03             	adc    0x3(%eax),%ebx
 24d:	0b 58 05             	or     0x5(%eax),%ebx
 250:	01 bb 05 21 3e 05    	add    %edi,0x53e2105(%ebx)
 256:	0e                   	push   %cs
 257:	67 05 05 75 05 0d    	addr16 add $0xd057505,%eax
 25d:	08 76 05             	or     %dh,0x5(%esi)
 260:	08 3c 05 10 4b 05 09 	or     %bh,0x9054b10(,%eax,1)
 267:	77 05                	ja     26e <SEG_KERN_CS+0x266>
 269:	05 75 05 0e 08       	add    $0x80e0575,%eax
 26e:	77 75                	ja     2e5 <SEG_KERN_CS+0x2dd>
 270:	05 08 82 05 10       	add    $0x10058208,%eax
 275:	4c                   	dec    %esp
 276:	05 0e 4d 05 08       	add    $0x8054d0e,%eax
 27b:	66 05 10 4c          	add    $0x4c10,%ax
 27f:	05 0c 4d 05 01       	add    $0x1054d0c,%eax
 284:	3d 05 20 30 05       	cmp    $0x5302005,%eax
 289:	15 67 05 0b 85       	adc    $0x850b0567,%eax
 28e:	83 05 05 03 09 82 08 	addl   $0x8,0x82090305
 295:	3d 05 0b 08 14       	cmp    $0x14080b05,%eax
 29a:	83 05 09 84 05 05 4b 	addl   $0x4b,0x5058409
 2a1:	05 09 d8 05 05       	add    $0x505d809,%eax
 2a6:	75 05                	jne    2ad <SEG_KERN_CS+0x2a5>
 2a8:	09 d8                	or     %ebx,%eax
 2aa:	05 05 75 05 0e       	add    $0xe057505,%eax
 2af:	d8 05 08 66 05 0d    	fadds  0xd056608
 2b5:	4b                   	dec    %ebx
 2b6:	05 05 77 05 01       	add    $0x1057705,%eax
 2bb:	d7                   	xlat   %ds:(%ebx)
 2bc:	02 03                	add    (%ebx),%al
 2be:	00 01                	add    %al,(%ecx)
 2c0:	01                   	.byte 0x1

Disassembly of section .unpaged.debug_str:

00000000 <.unpaged.debug_str>:
   0:	6b 62 6f 6f          	imul   $0x6f,0x6f(%edx),%esp
   4:	74 69                	je     6f <SEG_KERN_CS+0x67>
   6:	6e                   	outsb  %ds:(%esi),(%dx)
   7:	66 6f                	outsw  %ds:(%esi),(%dx)
   9:	5f                   	pop    %edi
   a:	74 00                	je     c <SEG_KERN_CS+0x4>
   c:	66 62 75 66          	bound  %si,0x66(%ebp)
  10:	5f                   	pop    %edi
  11:	70 6e                	jo     81 <SEG_KERN_CS+0x79>
  13:	63 6f 6c             	arpl   %ebp,0x6c(%edi)
  16:	00 6b 62             	add    %ch,0x62(%ebx)
  19:	6f                   	outsl  %ds:(%esi),(%dx)
  1a:	6f                   	outsl  %ds:(%esi),(%dx)
  1b:	74 5f                	je     7c <SEG_KERN_CS+0x74>
  1d:	74 70                	je     8f <SEG_KERN_CS+0x87>
  1f:	67 5f                	addr16 pop %edi
  21:	69 64 65 6e 74 69 74 	imul   $0x79746974,0x6e(%ebp,%eiz,2),%esp
  28:	79 
  29:	00 6b 62             	add    %ch,0x62(%ebx)
  2c:	6f                   	outsl  %ds:(%esi),(%dx)
  2d:	6f                   	outsl  %ds:(%esi),(%dx)
  2e:	74 5f                	je     8f <SEG_KERN_CS+0x87>
  30:	74 70                	je     a2 <SEG_KERN_CS+0x9a>
  32:	67 5f                	addr16 pop %edi
  34:	63 68 65             	arpl   %ebp,0x65(%eax)
  37:	63 6b 5f             	arpl   %ebp,0x5f(%ebx)
  3a:	63 70 75             	arpl   %esi,0x75(%eax)
  3d:	66 00 65 6c          	data16 add %ah,0x6c(%ebp)
  41:	66 73 00             	data16 jae 44 <SEG_KERN_CS+0x3c>
  44:	4d                   	dec    %ebp
  45:	42                   	inc    %edx
  46:	49                   	dec    %ecx
  47:	4e                   	dec    %esi
  48:	46                   	inc    %esi
  49:	4f                   	dec    %edi
  4a:	5f                   	pop    %edi
  4b:	43                   	inc    %ebx
  4c:	4f                   	dec    %edi
  4d:	4e                   	dec    %esi
  4e:	46                   	inc    %esi
  4f:	5f                   	pop    %edi
  50:	54                   	push   %esp
  51:	42                   	inc    %edx
  52:	4c                   	dec    %esp
  53:	00 6b 65             	add    %ch,0x65(%ebx)
  56:	72 6e                	jb     c6 <SEG_KERN_CS+0xbe>
  58:	5f                   	pop    %edi
  59:	61                   	popa
  5a:	6c                   	insb   (%dx),%es:(%edi)
  5b:	6c                   	insb   (%dx),%es:(%edi)
  5c:	6f                   	outsl  %ds:(%esi),(%dx)
  5d:	63 00                	arpl   %eax,(%eax)
  5f:	6d                   	insl   (%dx),%es:(%edi)
  60:	62 69 6e             	bound  %ebp,0x6e(%ecx)
  63:	66 6f                	outsw  %ds:(%esi),(%dx)
  65:	5f                   	pop    %edi
  66:	74 00                	je     68 <SEG_KERN_CS+0x60>
  68:	73 68                	jae    d2 <SEG_KERN_CS+0xca>
  6a:	6f                   	outsl  %ds:(%esi),(%dx)
  6b:	72 74                	jb     e1 <SEG_KERN_CS+0xd9>
  6d:	20 69 6e             	and    %ch,0x6e(%ecx)
  70:	74 00                	je     72 <SEG_KERN_CS+0x6a>
  72:	74 65                	je     d9 <SEG_KERN_CS+0xd1>
  74:	78 74                	js     ea <SEG_KERN_CS+0xe2>
  76:	00 6b 62             	add    %ch,0x62(%ebx)
  79:	6f                   	outsl  %ds:(%esi),(%dx)
  7a:	6f                   	outsl  %ds:(%esi),(%dx)
  7b:	74 5f                	je     dc <SEG_KERN_CS+0xd4>
  7d:	74 70                	je     ef <SEG_KERN_CS+0xe7>
  7f:	67 5f                	addr16 pop %edi
  81:	6d                   	insl   (%dx),%es:(%edi)
  82:	61                   	popa
  83:	70 5f                	jo     e4 <SEG_KERN_CS+0xdc>
  85:	6b 65 72 6e          	imul   $0x6e,0x72(%ebp),%esp
  89:	65 6c                	gs insb (%dx),%es:(%edi)
  8b:	00 5f 6d             	add    %bl,0x6d(%edi)
  8e:	62 5f 70             	bound  %ebx,0x70(%edi)
  91:	68 79 73 5f 62       	push   $0x625f7379
  96:	61                   	popa
  97:	73 65                	jae    fe <SEG_KERN_CS+0xf6>
  99:	00 4d 42             	add    %cl,0x42(%ebp)
  9c:	49                   	dec    %ecx
  9d:	4e                   	dec    %esi
  9e:	46                   	inc    %esi
  9f:	4f                   	dec    %edi
  a0:	5f                   	pop    %edi
  a1:	4d                   	dec    %ebp
  a2:	45                   	inc    %ebp
  a3:	4d                   	dec    %ebp
  a4:	4f                   	dec    %edi
  a5:	52                   	push   %edx
  a6:	59                   	pop    %ecx
  a7:	00 74 70 67          	add    %dh,0x67(%eax,%esi,2)
  ab:	5f                   	pop    %edi
  ac:	63 70 75             	arpl   %esi,0x75(%eax)
  af:	69 64 00 4d 42 49 4e 	imul   $0x464e4942,0x4d(%eax,%eax,1),%esp
  b6:	46 
  b7:	4f                   	dec    %edi
  b8:	5f                   	pop    %edi
  b9:	4d                   	dec    %ebp
  ba:	4f                   	dec    %edi
  bb:	44                   	inc    %esp
  bc:	55                   	push   %ebp
  bd:	4c                   	dec    %esp
  be:	45                   	inc    %ebp
  bf:	53                   	push   %ebx
  c0:	00 4d 42             	add    %cl,0x42(%ebp)
  c3:	49                   	dec    %ecx
  c4:	4e                   	dec    %esi
  c5:	46                   	inc    %esi
  c6:	4f                   	dec    %edi
  c7:	5f                   	pop    %edi
  c8:	46                   	inc    %esi
  c9:	52                   	push   %edx
  ca:	41                   	inc    %ecx
  cb:	4d                   	dec    %ebp
  cc:	45                   	inc    %ebp
  cd:	42                   	inc    %edx
  ce:	55                   	push   %ebp
  cf:	46                   	inc    %esi
  d0:	00 73 68             	add    %dh,0x68(%ebx)
  d3:	6e                   	outsb  %ds:(%esi),(%dx)
  d4:	64 78 00             	fs js  d7 <SEG_KERN_CS+0xcf>
  d7:	4b                   	dec    %ebx
  d8:	42                   	inc    %edx
  d9:	4f                   	dec    %edi
  da:	4f                   	dec    %edi
  db:	54                   	push   %esp
  dc:	4d                   	dec    %ebp
  dd:	4d                   	dec    %ebp
  de:	41                   	inc    %ecx
  df:	50                   	push   %eax
  e0:	5f                   	pop    %edi
  e1:	41                   	inc    %ecx
  e2:	56                   	push   %esi
  e3:	41                   	inc    %ecx
  e4:	49                   	dec    %ecx
  e5:	4c                   	dec    %esp
  e6:	41                   	inc    %ecx
  e7:	42                   	inc    %edx
  e8:	4c                   	dec    %esp
  e9:	45                   	inc    %ebp
  ea:	00 6d 6f             	add    %ch,0x6f(%ebp)
  ed:	64 73 5f             	fs jae 14f <SEG_KERN_CS+0x147>
  f0:	61                   	popa
  f1:	64 64 72 00          	fs fs jb f5 <SEG_KERN_CS+0xed>
  f5:	4d                   	dec    %ebp
  f6:	42                   	inc    %edx
  f7:	4d                   	dec    %ebp
  f8:	4d                   	dec    %ebp
  f9:	41                   	inc    %ecx
  fa:	50                   	push   %eax
  fb:	5f                   	pop    %edi
  fc:	41                   	inc    %ecx
  fd:	56                   	push   %esi
  fe:	41                   	inc    %ecx
  ff:	49                   	dec    %ecx
 100:	4c                   	dec    %esp
 101:	00 72 65             	add    %dh,0x65(%edx)
 104:	74 76                	je     17c <SEG_KERN_CS+0x174>
 106:	61                   	popa
 107:	6c                   	insb   (%dx),%es:(%edi)
 108:	00 66 62             	add    %ah,0x62(%esi)
 10b:	75 66                	jne    173 <SEG_KERN_CS+0x16b>
 10d:	5f                   	pop    %edi
 10e:	62 6d 73             	bound  %ebp,0x73(%ebp)
 111:	00 4d 42             	add    %cl,0x42(%ebp)
 114:	49                   	dec    %ecx
 115:	4e                   	dec    %esi
 116:	46                   	inc    %esi
 117:	4f                   	dec    %edi
 118:	5f                   	pop    %edi
 119:	42                   	inc    %edx
 11a:	4f                   	dec    %edi
 11b:	4f                   	dec    %edi
 11c:	54                   	push   %esp
 11d:	44                   	inc    %esp
 11e:	45                   	inc    %ebp
 11f:	56                   	push   %esi
 120:	00 73 74             	add    %dh,0x74(%ebx)
 123:	72 73                	jb     198 <SEG_KERN_CS+0x190>
 125:	69 7a 65 00 6d 65 6d 	imul   $0x6d656d00,0x65(%edx),%edi
 12c:	5f                   	pop    %edi
 12d:	68 69 67 68 00       	push   $0x686769
 132:	5f                   	pop    %edi
 133:	6d                   	insl   (%dx),%es:(%edi)
 134:	62 5f 75             	bound  %ebx,0x75(%edi)
 137:	6e                   	outsb  %ds:(%esi),(%dx)
 138:	70 61                	jo     19b <SEG_KERN_CS+0x193>
 13a:	67 65 64 5f          	addr16 gs fs pop %edi
 13e:	65 6e                	outsb  %gs:(%esi),(%dx)
 140:	64 00 6b 62          	add    %ch,%fs:0x62(%ebx)
 144:	6f                   	outsl  %ds:(%esi),(%dx)
 145:	6f                   	outsl  %ds:(%esi),(%dx)
 146:	74 5f                	je     1a7 <SEG_KERN_CS+0x19f>
 148:	72 65                	jb     1af <SEG_KERN_CS+0x1a7>
 14a:	61                   	popa
 14b:	64 5f                	fs pop %edi
 14d:	6d                   	insl   (%dx),%es:(%edi)
 14e:	62 69 6e             	bound  %ebp,0x6e(%ecx)
 151:	66 6f                	outsw  %ds:(%esi),(%dx)
 153:	00 64 72 69          	add    %ah,0x69(%edx,%esi,2)
 157:	76 65                	jbe    1be <SEG_KERN_CS+0x1b6>
 159:	73 5f                	jae    1ba <SEG_KERN_CS+0x1b2>
 15b:	61                   	popa
 15c:	64 64 72 00          	fs fs jb 160 <SEG_KERN_CS+0x158>
 160:	63 6f 6e             	arpl   %ebp,0x6e(%edi)
 163:	66 5f                	pop    %di
 165:	74 62                	je     1c9 <SEG_KERN_CS+0x1c1>
 167:	6c                   	insb   (%dx),%es:(%edi)
 168:	00 76 62             	add    %dh,0x62(%esi)
 16b:	65 5f                	gs pop %edi
 16d:	69 6e 74 66 5f 6f 66 	imul   $0x666f5f66,0x74(%esi),%ebp
 174:	66 00 54 50 47       	data16 add %dl,0x47(%eax,%edx,2)
 179:	5f                   	pop    %edi
 17a:	43                   	inc    %ebx
 17b:	50                   	push   %eax
 17c:	55                   	push   %ebp
 17d:	46                   	inc    %esi
 17e:	5f                   	pop    %edi
 17f:	50                   	push   %eax
 180:	41                   	inc    %ecx
 181:	45                   	inc    %ebp
 182:	00 62 6f             	add    %ah,0x6f(%edx)
 185:	6f                   	outsl  %ds:(%esi),(%dx)
 186:	74 73                	je     1fb <SEG_KERN_CS+0x1f3>
 188:	74 72                	je     1fc <SEG_KERN_CS+0x1f4>
 18a:	61                   	popa
 18b:	70 00                	jo     18d <SEG_KERN_CS+0x185>
 18d:	6d                   	insl   (%dx),%es:(%edi)
 18e:	62 5f 75             	bound  %ebx,0x75(%edi)
 191:	69 6e 74 33 32 5f 74 	imul   $0x745f3233,0x74(%esi),%ebp
 198:	00 6c 6f 61          	add    %ch,0x61(%edi,%ebp,2)
 19c:	64 65 72 5f          	fs gs jb 1ff <SEG_KERN_CS+0x1f7>
 1a0:	6e                   	outsb  %ds:(%esi),(%dx)
 1a1:	61                   	popa
 1a2:	6d                   	insl   (%dx),%es:(%edi)
 1a3:	65 00 4d 42          	add    %cl,%gs:0x42(%ebp)
 1a7:	49                   	dec    %ecx
 1a8:	4e                   	dec    %esi
 1a9:	46                   	inc    %esi
 1aa:	4f                   	dec    %edi
 1ab:	5f                   	pop    %edi
 1ac:	4d                   	dec    %ebp
 1ad:	45                   	inc    %ebp
 1ae:	4d                   	dec    %ebp
 1af:	5f                   	pop    %edi
 1b0:	4d                   	dec    %ebp
 1b1:	41                   	inc    %ecx
 1b2:	50                   	push   %eax
 1b3:	00 62 6f             	add    %ah,0x6f(%edx)
 1b6:	6f                   	outsl  %ds:(%esi),(%dx)
 1b7:	74 64                	je     21d <SEG_KERN_CS+0x215>
 1b9:	65 76 00             	gs jbe 1bc <SEG_KERN_CS+0x1b4>
 1bc:	6d                   	insl   (%dx),%es:(%edi)
 1bd:	62 5f 61             	bound  %ebx,0x61(%edi)
 1c0:	6f                   	outsl  %ds:(%esi),(%dx)
 1c1:	75 74                	jne    237 <SEG_KERN_CS+0x22f>
 1c3:	5f                   	pop    %edi
 1c4:	73 79                	jae    23f <SEG_KERN_CS+0x237>
 1c6:	6d                   	insl   (%dx),%es:(%edi)
 1c7:	74 62                	je     22b <SEG_KERN_CS+0x223>
 1c9:	6c                   	insb   (%dx),%es:(%edi)
 1ca:	5f                   	pop    %edi
 1cb:	74 00                	je     1cd <SEG_KERN_CS+0x1c5>
 1cd:	6d                   	insl   (%dx),%es:(%edi)
 1ce:	62 5f 75             	bound  %ebx,0x75(%edi)
 1d1:	69 6e 74 31 36 5f 74 	imul   $0x745f3631,0x74(%esi),%ebp
 1d8:	00 5f 5f             	add    %bl,0x5f(%edi)
 1db:	6d                   	insl   (%dx),%es:(%edi)
 1dc:	62 5f 6d             	bound  %ebx,0x6d(%edi)
 1df:	6d                   	insl   (%dx),%es:(%edi)
 1e0:	61                   	popa
 1e1:	70 5f                	jo     242 <SEG_KERN_CS+0x23a>
 1e3:	74 00                	je     1e5 <SEG_KERN_CS+0x1dd>
 1e5:	66 72 65             	data16 jb 24d <SEG_KERN_CS+0x245>
 1e8:	65 70 64             	gs jo  24f <SEG_KERN_CS+0x247>
 1eb:	65 00 70 61          	add    %dh,%gs:0x61(%eax)
 1ef:	67 65 64 69 72 00 66 	gs imul $0x66756266,%fs:0x0(%bp,%si),%esi
 1f6:	62 75 66 
 1f9:	5f                   	pop    %edi
 1fa:	62 66 70             	bound  %esp,0x70(%esi)
 1fd:	00 6b 65             	add    %ch,0x65(%ebx)
 200:	72 6e                	jb     270 <SEG_KERN_CS+0x268>
 202:	5f                   	pop    %edi
 203:	61                   	popa
 204:	6c                   	insb   (%dx),%es:(%edi)
 205:	6c                   	insb   (%dx),%es:(%edi)
 206:	6f                   	outsl  %ds:(%esi),(%dx)
 207:	63 5f 64             	arpl   %ebx,0x64(%edi)
 20a:	79 6e                	jns    27a <SEG_KERN_CS+0x272>
 20c:	00 6c 6f 6e          	add    %ch,0x6e(%edi,%ebp,2)
 210:	67 20 6c 6f          	and    %ch,0x6f(%si)
 214:	6e                   	outsb  %ds:(%esi),(%dx)
 215:	67 20 69 6e          	and    %ch,0x6e(%bx,%di)
 219:	74 00                	je     21b <SEG_KERN_CS+0x213>
 21b:	76 62                	jbe    27f <SEG_KERN_CS+0x277>
 21d:	65 5f                	gs pop %edi
 21f:	69 6e 74 66 5f 6c 65 	imul   $0x656c5f66,0x74(%esi),%ebp
 226:	6e                   	outsb  %ds:(%esi),(%dx)
 227:	00 76 62             	add    %dh,0x62(%esi)
 22a:	65 5f                	gs pop %edi
 22c:	63 74 6c 00          	arpl   %esi,0x0(%esp,%ebp,2)
 230:	6d                   	insl   (%dx),%es:(%edi)
 231:	61                   	popa
 232:	72 6b                	jb     29f <SEG_KERN_CS+0x297>
 234:	00 66 62             	add    %ah,0x62(%esi)
 237:	75 66                	jne    29f <SEG_KERN_CS+0x297>
 239:	5f                   	pop    %edi
 23a:	72 6d                	jb     2a9 <SEG_KERN_CS+0x2a1>
 23c:	73 00                	jae    23e <SEG_KERN_CS+0x236>
 23e:	6d                   	insl   (%dx),%es:(%edi)
 23f:	65 6d                	gs insl (%dx),%es:(%edi)
 241:	5f                   	pop    %edi
 242:	68 69 67 68 5f       	push   $0x5f686769
 247:	70 68                	jo     2b1 <SEG_KERN_CS+0x2a9>
 249:	79 73                	jns    2be <SEG_KERN_CS+0x2b6>
 24b:	00 74 70 67          	add    %dh,0x67(%eax,%esi,2)
 24f:	5f                   	pop    %edi
 250:	72 65                	jb     2b7 <SEG_KERN_CS+0x2af>
 252:	61                   	popa
 253:	64 5f                	fs pop %edi
 255:	63 72 34             	arpl   %esi,0x34(%edx)
 258:	00 76 62             	add    %dh,0x62(%esi)
 25b:	65 5f                	gs pop %edi
 25d:	69 6e 74 66 5f 73 65 	imul   $0x65735f66,0x74(%esi),%ebp
 264:	67 00 5f 6d          	add    %bl,0x6d(%bx)
 268:	62 5f 65             	bound  %ebx,0x65(%edi)
 26b:	6e                   	outsb  %ds:(%esi),(%dx)
 26c:	64 00 66 62          	add    %ah,%fs:0x62(%esi)
 270:	75 66                	jne    2d8 <SEG_KERN_CS+0x2d0>
 272:	5f                   	pop    %edi
 273:	77 69                	ja     2de <SEG_KERN_CS+0x2d6>
 275:	64 74 68             	fs je  2e0 <SEG_KERN_CS+0x2d8>
 278:	00 6d 6d             	add    %ch,0x6d(%ebp)
 27b:	61                   	popa
 27c:	70 5f                	jo     2dd <SEG_KERN_CS+0x2d5>
 27e:	63 6e 74             	arpl   %ebp,0x74(%esi)
 281:	00 61 70             	add    %ah,0x70(%ecx)
 284:	6d                   	insl   (%dx),%es:(%edi)
 285:	5f                   	pop    %edi
 286:	74 62                	je     2ea <SEG_KERN_CS+0x2e2>
 288:	6c                   	insb   (%dx),%es:(%edi)
 289:	00 6b 62             	add    %ch,0x62(%ebx)
 28c:	6f                   	outsl  %ds:(%esi),(%dx)
 28d:	6f                   	outsl  %ds:(%esi),(%dx)
 28e:	74 5f                	je     2ef <SEG_KERN_CS+0x2e7>
 290:	74 70                	je     302 <SEG_KERN_CS+0x2fa>
 292:	67 5f                	addr16 pop %edi
 294:	65 6e                	outsb  %gs:(%esi),(%dx)
 296:	61                   	popa
 297:	62 6c 65 5f          	bound  %ebp,0x5f(%ebp,%eiz,2)
 29b:	70 61                	jo     2fe <SEG_KERN_CS+0x2f6>
 29d:	67 69 6e 67 00 6b 65 	imul   $0x72656b00,0x67(%bp),%ebp
 2a4:	72 
 2a5:	6e                   	outsb  %ds:(%esi),(%dx)
 2a6:	5f                   	pop    %edi
 2a7:	76 69                	jbe    312 <SEG_KERN_CS+0x30a>
 2a9:	72 74                	jb     31f <SEG_KERN_CS+0x317>
 2ab:	00 6d 65             	add    %ch,0x65(%ebp)
 2ae:	6d                   	insl   (%dx),%es:(%edi)
 2af:	5f                   	pop    %edi
 2b0:	6c                   	insb   (%dx),%es:(%edi)
 2b1:	6f                   	outsl  %ds:(%esi),(%dx)
 2b2:	77 00                	ja     2b4 <SEG_KERN_CS+0x2ac>
 2b4:	66 62 75 66          	bound  %si,0x66(%ebp)
 2b8:	5f                   	pop    %edi
 2b9:	74 79                	je     334 <SEG_KERN_CS+0x32c>
 2bb:	70 65                	jo     322 <SEG_KERN_CS+0x31a>
 2bd:	00 6b 62             	add    %ch,0x62(%ebx)
 2c0:	6f                   	outsl  %ds:(%esi),(%dx)
 2c1:	6f                   	outsl  %ds:(%esi),(%dx)
 2c2:	74 6d                	je     331 <SEG_KERN_CS+0x329>
 2c4:	65 6d                	gs insl (%dx),%es:(%edi)
 2c6:	5f                   	pop    %edi
 2c7:	74 00                	je     2c9 <SEG_KERN_CS+0x2c1>
 2c9:	6d                   	insl   (%dx),%es:(%edi)
 2ca:	61                   	popa
 2cb:	70 70                	jo     33d <SEG_KERN_CS+0x335>
 2cd:	65 64 00 6b 62       	gs add %ch,%fs:0x62(%ebx)
 2d2:	6f                   	outsl  %ds:(%esi),(%dx)
 2d3:	6f                   	outsl  %ds:(%esi),(%dx)
 2d4:	74 5f                	je     335 <SEG_KERN_CS+0x32d>
 2d6:	61                   	popa
 2d7:	64 64 5f             	fs fs pop %edi
 2da:	6d                   	insl   (%dx),%es:(%edi)
 2db:	6d                   	insl   (%dx),%es:(%edi)
 2dc:	61                   	popa
 2dd:	70 00                	jo     2df <SEG_KERN_CS+0x2d7>
 2df:	4d                   	dec    %ebp
 2e0:	42                   	inc    %edx
 2e1:	49                   	dec    %ecx
 2e2:	4e                   	dec    %esi
 2e3:	46                   	inc    %esi
 2e4:	4f                   	dec    %edi
 2e5:	5f                   	pop    %edi
 2e6:	56                   	push   %esi
 2e7:	42                   	inc    %edx
 2e8:	45                   	inc    %ebp
 2e9:	5f                   	pop    %edi
 2ea:	49                   	dec    %ecx
 2eb:	4e                   	dec    %esi
 2ec:	46                   	inc    %esi
 2ed:	4f                   	dec    %edi
 2ee:	00 4d 42             	add    %cl,0x42(%ebp)
 2f1:	49                   	dec    %ecx
 2f2:	4e                   	dec    %esi
 2f3:	46                   	inc    %esi
 2f4:	4f                   	dec    %edi
 2f5:	5f                   	pop    %edi
 2f6:	41                   	inc    %ecx
 2f7:	4d                   	dec    %ebp
 2f8:	4f                   	dec    %edi
 2f9:	55                   	push   %ebp
 2fa:	54                   	push   %esp
 2fb:	53                   	push   %ebx
 2fc:	59                   	pop    %ecx
 2fd:	4d                   	dec    %ebp
 2fe:	00 6d 6d             	add    %ch,0x6d(%ebp)
 301:	61                   	popa
 302:	70 5f                	jo     363 <SEG_KERN_CS+0x35b>
 304:	61                   	popa
 305:	64 64 72 00          	fs fs jb 309 <SEG_KERN_CS+0x301>
 309:	66 62 75 66          	bound  %si,0x66(%ebp)
 30d:	5f                   	pop    %edi
 30e:	72 66                	jb     376 <SEG_KERN_CS+0x36e>
 310:	70 00                	jo     312 <SEG_KERN_CS+0x30a>
 312:	75 6e                	jne    382 <SEG_KERN_CS+0x37a>
 314:	73 69                	jae    37f <SEG_KERN_CS+0x377>
 316:	67 6e                	outsb  %ds:(%si),(%dx)
 318:	65 64 20 63 68       	gs and %ah,%fs:0x68(%ebx)
 31d:	61                   	popa
 31e:	72 00                	jb     320 <SEG_KERN_CS+0x318>
 320:	6d                   	insl   (%dx),%es:(%edi)
 321:	6f                   	outsl  %ds:(%esi),(%dx)
 322:	64 73 5f             	fs jae 384 <SEG_KERN_CS+0x37c>
 325:	63 6e 74             	arpl   %ebp,0x74(%esi)
 328:	00 64 72 69          	add    %ah,0x69(%edx,%esi,2)
 32c:	76 65                	jbe    393 <SEG_KERN_CS+0x38b>
 32e:	73 5f                	jae    38f <SEG_KERN_CS+0x387>
 330:	6c                   	insb   (%dx),%es:(%edi)
 331:	65 6e                	outsb  %gs:(%esi),(%dx)
 333:	00 6b 62             	add    %ch,0x62(%ebx)
 336:	6f                   	outsl  %ds:(%esi),(%dx)
 337:	6f                   	outsl  %ds:(%esi),(%dx)
 338:	74 5f                	je     399 <SEG_KERN_CS+0x391>
 33a:	72 6f                	jb     3ab <SEG_KERN_CS+0x3a3>
 33c:	75 6e                	jne    3ac <SEG_KERN_CS+0x3a4>
 33e:	64 5f                	fs pop %edi
 340:	75 70                	jne    3b2 <SEG_KERN_CS+0x3aa>
 342:	00 6b 62             	add    %ch,0x62(%ebx)
 345:	6f                   	outsl  %ds:(%esi),(%dx)
 346:	6f                   	outsl  %ds:(%esi),(%dx)
 347:	74 69                	je     3b2 <SEG_KERN_CS+0x3aa>
 349:	6e                   	outsb  %ds:(%esi),(%dx)
 34a:	66 6f                	outsw  %ds:(%esi),(%dx)
 34c:	5f                   	pop    %edi
 34d:	6d                   	insl   (%dx),%es:(%edi)
 34e:	6d                   	insl   (%dx),%es:(%edi)
 34f:	61                   	popa
 350:	70 5f                	jo     3b1 <SEG_KERN_CS+0x3a9>
 352:	74 00                	je     354 <SEG_KERN_CS+0x34c>
 354:	76 62                	jbe    3b8 <SEG_KERN_CS+0x3b0>
 356:	65 5f                	gs pop %edi
 358:	6d                   	insl   (%dx),%es:(%edi)
 359:	6f                   	outsl  %ds:(%esi),(%dx)
 35a:	64 65 00 66 6c       	fs add %ah,%gs:0x6c(%esi)
 35f:	61                   	popa
 360:	67 73 00             	addr16 jae 363 <SEG_KERN_CS+0x35b>
 363:	6c                   	insb   (%dx),%es:(%edi)
 364:	6f                   	outsl  %ds:(%esi),(%dx)
 365:	6e                   	outsb  %ds:(%esi),(%dx)
 366:	67 20 6c 6f          	and    %ch,0x6f(%si)
 36a:	6e                   	outsb  %ds:(%esi),(%dx)
 36b:	67 20 75 6e          	and    %dh,0x6e(%di)
 36f:	73 69                	jae    3da <SEG_KERN_CS+0x3d2>
 371:	67 6e                	outsb  %ds:(%si),(%dx)
 373:	65 64 20 69 6e       	gs and %ch,%fs:0x6e(%ecx)
 378:	74 00                	je     37a <SEG_KERN_CS+0x372>
 37a:	66 62 75 66          	bound  %si,0x66(%ebp)
 37e:	5f                   	pop    %edi
 37f:	70 69                	jo     3ea <SEG_KERN_CS+0x3e2>
 381:	74 63                	je     3e6 <SEG_KERN_CS+0x3de>
 383:	68 00 66 62 75       	push   $0x75626600
 388:	66 5f                	pop    %di
 38a:	67 6d                	insl   (%dx),%es:(%di)
 38c:	73 00                	jae    38e <SEG_KERN_CS+0x386>
 38e:	5f                   	pop    %edi
 38f:	6d                   	insl   (%dx),%es:(%edi)
 390:	62 5f 73             	bound  %ebx,0x73(%edi)
 393:	74 61                	je     3f6 <SEG_KERN_CS+0x3ee>
 395:	72 74                	jb     40b <SEG_KERN_CS+0x403>
 397:	00 4d 42             	add    %cl,0x42(%ebp)
 39a:	49                   	dec    %ecx
 39b:	4e                   	dec    %esi
 39c:	46                   	inc    %esi
 39d:	4f                   	dec    %edi
 39e:	5f                   	pop    %edi
 39f:	43                   	inc    %ebx
 3a0:	4d                   	dec    %ebp
 3a1:	44                   	inc    %esp
 3a2:	4c                   	dec    %esp
 3a3:	49                   	dec    %ecx
 3a4:	4e                   	dec    %esi
 3a5:	45                   	inc    %ebp
 3a6:	00 6d 61             	add    %ch,0x61(%ebp)
 3a9:	67 69 63 00 73 68 6f 	imul   $0x726f6873,0x0(%bp,%di),%esp
 3b0:	72 
 3b1:	74 20                	je     3d3 <SEG_KERN_CS+0x3cb>
 3b3:	75 6e                	jne    423 <SEG_KERN_CS+0x41b>
 3b5:	73 69                	jae    420 <SEG_KERN_CS+0x418>
 3b7:	67 6e                	outsb  %ds:(%si),(%dx)
 3b9:	65 64 20 69 6e       	gs and %ch,%fs:0x6e(%ecx)
 3be:	74 00                	je     3c0 <SEG_KERN_CS+0x3b8>
 3c0:	4d                   	dec    %ebp
 3c1:	42                   	inc    %edx
 3c2:	49                   	dec    %ecx
 3c3:	4e                   	dec    %esi
 3c4:	46                   	inc    %esi
 3c5:	4f                   	dec    %edi
 3c6:	5f                   	pop    %edi
 3c7:	41                   	inc    %ecx
 3c8:	50                   	push   %eax
 3c9:	4d                   	dec    %ebp
 3ca:	5f                   	pop    %edi
 3cb:	54                   	push   %esp
 3cc:	42                   	inc    %edx
 3cd:	4c                   	dec    %esp
 3ce:	00 66 62             	add    %ah,0x62(%esi)
 3d1:	75 66                	jne    439 <SEG_KERN_CS+0x431>
 3d3:	5f                   	pop    %edi
 3d4:	70 61                	jo     437 <SEG_KERN_CS+0x42f>
 3d6:	64 64 72 00          	fs fs jb 3da <SEG_KERN_CS+0x3d2>
 3da:	47                   	inc    %edi
 3db:	4e                   	dec    %esi
 3dc:	55                   	push   %ebp
 3dd:	20 43 39             	and    %al,0x39(%ebx)
 3e0:	39 20                	cmp    %esp,(%eax)
 3e2:	31 33                	xor    %esi,(%ebx)
 3e4:	2e 32 2e             	xor    %cs:(%esi),%ch
 3e7:	30 20                	xor    %ah,(%eax)
 3e9:	2d 6d 74 75 6e       	sub    $0x6e75746d,%eax
 3ee:	65 3d 67 65 6e 65    	gs cmp $0x656e6567,%eax
 3f4:	72 69                	jb     45f <SEG_KERN_CS+0x457>
 3f6:	63 20                	arpl   %esp,(%eax)
 3f8:	2d 6d 61 72 63       	sub    $0x6372616d,%eax
 3fd:	68 3d 70 65 6e       	push   $0x6e65703d
 402:	74 69                	je     46d <SEG_KERN_CS+0x465>
 404:	75 6d                	jne    473 <SEG_KERN_CS+0x46b>
 406:	70 72                	jo     47a <SEG_KERN_CS+0x472>
 408:	6f                   	outsl  %ds:(%esi),(%dx)
 409:	20 2d 67 20 2d 73    	and    %ch,0x732d2067
 40f:	74 64                	je     475 <SEG_KERN_CS+0x46d>
 411:	3d 67 6e 75 39       	cmp    $0x39756e67,%eax
 416:	39 20                	cmp    %esp,(%eax)
 418:	2d 66 66 72 65       	sub    $0x65726666,%eax
 41d:	65 73 74             	gs jae 494 <SEG_KERN_CS+0x48c>
 420:	61                   	popa
 421:	6e                   	outsb  %ds:(%esi),(%dx)
 422:	64 69 6e 67 00 61 6f 	imul   $0x756f6100,%fs:0x67(%esi),%ebp
 429:	75 
 42a:	74 00                	je     42c <SEG_KERN_CS+0x424>
 42c:	6d                   	insl   (%dx),%es:(%edi)
 42d:	62 5f 65             	bound  %ebx,0x65(%edi)
 430:	6c                   	insb   (%dx),%es:(%edi)
 431:	66 5f                	pop    %di
 433:	73 68                	jae    49d <SEG_KERN_CS+0x495>
 435:	64 72 5f             	fs jb  497 <SEG_KERN_CS+0x48f>
 438:	74 00                	je     43a <SEG_KERN_CS+0x432>
 43a:	66 62 75 66          	bound  %si,0x66(%ebp)
 43e:	5f                   	pop    %edi
 43f:	68 65 69 67 68       	push   $0x68676965
 444:	74 00                	je     446 <SEG_KERN_CS+0x43e>
 446:	6b 62 6f 6f          	imul   $0x6f,0x6f(%edx),%esp
 44a:	74 5f                	je     4ab <SEG_KERN_CS+0x4a3>
 44c:	70 61                	jo     4af <SEG_KERN_CS+0x4a7>
 44e:	6e                   	outsb  %ds:(%esi),(%dx)
 44f:	69 63 00 4d 42 4d 4d 	imul   $0x4d4d424d,0x0(%ebx),%esp
 456:	41                   	inc    %ecx
 457:	50                   	push   %eax
 458:	5f                   	pop    %edi
 459:	4e                   	dec    %esi
 45a:	56                   	push   %esi
 45b:	53                   	push   %ebx
 45c:	00 5f 6d             	add    %bl,0x6d(%edi)
 45f:	62 5f 73             	bound  %ebx,0x73(%edi)
 462:	69 7a 65 00 4d 42 4d 	imul   $0x4d424d00,0x65(%edx),%edi
 469:	4d                   	dec    %ebp
 46a:	41                   	inc    %ecx
 46b:	50                   	push   %eax
 46c:	5f                   	pop    %edi
 46d:	41                   	inc    %ecx
 46e:	43                   	inc    %ebx
 46f:	50                   	push   %eax
 470:	49                   	dec    %ecx
 471:	00 66 62             	add    %ah,0x62(%esi)
 474:	75 66                	jne    4dc <SEG_KERN_CS+0x4d4>
 476:	5f                   	pop    %edi
 477:	67 66 70 00          	addr16 data16 jo 47b <SEG_KERN_CS+0x473>
 47b:	74 65                	je     4e2 <SEG_KERN_CS+0x4da>
 47d:	6d                   	insl   (%dx),%es:(%edi)
 47e:	70 5f                	jo     4df <SEG_KERN_CS+0x4d7>
 480:	62 6f 6f             	bound  %ebp,0x6f(%edi)
 483:	74 69                	je     4ee <SEG_KERN_CS+0x4e6>
 485:	6e                   	outsb  %ds:(%esi),(%dx)
 486:	66 6f                	outsw  %ds:(%esi),(%dx)
 488:	00 76 62             	add    %dh,0x62(%esi)
 48b:	65 5f                	gs pop %edi
 48d:	6d                   	insl   (%dx),%es:(%edi)
 48e:	6f                   	outsl  %ds:(%esi),(%dx)
 48f:	64 65 5f             	fs gs pop %edi
 492:	69 6e 66 6f 00 66 62 	imul   $0x6266006f,0x66(%esi),%ebp
 499:	75 66                	jne    501 <SEG_KERN_CS+0x4f9>
 49b:	5f                   	pop    %edi
 49c:	61                   	popa
 49d:	64 64 72 00          	fs fs jb 4a1 <SEG_KERN_CS+0x499>
 4a1:	74 61                	je     504 <SEG_KERN_CS+0x4fc>
 4a3:	62 73 69             	bound  %esi,0x69(%ebx)
 4a6:	7a 65                	jp     50d <SEG_KERN_CS+0x505>
 4a8:	00 4d 42             	add    %cl,0x42(%ebp)
 4ab:	49                   	dec    %ecx
 4ac:	4e                   	dec    %esi
 4ad:	46                   	inc    %esi
 4ae:	4f                   	dec    %edi
 4af:	5f                   	pop    %edi
 4b0:	45                   	inc    %ebp
 4b1:	4c                   	dec    %esp
 4b2:	46                   	inc    %esi
 4b3:	5f                   	pop    %edi
 4b4:	53                   	push   %ebx
 4b5:	48                   	dec    %eax
 4b6:	44                   	inc    %esp
 4b7:	52                   	push   %edx
 4b8:	00 5f 6d             	add    %bl,0x6d(%edi)
 4bb:	62 5f 75             	bound  %ebx,0x75(%edi)
 4be:	6e                   	outsb  %ds:(%esi),(%dx)
 4bf:	70 61                	jo     522 <SEG_KERN_CS+0x51a>
 4c1:	67 65 64 5f          	addr16 gs fs pop %edi
 4c5:	73 74                	jae    53b <SEG_KERN_CS+0x533>
 4c7:	61                   	popa
 4c8:	72 74                	jb     53e <SEG_KERN_CS+0x536>
 4ca:	00 6d 62             	add    %ch,0x62(%ebp)
 4cd:	5f                   	pop    %edi
 4ce:	75 69                	jne    539 <SEG_KERN_CS+0x531>
 4d0:	6e                   	outsb  %ds:(%esi),(%dx)
 4d1:	74 36                	je     509 <SEG_KERN_CS+0x501>
 4d3:	34 5f                	xor    $0x5f,%al
 4d5:	74 00                	je     4d7 <SEG_KERN_CS+0x4cf>
 4d7:	6b 62 6f 6f          	imul   $0x6f,0x6f(%edx),%esp
 4db:	74 5f                	je     53c <SEG_KERN_CS+0x534>
 4dd:	72 6f                	jb     54e <SEG_KERN_CS+0x546>
 4df:	75 6e                	jne    54f <SEG_KERN_CS+0x547>
 4e1:	64 5f                	fs pop %edi
 4e3:	64 6f                	outsl  %fs:(%esi),(%dx)
 4e5:	77 6e                	ja     555 <SEG_KERN_CS+0x54d>
 4e7:	00 6b 62             	add    %ch,0x62(%ebx)
 4ea:	6f                   	outsl  %ds:(%esi),(%dx)
 4eb:	6f                   	outsl  %ds:(%esi),(%dx)
 4ec:	74 00                	je     4ee <SEG_KERN_CS+0x4e6>
 4ee:	4b                   	dec    %ebx
 4ef:	42                   	inc    %edx
 4f0:	4f                   	dec    %edi
 4f1:	4f                   	dec    %edi
 4f2:	54                   	push   %esp
 4f3:	4d                   	dec    %ebp
 4f4:	4d                   	dec    %ebp
 4f5:	41                   	inc    %ecx
 4f6:	50                   	push   %eax
 4f7:	5f                   	pop    %edi
 4f8:	55                   	push   %ebp
 4f9:	4e                   	dec    %esi
 4fa:	41                   	inc    %ecx
 4fb:	56                   	push   %esi
 4fc:	41                   	inc    %ecx
 4fd:	49                   	dec    %ecx
 4fe:	4c                   	dec    %esp
 4ff:	41                   	inc    %ecx
 500:	42                   	inc    %edx
 501:	4c                   	dec    %esp
 502:	45                   	inc    %ebp
 503:	00 6b 65             	add    %ch,0x65(%ebx)
 506:	72 6e                	jb     576 <SEG_KERN_CS+0x56e>
 508:	5f                   	pop    %edi
 509:	76 69                	jbe    574 <SEG_KERN_CS+0x56c>
 50b:	72 74                	jb     581 <SEG_KERN_CS+0x579>
 50d:	5f                   	pop    %edi
 50e:	62 61 73             	bound  %esp,0x73(%ecx)
 511:	65 00 74 70 67       	add    %dh,%gs:0x67(%eax,%esi,2)
 516:	5f                   	pop    %edi
 517:	77 72                	ja     58b <SEG_KERN_CS+0x583>
 519:	69 74 65 5f 63 72 33 	imul   $0x337263,0x5f(%ebp,%eiz,2),%esi
 520:	00 
 521:	74 70                	je     593 <SEG_KERN_CS+0x58b>
 523:	67 5f                	addr16 pop %edi
 525:	72 65                	jb     58c <SEG_KERN_CS+0x584>
 527:	61                   	popa
 528:	64 5f                	fs pop %edi
 52a:	63 72 30             	arpl   %esi,0x30(%edx)
 52d:	00 6d 62             	add    %ch,0x62(%ebp)
 530:	5f                   	pop    %edi
 531:	75 69                	jne    59c <SEG_KERN_CS+0x594>
 533:	6e                   	outsb  %ds:(%esi),(%dx)
 534:	74 38                	je     56e <SEG_KERN_CS+0x566>
 536:	5f                   	pop    %edi
 537:	74 00                	je     539 <SEG_KERN_CS+0x531>
 539:	63 6d 64             	arpl   %ebp,0x64(%ebp)
 53c:	6c                   	insb   (%dx),%es:(%edi)
 53d:	69 6e 65 00 6d 6d 61 	imul   $0x616d6d00,0x65(%esi),%ebp
 544:	70 5f                	jo     5a5 <SEG_KERN_CS+0x59d>
 546:	6c                   	insb   (%dx),%es:(%edi)
 547:	65 6e                	outsb  %gs:(%esi),(%dx)
 549:	00 5f 6d             	add    %bl,0x6d(%edi)
 54c:	62 5f 76             	bound  %ebx,0x76(%edi)
 54f:	69 72 74 5f 62 61 73 	imul   $0x7361625f,0x74(%edx),%esi
 556:	65 00 4d 42          	add    %cl,%gs:0x42(%ebp)
 55a:	49                   	dec    %ecx
 55b:	4e                   	dec    %esi
 55c:	46                   	inc    %esi
 55d:	4f                   	dec    %edi
 55e:	5f                   	pop    %edi
 55f:	4c                   	dec    %esp
 560:	4f                   	dec    %edi
 561:	41                   	inc    %ecx
 562:	44                   	inc    %esp
 563:	45                   	inc    %ebp
 564:	52                   	push   %edx
 565:	00 4d 42             	add    %cl,0x42(%ebp)
 568:	49                   	dec    %ecx
 569:	4e                   	dec    %esi
 56a:	46                   	inc    %esi
 56b:	4f                   	dec    %edi
 56c:	5f                   	pop    %edi
 56d:	44                   	inc    %esp
 56e:	52                   	push   %edx
 56f:	49                   	dec    %ecx
 570:	56                   	push   %esi
 571:	45                   	inc    %ebp
 572:	53                   	push   %ebx
 573:	00 74 70 67          	add    %dh,0x67(%eax,%esi,2)
 577:	5f                   	pop    %edi
 578:	77 72                	ja     5ec <SEG_KERN_CS+0x5e4>
 57a:	69 74 65 5f 63 72 30 	imul   $0x307263,0x5f(%ebp,%eiz,2),%esi
 581:	00 
 582:	4d                   	dec    %ebp
 583:	42                   	inc    %edx
 584:	4d                   	dec    %ebp
 585:	4d                   	dec    %ebp
 586:	41                   	inc    %ecx
 587:	50                   	push   %eax
 588:	5f                   	pop    %edi
 589:	42                   	inc    %edx
 58a:	41                   	inc    %ecx
 58b:	44                   	inc    %esp
 58c:	52                   	push   %edx
 58d:	41                   	inc    %ecx
 58e:	4d                   	dec    %ebp
 58f:	00 54 50 47          	add    %dl,0x47(%eax,%edx,2)
 593:	5f                   	pop    %edi
 594:	43                   	inc    %ebx
 595:	50                   	push   %eax
 596:	55                   	push   %ebp
 597:	46                   	inc    %esi
 598:	5f                   	pop    %edi
 599:	50                   	push   %eax
 59a:	47                   	inc    %edi
 59b:	45                   	inc    %ebp
 59c:	00 74 70 67          	add    %dh,0x67(%eax,%esi,2)
 5a0:	5f                   	pop    %edi
 5a1:	77 72                	ja     615 <SEG_KERN_CS+0x60d>
 5a3:	69 74 65 5f 63 72 34 	imul   $0x347263,0x5f(%ebp,%eiz,2),%esi
 5aa:	00 
 5ab:	66 62 75 66          	bound  %si,0x66(%ebp)
 5af:	5f                   	pop    %edi
 5b0:	62 70 70             	bound  %esi,0x70(%eax)
 5b3:	00 4d 42             	add    %cl,0x42(%ebp)
 5b6:	4d                   	dec    %ebp
 5b7:	4d                   	dec    %ebp
 5b8:	41                   	inc    %ecx
 5b9:	50                   	push   %eax
 5ba:	5f                   	pop    %edi
 5bb:	52                   	push   %edx
 5bc:	45                   	inc    %ebp
 5bd:	53                   	push   %ebx
 5be:	45                   	inc    %ebp
 5bf:	52                   	push   %edx
 5c0:	56                   	push   %esi
 5c1:	45                   	inc    %ebp
 5c2:	44                   	inc    %esp
	...

Disassembly of section .unpaged.debug_line_str:

00000000 <.unpaged.debug_line_str>:
   0:	73 72                	jae    74 <SEG_KERN_CS+0x6c>
   2:	63 2f                	arpl   %ebp,(%edi)
   4:	62 6f 6f             	bound  %ebp,0x6f(%edi)
   7:	74 2e                	je     37 <SEG_KERN_CS+0x2f>
   9:	63 00                	arpl   %eax,(%eax)
   b:	2f                   	das
   c:	6f                   	outsl  %ds:(%esi),(%dx)
   d:	73 64                	jae    73 <SEG_KERN_CS+0x6b>
   f:	65 76 2f             	gs jbe 41 <SEG_KERN_CS+0x39>
  12:	7a 65                	jp     79 <SEG_KERN_CS+0x71>
  14:	72 6f                	jb     85 <SEG_KERN_CS+0x7d>
  16:	6e                   	outsb  %ds:(%esi),(%dx)
  17:	69 78 2f 6b 65 72 6e 	imul   $0x6e72656b,0x2f(%eax),%edi
  1e:	65 6c                	gs insb (%dx),%es:(%edi)
  20:	2f                   	das
  21:	61                   	popa
  22:	72 63                	jb     87 <SEG_KERN_CS+0x7f>
  24:	68 2f 78 38 36       	push   $0x3638782f
  29:	2f                   	das
  2a:	62 6f 6f             	bound  %ebp,0x6f(%edi)
  2d:	74 00                	je     2f <SEG_KERN_CS+0x27>
  2f:	73 72                	jae    a3 <SEG_KERN_CS+0x9b>
  31:	63 00                	arpl   %eax,(%eax)
  33:	2f                   	das
  34:	6f                   	outsl  %ds:(%esi),(%dx)
  35:	73 64                	jae    9b <SEG_KERN_CS+0x93>
  37:	65 76 2f             	gs jbe 69 <SEG_KERN_CS+0x61>
  3a:	7a 65                	jp     a1 <SEG_KERN_CS+0x99>
  3c:	72 6f                	jb     ad <SEG_KERN_CS+0xa5>
  3e:	6e                   	outsb  %ds:(%esi),(%dx)
  3f:	69 78 2f 6b 65 72 6e 	imul   $0x6e72656b,0x2f(%eax),%edi
  46:	65 6c                	gs insb (%dx),%es:(%edi)
  48:	2f                   	das
  49:	61                   	popa
  4a:	72 63                	jb     af <SEG_KERN_CS+0xa7>
  4c:	68 2f 78 38 36       	push   $0x3638782f
  51:	2f                   	das
  52:	2e 2e 2f             	cs cs das
  55:	2e 2e 2f             	cs cs das
  58:	69 6e 63 6c 75 64 65 	imul   $0x6564756c,0x63(%esi),%ebp
  5f:	2f                   	das
  60:	7a 65                	jp     c7 <SEG_KERN_CS+0xbf>
  62:	72 6f                	jb     d3 <SEG_KERN_CS+0xcb>
  64:	6e                   	outsb  %ds:(%esi),(%dx)
  65:	69 78 00 2f 6f 73 64 	imul   $0x64736f2f,0x0(%eax),%edi
  6c:	65 76 2f             	gs jbe 9e <SEG_KERN_CS+0x96>
  6f:	7a 65                	jp     d6 <SEG_KERN_CS+0xce>
  71:	72 6f                	jb     e2 <SEG_KERN_CS+0xda>
  73:	6e                   	outsb  %ds:(%esi),(%dx)
  74:	69 78 2f 6b 65 72 6e 	imul   $0x6e72656b,0x2f(%eax),%edi
  7b:	65 6c                	gs insb (%dx),%es:(%edi)
  7d:	2f                   	das
  7e:	61                   	popa
  7f:	72 63                	jb     e4 <SEG_KERN_CS+0xdc>
  81:	68 2f 78 38 36       	push   $0x3638782f
  86:	2f                   	das
  87:	2e 2e 2f             	cs cs das
  8a:	2e 2e 2f             	cs cs das
  8d:	69 6e 63 6c 75 64 65 	imul   $0x6564756c,0x63(%esi),%ebp
  94:	2f                   	das
  95:	7a 65                	jp     fc <SEG_KERN_CS+0xf4>
  97:	72 6f                	jb     108 <SEG_KERN_CS+0x100>
  99:	6e                   	outsb  %ds:(%esi),(%dx)
  9a:	69 78 2f 61 72 63 68 	imul   $0x68637261,0x2f(%eax),%edi
  a1:	2f                   	das
  a2:	78 38                	js     dc <SEG_KERN_CS+0xd4>
  a4:	36 00 74 79 70       	add    %dh,%ss:0x70(%ecx,%edi,2)
  a9:	65 73 2e             	gs jae da <SEG_KERN_CS+0xd2>
  ac:	68 00 6d 75 6c       	push   $0x6c756d00
  b1:	74 69                	je     11c <SEG_KERN_CS+0x114>
  b3:	62 6f 6f             	bound  %ebp,0x6f(%edi)
  b6:	74 2e                	je     e6 <SEG_KERN_CS+0xde>
  b8:	68 00 62 6f 6f       	push   $0x6f6f6200
  bd:	74 65                	je     124 <SEG_KERN_CS+0x11c>
  bf:	6e                   	outsb  %ds:(%esi),(%dx)
  c0:	76 2e                	jbe    f0 <SEG_KERN_CS+0xe8>
  c2:	68 00 74 70 67       	push   $0x67707400
  c7:	2e                   	cs
  c8:	68                   	.byte 0x68
	...

Disassembly of section .unpaged.comment:

00000000 <.unpaged.comment>:
   0:	47                   	inc    %edi
   1:	43                   	inc    %ebx
   2:	43                   	inc    %ebx
   3:	3a 20                	cmp    (%eax),%ah
   5:	28 47 4e             	sub    %al,0x4e(%edi)
   8:	55                   	push   %ebp
   9:	29 20                	sub    %esp,(%eax)
   b:	31 33                	xor    %esi,(%ebx)
   d:	2e 32 2e             	xor    %cs:(%esi),%ch
  10:	30 00                	xor    %al,(%eax)

Disassembly of section .unpaged.debug_frame:

00000000 <.unpaged.debug_frame>:
   0:	10 00                	adc    %al,(%eax)
   2:	00 00                	add    %al,(%eax)
   4:	ff                   	(bad)
   5:	ff                   	(bad)
   6:	ff                   	(bad)
   7:	ff 01                	incl   (%ecx)
   9:	00 01                	add    %al,(%ecx)
   b:	7c 08                	jl     15 <SEG_KERN_CS+0xd>
   d:	0c 04                	or     $0x4,%al
   f:	04 88                	add    $0x88,%al
  11:	01 00                	add    %eax,(%eax)
  13:	00 1c 00             	add    %bl,(%eax,%eax,1)
  16:	00 00                	add    %al,(%eax)
  18:	00 00                	add    %al,(%eax)
  1a:	00 00                	add    %al,(%eax)
  1c:	00 10                	add    %dl,(%eax)
  1e:	40                   	inc    %eax
  1f:	00 73 00             	add    %dh,0x0(%ebx)
  22:	00 00                	add    %al,(%eax)
  24:	41                   	inc    %ecx
  25:	0e                   	push   %cs
  26:	08 85 02 42 0d 05    	or     %al,0x50d4202(%ebp)
  2c:	02 6f c5             	add    -0x3b(%edi),%ch
  2f:	0c 04                	or     $0x4,%al
  31:	04 00                	add    $0x0,%al
  33:	00 14 00             	add    %dl,(%eax,%eax,1)
  36:	00 00                	add    %al,(%eax)
  38:	00 00                	add    %al,(%eax)
  3a:	00 00                	add    %al,(%eax)
  3c:	73 10                	jae    4e <SEG_KERN_CS+0x46>
  3e:	40                   	inc    %eax
  3f:	00 42 00             	add    %al,0x0(%edx)
  42:	00 00                	add    %al,(%eax)
  44:	41                   	inc    %ecx
  45:	0e                   	push   %cs
  46:	08 85 02 42 0d 05    	or     %al,0x50d4202(%ebp)
  4c:	20 00                	and    %al,(%eax)
  4e:	00 00                	add    %al,(%eax)
  50:	00 00                	add    %al,(%eax)
  52:	00 00                	add    %al,(%eax)
  54:	b5 10                	mov    $0x10,%ch
  56:	40                   	inc    %eax
  57:	00 5e 01             	add    %bl,0x1(%esi)
  5a:	00 00                	add    %al,(%eax)
  5c:	41                   	inc    %ecx
  5d:	0e                   	push   %cs
  5e:	08 85 02 42 0d 05    	or     %al,0x50d4202(%ebp)
  64:	44                   	inc    %esp
  65:	83 03 03             	addl   $0x3,(%ebx)
  68:	56                   	push   %esi
  69:	01 c5                	add    %eax,%ebp
  6b:	c3                   	ret
  6c:	0c 04                	or     $0x4,%al
  6e:	04 00                	add    $0x0,%al
  70:	1c 00                	sbb    $0x0,%al
  72:	00 00                	add    %al,(%eax)
  74:	00 00                	add    %al,(%eax)
  76:	00 00                	add    %al,(%eax)
  78:	13 12                	adc    (%edx),%edx
  7a:	40                   	inc    %eax
  7b:	00 2d 00 00 00 41    	add    %ch,0x41000000
  81:	0e                   	push   %cs
  82:	08 85 02 42 0d 05    	or     %al,0x50d4202(%ebp)
  88:	69 c5 0c 04 04 00    	imul   $0x4040c,%ebp,%eax
  8e:	00 00                	add    %al,(%eax)
  90:	1c 00                	sbb    $0x0,%al
  92:	00 00                	add    %al,(%eax)
  94:	00 00                	add    %al,(%eax)
  96:	00 00                	add    %al,(%eax)
  98:	40                   	inc    %eax
  99:	12 40 00             	adc    0x0(%eax),%al
  9c:	14 00                	adc    $0x0,%al
  9e:	00 00                	add    %al,(%eax)
  a0:	41                   	inc    %ecx
  a1:	0e                   	push   %cs
  a2:	08 85 02 42 0d 05    	or     %al,0x50d4202(%ebp)
  a8:	50                   	push   %eax
  a9:	c5 0c 04             	lds    (%esp,%eax,1),%ecx
  ac:	04 00                	add    $0x0,%al
  ae:	00 00                	add    %al,(%eax)
  b0:	20 00                	and    %al,(%eax)
  b2:	00 00                	add    %al,(%eax)
  b4:	00 00                	add    %al,(%eax)
  b6:	00 00                	add    %al,(%eax)
  b8:	54                   	push   %esp
  b9:	12 40 00             	adc    0x0(%eax),%al
  bc:	6c                   	insb   (%dx),%es:(%edi)
  bd:	01 00                	add    %eax,(%eax)
  bf:	00 41 0e             	add    %al,0xe(%ecx)
  c2:	08 85 02 42 0d 05    	or     %al,0x50d4202(%ebp)
  c8:	44                   	inc    %esp
  c9:	83 03 03             	addl   $0x3,(%ebx)
  cc:	64 01 c5             	fs add %eax,%ebp
  cf:	c3                   	ret
  d0:	0c 04                	or     $0x4,%al
  d2:	04 00                	add    $0x0,%al
  d4:	1c 00                	sbb    $0x0,%al
  d6:	00 00                	add    %al,(%eax)
  d8:	00 00                	add    %al,(%eax)
  da:	00 00                	add    %al,(%eax)
  dc:	c0 13 40             	rclb   $0x40,(%ebx)
  df:	00 64 00 00          	add    %ah,0x0(%eax,%eax,1)
  e3:	00 41 0e             	add    %al,0xe(%ecx)
  e6:	08 85 02 42 0d 05    	or     %al,0x50d4202(%ebp)
  ec:	02 60 c5             	add    -0x3b(%eax),%ah
  ef:	0c 04                	or     $0x4,%al
  f1:	04 00                	add    $0x0,%al
  f3:	00 1c 00             	add    %bl,(%eax,%eax,1)
  f6:	00 00                	add    %al,(%eax)
  f8:	00 00                	add    %al,(%eax)
  fa:	00 00                	add    %al,(%eax)
  fc:	24 14                	and    $0x14,%al
  fe:	40                   	inc    %eax
  ff:	00 65 00             	add    %ah,0x0(%ebp)
 102:	00 00                	add    %al,(%eax)
 104:	41                   	inc    %ecx
 105:	0e                   	push   %cs
 106:	08 85 02 42 0d 05    	or     %al,0x50d4202(%ebp)
 10c:	02 61 c5             	add    -0x3b(%ecx),%ah
 10f:	0c 04                	or     $0x4,%al
 111:	04 00                	add    $0x0,%al
 113:	00 1c 00             	add    %bl,(%eax,%eax,1)
 116:	00 00                	add    %al,(%eax)
 118:	00 00                	add    %al,(%eax)
 11a:	00 00                	add    %al,(%eax)
 11c:	89 14 40             	mov    %edx,(%eax,%eax,2)
 11f:	00 7c 00 00          	add    %bh,0x0(%eax,%eax,1)
 123:	00 41 0e             	add    %al,0xe(%ecx)
 126:	08 85 02 42 0d 05    	or     %al,0x50d4202(%ebp)
 12c:	02 78 c5             	add    -0x3b(%eax),%bh
 12f:	0c 04                	or     $0x4,%al
 131:	04 00                	add    $0x0,%al
 133:	00 1c 00             	add    %bl,(%eax,%eax,1)
 136:	00 00                	add    %al,(%eax)
 138:	00 00                	add    %al,(%eax)
 13a:	00 00                	add    %al,(%eax)
 13c:	05 15 40 00 b1       	add    $0xb1004015,%eax
 141:	00 00                	add    %al,(%eax)
 143:	00 41 0e             	add    %al,0xe(%ecx)
 146:	08 85 02 42 0d 05    	or     %al,0x50d4202(%ebp)
 14c:	02 ad c5 0c 04 04    	add    0x4040cc5(%ebp),%ch
	...

Disassembly of section .debug_aranges:

00000000 <.debug_aranges>:
   0:	1c 00                	sbb    $0x0,%al
   2:	00 00                	add    %al,(%eax)
   4:	02 00                	add    (%eax),%al
   6:	00 00                	add    %al,(%eax)
   8:	00 00                	add    %al,(%eax)
   a:	04 00                	add    $0x0,%al
   c:	00 00                	add    %al,(%eax)
   e:	00 00                	add    %al,(%eax)
  10:	00 50 40             	add    %dl,0x40(%eax)
  13:	f0 54                	lock push %esp
	...
  1d:	00 00                	add    %al,(%eax)
  1f:	00 1c 00             	add    %bl,(%eax,%eax,1)
  22:	00 00                	add    %al,(%eax)
  24:	02 00                	add    (%eax),%al
  26:	65 02 00             	add    %gs:(%eax),%al
  29:	00 04 00             	add    %al,(%eax,%eax,1)
  2c:	00 00                	add    %al,(%eax)
  2e:	00 00                	add    %al,(%eax)
  30:	8b 50 40             	mov    0x40(%eax),%edx
  33:	f0 78 02             	lock js 38 <SEG_KERN_CS+0x30>
	...
  3e:	00 00                	add    %al,(%eax)
  40:	1c 00                	sbb    $0x0,%al
  42:	00 00                	add    %al,(%eax)
  44:	02 00                	add    (%eax),%al
  46:	8f 04 00             	pop    (%eax,%eax,1)
  49:	00 04 00             	add    %al,(%eax,%eax,1)
  4c:	00 00                	add    %al,(%eax)
  4e:	00 00                	add    %al,(%eax)
  50:	9e                   	sahf
  51:	57                   	push   %edi
  52:	40                   	inc    %eax
  53:	f0 23 01             	lock and (%ecx),%eax
	...
  5e:	00 00                	add    %al,(%eax)
  60:	1c 00                	sbb    $0x0,%al
  62:	00 00                	add    %al,(%eax)
  64:	02 00                	add    (%eax),%al
  66:	9e                   	sahf
  67:	08 00                	or     %al,(%eax)
  69:	00 04 00             	add    %al,(%eax,%eax,1)
  6c:	00 00                	add    %al,(%eax)
  6e:	00 00                	add    %al,(%eax)
  70:	c1 58 40 f0          	rcrl   $0xf0,0x40(%eax)
  74:	b0 01                	mov    $0x1,%al
	...
  7e:	00 00                	add    %al,(%eax)
  80:	1c 00                	sbb    $0x0,%al
  82:	00 00                	add    %al,(%eax)
  84:	02 00                	add    (%eax),%al
  86:	90                   	nop
  87:	0b 00                	or     (%eax),%eax
  89:	00 04 00             	add    %al,(%eax,%eax,1)
  8c:	00 00                	add    %al,(%eax)
  8e:	00 00                	add    %al,(%eax)
  90:	70 5d                	jo     ef <SEG_KERN_CS+0xe7>
  92:	40                   	inc    %eax
  93:	f0 6b 03 00          	lock imul $0x0,(%ebx),%eax
	...
  9f:	00 1c 00             	add    %bl,(%eax,%eax,1)
  a2:	00 00                	add    %al,(%eax)
  a4:	02 00                	add    (%eax),%al
  a6:	8a 10                	mov    (%eax),%dl
  a8:	00 00                	add    %al,(%eax)
  aa:	04 00                	add    $0x0,%al
  ac:	00 00                	add    %al,(%eax)
  ae:	00 00                	add    %al,(%eax)
  b0:	db 60 40             	(bad)  0x40(%eax)
  b3:	f0 fb                	lock sti
	...
  bd:	00 00                	add    %al,(%eax)
  bf:	00 1c 00             	add    %bl,(%eax,%eax,1)
  c2:	00 00                	add    %al,(%eax)
  c4:	02 00                	add    (%eax),%al
  c6:	54                   	push   %esp
  c7:	13 00                	adc    (%eax),%eax
  c9:	00 04 00             	add    %al,(%eax,%eax,1)
  cc:	00 00                	add    %al,(%eax)
  ce:	00 00                	add    %al,(%eax)
  d0:	d6                   	(bad)
  d1:	61                   	popa
  d2:	40                   	inc    %eax
  d3:	f0 03 01             	lock add (%ecx),%eax
	...
  de:	00 00                	add    %al,(%eax)
  e0:	1c 00                	sbb    $0x0,%al
  e2:	00 00                	add    %al,(%eax)
  e4:	02 00                	add    (%eax),%al
  e6:	eb 15                	jmp    fd <SEG_KERN_CS+0xf5>
  e8:	00 00                	add    %al,(%eax)
  ea:	04 00                	add    $0x0,%al
  ec:	00 00                	add    %al,(%eax)
  ee:	00 00                	add    %al,(%eax)
  f0:	d9 62 40             	fldenv 0x40(%edx)
  f3:	f0 79 02             	lock jns f8 <SEG_KERN_CS+0xf0>
	...
  fe:	00 00                	add    %al,(%eax)
 100:	1c 00                	sbb    $0x0,%al
 102:	00 00                	add    %al,(%eax)
 104:	02 00                	add    (%eax),%al
 106:	29 1b                	sub    %ebx,(%ebx)
 108:	00 00                	add    %al,(%eax)
 10a:	04 00                	add    $0x0,%al
 10c:	00 00                	add    %al,(%eax)
 10e:	00 00                	add    %al,(%eax)
 110:	52                   	push   %edx
 111:	65 40                	gs inc %eax
 113:	f0 24 02             	lock and $0x2,%al
	...
 11e:	00 00                	add    %al,(%eax)
 120:	1c 00                	sbb    $0x0,%al
 122:	00 00                	add    %al,(%eax)
 124:	02 00                	add    (%eax),%al
 126:	f0 1d 00 00 04 00    	lock sbb $0x40000,%eax
 12c:	00 00                	add    %al,(%eax)
 12e:	00 00                	add    %al,(%eax)
 130:	76 67                	jbe    199 <SEG_KERN_CS+0x191>
 132:	40                   	inc    %eax
 133:	f0 18 00             	lock sbb %al,(%eax)
	...

Disassembly of section .debug_info:

00000000 <.debug_info>:
       0:	61                   	popa
       1:	02 00                	add    (%eax),%al
       3:	00 05 00 01 04 00    	add    %al,0x40100
       9:	00 00                	add    %al,(%eax)
       b:	00 0c 45 01 00 00 0c 	add    %cl,0xc000001(,%eax,2)
      12:	00 00                	add    %al,(%eax)
      14:	00 00                	add    %al,(%eax)
      16:	0b 00                	or     (%eax),%eax
      18:	00 00                	add    %al,(%eax)
      1a:	00 50 40             	add    %dl,0x40(%eax)
      1d:	f0 54                	lock push %esp
      1f:	00 00                	add    %al,(%eax)
      21:	00 00                	add    %al,(%eax)
      23:	00 00                	add    %al,(%eax)
      25:	00 02                	add    %al,(%edx)
      27:	01 06                	add    %eax,(%esi)
      29:	cc                   	int3
      2a:	00 00                	add    %al,(%eax)
      2c:	00 02                	add    %al,(%edx)
      2e:	02 05 20 00 00 00    	add    0x20,%al
      34:	0d 04 05 69 6e       	or     $0x6e690504,%eax
      39:	74 00                	je     3b <SEG_KERN_CS+0x33>
      3b:	02 08                	add    (%eax),%cl
      3d:	05 84 00 00 00       	add    $0x84,%eax
      42:	02 01                	add    (%ecx),%al
      44:	08 c3                	or     %al,%bl
      46:	00 00                	add    %al,(%eax)
      48:	00 02                	add    %al,(%edx)
      4a:	02 07                	add    (%edi),%al
      4c:	32 01                	xor    (%ecx),%al
      4e:	00 00                	add    %al,(%eax)
      50:	05 08 01 00 00       	add    $0x108,%eax
      55:	02 0d 1d 5c 00 00    	add    0x5c1d,%cl
      5b:	00 02                	add    %al,(%edx)
      5d:	04 07                	add    $0x7,%al
      5f:	fb                   	sti
      60:	00 00                	add    %al,(%eax)
      62:	00 05 17 00 00 00    	add    %al,0x17
      68:	02 0e                	add    (%esi),%cl
      6a:	1d 6f 00 00 00       	sbb    $0x6f,%eax
      6f:	02 08                	add    (%eax),%cl
      71:	07                   	pop    %es
      72:	f1                   	int1
      73:	00 00                	add    %al,(%eax)
      75:	00 05 2a 00 00 00    	add    %al,0x2a
      7b:	02 13                	add    (%ebx),%dl
      7d:	1d 50 00 00 00       	sbb    $0x50,%eax
      82:	09 08                	or     %ecx,(%eax)
      84:	0a a1 00 00 00 01    	or     0x1000000(%ecx),%ah
      8a:	a9 00 00 00 0b       	test   $0xb000000,%eax
      8f:	0e                   	push   %cs
      90:	50                   	push   %eax
      91:	00 00                	add    %al,(%eax)
      93:	00 00                	add    %al,(%eax)
      95:	0a 6c 65 6e          	or     0x6e(%ebp,%eiz,2),%ch
      99:	00 0c 50             	add    %cl,(%eax,%edx,2)
      9c:	00 00                	add    %al,(%eax)
      9e:	00 04 00             	add    %al,(%eax,%eax,1)
      a1:	05 b8 00 00 00       	add    $0xb8,%eax
      a6:	03 0d 03 82 00 00    	add    0x8203,%ecx
      ac:	00 09                	add    %cl,(%ecx)
      ae:	18 1a                	sbb    %bl,(%edx)
      b0:	e4 00                	in     $0x0,%al
      b2:	00 00                	add    %al,(%eax)
      b4:	01 85 09 00 00 1b    	add    %eax,0x1b000009(%ebp)
      ba:	0e                   	push   %cs
      bb:	50                   	push   %eax
      bc:	00 00                	add    %al,(%eax)
      be:	00 00                	add    %al,(%eax)
      c0:	01 a9 00 00 00 1c    	add    %ebp,0x1c000000(%ecx)
      c6:	0e                   	push   %cs
      c7:	63 00                	arpl   %eax,(%eax)
      c9:	00 00                	add    %al,(%eax)
      cb:	04 0a                	add    $0xa,%al
      cd:	6c                   	insb   (%dx),%es:(%edi)
      ce:	65 6e                	outsb  %gs:(%esi),(%dx)
      d0:	00 1d 63 00 00 00    	add    %bl,0x63
      d6:	0c 01                	or     $0x1,%al
      d8:	37                   	aaa
      d9:	09 00                	or     %eax,(%eax)
      db:	00 1e                	add    %bl,(%esi)
      dd:	0e                   	push   %cs
      de:	50                   	push   %eax
      df:	00 00                	add    %al,(%eax)
      e1:	00 14 00             	add    %dl,(%eax,%eax,1)
      e4:	05 e0 00 00 00       	add    $0xe0,%eax
      e9:	03 1f                	add    (%edi),%ebx
      eb:	03 ad 00 00 00 0e    	add    0xe000000(%ebp),%ebp
      f1:	2c 03                	sub    $0x3,%al
      f3:	03 27                	add    (%edi),%esp
      f5:	09 76 01             	or     %esi,0x1(%esi)
      f8:	00 00                	add    %al,(%eax)
      fa:	01 92 00 00 00 28    	add    %edx,0x28000000(%edx)
     100:	0e                   	push   %cs
     101:	50                   	push   %eax
     102:	00 00                	add    %al,(%eax)
     104:	00 00                	add    %al,(%eax)
     106:	01 af 01 00 00 2b    	add    %ebp,0x2b000001(%edi)
     10c:	0e                   	push   %cs
     10d:	50                   	push   %eax
     10e:	00 00                	add    %al,(%eax)
     110:	00 04 01             	add    %al,(%ecx,%eax,1)
     113:	ae                   	scas   %es:(%edi),%al
     114:	00 00                	add    %al,(%eax)
     116:	00 2c 10             	add    %ch,(%eax,%edx,1)
     119:	a1 00 00 00 08       	mov    0x8000000,%eax
     11e:	01 4c 00 00          	add    %ecx,0x0(%eax,%eax,1)
     122:	00 2f                	add    %ch,(%edi)
     124:	10 a1 00 00 00 10    	adc    %ah,0x10000000(%ecx)
     12a:	01 0c 00             	add    %ecx,(%eax,%eax,1)
     12d:	00 00                	add    %al,(%eax)
     12f:	32 0e                	xor    (%esi),%cl
     131:	50                   	push   %eax
     132:	00 00                	add    %al,(%eax)
     134:	00 18                	add    %bl,(%eax)
     136:	01 75 00             	add    %esi,0x0(%ebp)
     139:	00 00                	add    %al,(%eax)
     13b:	33 0e                	xor    (%esi),%ecx
     13d:	50                   	push   %eax
     13e:	00 00                	add    %al,(%eax)
     140:	00 1c 01             	add    %bl,(%ecx,%eax,1)
     143:	92                   	xchg   %eax,%edx
     144:	01 00                	add    %eax,(%eax)
     146:	00 36                	add    %dh,(%esi)
     148:	16                   	push   %ss
     149:	76 01                	jbe    14c <SEG_KERN_CS+0x144>
     14b:	00 00                	add    %al,(%eax)
     14d:	20 07                	and    %al,(%edi)
     14f:	a0 00 00 00 37       	mov    0x37000000,%al
     154:	0e                   	push   %cs
     155:	50                   	push   %eax
     156:	00 00                	add    %al,(%eax)
     158:	00 20                	add    %ah,(%eax)
     15a:	03 07                	add    (%edi),%eax
     15c:	6d                   	insl   (%dx),%es:(%edi)
     15d:	00 00                	add    %al,(%eax)
     15f:	00 3a                	add    %bh,(%edx)
     161:	0f 8d 01 00 00 24    	jge    24000168 <MAGIC+0x8525166>
     167:	03 07                	add    (%edi),%eax
     169:	65 00 00             	add    %al,%gs:(%eax)
     16c:	00 3b                	add    %bh,(%ebx)
     16e:	0e                   	push   %cs
     16f:	50                   	push   %eax
     170:	00 00                	add    %al,(%eax)
     172:	00 28                	add    %ch,(%eax)
     174:	03 00                	add    (%eax),%eax
     176:	0f e4 00             	pmulhuw (%eax),%mm0
     179:	00 00                	add    %al,(%eax)
     17b:	86 01                	xchg   %al,(%ecx)
     17d:	00 00                	add    %al,(%eax)
     17f:	10 86 01 00 00 1f    	adc    %al,0x1f000001(%esi)
     185:	00 02                	add    %al,(%edx)
     187:	04 07                	add    $0x7,%al
     189:	f6 00 00             	testb  $0x0,(%eax)
     18c:	00 08                	add    %cl,(%eax)
     18e:	50                   	push   %eax
     18f:	00 00                	add    %al,(%eax)
     191:	00 05 00 00 00 00    	add    %al,0x0
     197:	03 3c 03             	add    (%ebx,%eax,1),%edi
     19a:	f0 00 00             	lock add %al,(%eax)
     19d:	00 11                	add    %dl,(%ecx)
     19f:	04 12                	add    $0x12,%al
     1a1:	a9 01 00 00 01       	test   $0x1000001,%eax
     1a6:	0d 0d 92 01 00       	or     $0x1920d,%eax
     1ab:	00 05 03 00 10 41    	add    %al,0x41100003
     1b1:	f0 0b 22             	lock or (%edx),%esp
     1b4:	01 00                	add    %eax,(%eax)
     1b6:	00 09                	add    %cl,(%ecx)
     1b8:	c2 01 00             	ret    $0x1
     1bb:	00 06                	add    %al,(%esi)
     1bd:	c2 01 00             	ret    $0x1
     1c0:	00 00                	add    %al,(%eax)
     1c2:	08 92 01 00 00 03    	or     %dl,0x3000001(%edx)
     1c8:	c6 01 00             	movb   $0x0,(%ecx)
     1cb:	00 04 1e             	add    %al,(%esi,%ebx,1)
     1ce:	d4 01                	aam    $0x1
     1d0:	00 00                	add    %al,(%eax)
     1d2:	04 00                	add    $0x0,%al
     1d4:	03 97 01 00 00 05    	add    0x5000001(%edi),%edx
     1da:	37                   	aaa
     1db:	e1 01                	loope  1de <SEG_KERN_CS+0x1d6>
     1dd:	00 00                	add    %al,(%eax)
     1df:	04 00                	add    $0x0,%al
     1e1:	03 11                	add    (%ecx),%edx
     1e3:	01 00                	add    %eax,(%eax)
     1e5:	00 06                	add    %al,(%esi)
     1e7:	3e ee                	ds out %al,(%dx)
     1e9:	01 00                	add    %eax,(%eax)
     1eb:	00 04 00             	add    %al,(%eax,%eax,1)
     1ee:	03 56 00             	add    0x0(%esi),%edx
     1f1:	00 00                	add    %al,(%eax)
     1f3:	04 19                	add    $0x19,%al
     1f5:	fb                   	sti
     1f6:	01 00                	add    %eax,(%eax)
     1f8:	00 04 00             	add    %al,(%eax,%eax,1)
     1fb:	03 31                	add    (%ecx),%esi
     1fd:	00 00                	add    %al,(%eax)
     1ff:	00 07                	add    %al,(%edi)
     201:	0f 08                	invd
     203:	02 00                	add    (%eax),%al
     205:	00 04 00             	add    %al,(%eax,%eax,1)
     208:	03 d6                	add    %esi,%edx
     20a:	01 00                	add    %eax,(%eax)
     20c:	00 08                	add    %cl,(%eax)
     20e:	0a 15 02 00 00 04    	or     0x4000002,%dl
     214:	00 03                	add    %al,(%ebx)
     216:	d1 00                	roll   $1,(%eax)
     218:	00 00                	add    %al,(%eax)
     21a:	07                   	pop    %es
     21b:	0a 22                	or     (%edx),%ah
     21d:	02 00                	add    (%eax),%al
     21f:	00 04 00             	add    %al,(%eax,%eax,1)
     222:	0b be 01 00 00 0a    	or     0xa000001(%esi),%edi
     228:	3c 02                	cmp    $0x2,%al
     22a:	00 00                	add    %al,(%eax)
     22c:	06                   	push   %es
     22d:	9e                   	sahf
     22e:	01 00                	add    %eax,(%eax)
     230:	00 06                	add    %al,(%esi)
     232:	3c 02                	cmp    $0x2,%al
     234:	00 00                	add    %al,(%eax)
     236:	06                   	push   %es
     237:	76 00                	jbe    239 <SEG_KERN_CS+0x231>
     239:	00 00                	add    %al,(%eax)
     23b:	00 08                	add    %cl,(%eax)
     23d:	41                   	inc    %ecx
     23e:	02 00                	add    (%eax),%al
     240:	00 13                	add    %dl,(%ebx)
     242:	14 41                	adc    $0x41,%al
     244:	00 00                	add    %al,(%eax)
     246:	00 01                	add    %al,(%ecx)
     248:	12 06                	adc    (%esi),%al
     24a:	00 50 40             	add    %dl,0x40(%eax)
     24d:	f0 54                	lock push %esp
     24f:	00 00                	add    %al,(%eax)
     251:	00 01                	add    %al,(%ecx)
     253:	9c                   	pushf
     254:	15 aa 01 00 00       	adc    $0x1aa,%eax
     259:	01 12                	add    %edx,(%edx)
     25b:	1e                   	push   %ds
     25c:	c2 01 00             	ret    $0x1
     25f:	00 02                	add    %al,(%edx)
     261:	91                   	xchg   %eax,%ecx
     262:	00 00                	add    %al,(%eax)
     264:	00 26                	add    %ah,(%esi)
     266:	02 00                	add    (%eax),%al
     268:	00 05 00 01 04 2c    	add    %al,0x2c040100
     26e:	01 00                	add    %eax,(%eax)
     270:	00 09                	add    %cl,(%ecx)
     272:	45                   	inc    %ebp
     273:	01 00                	add    %eax,(%eax)
     275:	00 0c ee             	add    %cl,(%esi,%ebp,8)
     278:	00 00                	add    %al,(%eax)
     27a:	00 0b                	add    %cl,(%ebx)
     27c:	00 00                	add    %al,(%eax)
     27e:	00 8b 50 40 f0 78    	add    %cl,0x78f04050(%ebx)
     284:	02 00                	add    (%eax),%al
     286:	00 93 00 00 00 03    	add    %dl,0x3000000(%ebx)
     28c:	01 06                	add    %eax,(%esi)
     28e:	cc                   	int3
     28f:	00 00                	add    %al,(%eax)
     291:	00 0a                	add    %cl,(%edx)
     293:	26 00 00             	add    %al,%es:(%eax)
     296:	00 03                	add    %al,(%ebx)
     298:	02 05 20 00 00 00    	add    0x20,%al
     29e:	0b 04 05 69 6e 74 00 	or     0x746e69(,%eax,1),%eax
     2a5:	03 08                	add    (%eax),%ecx
     2a7:	05 84 00 00 00       	add    $0x84,%eax
     2ac:	06                   	push   %es
     2ad:	a2 02 00 00 02       	mov    %al,0x2000002
     2b2:	0b 1d 53 00 00 00    	or     0x53,%ebx
     2b8:	03 01                	add    (%ecx),%eax
     2ba:	08 c3                	or     %al,%bl
     2bc:	00 00                	add    %al,(%eax)
     2be:	00 03                	add    %al,(%ebx)
     2c0:	02 07                	add    (%edi),%al
     2c2:	32 01                	xor    (%ecx),%al
     2c4:	00 00                	add    %al,(%eax)
     2c6:	06                   	push   %es
     2c7:	08 01                	or     %al,(%ecx)
     2c9:	00 00                	add    %al,(%eax)
     2cb:	02 0d 1d 6d 00 00    	add    0x6d1d,%cl
     2d1:	00 03                	add    %al,(%ebx)
     2d3:	04 07                	add    $0x7,%al
     2d5:	fb                   	sti
     2d6:	00 00                	add    %al,(%eax)
     2d8:	00 03                	add    %al,(%ebx)
     2da:	08 07                	or     %al,(%edi)
     2dc:	f1                   	int1
     2dd:	00 00                	add    %al,(%eax)
     2df:	00 0c 07             	add    %cl,(%edi,%eax,1)
     2e2:	04 6d                	add    $0x6d,%al
     2e4:	00 00                	add    %al,(%eax)
     2e6:	00 03                	add    %al,(%ebx)
     2e8:	11 0e                	adc    %ecx,(%esi)
     2ea:	f6 00 00             	testb  $0x0,(%eax)
     2ed:	00 01                	add    %al,(%ecx)
     2ef:	6f                   	outsl  %ds:(%esi),(%dx)
     2f0:	02 00                	add    (%eax),%al
     2f2:	00 01                	add    %al,(%ecx)
     2f4:	01 38                	add    %edi,(%eax)
     2f6:	03 00                	add    (%eax),%eax
     2f8:	00 02                	add    %al,(%edx)
     2fa:	01 0f                	add    %ecx,(%edi)
     2fc:	02 00                	add    (%eax),%al
     2fe:	00 03                	add    %al,(%ebx)
     300:	01 fc                	add    %edi,%esp
     302:	01 00                	add    %eax,(%eax)
     304:	00 04 01             	add    %al,(%ecx,%eax,1)
     307:	dd 02                	fldl   (%edx)
     309:	00 00                	add    %al,(%eax)
     30b:	05 01 8b 02 00       	add    $0x28b01,%eax
     310:	00 06                	add    %al,(%esi)
     312:	01 29                	add    %ebp,(%ecx)
     314:	03 00                	add    (%eax),%eax
     316:	00 07                	add    %al,(%edi)
     318:	01 80 02 00 00 08    	add    %eax,0x8000002(%eax)
     31e:	01 ef                	add    %ebp,%edi
     320:	02 00                	add    (%eax),%al
     322:	00 09                	add    %cl,(%ecx)
     324:	01 fa                	add    %edi,%edx
     326:	02 00                	add    (%eax),%al
     328:	00 0a                	add    %cl,(%edx)
     32a:	01 05 03 00 00 0b    	add    %eax,0xb000003
     330:	01 63 02             	add    %esp,0x2(%ebx)
     333:	00 00                	add    %al,(%eax)
     335:	0c 01                	or     $0x1,%al
     337:	49                   	dec    %ecx
     338:	02 00                	add    (%eax),%al
     33a:	00 0d 01 56 02 00    	add    %cl,0x25601
     340:	00 0e                	add    %cl,(%esi)
     342:	01 30                	add    %esi,(%eax)
     344:	02 00                	add    (%eax),%al
     346:	00 0f                	add    %cl,(%edi)
     348:	01 ee                	add    %ebp,%esi
     34a:	01 00                	add    %eax,(%eax)
     34c:	00 10                	add    %dl,(%eax)
     34e:	01 ce                	add    %ecx,%esi
     350:	02 00                	add    (%eax),%al
     352:	00 11                	add    %dl,(%ecx)
     354:	01 1b                	add    %ebx,(%ebx)
     356:	03 00                	add    (%eax),%eax
     358:	00 12                	add    %dl,(%edx)
     35a:	00 06                	add    %al,(%esi)
     35c:	aa                   	stos   %al,%es:(%edi)
     35d:	02 00                	add    (%eax),%al
     35f:	00 03                	add    %al,(%ebx)
     361:	24 03                	and    $0x3,%al
     363:	7b 00                	jnp    365 <SEG_KERN_CS+0x35d>
     365:	00 00                	add    %al,(%eax)
     367:	07                   	pop    %es
     368:	3a 02                	cmp    (%edx),%al
     36a:	00 00                	add    %al,(%eax)
     36c:	06                   	push   %es
     36d:	12 01                	adc    (%ecx),%al
     36f:	00 00                	add    %al,(%eax)
     371:	05 03 00 80 40       	add    $0x40800003,%eax
     376:	f0 08 2d 00 00 00 07 	lock or %ch,0x7000000
     37d:	95                   	xchg   %eax,%ebp
     37e:	02 00                	add    (%eax),%al
     380:	00 09                	add    %cl,(%ecx)
     382:	12 01                	adc    (%ecx),%al
     384:	00 00                	add    %al,(%eax)
     386:	05 03 04 80 40       	add    $0x40800403,%eax
     38b:	f0 0d 10 03 00 00    	lock or $0x310,%eax
     391:	04 11                	add    $0x11,%al
     393:	0d 48 01 00 00       	or     $0x148,%eax
     398:	05 48 01 00 00       	add    $0x148,%eax
     39d:	05 48 01 00 00       	add    $0x148,%eax
     3a2:	05 48 01 00 00       	add    $0x148,%eax
     3a7:	05 48 01 00 00       	add    $0x148,%eax
     3ac:	00 08                	add    %cl,(%eax)
     3ae:	61                   	popa
     3af:	00 00                	add    %al,(%eax)
     3b1:	00 0e                	add    %cl,(%esi)
     3b3:	e5 01                	in     $0x1,%eax
     3b5:	00 00                	add    %al,(%eax)
     3b7:	01 0b                	add    %ecx,(%ebx)
     3b9:	0a 61 00             	or     0x0(%ecx),%ah
     3bc:	00 00                	add    %al,(%eax)
     3be:	8b 50 40             	mov    0x40(%eax),%edx
     3c1:	f0 78 02             	lock js 3c6 <SEG_KERN_CS+0x3be>
     3c4:	00 00                	add    %al,(%eax)
     3c6:	01 9c 0f e7 02 00 00 	add    %ebx,0x2e7(%edi,%ecx,1)
     3cd:	01 0b                	add    %ecx,(%ebx)
     3cf:	23 f6                	and    %esi,%esi
     3d1:	00 00                	add    %al,(%eax)
     3d3:	00 02                	add    %al,(%edx)
     3d5:	91                   	xchg   %eax,%ecx
     3d6:	00 04 65 61 78 00 10 	add    %al,0x10007861(,%eiz,2)
     3dd:	0e                   	push   %cs
     3de:	61                   	popa
     3df:	00 00                	add    %al,(%eax)
     3e1:	00 02                	add    %al,(%edx)
     3e3:	91                   	xchg   %eax,%ecx
     3e4:	5c                   	pop    %esp
     3e5:	04 65                	add    $0x65,%al
     3e7:	62 78 00             	bound  %edi,0x0(%eax)
     3ea:	10 17                	adc    %dl,(%edi)
     3ec:	61                   	popa
     3ed:	00 00                	add    %al,(%eax)
     3ef:	00 02                	add    %al,(%edx)
     3f1:	91                   	xchg   %eax,%ecx
     3f2:	58                   	pop    %eax
     3f3:	04 65                	add    $0x65,%al
     3f5:	64 78 00             	fs js  3f8 <SEG_KERN_CS+0x3f0>
     3f8:	10 1c 61             	adc    %bl,(%ecx,%eiz,2)
     3fb:	00 00                	add    %al,(%eax)
     3fd:	00 02                	add    %al,(%edx)
     3ff:	91                   	xchg   %eax,%ecx
     400:	54                   	push   %esp
     401:	04 65                	add    $0x65,%al
     403:	63 78 00             	arpl   %edi,0x0(%eax)
     406:	10 21                	adc    %ah,(%ecx)
     408:	61                   	popa
     409:	00 00                	add    %al,(%eax)
     40b:	00 02                	add    %al,(%edx)
     40d:	91                   	xchg   %eax,%ecx
     40e:	50                   	push   %eax
     40f:	02 19                	add    (%ecx),%bl
     411:	02 00                	add    (%eax),%al
     413:	00 11                	add    %dl,(%ecx)
     415:	0e                   	push   %cs
     416:	61                   	popa
     417:	00 00                	add    %al,(%eax)
     419:	00 02                	add    %al,(%edx)
     41b:	91                   	xchg   %eax,%ecx
     41c:	4c                   	dec    %esp
     41d:	02 ba 02 00 00 11    	add    0x11000002(%edx),%bh
     423:	1a 61 00             	sbb    0x0(%ecx),%ah
     426:	00 00                	add    %al,(%eax)
     428:	02 91 48 02 c7 02    	add    0x2c70248(%ecx),%dl
     42e:	00 00                	add    %al,(%eax)
     430:	11 26                	adc    %esp,(%esi)
     432:	61                   	popa
     433:	00 00                	add    %al,(%eax)
     435:	00 02                	add    %al,(%edx)
     437:	91                   	xchg   %eax,%ecx
     438:	44                   	inc    %esp
     439:	02 20                	add    (%eax),%ah
     43b:	02 00                	add    (%eax),%al
     43d:	00 11                	add    %dl,(%ecx)
     43f:	32 61 00             	xor    0x0(%ecx),%ah
     442:	00 00                	add    %al,(%eax)
     444:	02 91 40 02 43 02    	add    0x2430240(%ecx),%dl
     44a:	00 00                	add    %al,(%eax)
     44c:	19 0d 47 00 00 00    	sbb    %ecx,0x47
     452:	02 91 67 04 61 6d    	add    0x6d610467(%ecx),%dl
     458:	64 00 1a             	add    %bl,%fs:(%edx)
     45b:	0d 47 00 00 00       	or     $0x47,%eax
     460:	02 91 66 02 27 02    	add    0x2270266(%ecx),%dl
     466:	00 00                	add    %al,(%eax)
     468:	20 0e                	and    %cl,(%esi)
     46a:	61                   	popa
     46b:	00 00                	add    %al,(%eax)
     46d:	00 02                	add    %al,(%edx)
     46f:	91                   	xchg   %eax,%ecx
     470:	60                   	pusha
     471:	02 c1                	add    %cl,%al
     473:	02 00                	add    (%eax),%al
     475:	00 21                	add    %ah,(%ecx)
     477:	0e                   	push   %cs
     478:	61                   	popa
     479:	00 00                	add    %al,(%eax)
     47b:	00 02                	add    %al,(%edx)
     47d:	91                   	xchg   %eax,%ecx
     47e:	6c                   	insb   (%dx),%es:(%edi)
     47f:	02 79 02             	add    0x2(%ecx),%bh
     482:	00 00                	add    %al,(%eax)
     484:	27                   	daa
     485:	0e                   	push   %cs
     486:	61                   	popa
     487:	00 00                	add    %al,(%eax)
     489:	00 02                	add    %al,(%edx)
     48b:	91                   	xchg   %eax,%ecx
     48c:	68 00 00 0b 04       	push   $0x40b0000
     491:	00 00                	add    %al,(%eax)
     493:	05 00 01 04 13       	add    $0x13040100,%eax
     498:	02 00                	add    (%eax),%al
     49a:	00 12                	add    %dl,(%edx)
     49c:	45                   	inc    %ebp
     49d:	01 00                	add    %eax,(%eax)
     49f:	00 0c 5f             	add    %cl,(%edi,%ebx,2)
     4a2:	01 00                	add    %eax,(%eax)
     4a4:	00 0b                	add    %cl,(%ebx)
     4a6:	00 00                	add    %al,(%eax)
     4a8:	00 9e 57 40 f0 23    	add    %bl,0x23f04057(%esi)
     4ae:	01 00                	add    %eax,(%eax)
     4b0:	00 0b                	add    %cl,(%ebx)
     4b2:	02 00                	add    (%eax),%al
     4b4:	00 03                	add    %al,(%ebx)
     4b6:	01 06                	add    %eax,(%esi)
     4b8:	cc                   	int3
     4b9:	00 00                	add    %al,(%eax)
     4bb:	00 03                	add    %al,(%ebx)
     4bd:	02 05 20 00 00 00    	add    0x20,%al
     4c3:	13 04 05 69 6e 74 00 	adc    0x746e69(,%eax,1),%eax
     4ca:	03 08                	add    (%eax),%ecx
     4cc:	05 84 00 00 00       	add    $0x84,%eax
     4d1:	05 a2 02 00 00       	add    $0x2a2,%eax
     4d6:	02 0b                	add    (%ebx),%cl
     4d8:	1d 4e 00 00 00       	sbb    $0x4e,%eax
     4dd:	03 01                	add    (%ecx),%eax
     4df:	08 c3                	or     %al,%bl
     4e1:	00 00                	add    %al,(%eax)
     4e3:	00 03                	add    %al,(%ebx)
     4e5:	02 07                	add    (%edi),%al
     4e7:	32 01                	xor    (%ecx),%al
     4e9:	00 00                	add    %al,(%eax)
     4eb:	05 08 01 00 00       	add    $0x108,%eax
     4f0:	02 0d 1d 68 00 00    	add    0x681d,%cl
     4f6:	00 03                	add    %al,(%ebx)
     4f8:	04 07                	add    $0x7,%al
     4fa:	fb                   	sti
     4fb:	00 00                	add    %al,(%eax)
     4fd:	00 03                	add    %al,(%ebx)
     4ff:	08 07                	or     %al,(%edi)
     501:	f1                   	int1
     502:	00 00                	add    %al,(%eax)
     504:	00 05 2a 00 00 00    	add    %al,0x2a
     50a:	02 13                	add    (%ebx),%dl
     50c:	1d 5c 00 00 00       	sbb    $0x5c,%eax
     511:	05 8c 03 00 00       	add    $0x38c,%eax
     516:	03 2f                	add    (%edi),%ebp
     518:	12 5c 00 00          	adc    0x0(%eax,%eax,1),%bl
     51c:	00 0e                	add    %cl,(%esi)
     51e:	e5 03                	in     $0x3,%eax
     520:	00 00                	add    %al,(%eax)
     522:	18 03                	sbb    %al,(%ebx)
     524:	73 e5                	jae    50b <SEG_KERN_CS+0x503>
     526:	00 00                	add    %al,(%eax)
     528:	00 04 65 72 72 00 03 	add    %al,0x3007272(,%eiz,2)
     52f:	74 13                	je     544 <SEG_KERN_CS+0x53c>
     531:	82 00 00             	addb   $0x0,(%eax)
     534:	00 00                	add    %al,(%eax)
     536:	04 69                	add    $0x69,%al
     538:	70 00                	jo     53a <SEG_KERN_CS+0x532>
     53a:	03 77 13             	add    0x13(%edi),%esi
     53d:	82 00 00             	addb   $0x0,(%eax)
     540:	00 04 04             	add    %al,(%esp,%eax,1)
     543:	63 73 00             	arpl   %esi,0x0(%ebx)
     546:	03 78 13             	add    0x13(%eax),%edi
     549:	82 00 00             	addb   $0x0,(%eax)
     54c:	00 08                	add    %cl,(%eax)
     54e:	09 df                	or     %ebx,%edi
     550:	03 00                	add    (%eax),%eax
     552:	00 03                	add    %al,(%ebx)
     554:	79 13                	jns    569 <SEG_KERN_CS+0x561>
     556:	82 00 00             	addb   $0x0,(%eax)
     559:	00 0c 04             	add    %cl,(%esp,%eax,1)
     55c:	73 70                	jae    5ce <SEG_KERN_CS+0x5c6>
     55e:	00 03                	add    %al,(%ebx)
     560:	7c 13                	jl     575 <SEG_KERN_CS+0x56d>
     562:	82 00 00             	addb   $0x0,(%eax)
     565:	00 10                	add    %dl,(%eax)
     567:	04 73                	add    $0x73,%al
     569:	73 00                	jae    56b <SEG_KERN_CS+0x563>
     56b:	03 7d 13             	add    0x13(%ebp),%edi
     56e:	82 00 00             	addb   $0x0,(%eax)
     571:	00 14 00             	add    %dl,(%eax,%eax,1)
     574:	05 b2 03 00 00       	add    $0x3b2,%eax
     579:	03 82 29 8e 00 00    	add    0x8e29(%edx),%eax
     57f:	00 14 10             	add    %dl,(%eax,%edx,1)
     582:	04 28                	add    $0x28,%al
     584:	09 2b                	or     %ebp,(%ebx)
     586:	01 00                	add    %eax,(%eax)
     588:	00 04 6e             	add    %al,(%esi,%ebp,2)
     58b:	00 04 29             	add    %al,(%ecx,%ebp,1)
     58e:	0e                   	push   %cs
     58f:	5c                   	pop    %esp
     590:	00 00                	add    %al,(%eax)
     592:	00 00                	add    %al,(%eax)
     594:	04 6b                	add    $0x6b,%al
     596:	00 04 2a             	add    %al,(%edx,%ebp,1)
     599:	0e                   	push   %cs
     59a:	5c                   	pop    %esp
     59b:	00 00                	add    %al,(%eax)
     59d:	00 04 09             	add    %al,(%ecx,%ecx,1)
     5a0:	c7 03 00 00 04 2b    	movl   $0x2b040000,(%ebx)
     5a6:	1b 2b                	sbb    (%ebx),%ebp
     5a8:	01 00                	add    %eax,(%eax)
     5aa:	00 08                	add    %cl,(%eax)
     5ac:	09 73 08             	or     %esi,0x8(%ebx)
     5af:	00 00                	add    %al,(%eax)
     5b1:	04 2c                	add    $0x2c,%al
     5b3:	0b 30                	or     (%eax),%esi
     5b5:	01 00                	add    %eax,(%eax)
     5b7:	00 0c 00             	add    %cl,(%eax,%eax,1)
     5ba:	06                   	push   %es
     5bb:	e5 00                	in     $0x0,%eax
     5bd:	00 00                	add    %al,(%eax)
     5bf:	15 04 05 83 03       	adc    $0x3830504,%eax
     5c4:	00 00                	add    %al,(%eax)
     5c6:	04 2d                	add    $0x2d,%al
     5c8:	03 f1                	add    %ecx,%esi
     5ca:	00 00                	add    %al,(%eax)
     5cc:	00 0a                	add    %cl,(%edx)
     5ce:	32 01                	xor    (%ecx),%al
     5d0:	00 00                	add    %al,(%eax)
     5d2:	05 9d 04 00 00       	add    $0x49d,%eax
     5d7:	04 32                	add    $0x32,%al
     5d9:	10 4f 01             	adc    %cl,0x1(%edi)
     5dc:	00 00                	add    %al,(%eax)
     5de:	06                   	push   %es
     5df:	54                   	push   %esp
     5e0:	01 00                	add    %eax,(%eax)
     5e2:	00 16                	add    %dl,(%esi)
     5e4:	5f                   	pop    %edi
     5e5:	01 00                	add    %eax,(%eax)
     5e7:	00 07                	add    %al,(%edi)
     5e9:	5f                   	pop    %edi
     5ea:	01 00                	add    %eax,(%eax)
     5ec:	00 00                	add    %al,(%eax)
     5ee:	06                   	push   %es
     5ef:	3e 01 00             	add    %eax,%ds:(%eax)
     5f2:	00 0e                	add    %cl,(%esi)
     5f4:	7b 03                	jnp    5f9 <SEG_KERN_CS+0x5f1>
     5f6:	00 00                	add    %al,(%eax)
     5f8:	08 05 0a 98 01 00    	or     %al,0x1980a
     5fe:	00 09                	add    %cl,(%ecx)
     600:	da 03                	fiaddl (%ebx)
     602:	00 00                	add    %al,(%eax)
     604:	05 0b 0b 9e 01       	add    $0x19e0b0b,%eax
     609:	00 00                	add    %al,(%eax)
     60b:	00 04 76             	add    %al,(%esi,%esi,2)
     60e:	65 63 00             	arpl   %eax,%gs:(%eax)
     611:	05 0c 0d 42 00       	add    $0x420d0c,%eax
     616:	00 00                	add    %al,(%eax)
     618:	04 09                	add    $0x9,%al
     61a:	42                   	inc    %edx
     61b:	03 00                	add    (%eax),%eax
     61d:	00 05 0d 0d 42 00    	add    %al,0x420d0d
     623:	00 00                	add    %al,(%eax)
     625:	05 00 0a 64 01       	add    $0x1640a00,%eax
     62a:	00 00                	add    %al,(%eax)
     62c:	17                   	pop    %ss
     62d:	06                   	push   %es
     62e:	9d                   	popf
     62f:	01 00                	add    %eax,(%eax)
     631:	00 0b                	add    %cl,(%ebx)
     633:	98                   	cwtl
     634:	01 00                	add    %eax,(%eax)
     636:	00 b2 01 00 00 0c    	add    %dh,0xc000001(%edx)
     63c:	b7 01                	mov    $0x1,%bh
     63e:	00 00                	add    %al,(%eax)
     640:	00 0a                	add    %cl,(%edx)
     642:	a3 01 00 00 03       	mov    %eax,0x3000001
     647:	04 07                	add    $0x7,%al
     649:	f6 00 00             	testb  $0x0,(%eax)
     64c:	00 18                	add    %bl,(%eax)
     64e:	62 03                	bound  %eax,(%ebx)
     650:	00 00                	add    %al,(%eax)
     652:	01 1f                	add    %ebx,(%edi)
     654:	1d b2 01 00 00       	sbb    $0x1b2,%eax
     659:	05 03 60 70 40       	add    $0x40706003,%eax
     65e:	f0 0b 43 01          	lock or 0x1(%ebx),%eax
     662:	00 00                	add    %al,(%eax)
     664:	df 01                	filds  (%ecx)
     666:	00 00                	add    %al,(%eax)
     668:	0c b7                	or     $0xb7,%al
     66a:	01 00                	add    %eax,(%eax)
     66c:	00 00                	add    %al,(%eax)
     66e:	0f 47 03             	cmova  (%ebx),%eax
     671:	00 00                	add    %al,(%eax)
     673:	38 13                	cmp    %dl,(%ebx)
     675:	d0 01                	rolb   $1,(%ecx)
     677:	00 00                	add    %al,(%eax)
     679:	05 03 40 13 41       	add    $0x41134003,%eax
     67e:	f0 0b 30             	lock or (%eax),%esi
     681:	01 00                	add    %eax,(%eax)
     683:	00 ff                	add    %bh,%bh
     685:	01 00                	add    %eax,(%eax)
     687:	00 0c b7             	add    %cl,(%edi,%esi,4)
     68a:	01 00                	add    %eax,(%eax)
     68c:	00 00                	add    %al,(%eax)
     68e:	0f 8e 04 00 00 39    	jle    39000698 <MAGIC+0x1d525696>
     694:	07                   	pop    %es
     695:	f0 01 00             	lock add %eax,(%eax)
     698:	00 05 03 a0 13 41    	add    %al,0x4113a003
     69e:	f0 10 6c 03 00       	lock adc %ch,0x0(%ebx,%eax,1)
     6a3:	00 05 29 26 02 00    	add    %al,0x22629
     6a9:	00 07                	add    %al,(%edi)
     6ab:	26 02 00             	add    %es:(%eax),%al
     6ae:	00 07                	add    %al,(%edi)
     6b0:	42                   	inc    %edx
     6b1:	00 00                	add    %al,(%eax)
     6b3:	00 00                	add    %al,(%eax)
     6b5:	06                   	push   %es
     6b6:	98                   	cwtl
     6b7:	01 00                	add    %eax,(%eax)
     6b9:	00 10                	add    %dl,(%eax)
     6bb:	aa                   	stos   %al,%es:(%edi)
     6bc:	03 00                	add    (%eax),%eax
     6be:	00 06                	add    %al,(%esi)
     6c0:	09 46 02             	or     %eax,0x2(%esi)
     6c3:	00 00                	add    %al,(%eax)
     6c5:	07                   	pop    %es
     6c6:	30 01                	xor    %al,(%ecx)
     6c8:	00 00                	add    %al,(%eax)
     6ca:	07                   	pop    %es
     6cb:	42                   	inc    %edx
     6cc:	00 00                	add    %al,(%eax)
     6ce:	00 07                	add    %al,(%edi)
     6d0:	76 00                	jbe    6d2 <SEG_KERN_CS+0x6ca>
     6d2:	00 00                	add    %al,(%eax)
     6d4:	00 01                	add    %al,(%ecx)
     6d6:	30 05 00 00 1a 52    	xor    %al,0x521a0000
     6dc:	02 00                	add    (%eax),%al
     6de:	00 02                	add    %al,(%edx)
     6e0:	00 01                	add    %al,(%ecx)
     6e2:	20 05 00 00 19 5e    	and    %al,0x5e190000
     6e8:	02 00                	add    (%eax),%al
     6ea:	00 02                	add    %al,(%edx)
     6ec:	00 01                	add    %al,(%ecx)
     6ee:	10 05 00 00 18 6a    	adc    %al,0x6a180000
     6f4:	02 00                	add    (%eax),%al
     6f6:	00 02                	add    %al,(%edx)
     6f8:	00 01                	add    %al,(%ecx)
     6fa:	00 05 00 00 17 76    	add    %al,0x76170000
     700:	02 00                	add    (%eax),%al
     702:	00 02                	add    %al,(%edx)
     704:	00 01                	add    %al,(%ecx)
     706:	f0 04 00             	lock add $0x0,%al
     709:	00 16                	add    %dl,(%esi)
     70b:	82 02 00             	addb   $0x0,(%edx)
     70e:	00 02                	add    %al,(%edx)
     710:	00 01                	add    %al,(%ecx)
     712:	e0 04                	loopne 718 <SEG_KERN_CS+0x710>
     714:	00 00                	add    %al,(%eax)
     716:	15 8e 02 00 00       	adc    $0x28e,%eax
     71b:	02 00                	add    (%eax),%al
     71d:	01 d0                	add    %edx,%eax
     71f:	04 00                	add    $0x0,%al
     721:	00 14 9a             	add    %dl,(%edx,%ebx,4)
     724:	02 00                	add    (%eax),%al
     726:	00 02                	add    %al,(%edx)
     728:	00 01                	add    %al,(%ecx)
     72a:	c0 04 00 00          	rolb   $0x0,(%eax,%eax,1)
     72e:	13 a6 02 00 00 02    	adc    0x2000002(%esi),%esp
     734:	00 01                	add    %al,(%ecx)
     736:	7e 04                	jle    73c <SEG_KERN_CS+0x734>
     738:	00 00                	add    %al,(%eax)
     73a:	12 b2 02 00 00 02    	adc    0x2000002(%edx),%dh
     740:	00 01                	add    %al,(%ecx)
     742:	6e                   	outsb  %ds:(%esi),(%dx)
     743:	04 00                	add    $0x0,%al
     745:	00 11                	add    %dl,(%ecx)
     747:	be 02 00 00 02       	mov    $0x2000002,%esi
     74c:	00 01                	add    %al,(%ecx)
     74e:	9a 03 00 00 10 ca 02 	lcall  $0x2ca,$0x10000003
     755:	00 00                	add    %al,(%eax)
     757:	02 00                	add    (%eax),%al
     759:	01 5e 04             	add    %ebx,0x4(%esi)
     75c:	00 00                	add    %al,(%eax)
     75e:	0f d6                	(bad)
     760:	02 00                	add    (%eax),%al
     762:	00 02                	add    %al,(%edx)
     764:	00 01                	add    %al,(%ecx)
     766:	4e                   	dec    %esi
     767:	04 00                	add    $0x0,%al
     769:	00 0e                	add    %cl,(%esi)
     76b:	e2 02                	loop   76f <SEG_KERN_CS+0x767>
     76d:	00 00                	add    %al,(%eax)
     76f:	02 00                	add    (%eax),%al
     771:	01 3e                	add    %edi,(%esi)
     773:	04 00                	add    $0x0,%al
     775:	00 0d ee 02 00 00    	add    %cl,0x2ee
     77b:	02 00                	add    (%eax),%al
     77d:	01 2e                	add    %ebp,(%esi)
     77f:	04 00                	add    $0x0,%al
     781:	00 0c fa             	add    %cl,(%edx,%edi,8)
     784:	02 00                	add    (%eax),%al
     786:	00 02                	add    %al,(%edx)
     788:	00 01                	add    %al,(%ecx)
     78a:	1e                   	push   %ds
     78b:	04 00                	add    $0x0,%al
     78d:	00 0b                	add    %cl,(%ebx)
     78f:	06                   	push   %es
     790:	03 00                	add    (%eax),%eax
     792:	00 02                	add    %al,(%edx)
     794:	00 01                	add    %al,(%ecx)
     796:	0e                   	push   %cs
     797:	04 00                	add    $0x0,%al
     799:	00 0a                	add    %cl,(%edx)
     79b:	12 03                	adc    (%ebx),%al
     79d:	00 00                	add    %al,(%eax)
     79f:	02 00                	add    (%eax),%al
     7a1:	01 fe                	add    %edi,%esi
     7a3:	03 00                	add    (%eax),%eax
     7a5:	00 09                	add    %cl,(%ecx)
     7a7:	1e                   	push   %ds
     7a8:	03 00                	add    (%eax),%eax
     7aa:	00 02                	add    %al,(%edx)
     7ac:	00 19                	add    %bl,(%ecx)
     7ae:	cd 03                	int    $0x3
     7b0:	00 00                	add    %al,(%eax)
     7b2:	01 5f 06             	add    %ebx,0x6(%edi)
     7b5:	75 58                	jne    80f <SEG_KERN_CS+0x807>
     7b7:	40                   	inc    %eax
     7b8:	f0 4c                	lock dec %esp
     7ba:	00 00                	add    %al,(%eax)
     7bc:	00 01                	add    %al,(%ecx)
     7be:	9c                   	pushf
     7bf:	72 03                	jb     7c4 <SEG_KERN_CS+0x7bc>
     7c1:	00 00                	add    %al,(%eax)
     7c3:	08 6e 00             	or     %ch,0x0(%esi)
     7c6:	5f                   	pop    %edi
     7c7:	1c 5c                	sbb    $0x5c,%al
     7c9:	00 00                	add    %al,(%eax)
     7cb:	00 02                	add    %al,(%edx)
     7cd:	91                   	xchg   %eax,%ecx
     7ce:	00 08                	add    %cl,(%eax)
     7d0:	6b 00 5f             	imul   $0x5f,(%eax),%eax
     7d3:	28 5c 00 00          	sub    %bl,0x0(%eax,%eax,1)
     7d7:	00 02                	add    %al,(%edx)
     7d9:	91                   	xchg   %eax,%ecx
     7da:	04 0d                	add    $0xd,%al
     7dc:	c7 03 00 00 5f 41    	movl   $0x415f0000,(%ebx)
     7e2:	2b 01                	sub    (%ecx),%eax
     7e4:	00 00                	add    %al,(%eax)
     7e6:	02 91 08 1a 89 58    	add    0x58891a08(%ecx),%dl
     7ec:	40                   	inc    %eax
     7ed:	f0 35 00 00 00 1b    	lock xor $0x1b000000,%eax
     7f3:	65 00 01             	add    %al,%gs:(%ecx)
     7f6:	61                   	popa
     7f7:	12 32                	adc    (%edx),%dh
     7f9:	01 00                	add    %eax,(%eax)
     7fb:	00 02                	add    %al,(%edx)
     7fd:	91                   	xchg   %eax,%ecx
     7fe:	60                   	pusha
     7ff:	00 00                	add    %al,(%eax)
     801:	11 51 03             	adc    %edx,0x3(%ecx)
     804:	00 00                	add    %al,(%eax)
     806:	54                   	push   %esp
     807:	42                   	inc    %edx
     808:	00 00                	add    %al,(%eax)
     80a:	00 33                	add    %dh,(%ebx)
     80c:	58                   	pop    %eax
     80d:	40                   	inc    %eax
     80e:	f0 42                	lock inc %edx
     810:	00 00                	add    %al,(%eax)
     812:	00 01                	add    %al,(%ecx)
     814:	9c                   	pushf
     815:	b2 03                	mov    $0x3,%dl
     817:	00 00                	add    %al,(%eax)
     819:	08 6e 00             	or     %ch,0x0(%esi)
     81c:	54                   	push   %esp
     81d:	22 42 00             	and    0x0(%edx),%al
     820:	00 00                	add    %al,(%eax)
     822:	02 91 74 08 63 62    	add    0x62630874(%ecx),%dl
     828:	00 54 37 43          	add    %dl,0x43(%edi,%esi,1)
     82c:	01 00                	add    %eax,(%eax)
     82e:	00 02                	add    %al,(%edx)
     830:	91                   	xchg   %eax,%ecx
     831:	04 0d                	add    $0xd,%al
     833:	73 08                	jae    83d <SEG_KERN_CS+0x835>
     835:	00 00                	add    %al,(%eax)
     837:	54                   	push   %esp
     838:	41                   	inc    %ecx
     839:	30 01                	xor    %al,(%ecx)
     83b:	00 00                	add    %al,(%eax)
     83d:	02 91 08 00 11 af    	add    -0x50eefff8(%ecx),%dl
     843:	04 00                	add    $0x0,%al
     845:	00 44 42 00          	add    %al,0x0(%edx,%eax,2)
     849:	00 00                	add    %al,(%eax)
     84b:	e1 57                	loope  8a4 <SEG_KERN_CS+0x89c>
     84d:	40                   	inc    %eax
     84e:	f0 52                	lock push %edx
     850:	00 00                	add    %al,(%eax)
     852:	00 01                	add    %al,(%ecx)
     854:	9c                   	pushf
     855:	f2 03 00             	repnz add (%eax),%eax
     858:	00 08                	add    %cl,(%eax)
     85a:	6e                   	outsb  %ds:(%esi),(%dx)
     85b:	00 44 22 42          	add    %al,0x42(%edx,%eiz,1)
     85f:	00 00                	add    %al,(%eax)
     861:	00 02                	add    %al,(%edx)
     863:	91                   	xchg   %eax,%ecx
     864:	74 08                	je     86e <SEG_KERN_CS+0x866>
     866:	63 62 00             	arpl   %esp,0x0(%edx)
     869:	44                   	inc    %esp
     86a:	38 f2                	cmp    %dh,%dl
     86c:	03 00                	add    (%eax),%eax
     86e:	00 02                	add    %al,(%edx)
     870:	91                   	xchg   %eax,%ecx
     871:	04 0d                	add    $0xd,%al
     873:	73 08                	jae    87d <SEG_KERN_CS+0x875>
     875:	00 00                	add    %al,(%eax)
     877:	44                   	inc    %esp
     878:	43                   	inc    %ebx
     879:	f7 03 00 00 02 91    	testl  $0x91020000,(%ebx)
     87f:	08 00                	or     %al,(%eax)
     881:	06                   	push   %es
     882:	43                   	inc    %ebx
     883:	01 00                	add    %eax,(%eax)
     885:	00 06                	add    %al,(%esi)
     887:	30 01                	xor    %al,(%ecx)
     889:	00 00                	add    %al,(%eax)
     88b:	1c 97                	sbb    $0x97,%al
     88d:	01 00                	add    %eax,(%eax)
     88f:	00 01                	add    %al,(%ecx)
     891:	3c 06                	cmp    $0x6,%al
     893:	9e                   	sahf
     894:	57                   	push   %edi
     895:	40                   	inc    %eax
     896:	f0 43                	lock inc %ebx
     898:	00 00                	add    %al,(%eax)
     89a:	00 01                	add    %al,(%ecx)
     89c:	9c                   	pushf
     89d:	00 ee                	add    %ch,%dh
     89f:	02 00                	add    (%eax),%al
     8a1:	00 05 00 01 04 b5    	add    %al,0xb5040100
     8a7:	03 00                	add    (%eax),%eax
     8a9:	00 0c 45 01 00 00 0c 	add    %cl,0xc000001(,%eax,2)
     8b0:	72 01                	jb     8b3 <SEG_KERN_CS+0x8ab>
     8b2:	00 00                	add    %al,(%eax)
     8b4:	0b 00                	or     (%eax),%eax
     8b6:	00 00                	add    %al,(%eax)
     8b8:	c1 58 40 f0          	rcrl   $0xf0,0x40(%eax)
     8bc:	b0 01                	mov    $0x1,%al
     8be:	00 00                	add    %al,(%eax)
     8c0:	ef                   	out    %eax,(%dx)
     8c1:	02 00                	add    (%eax),%al
     8c3:	00 01                	add    %al,(%ecx)
     8c5:	01 06                	add    %eax,(%esi)
     8c7:	cc                   	int3
     8c8:	00 00                	add    %al,(%eax)
     8ca:	00 01                	add    %al,(%ecx)
     8cc:	02 05 20 00 00 00    	add    0x20,%al
     8d2:	0d 04 05 69 6e       	or     $0x6e690504,%eax
     8d7:	74 00                	je     8d9 <SEG_KERN_CS+0x8d1>
     8d9:	01 08                	add    %ecx,(%eax)
     8db:	05 84 00 00 00       	add    $0x84,%eax
     8e0:	05 a2 02 00 00       	add    $0x2a2,%eax
     8e5:	02 0b                	add    (%ebx),%cl
     8e7:	1d 4e 00 00 00       	sbb    $0x4e,%eax
     8ec:	01 01                	add    %eax,(%ecx)
     8ee:	08 c3                	or     %al,%bl
     8f0:	00 00                	add    %al,(%eax)
     8f2:	00 05 fb 05 00 00    	add    %al,0x5fb
     8f8:	02 0c 1d 61 00 00 00 	add    0x61(,%ebx,1),%cl
     8ff:	01 02                	add    %eax,(%edx)
     901:	07                   	pop    %es
     902:	32 01                	xor    (%ecx),%al
     904:	00 00                	add    %al,(%eax)
     906:	05 08 01 00 00       	add    $0x108,%eax
     90b:	02 0d 1d 74 00 00    	add    0x741d,%cl
     911:	00 01                	add    %al,(%ecx)
     913:	04 07                	add    $0x7,%al
     915:	fb                   	sti
     916:	00 00                	add    %al,(%eax)
     918:	00 01                	add    %al,(%ecx)
     91a:	08 07                	or     %al,(%edi)
     91c:	f1                   	int1
     91d:	00 00                	add    %al,(%eax)
     91f:	00 05 2a 00 00 00    	add    %al,0x2a
     925:	02 13                	add    (%ebx),%dl
     927:	1d 68 00 00 00       	sbb    $0x68,%eax
     92c:	08 ab 05 00 00 06    	or     %ch,0x6000005(%ebx)
     932:	0a b2 00 00 00 02    	or     0x2000000(%edx),%dh
     938:	40                   	inc    %eax
     939:	05 00 00 0b 0e       	add    $0xe0b0000,%eax
     93e:	55                   	push   %ebp
     93f:	00 00                	add    %al,(%eax)
     941:	00 00                	add    %al,(%eax)
     943:	02 0e                	add    (%esi),%cl
     945:	09 00                	or     %eax,(%eax)
     947:	00 0c 0e             	add    %cl,(%esi,%ecx,1)
     94a:	68 00 00 00 02       	push   $0x2000000
     94f:	00 08                	add    %cl,(%eax)
     951:	57                   	push   %edi
     952:	06                   	push   %es
     953:	00 00                	add    %al,(%eax)
     955:	08 1d 06 01 00 00    	or     %bl,0x106
     95b:	02 d6                	add    %dh,%dl
     95d:	05 00 00 1e 0e       	add    $0xe1e0000,%eax
     962:	55                   	push   %ebp
     963:	00 00                	add    %al,(%eax)
     965:	00 00                	add    %al,(%eax)
     967:	02 38                	add    (%eax),%bh
     969:	06                   	push   %es
     96a:	00 00                	add    %al,(%eax)
     96c:	1f                   	pop    %ds
     96d:	0e                   	push   %cs
     96e:	55                   	push   %ebp
     96f:	00 00                	add    %al,(%eax)
     971:	00 02                	add    %al,(%edx)
     973:	02 46 05             	add    0x5(%esi),%al
     976:	00 00                	add    %al,(%eax)
     978:	20 0d 42 00 00 00    	and    %cl,0x42
     97e:	04 02                	add    $0x2,%al
     980:	f4                   	hlt
     981:	05 00 00 21 0d       	add    $0xd210000,%eax
     986:	42                   	inc    %edx
     987:	00 00                	add    %al,(%eax)
     989:	00 05 02 bc 05 00    	add    %al,0x5bc02
     98f:	00 22                	add    %ah,(%edx)
     991:	0d 42 00 00 00       	or     $0x42,%eax
     996:	06                   	push   %es
     997:	02 11                	add    (%ecx),%dl
     999:	06                   	push   %es
     99a:	00 00                	add    %al,(%eax)
     99c:	23 0d 42 00 00 00    	and    0x42,%ecx
     9a2:	07                   	pop    %es
     9a3:	00 05 04 06 00 00    	add    %al,0x604
     9a9:	03 29                	add    (%ecx),%ebp
     9ab:	21 8e 00 00 00 05    	and    %ecx,0x5000000(%esi)
     9b1:	4f                   	dec    %edi
     9b2:	05 00 00 03 2b       	add    $0x2b030000,%eax
     9b7:	20 b2 00 00 00 0e    	and    %dh,0xe000000(%edx)
     9bd:	07                   	pop    %es
     9be:	04 74                	add    $0x74,%al
     9c0:	00 00                	add    %al,(%eax)
     9c2:	00 06                	add    %al,(%esi)
     9c4:	11 06                	adc    %eax,(%esi)
     9c6:	5d                   	pop    %ebp
     9c7:	01 00                	add    %eax,(%eax)
     9c9:	00 03                	add    %al,(%ebx)
     9cb:	77 05                	ja     9d2 <SEG_KERN_CS+0x9ca>
     9cd:	00 00                	add    %al,(%eax)
     9cf:	00 03                	add    %al,(%ebx)
     9d1:	80 05 00 00 01 03 e0 	addb   $0xe0,0x3010000
     9d8:	05 00 00 02 03       	add    $0x3020000,%eax
     9dd:	9f                   	lahf
     9de:	05 00 00 03 03       	add    $0x3030000,%eax
     9e3:	1b 06                	sbb    (%esi),%eax
     9e5:	00 00                	add    %al,(%eax)
     9e7:	04 03                	add    $0x3,%al
     9e9:	ec                   	in     (%dx),%al
     9ea:	05 00 00 05 03       	add    $0x3050000,%eax
     9ef:	4f                   	dec    %edi
     9f0:	06                   	push   %es
     9f1:	00 00                	add    %al,(%eax)
     9f3:	06                   	push   %es
     9f4:	03 30                	add    (%eax),%esi
     9f6:	06                   	push   %es
     9f7:	00 00                	add    %al,(%eax)
     9f9:	16                   	push   %ss
     9fa:	00 0f                	add    %cl,(%edi)
     9fc:	5b                   	pop    %ebx
     9fd:	05 00 00 01 08       	add    $0x8010000,%eax
     a02:	0e                   	push   %cs
     a03:	06                   	push   %es
     a04:	01 00                	add    %eax,(%eax)
     a06:	00 05 03 f0 13 41    	add    %al,0x4113f003
     a0c:	f0 10 12             	lock adc %dl,(%edx)
     a0f:	01 00                	add    %eax,(%eax)
     a11:	00 7f 01             	add    %bh,0x1(%edi)
     a14:	00 00                	add    %al,(%eax)
     a16:	11 7f 01             	adc    %edi,0x1(%edi)
     a19:	00 00                	add    %al,(%eax)
     a1b:	15 00 01 04 07       	adc    $0x7040100,%eax
     a20:	f6 00 00             	testb  $0x0,(%eax)
     a23:	00 12                	add    %dl,(%edx)
     a25:	67 64 74 00          	addr16 fs je a29 <SEG_KERN_CS+0xa21>
     a29:	01 09                	add    %ecx,(%ecx)
     a2b:	0d 6f 01 00 00       	or     $0x16f,%eax
     a30:	08 05 03 f8 13 41    	or     %al,0x4113f803
     a36:	f0 09 27             	lock or %esp,(%edi)
     a39:	06                   	push   %es
     a3a:	00 00                	add    %al,(%eax)
     a3c:	04 16                	add    $0x16,%al
     a3e:	0d ab 01 00 00       	or     $0x1ab,%eax
     a43:	06                   	push   %es
     a44:	ab                   	stos   %eax,%es:(%edi)
     a45:	01 00                	add    %eax,(%eax)
     a47:	00 00                	add    %al,(%eax)
     a49:	13 04 09             	adc    (%ecx,%ecx,1),%eax
     a4c:	aa                   	stos   %al,%es:(%edi)
     a4d:	03 00                	add    (%eax),%eax
     a4f:	00 05 09 06 c9 01    	add    %al,0x1c90609
     a55:	00 00                	add    %al,(%eax)
     a57:	06                   	push   %es
     a58:	ab                   	stos   %eax,%es:(%edi)
     a59:	01 00                	add    %eax,(%eax)
     a5b:	00 06                	add    %al,(%esi)
     a5d:	42                   	inc    %edx
     a5e:	00 00                	add    %al,(%eax)
     a60:	00 06                	add    %al,(%esi)
     a62:	82 00 00             	addb   $0x0,(%eax)
     a65:	00 00                	add    %al,(%eax)
     a67:	0a 64 05 00          	or     0x0(%ebp,%eax,1),%ah
     a6b:	00 48 49             	add    %cl,0x49(%eax)
     a6e:	5a                   	pop    %edx
     a6f:	40                   	inc    %eax
     a70:	f0 28 00             	lock sub %al,(%eax)
     a73:	00 00                	add    %al,(%eax)
     a75:	01 9c 16 02 00 00 07 	add    %ebx,0x7000002(%esi,%edx,1)
     a7c:	73 65                	jae    ae3 <SEG_KERN_CS+0xadb>
     a7e:	67 00 48 26          	add    %cl,0x26(%bx,%si)
     a82:	16                   	push   %ss
     a83:	02 00                	add    (%eax),%al
     a85:	00 02                	add    %al,(%edx)
     a87:	91                   	xchg   %eax,%ecx
     a88:	00 04 0e             	add    %al,(%esi,%ecx,1)
     a8b:	09 00                	or     %eax,(%eax)
     a8d:	00 48 34             	add    %cl,0x34(%eax)
     a90:	68 00 00 00 02       	push   $0x2000000
     a95:	91                   	xchg   %eax,%ecx
     a96:	04 04                	add    $0x4,%al
     a98:	85 09                	test   %ecx,(%ecx)
     a9a:	00 00                	add    %al,(%eax)
     a9c:	48                   	dec    %eax
     a9d:	43                   	inc    %ebx
     a9e:	68 00 00 00 02       	push   $0x2000000
     aa3:	91                   	xchg   %eax,%ecx
     aa4:	08 04 42             	or     %al,(%edx,%eax,2)
     aa7:	03 00                	add    (%eax),%eax
     aa9:	00 48 52             	add    %cl,0x52(%eax)
     aac:	68 00 00 00 02       	push   $0x2000000
     ab1:	91                   	xchg   %eax,%ecx
     ab2:	0c 00                	or     $0x0,%al
     ab4:	14 04                	adc    $0x4,%al
     ab6:	12 01                	adc    (%ecx),%al
     ab8:	00 00                	add    %al,(%eax)
     aba:	0a 8c 05 00 00 40 21 	or     0x21400000(%ebp,%eax,1),%cl
     ac1:	5a                   	pop    %edx
     ac2:	40                   	inc    %eax
     ac3:	f0 28 00             	lock sub %al,(%eax)
     ac6:	00 00                	add    %al,(%eax)
     ac8:	01 9c 69 02 00 00 07 	add    %ebx,0x7000002(%ecx,%ebp,2)
     acf:	73 65                	jae    b36 <SEG_KERN_CS+0xb2e>
     ad1:	67 00 40 26          	add    %al,0x26(%bx,%si)
     ad5:	16                   	push   %ss
     ad6:	02 00                	add    (%eax),%al
     ad8:	00 02                	add    %al,(%edx)
     ada:	91                   	xchg   %eax,%ecx
     adb:	00 04 0e             	add    %al,(%esi,%ecx,1)
     ade:	09 00                	or     %eax,(%eax)
     ae0:	00 40 34             	add    %al,0x34(%eax)
     ae3:	68 00 00 00 02       	push   $0x2000000
     ae8:	91                   	xchg   %eax,%ecx
     ae9:	04 04                	add    $0x4,%al
     aeb:	85 09                	test   %ecx,(%ecx)
     aed:	00 00                	add    %al,(%eax)
     aef:	40                   	inc    %eax
     af0:	43                   	inc    %ebx
     af1:	68 00 00 00 02       	push   $0x2000000
     af6:	91                   	xchg   %eax,%ecx
     af7:	08 04 42             	or     %al,(%edx,%eax,2)
     afa:	03 00                	add    (%eax),%eax
     afc:	00 40 52             	add    %al,0x52(%eax)
     aff:	68 00 00 00 02       	push   $0x2000000
     b04:	91                   	xchg   %eax,%ecx
     b05:	0c 00                	or     $0x0,%al
     b07:	15 41 06 00 00       	adc    $0x641,%eax
     b0c:	01 2e                	add    %ebp,(%esi)
     b0e:	06                   	push   %es
     b0f:	9a 59 40 f0 87 00 00 	lcall  $0x0,$0x87f04059
     b16:	00 01                	add    %al,(%ecx)
     b18:	9c                   	pushf
     b19:	aa                   	stos   %al,%es:(%edi)
     b1a:	02 00                	add    (%eax),%al
     b1c:	00 07                	add    %al,(%edi)
     b1e:	73 65                	jae    b85 <SEG_KERN_CS+0xb7d>
     b20:	67 00 2e 21 16       	add    %ch,0x1621
     b25:	02 00                	add    (%eax),%al
     b27:	00 02                	add    %al,(%edx)
     b29:	91                   	xchg   %eax,%ecx
     b2a:	00 04 0e             	add    %al,(%esi,%ecx,1)
     b2d:	09 00                	or     %eax,(%eax)
     b2f:	00 2e                	add    %ch,(%esi)
     b31:	2f                   	das
     b32:	68 00 00 00 02       	push   $0x2000000
     b37:	91                   	xchg   %eax,%ecx
     b38:	04 04                	add    $0x4,%al
     b3a:	85 09                	test   %ecx,(%ecx)
     b3c:	00 00                	add    %al,(%eax)
     b3e:	2e 3e 68 00 00 00 02 	cs ds push $0x2000000
     b45:	91                   	xchg   %eax,%ecx
     b46:	08 00                	or     %al,(%eax)
     b48:	16                   	push   %ss
     b49:	c8 05 00 00          	enter  $0x5,$0x0
     b4d:	01 26                	add    %esp,(%esi)
     b4f:	0e                   	push   %cs
     b50:	16                   	push   %ss
     b51:	02 00                	add    (%eax),%al
     b53:	00 73 59             	add    %dh,0x59(%ebx)
     b56:	40                   	inc    %eax
     b57:	f0 27                	lock daa
     b59:	00 00                	add    %al,(%eax)
     b5b:	00 01                	add    %al,(%ecx)
     b5d:	9c                   	pushf
     b5e:	d1 02                	roll   $1,(%edx)
     b60:	00 00                	add    %al,(%eax)
     b62:	07                   	pop    %es
     b63:	6e                   	outsb  %ds:(%esi),(%dx)
     b64:	00 26                	add    %ah,(%esi)
     b66:	24 42                	and    $0x42,%al
     b68:	00 00                	add    %al,(%eax)
     b6a:	00 02                	add    %al,(%edx)
     b6c:	91                   	xchg   %eax,%ecx
     b6d:	74 00                	je     b6f <SEG_KERN_CS+0xb67>
     b6f:	0b 31                	or     (%ecx),%esi
     b71:	00 00                	add    %al,(%eax)
     b73:	00 22                	add    %ah,(%edx)
     b75:	5a                   	pop    %edx
     b76:	59                   	pop    %ecx
     b77:	40                   	inc    %eax
     b78:	f0 19 00             	lock sbb %eax,(%eax)
     b7b:	00 00                	add    %al,(%eax)
     b7d:	01 9c 0b d1 00 00 00 	add    %ebx,0xd1(%ebx,%ecx,1)
     b84:	12 c1                	adc    %cl,%al
     b86:	58                   	pop    %eax
     b87:	40                   	inc    %eax
     b88:	f0 99                	lock cltd
     b8a:	00 00                	add    %al,(%eax)
     b8c:	00 01                	add    %al,(%ecx)
     b8e:	9c                   	pushf
     b8f:	00 f6                	add    %dh,%dh
     b91:	04 00                	add    $0x0,%al
     b93:	00 05 00 01 04 28    	add    %al,0x28040100
     b99:	05 00 00 15 45       	add    $0x45150000,%eax
     b9e:	01 00                	add    %eax,(%eax)
     ba0:	00 0c 8b             	add    %cl,(%ebx,%ecx,4)
     ba3:	01 00                	add    %eax,(%eax)
     ba5:	00 0b                	add    %cl,(%ebx)
     ba7:	00 00                	add    %al,(%eax)
     ba9:	00 70 5d             	add    %dh,0x5d(%eax)
     bac:	40                   	inc    %eax
     bad:	f0 6b 03 00          	lock imul $0x0,(%ebx),%eax
     bb1:	00 f8                	add    %bh,%al
     bb3:	03 00                	add    (%eax),%eax
     bb5:	00 05 01 06 cc 00    	add    %al,0xcc0601
     bbb:	00 00                	add    %al,(%eax)
     bbd:	05 02 05 20 00       	add    $0x200502,%eax
     bc2:	00 00                	add    %al,(%eax)
     bc4:	16                   	push   %ss
     bc5:	04 05                	add    $0x5,%al
     bc7:	69 6e 74 00 05 08 05 	imul   $0x5080500,0x74(%esi),%ebp
     bce:	84 00                	test   %al,(%eax)
     bd0:	00 00                	add    %al,(%eax)
     bd2:	06                   	push   %es
     bd3:	a2 02 00 00 02       	mov    %al,0x2000002
     bd8:	0b 1d 53 00 00 00    	or     0x53,%ebx
     bde:	0b 42 00             	or     0x0(%edx),%eax
     be1:	00 00                	add    %al,(%eax)
     be3:	05 01 08 c3 00       	add    $0xc30801,%eax
     be8:	00 00                	add    %al,(%eax)
     bea:	05 02 07 32 01       	add    $0x1320702,%eax
     bef:	00 00                	add    %al,(%eax)
     bf1:	06                   	push   %es
     bf2:	08 01                	or     %al,(%ecx)
     bf4:	00 00                	add    %al,(%eax)
     bf6:	02 0d 1d 6d 00 00    	add    0x6d1d,%cl
     bfc:	00 05 04 07 fb 00    	add    %al,0xfb0704
     c02:	00 00                	add    %al,(%eax)
     c04:	05 08 07 f1 00       	add    $0xf10708,%eax
     c09:	00 00                	add    %al,(%eax)
     c0b:	06                   	push   %es
     c0c:	2a 00                	sub    (%eax),%al
     c0e:	00 00                	add    %al,(%eax)
     c10:	02 13                	add    (%ebx),%dl
     c12:	1d 61 00 00 00       	sbb    $0x61,%eax
     c17:	06                   	push   %es
     c18:	8c 03                	mov    %es,(%ebx)
     c1a:	00 00                	add    %al,(%eax)
     c1c:	03 2f                	add    (%edi),%ebp
     c1e:	12 61 00             	adc    0x0(%ecx),%ah
     c21:	00 00                	add    %al,(%eax)
     c23:	12 3d 08 00 00 14    	adc    0x14000008,%bh
     c29:	03 64 dd 00          	add    0x0(%ebp,%ebx,8),%esp
     c2d:	00 00                	add    %al,(%eax)
     c2f:	07                   	pop    %es
     c30:	69 70 00 03 66 13 87 	imul   $0x87136603,0x0(%eax),%esi
     c37:	00 00                	add    %al,(%eax)
     c39:	00 00                	add    %al,(%eax)
     c3b:	07                   	pop    %es
     c3c:	63 73 00             	arpl   %esi,0x0(%ebx)
     c3f:	03 67 13             	add    0x13(%edi),%esp
     c42:	87 00                	xchg   %eax,(%eax)
     c44:	00 00                	add    %al,(%eax)
     c46:	04 0a                	add    $0xa,%al
     c48:	df 03                	filds  (%ebx)
     c4a:	00 00                	add    %al,(%eax)
     c4c:	03 68 13             	add    0x13(%eax),%ebp
     c4f:	87 00                	xchg   %eax,(%eax)
     c51:	00 00                	add    %al,(%eax)
     c53:	08 07                	or     %al,(%edi)
     c55:	73 70                	jae    cc7 <SEG_KERN_CS+0xcbf>
     c57:	00 03                	add    %al,(%ebx)
     c59:	6b 13 87             	imul   $0xffffff87,(%ebx),%edx
     c5c:	00 00                	add    %al,(%eax)
     c5e:	00 0c 07             	add    %cl,(%edi,%eax,1)
     c61:	73 73                	jae    cd6 <SEG_KERN_CS+0xcce>
     c63:	00 03                	add    %al,(%ebx)
     c65:	6c                   	insb   (%dx),%es:(%edi)
     c66:	13 87 00 00 00 10    	adc    0x10000000(%edi),%eax
     c6c:	00 06                	add    %al,(%esi)
     c6e:	8c 08                	mov    %cs,(%eax)
     c70:	00 00                	add    %al,(%eax)
     c72:	03 81 27 93 00 00    	add    0x9327(%ecx),%eax
     c78:	00 17                	add    %dl,(%edi)
     c7a:	10 04 2c             	adc    %al,(%esp,%ebp,1)
     c7d:	09 23                	or     %esp,(%ebx)
     c7f:	01 00                	add    %eax,(%eax)
     c81:	00 07                	add    %al,(%edi)
     c83:	6e                   	outsb  %ds:(%esi),(%dx)
     c84:	00 04 2d 0e 61 00 00 	add    %al,0x610e(,%ebp,1)
     c8b:	00 00                	add    %al,(%eax)
     c8d:	07                   	pop    %es
     c8e:	6b 00 04             	imul   $0x4,(%eax),%eax
     c91:	2e 0e                	cs push %cs
     c93:	61                   	popa
     c94:	00 00                	add    %al,(%eax)
     c96:	00 04 0a             	add    %al,(%edx,%ecx,1)
     c99:	c7 03 00 00 04 2f    	movl   $0x2f040000,(%ebx)
     c9f:	19 23                	sbb    %esp,(%ebx)
     ca1:	01 00                	add    %eax,(%eax)
     ca3:	00 08                	add    %cl,(%eax)
     ca5:	0a 73 08             	or     0x8(%ebx),%dh
     ca8:	00 00                	add    %al,(%eax)
     caa:	04 30                	add    $0x30,%al
     cac:	0b 28                	or     (%eax),%ebp
     cae:	01 00                	add    %eax,(%eax)
     cb0:	00 0c 00             	add    %cl,(%eax,%eax,1)
     cb3:	08 dd                	or     %bl,%ch
     cb5:	00 00                	add    %al,(%eax)
     cb7:	00 18                	add    %bl,(%eax)
     cb9:	04 06                	add    $0x6,%al
     cbb:	14 08                	adc    $0x8,%al
     cbd:	00 00                	add    %al,(%eax)
     cbf:	04 31                	add    $0x31,%al
     cc1:	03 e9                	add    %ecx,%ebp
     cc3:	00 00                	add    %al,(%eax)
     cc5:	00 0b                	add    %cl,(%ebx)
     cc7:	2a 01                	sub    (%ecx),%al
     cc9:	00 00                	add    %al,(%eax)
     ccb:	06                   	push   %es
     ccc:	54                   	push   %esp
     ccd:	08 00                	or     %al,(%eax)
     ccf:	00 04 36             	add    %al,(%esi,%esi,1)
     cd2:	10 47 01             	adc    %al,0x1(%edi)
     cd5:	00 00                	add    %al,(%eax)
     cd7:	08 4c 01 00          	or     %cl,0x0(%ecx,%eax,1)
     cdb:	00 19                	add    %bl,(%ecx)
     cdd:	57                   	push   %edi
     cde:	01 00                	add    %eax,(%eax)
     ce0:	00 03                	add    %al,(%ebx)
     ce2:	57                   	push   %edi
     ce3:	01 00                	add    %eax,(%eax)
     ce5:	00 00                	add    %al,(%eax)
     ce7:	08 36                	or     %dh,(%esi)
     ce9:	01 00                	add    %eax,(%eax)
     ceb:	00 12                	add    %dl,(%edx)
     ced:	7b 03                	jnp    cf2 <SEG_KERN_CS+0xcea>
     cef:	00 00                	add    %al,(%eax)
     cf1:	08 05 0a 90 01 00    	or     %al,0x1900a
     cf7:	00 0a                	add    %cl,(%edx)
     cf9:	da 03                	fiaddl (%ebx)
     cfb:	00 00                	add    %al,(%eax)
     cfd:	05 0b 0b 96 01       	add    $0x1960b0b,%eax
     d02:	00 00                	add    %al,(%eax)
     d04:	00 07                	add    %al,(%edi)
     d06:	76 65                	jbe    d6d <SEG_KERN_CS+0xd65>
     d08:	63 00                	arpl   %eax,(%eax)
     d0a:	05 0c 0d 42 00       	add    $0x420d0c,%eax
     d0f:	00 00                	add    %al,(%eax)
     d11:	04 0a                	add    $0xa,%al
     d13:	42                   	inc    %edx
     d14:	03 00                	add    (%eax),%eax
     d16:	00 05 0d 0d 42 00    	add    %al,0x420d0d
     d1c:	00 00                	add    %al,(%eax)
     d1e:	05 00 0b 5c 01       	add    $0x15c0b00,%eax
     d23:	00 00                	add    %al,(%eax)
     d25:	1a 08                	sbb    (%eax),%cl
     d27:	95                   	xchg   %eax,%ebp
     d28:	01 00                	add    %eax,(%eax)
     d2a:	00 0d 90 01 00 00    	add    %cl,0x190
     d30:	ab                   	stos   %eax,%es:(%edi)
     d31:	01 00                	add    %eax,(%eax)
     d33:	00 0e                	add    %cl,(%esi)
     d35:	b0 01                	mov    $0x1,%al
     d37:	00 00                	add    %al,(%eax)
     d39:	08 00                	or     %al,(%eax)
     d3b:	0b 9b 01 00 00 05    	or     0x5000001(%ebx),%ebx
     d41:	04 07                	add    $0x7,%al
     d43:	f6 00 00             	testb  $0x0,(%eax)
     d46:	00 09                	add    %cl,(%ecx)
     d48:	39 07                	cmp    %eax,(%edi)
     d4a:	00 00                	add    %al,(%eax)
     d4c:	1c 1d                	sbb    $0x1d,%al
     d4e:	ab                   	stos   %eax,%es:(%edi)
     d4f:	01 00                	add    %eax,(%eax)
     d51:	00 05 03 00 71 40    	add    %al,0x40710003
     d57:	f0 09 e0             	lock or %esp,%eax
     d5a:	08 00                	or     %al,(%eax)
     d5c:	00 28                	add    %ch,(%eax)
     d5e:	1d ab 01 00 00       	sbb    $0x1ab,%eax
     d63:	05 03 60 71 40       	add    $0x40716003,%eax
     d68:	f0 0d 3b 01 00 00    	lock or $0x13b,%eax
     d6e:	e9 01 00 00 0e       	jmp    e000d74 <_mb_unpaged_end+0xdbfbd74>
     d73:	b0 01                	mov    $0x1,%al
     d75:	00 00                	add    %al,(%eax)
     d77:	0f 00 13             	lldt   (%ebx)
     d7a:	34 08                	xor    $0x8,%al
     d7c:	00 00                	add    %al,(%eax)
     d7e:	35 12 d9 01 00       	xor    $0x1d912,%eax
     d83:	00 05 03 c0 14 41    	add    %al,0x4114c003
     d89:	f0 0d 28 01 00 00    	lock or $0x128,%eax
     d8f:	0a 02                	or     (%edx),%al
     d91:	00 00                	add    %al,(%eax)
     d93:	0e                   	push   %cs
     d94:	b0 01                	mov    $0x1,%al
     d96:	00 00                	add    %al,(%eax)
     d98:	0f 00 13             	lldt   (%ebx)
     d9b:	6a 08                	push   $0x8
     d9d:	00 00                	add    %al,(%eax)
     d9f:	36 07                	ss pop %es
     da1:	fa                   	cli
     da2:	01 00                	add    %eax,(%eax)
     da4:	00 05 03 00 15 41    	add    %al,0x41150003
     daa:	f0 1b d8             	lock sbb %eax,%ebx
     dad:	08 00                	or     %al,(%eax)
     daf:	00 06                	add    %al,(%esi)
     db1:	1e                   	push   %ds
     db2:	11 61 00             	adc    %esp,0x0(%ecx)
     db5:	00 00                	add    %al,(%eax)
     db7:	31 02                	xor    %eax,(%edx)
     db9:	00 00                	add    %al,(%eax)
     dbb:	03 61 00             	add    0x0(%ecx),%esp
     dbe:	00 00                	add    %al,(%eax)
     dc0:	00 0f                	add    %cl,(%edi)
     dc2:	0b 08                	or     (%eax),%ecx
     dc4:	00 00                	add    %al,(%eax)
     dc6:	06                   	push   %es
     dc7:	22 0d 48 02 00 00    	and    0x248,%cl
     dcd:	03 61 00             	add    0x0(%ecx),%esp
     dd0:	00 00                	add    %al,(%eax)
     dd2:	03 61 00             	add    0x0(%ecx),%esp
     dd5:	00 00                	add    %al,(%eax)
     dd7:	00 0f                	add    %cl,(%edi)
     dd9:	6c                   	insb   (%dx),%es:(%edi)
     dda:	03 00                	add    (%eax),%eax
     ddc:	00 05 29 06 5f 02    	add    %al,0x25f0629
     de2:	00 00                	add    %al,(%eax)
     de4:	03 5f 02             	add    0x2(%edi),%ebx
     de7:	00 00                	add    %al,(%eax)
     de9:	03 42 00             	add    0x0(%edx),%eax
     dec:	00 00                	add    %al,(%eax)
     dee:	00 08                	add    %cl,(%eax)
     df0:	90                   	nop
     df1:	01 00                	add    %eax,(%eax)
     df3:	00 0f                	add    %cl,(%edi)
     df5:	aa                   	stos   %al,%es:(%edi)
     df6:	03 00                	add    (%eax),%eax
     df8:	00 07                	add    %al,(%edi)
     dfa:	09 06                	or     %eax,(%esi)
     dfc:	80 02 00             	addb   $0x0,(%edx)
     dff:	00 03                	add    %al,(%ebx)
     e01:	28 01                	sub    %al,(%ecx)
     e03:	00 00                	add    %al,(%eax)
     e05:	03 42 00             	add    0x0(%edx),%eax
     e08:	00 00                	add    %al,(%eax)
     e0a:	03 7b 00             	add    0x0(%ebx),%edi
     e0d:	00 00                	add    %al,(%eax)
     e0f:	00 01                	add    %al,(%ecx)
     e11:	d9 07                	flds   (%edi)
     e13:	00 00                	add    %al,(%eax)
     e15:	19 8c 02 00 00 02 00 	sbb    %ecx,0x20000(%edx,%eax,1)
     e1c:	01 c4                	add    %eax,%esp
     e1e:	07                   	pop    %es
     e1f:	00 00                	add    %al,(%eax)
     e21:	18 98 02 00 00 02    	sbb    %bl,0x2000002(%eax)
     e27:	00 01                	add    %al,(%ecx)
     e29:	af                   	scas   %es:(%edi),%eax
     e2a:	07                   	pop    %es
     e2b:	00 00                	add    %al,(%eax)
     e2d:	17                   	pop    %ss
     e2e:	a4                   	movsb  %ds:(%esi),%es:(%edi)
     e2f:	02 00                	add    (%eax),%al
     e31:	00 02                	add    %al,(%edx)
     e33:	00 01                	add    %al,(%ecx)
     e35:	9a 07 00 00 16 b0 02 	lcall  $0x2b0,$0x16000007
     e3c:	00 00                	add    %al,(%eax)
     e3e:	02 00                	add    (%eax),%al
     e40:	01 85 07 00 00 15    	add    %eax,0x15000007(%ebp)
     e46:	bc 02 00 00 02       	mov    $0x2000002,%esp
     e4b:	00 01                	add    %al,(%ecx)
     e4d:	70 07                	jo     e56 <SEG_KERN_CS+0xe4e>
     e4f:	00 00                	add    %al,(%eax)
     e51:	14 c8                	adc    $0xc8,%al
     e53:	02 00                	add    (%eax),%al
     e55:	00 02                	add    %al,(%edx)
     e57:	00 01                	add    %al,(%ecx)
     e59:	24 07                	and    $0x7,%al
     e5b:	00 00                	add    %al,(%eax)
     e5d:	13 d4                	adc    %esp,%edx
     e5f:	02 00                	add    (%eax),%al
     e61:	00 02                	add    %al,(%edx)
     e63:	00 01                	add    %al,(%ecx)
     e65:	0f 07                	sysret
     e67:	00 00                	add    %al,(%eax)
     e69:	12 e0                	adc    %al,%ah
     e6b:	02 00                	add    (%eax),%al
     e6d:	00 02                	add    %al,(%edx)
     e6f:	00 01                	add    %al,(%ecx)
     e71:	fa                   	cli
     e72:	06                   	push   %es
     e73:	00 00                	add    %al,(%eax)
     e75:	10 ec                	adc    %ch,%ah
     e77:	02 00                	add    (%eax),%al
     e79:	00 02                	add    %al,(%edx)
     e7b:	00 01                	add    %al,(%ecx)
     e7d:	e5 06                	in     $0x6,%eax
     e7f:	00 00                	add    %al,(%eax)
     e81:	0f f8 02             	psubb  (%edx),%mm0
     e84:	00 00                	add    %al,(%eax)
     e86:	02 00                	add    (%eax),%al
     e88:	01 d0                	add    %edx,%eax
     e8a:	06                   	push   %es
     e8b:	00 00                	add    %al,(%eax)
     e8d:	0e                   	push   %cs
     e8e:	04 03                	add    $0x3,%al
     e90:	00 00                	add    %al,(%eax)
     e92:	02 00                	add    (%eax),%al
     e94:	01 bb 06 00 00 0d    	add    %edi,0xd000006(%ebx)
     e9a:	10 03                	adc    %al,(%ebx)
     e9c:	00 00                	add    %al,(%eax)
     e9e:	02 00                	add    (%eax),%al
     ea0:	01 a6 06 00 00 0c    	add    %esp,0xc000006(%esi)
     ea6:	1c 03                	sbb    $0x3,%al
     ea8:	00 00                	add    %al,(%eax)
     eaa:	02 00                	add    (%eax),%al
     eac:	01 91 06 00 00 0b    	add    %edx,0xb000006(%ecx)
     eb2:	28 03                	sub    %al,(%ebx)
     eb4:	00 00                	add    %al,(%eax)
     eb6:	02 00                	add    (%eax),%al
     eb8:	01 7c 06 00          	add    %edi,0x0(%esi,%eax,1)
     ebc:	00 0a                	add    %cl,(%edx)
     ebe:	34 03                	xor    $0x3,%al
     ec0:	00 00                	add    %al,(%eax)
     ec2:	02 00                	add    (%eax),%al
     ec4:	01 67 06             	add    %esp,0x6(%edi)
     ec7:	00 00                	add    %al,(%eax)
     ec9:	09 40 03             	or     %eax,0x3(%eax)
     ecc:	00 00                	add    %al,(%eax)
     ece:	02 00                	add    (%eax),%al
     ed0:	0c b0                	or     $0xb0,%al
     ed2:	08 00                	or     %al,(%eax)
     ed4:	00 a6 81 60 40 f0    	add    %ah,-0xfbf9f7f(%esi)
     eda:	5a                   	pop    %edx
     edb:	00 00                	add    %al,(%eax)
     edd:	00 01                	add    %al,(%ecx)
     edf:	9c                   	pushf
     ee0:	92                   	xchg   %eax,%edx
     ee1:	03 00                	add    (%eax),%eax
     ee3:	00 04 6e             	add    %al,(%esi,%ebp,2)
     ee6:	00 a6 21 61 00 00    	add    %ah,0x6121(%esi)
     eec:	00 02                	add    %al,(%edx)
     eee:	91                   	xchg   %eax,%ecx
     eef:	00 04 6b             	add    %al,(%ebx,%ebp,2)
     ef2:	00 a6 2d 61 00 00    	add    %ah,0x612d(%esi)
     ef8:	00 02                	add    %al,(%edx)
     efa:	91                   	xchg   %eax,%ecx
     efb:	04 10                	add    $0x10,%al
     efd:	c7 03 00 00 a6 44    	movl   $0x44a60000,(%ebx)
     f03:	23 01                	and    (%ecx),%eax
     f05:	00 00                	add    %al,(%eax)
     f07:	02 91 08 1c 95 60    	add    0x60951c08(%ecx),%dl
     f0d:	40                   	inc    %eax
     f0e:	f0 35 00 00 00 1d    	lock xor $0x1d000000,%eax
     f14:	65 00 01             	add    %al,%gs:(%ecx)
     f17:	a8 11                	test   $0x11,%al
     f19:	2a 01                	sub    (%ecx),%al
     f1b:	00 00                	add    %al,(%eax)
     f1d:	02 91 60 00 00 14    	add    0x14000060(%ecx),%dl
     f23:	c2 08 00             	ret    $0x8
     f26:	00 9c 42 00 00 00 45 	add    %bl,0x45000000(%edx,%eax,2)
     f2d:	60                   	pusha
     f2e:	40                   	inc    %eax
     f2f:	f0 3c 00             	lock cmp $0x0,%al
     f32:	00 00                	add    %al,(%eax)
     f34:	01 9c d2 03 00 00 04 	add    %ebx,0x4000003(%edx,%edx,8)
     f3b:	6e                   	outsb  %ds:(%esi),(%dx)
     f3c:	00 9c 27 42 00 00 00 	add    %bl,0x42(%edi,%eiz,1)
     f43:	02 91 74 04 63 62    	add    0x62630474(%ecx),%dl
     f49:	00 9c 3b 3b 01 00 00 	add    %bl,0x13b(%ebx,%edi,1)
     f50:	02 91 04 10 73 08    	add    0x8731004(%ecx),%dl
     f56:	00 00                	add    %al,(%eax)
     f58:	9c                   	pushf
     f59:	45                   	inc    %ebp
     f5a:	28 01                	sub    %al,(%ecx)
     f5c:	00 00                	add    %al,(%eax)
     f5e:	02 91 08 00 14 ee    	add    -0x11ebfff8(%ecx),%dl
     f64:	07                   	pop    %es
     f65:	00 00                	add    %al,(%eax)
     f67:	8c 42 00             	mov    %es,0x0(%edx)
     f6a:	00 00                	add    %al,(%eax)
     f6c:	f9                   	stc
     f6d:	5f                   	pop    %edi
     f6e:	40                   	inc    %eax
     f6f:	f0 4c                	lock dec %esp
     f71:	00 00                	add    %al,(%eax)
     f73:	00 01                	add    %al,(%ecx)
     f75:	9c                   	pushf
     f76:	12 04 00             	adc    (%eax,%eax,1),%al
     f79:	00 04 6e             	add    %al,(%esi,%ebp,2)
     f7c:	00 8c 27 42 00 00 00 	add    %cl,0x42(%edi,%eiz,1)
     f83:	02 91 74 04 63 62    	add    0x62630474(%ecx),%dl
     f89:	00 8c 3c 12 04 00 00 	add    %cl,0x412(%esp,%edi,1)
     f90:	02 91 04 10 73 08    	add    0x8731004(%ecx),%dl
     f96:	00 00                	add    %al,(%eax)
     f98:	8c 47 17             	mov    %es,0x17(%edi)
     f9b:	04 00                	add    $0x0,%al
     f9d:	00 02                	add    %al,(%edx)
     f9f:	91                   	xchg   %eax,%ecx
     fa0:	08 00                	or     %al,(%eax)
     fa2:	08 3b                	or     %bh,(%ebx)
     fa4:	01 00                	add    %eax,(%eax)
     fa6:	00 08                	add    %cl,(%eax)
     fa8:	28 01                	sub    %al,(%ecx)
     faa:	00 00                	add    %al,(%eax)
     fac:	0c 24                	or     $0x24,%al
     fae:	08 00                	or     %al,(%eax)
     fb0:	00 82 b8 5f 40 f0    	add    %al,-0xfbfa048(%edx)
     fb6:	41                   	inc    %ecx
     fb7:	00 00                	add    %al,(%eax)
     fb9:	00 01                	add    %al,(%ecx)
     fbb:	9c                   	pushf
     fbc:	3d 04 00 00 04       	cmp    $0x4000004,%eax
     fc1:	6e                   	outsb  %ds:(%esi),(%dx)
     fc2:	00 82 1f 61 00 00    	add    %al,0x611f(%edx)
     fc8:	00 02                	add    %al,(%edx)
     fca:	91                   	xchg   %eax,%ecx
     fcb:	00 00                	add    %al,(%eax)
     fcd:	11 5c 07 00          	adc    %ebx,0x0(%edi,%eax,1)
     fd1:	00 7c 7b 5f          	add    %bh,0x5f(%ebx,%edi,2)
     fd5:	40                   	inc    %eax
     fd6:	f0 3d 00 00 00 01    	lock cmp $0x1000000,%eax
     fdc:	9c                   	pushf
     fdd:	0c 9f                	or     $0x9f,%al
     fdf:	08 00                	or     %al,(%eax)
     fe1:	00 71 f9             	add    %dh,-0x7(%ecx)
     fe4:	5e                   	pop    %esi
     fe5:	40                   	inc    %eax
     fe6:	f0 82 00 00          	lock addb $0x0,(%eax)
     fea:	00 01                	add    %al,(%ecx)
     fec:	9c                   	pushf
     fed:	9a 04 00 00 04 69 72 	lcall  $0x7269,$0x4000004
     ff4:	71 00                	jno    ff6 <SEG_KERN_CS+0xfee>
     ff6:	71 1f                	jno    1017 <SEG_KERN_CS+0x100f>
     ff8:	42                   	inc    %edx
     ff9:	00 00                	add    %al,(%eax)
     ffb:	00 02                	add    %al,(%edx)
     ffd:	91                   	xchg   %eax,%ecx
     ffe:	5c                   	pop    %esp
     fff:	09 1c 08             	or     %ebx,(%eax,%ecx,1)
    1002:	00 00                	add    %al,(%eax)
    1004:	72 13                	jb     1019 <SEG_KERN_CS+0x1011>
    1006:	4e                   	dec    %esi
    1007:	00 00                	add    %al,(%eax)
    1009:	00 02                	add    %al,(%edx)
    100b:	91                   	xchg   %eax,%ecx
    100c:	6f                   	outsl  %ds:(%esi),(%dx)
    100d:	09 65 08             	or     %esp,0x8(%ebp)
    1010:	00 00                	add    %al,(%eax)
    1012:	73 13                	jae    1027 <SEG_KERN_CS+0x101f>
    1014:	4e                   	dec    %esi
    1015:	00 00                	add    %al,(%eax)
    1017:	00 02                	add    %al,(%edx)
    1019:	91                   	xchg   %eax,%ecx
    101a:	6e                   	outsb  %ds:(%esi),(%dx)
    101b:	09 04 08             	or     %eax,(%eax,%ecx,1)
    101e:	00 00                	add    %al,(%eax)
    1020:	74 13                	je     1035 <SEG_KERN_CS+0x102d>
    1022:	4e                   	dec    %esi
    1023:	00 00                	add    %al,(%eax)
    1025:	00 02                	add    %al,(%edx)
    1027:	91                   	xchg   %eax,%ecx
    1028:	6d                   	insl   (%dx),%es:(%edi)
    1029:	00 0c 49             	add    %cl,(%ecx,%ecx,2)
    102c:	07                   	pop    %es
    102d:	00 00                	add    %al,(%eax)
    102f:	67 78 5e             	addr16 js 1090 <SEG_KERN_CS+0x1088>
    1032:	40                   	inc    %eax
    1033:	f0 81 00 00 00 01 9c 	lock addl $0x9c010000,(%eax)
    103a:	d9 04 00             	flds   (%eax,%eax,1)
    103d:	00 04 69             	add    %al,(%ecx,%ebp,2)
    1040:	72 71                	jb     10b3 <SEG_KERN_CS+0x10ab>
    1042:	00 67 21             	add    %ah,0x21(%edi)
    1045:	42                   	inc    %edx
    1046:	00 00                	add    %al,(%eax)
    1048:	00 02                	add    %al,(%edx)
    104a:	91                   	xchg   %eax,%ecx
    104b:	5c                   	pop    %esp
    104c:	09 1c 08             	or     %ebx,(%eax,%ecx,1)
    104f:	00 00                	add    %al,(%eax)
    1051:	68 13 4e 00 00       	push   $0x4e13
    1056:	00 02                	add    %al,(%edx)
    1058:	91                   	xchg   %eax,%ecx
    1059:	6f                   	outsl  %ds:(%esi),(%dx)
    105a:	09 65 08             	or     %esp,0x8(%ebp)
    105d:	00 00                	add    %al,(%eax)
    105f:	69 13 4e 00 00 00    	imul   $0x4e,(%ebx),%edx
    1065:	02 91 6e 00 11 78    	add    0x7811006e(%ecx),%dl
    106b:	08 00                	or     %al,(%eax)
    106d:	00 57 ca             	add    %dl,-0x36(%edi)
    1070:	5d                   	pop    %ebp
    1071:	40                   	inc    %eax
    1072:	f0 ae                	lock scas %es:(%edi),%al
    1074:	00 00                	add    %al,(%eax)
    1076:	00 01                	add    %al,(%ecx)
    1078:	9c                   	pushf
    1079:	11 11                	adc    %edx,(%ecx)
    107b:	01 00                	add    %eax,(%eax)
    107d:	00 4c 70 5d          	add    %cl,0x5d(%eax,%esi,2)
    1081:	40                   	inc    %eax
    1082:	f0 5a                	lock pop %edx
    1084:	00 00                	add    %al,(%eax)
    1086:	00 01                	add    %al,(%ecx)
    1088:	9c                   	pushf
    1089:	00 c6                	add    %al,%dh
    108b:	02 00                	add    (%eax),%al
    108d:	00 05 00 01 04 e4    	add    %al,0xe4040100
    1093:	06                   	push   %es
    1094:	00 00                	add    %al,(%eax)
    1096:	0d 45 01 00 00       	or     $0x145,%eax
    109b:	0c 9d                	or     $0x9d,%al
    109d:	01 00                	add    %eax,(%eax)
    109f:	00 0b                	add    %cl,(%ebx)
    10a1:	00 00                	add    %al,(%eax)
    10a3:	00 db                	add    %bl,%bl
    10a5:	60                   	pusha
    10a6:	40                   	inc    %eax
    10a7:	f0 fb                	lock sti
    10a9:	00 00                	add    %al,(%eax)
    10ab:	00 97 05 00 00 01    	add    %dl,0x1000005(%edi)
    10b1:	01 06                	add    %eax,(%esi)
    10b3:	cc                   	int3
    10b4:	00 00                	add    %al,(%eax)
    10b6:	00 01                	add    %al,(%ecx)
    10b8:	02 05 20 00 00 00    	add    0x20,%al
    10be:	0e                   	push   %cs
    10bf:	04 05                	add    $0x5,%al
    10c1:	69 6e 74 00 01 08 05 	imul   $0x5080100,0x74(%esi),%ebp
    10c8:	84 00                	test   %al,(%eax)
    10ca:	00 00                	add    %al,(%eax)
    10cc:	04 a2                	add    $0xa2,%al
    10ce:	02 00                	add    (%eax),%al
    10d0:	00 02                	add    %al,(%edx)
    10d2:	0b 1d 4e 00 00 00    	or     0x4e,%ebx
    10d8:	01 01                	add    %eax,(%ecx)
    10da:	08 c3                	or     %al,%bl
    10dc:	00 00                	add    %al,(%eax)
    10de:	00 04 fb             	add    %al,(%ebx,%edi,8)
    10e1:	05 00 00 02 0c       	add    $0xc020000,%eax
    10e6:	1d 61 00 00 00       	sbb    $0x61,%eax
    10eb:	01 02                	add    %eax,(%edx)
    10ed:	07                   	pop    %es
    10ee:	32 01                	xor    (%ecx),%al
    10f0:	00 00                	add    %al,(%eax)
    10f2:	04 08                	add    $0x8,%al
    10f4:	01 00                	add    %eax,(%eax)
    10f6:	00 02                	add    %al,(%edx)
    10f8:	0d 1d 74 00 00       	or     $0x741d,%eax
    10fd:	00 01                	add    %al,(%ecx)
    10ff:	04 07                	add    $0x7,%al
    1101:	fb                   	sti
    1102:	00 00                	add    %al,(%eax)
    1104:	00 01                	add    %al,(%ecx)
    1106:	08 07                	or     %al,(%edi)
    1108:	f1                   	int1
    1109:	00 00                	add    %al,(%eax)
    110b:	00 04 2a             	add    %al,(%edx,%ebp,1)
    110e:	00 00                	add    %al,(%eax)
    1110:	00 02                	add    %al,(%edx)
    1112:	13 1d 68 00 00 00    	adc    0x68,%ebx
    1118:	07                   	pop    %es
    1119:	ab                   	stos   %eax,%es:(%edi)
    111a:	05 00 00 06 03       	add    $0x3060000,%eax
    111f:	0a b5 00 00 00 03    	or     0x3000000(%ebp),%dh
    1125:	40                   	inc    %eax
    1126:	05 00 00 03 0b       	add    $0xb030000,%eax
    112b:	0e                   	push   %cs
    112c:	55                   	push   %ebp
    112d:	00 00                	add    %al,(%eax)
    112f:	00 00                	add    %al,(%eax)
    1131:	03 0e                	add    (%esi),%ecx
    1133:	09 00                	or     %eax,(%eax)
    1135:	00 03                	add    %al,(%ebx)
    1137:	0c 0e                	or     $0xe,%al
    1139:	68 00 00 00 02       	push   $0x2000000
    113e:	00 07                	add    %al,(%edi)
    1140:	45                   	inc    %ebp
    1141:	09 00                	or     %eax,(%eax)
    1143:	00 08                	add    %cl,(%eax)
    1145:	03 12                	add    (%edx),%edx
    1147:	03 01                	add    (%ecx),%eax
    1149:	00 00                	add    %al,(%eax)
    114b:	03 ef                	add    %edi,%ebp
    114d:	08 00                	or     %al,(%eax)
    114f:	00 03                	add    %al,(%ebx)
    1151:	13 0e                	adc    (%esi),%ecx
    1153:	55                   	push   %ebp
    1154:	00 00                	add    %al,(%eax)
    1156:	00 00                	add    %al,(%eax)
    1158:	08 73 65             	or     %dh,0x65(%ebx)
    115b:	6c                   	insb   (%dx),%es:(%edi)
    115c:	00 03                	add    %al,(%ebx)
    115e:	14 0e                	adc    $0xe,%al
    1160:	55                   	push   %ebp
    1161:	00 00                	add    %al,(%eax)
    1163:	00 02                	add    %al,(%edx)
    1165:	08 70 61             	or     %dh,0x61(%eax)
    1168:	64 00 03             	add    %al,%fs:(%ebx)
    116b:	15 0d 42 00 00       	adc    $0x420d,%eax
    1170:	00 04 03             	add    %al,(%ebx,%eax,1)
    1173:	31 09                	xor    %ecx,(%ecx)
    1175:	00 00                	add    %al,(%eax)
    1177:	03 16                	add    (%esi),%edx
    1179:	0d 42 00 00 00       	or     $0x42,%eax
    117e:	05 03 56 09 00       	add    $0x95603,%eax
    1183:	00 03                	add    %al,(%ebx)
    1185:	17                   	pop    %ss
    1186:	0e                   	push   %cs
    1187:	55                   	push   %ebp
    1188:	00 00                	add    %al,(%eax)
    118a:	00 06                	add    %al,(%esi)
    118c:	00 04 04             	add    %al,(%esp,%eax,1)
    118f:	06                   	push   %es
    1190:	00 00                	add    %al,(%eax)
    1192:	03 29                	add    (%ecx),%ebp
    1194:	21 8e 00 00 00 04    	and    %ecx,0x4000000(%esi)
    119a:	f7 08 00 00 03 2a    	testl  $0x2a030000,(%eax)
    11a0:	21 b5 00 00 00 07    	and    %esi,0x7000000(%ebp)
    11a6:	7b 03                	jnp    11ab <SEG_KERN_CS+0x11a3>
    11a8:	00 00                	add    %al,(%eax)
    11aa:	08 04 0a             	or     %al,(%edx,%ecx,1)
    11ad:	4f                   	dec    %edi
    11ae:	01 00                	add    %eax,(%eax)
    11b0:	00 03                	add    %al,(%ebx)
    11b2:	da 03                	fiaddl (%ebx)
    11b4:	00 00                	add    %al,(%eax)
    11b6:	04 0b                	add    $0xb,%al
    11b8:	0b 55 01             	or     0x1(%ebp),%edx
    11bb:	00 00                	add    %al,(%eax)
    11bd:	00 08                	add    %cl,(%eax)
    11bf:	76 65                	jbe    1226 <SEG_KERN_CS+0x121e>
    11c1:	63 00                	arpl   %eax,(%eax)
    11c3:	04 0c                	add    $0xc,%al
    11c5:	0d 42 00 00 00       	or     $0x42,%eax
    11ca:	04 03                	add    $0x3,%al
    11cc:	42                   	inc    %edx
    11cd:	03 00                	add    (%eax),%eax
    11cf:	00 04 0d 0d 42 00 00 	add    %al,0x420d(,%ecx,1)
    11d6:	00 05 00 0f 1b 01    	add    %al,0x11b0f00
    11dc:	00 00                	add    %al,(%eax)
    11de:	10 09                	adc    %cl,(%ecx)
    11e0:	54                   	push   %esp
    11e1:	01 00                	add    %eax,(%eax)
    11e3:	00 11                	add    %dl,(%ecx)
    11e5:	07                   	pop    %es
    11e6:	04 74                	add    $0x74,%al
    11e8:	00 00                	add    %al,(%eax)
    11ea:	00 07                	add    %al,(%edi)
    11ec:	11 06                	adc    %eax,(%esi)
    11ee:	99                   	cltd
    11ef:	01 00                	add    %eax,(%eax)
    11f1:	00 02                	add    %al,(%edx)
    11f3:	77 05                	ja     11fa <SEG_KERN_CS+0x11f2>
    11f5:	00 00                	add    %al,(%eax)
    11f7:	00 02                	add    %al,(%edx)
    11f9:	80 05 00 00 01 02 e0 	addb   $0xe0,0x2010000
    1200:	05 00 00 02 02       	add    $0x2020000,%eax
    1205:	9f                   	lahf
    1206:	05 00 00 03 02       	add    $0x2030000,%eax
    120b:	1b 06                	sbb    (%esi),%eax
    120d:	00 00                	add    %al,(%eax)
    120f:	04 02                	add    $0x2,%al
    1211:	ec                   	in     (%dx),%al
    1212:	05 00 00 05 02       	add    $0x2050000,%eax
    1217:	4f                   	dec    %edi
    1218:	06                   	push   %es
    1219:	00 00                	add    %al,(%eax)
    121b:	06                   	push   %es
    121c:	02 30                	add    (%eax),%dh
    121e:	06                   	push   %es
    121f:	00 00                	add    %al,(%eax)
    1221:	16                   	push   %ss
    1222:	00 12                	add    %dl,(%edx)
    1224:	3c 09                	cmp    $0x9,%al
    1226:	00 00                	add    %al,(%eax)
    1228:	01 08                	add    %ecx,(%eax)
    122a:	0e                   	push   %cs
    122b:	03 01                	add    (%ecx),%eax
    122d:	00 00                	add    %al,(%eax)
    122f:	05 03 40 15 41       	add    $0x41154003,%eax
    1234:	f0 13 0f             	lock adc (%edi),%ecx
    1237:	01 00                	add    %eax,(%eax)
    1239:	00 bb 01 00 00 14    	add    %bh,0x14000001(%ebx)
    123f:	bb 01 00 00 ff       	mov    $0xff000001,%ebx
    1244:	00 01                	add    %al,(%ecx)
    1246:	04 07                	add    $0x7,%al
    1248:	f6 00 00             	testb  $0x0,(%eax)
    124b:	00 15 69 64 74 00    	add    %dl,0x746469
    1251:	01 09                	add    %ecx,(%ecx)
    1253:	0e                   	push   %cs
    1254:	ab                   	stos   %eax,%es:(%edi)
    1255:	01 00                	add    %eax,(%eax)
    1257:	00 08                	add    %cl,(%eax)
    1259:	05 03 48 15 41       	add    $0x41154803,%eax
    125e:	f0 0a 13             	lock or (%ebx),%dl
    1261:	09 00                	or     %eax,(%eax)
    1263:	00 05 17 0d e7 01    	add    %al,0x1e70d17
    1269:	00 00                	add    %al,(%eax)
    126b:	05 e7 01 00 00       	add    $0x1e7,%eax
    1270:	00 16                	add    %dl,(%esi)
    1272:	04 0a                	add    $0xa,%al
    1274:	aa                   	stos   %al,%es:(%edi)
    1275:	03 00                	add    (%eax),%eax
    1277:	00 06                	add    %al,(%esi)
    1279:	09 06                	or     %eax,(%esi)
    127b:	05 02 00 00 05       	add    $0x5000002,%eax
    1280:	e7 01                	out    %eax,$0x1
    1282:	00 00                	add    %al,(%eax)
    1284:	05 42 00 00 00       	add    $0x42,%eax
    1289:	05 82 00 00 00       	add    $0x82,%eax
    128e:	00 17                	add    %dl,(%edi)
    1290:	6c                   	insb   (%dx),%es:(%edi)
    1291:	03 00                	add    (%eax),%eax
    1293:	00 01                	add    %al,(%ecx)
    1295:	21 06                	and    %eax,(%esi)
    1297:	73 61                	jae    12fa <SEG_KERN_CS+0x12f2>
    1299:	40                   	inc    %eax
    129a:	f0 63 00             	lock arpl %eax,(%eax)
    129d:	00 00                	add    %al,(%eax)
    129f:	01 9c 50 02 00 00 06 	add    %ebx,0x6000002(%eax,%edx,2)
    12a6:	04 09                	add    $0x9,%al
    12a8:	00 00                	add    %al,(%eax)
    12aa:	21 33                	and    %esi,(%ebx)
    12ac:	50                   	push   %eax
    12ad:	02 00                	add    (%eax),%al
    12af:	00 02                	add    %al,(%edx)
    12b1:	91                   	xchg   %eax,%ecx
    12b2:	00 06                	add    %al,(%esi)
    12b4:	0a 09                	or     (%ecx),%cl
    12b6:	00 00                	add    %al,(%eax)
    12b8:	21 42 42             	and    %eax,0x42(%edx)
    12bb:	00 00                	add    %al,(%eax)
    12bd:	00 02                	add    %al,(%edx)
    12bf:	91                   	xchg   %eax,%ecx
    12c0:	60                   	pusha
    12c1:	18 82 61 40 f0 3f    	sbb    %al,0x3ff04061(%edx)
    12c7:	00 00                	add    %al,(%eax)
    12c9:	00 0b                	add    %cl,(%ebx)
    12cb:	6e                   	outsb  %ds:(%esi),(%dx)
    12cc:	6f                   	outsl  %ds:(%esi),(%dx)
    12cd:	77 00                	ja     12cf <SEG_KERN_CS+0x12c7>
    12cf:	23 1f                	and    (%edi),%ebx
    12d1:	50                   	push   %eax
    12d2:	02 00                	add    (%eax),%al
    12d4:	00 02                	add    %al,(%edx)
    12d6:	91                   	xchg   %eax,%ecx
    12d7:	70 00                	jo     12d9 <SEG_KERN_CS+0x12d1>
    12d9:	00 09                	add    %cl,(%ecx)
    12db:	4f                   	dec    %edi
    12dc:	01 00                	add    %eax,(%eax)
    12de:	00 19                	add    %bl,(%ecx)
    12e0:	23 09                	and    (%ecx),%ecx
    12e2:	00 00                	add    %al,(%eax)
    12e4:	01 17                	add    %edx,(%edi)
    12e6:	06                   	push   %es
    12e7:	27                   	daa
    12e8:	61                   	popa
    12e9:	40                   	inc    %eax
    12ea:	f0 4c                	lock dec %esp
    12ec:	00 00                	add    %al,(%eax)
    12ee:	00 01                	add    %al,(%ecx)
    12f0:	9c                   	pushf
    12f1:	a4                   	movsb  %ds:(%esi),%es:(%edi)
    12f2:	02 00                	add    (%eax),%al
    12f4:	00 1a                	add    %bl,(%edx)
    12f6:	76 65                	jbe    135d <SEG_KERN_CS+0x1355>
    12f8:	63 00                	arpl   %eax,(%eax)
    12fa:	01 17                	add    %edx,(%edi)
    12fc:	1c 42                	sbb    $0x42,%al
    12fe:	00 00                	add    %al,(%eax)
    1300:	00 02                	add    %al,(%edx)
    1302:	91                   	xchg   %eax,%ecx
    1303:	64 06                	fs push %es
    1305:	1c 09                	sbb    $0x9,%al
    1307:	00 00                	add    %al,(%eax)
    1309:	17                   	pop    %ss
    130a:	2a 68 00             	sub    0x0(%eax),%ch
    130d:	00 00                	add    %al,(%eax)
    130f:	02 91 04 06 42 03    	add    0x3420604(%ecx),%dl
    1315:	00 00                	add    %al,(%eax)
    1317:	17                   	pop    %ss
    1318:	3b 68 00             	cmp    0x0(%eax),%ebp
    131b:	00 00                	add    %al,(%eax)
    131d:	02 91 08 0b 65 6c    	add    0x6c650b08(%ecx),%dl
    1323:	00 18                	add    %bl,(%eax)
    1325:	13 a4 02 00 00 02 91 	adc    -0x6efe0000(%edx,%eax,1),%esp
    132c:	74 00                	je     132e <SEG_KERN_CS+0x1326>
    132e:	09 0f                	or     %ecx,(%edi)
    1330:	01 00                	add    %eax,(%eax)
    1332:	00 0c c6             	add    %cl,(%esi,%eax,8)
    1335:	01 00                	add    %eax,(%eax)
    1337:	00 13                	add    %dl,(%ebx)
    1339:	0e                   	push   %cs
    133a:	61                   	popa
    133b:	40                   	inc    %eax
    133c:	f0 19 00             	lock sbb %eax,(%eax)
    133f:	00 00                	add    %al,(%eax)
    1341:	01 9c 0c 56 00 00 00 	add    %ebx,0x56(%esp,%ecx,1)
    1348:	0c db                	or     $0xdb,%al
    134a:	60                   	pusha
    134b:	40                   	inc    %eax
    134c:	f0 33 00             	lock xor (%eax),%eax
    134f:	00 00                	add    %al,(%eax)
    1351:	01 9c 00 93 02 00 00 	add    %ebx,0x293(%eax,%eax,1)
    1358:	05 00 01 04 70       	add    $0x70040100,%eax
    135d:	08 00                	or     %al,(%eax)
    135f:	00 0e                	add    %cl,(%esi)
    1361:	45                   	inc    %ebp
    1362:	01 00                	add    %eax,(%eax)
    1364:	00 0c ad 01 00 00 0b 	add    %cl,0xb000001(,%ebp,4)
    136b:	00 00                	add    %al,(%eax)
    136d:	00 d6                	add    %dl,%dh
    136f:	61                   	popa
    1370:	40                   	inc    %eax
    1371:	f0 03 01             	lock add (%ecx),%eax
    1374:	00 00                	add    %al,(%eax)
    1376:	7b 06                	jnp    137e <SEG_KERN_CS+0x1376>
    1378:	00 00                	add    %al,(%eax)
    137a:	02 01                	add    (%ecx),%al
    137c:	06                   	push   %es
    137d:	cc                   	int3
    137e:	00 00                	add    %al,(%eax)
    1380:	00 02                	add    %al,(%edx)
    1382:	02 05 20 00 00 00    	add    0x20,%al
    1388:	0f 04                	(bad)
    138a:	05 69 6e 74 00       	add    $0x746e69,%eax
    138f:	02 08                	add    (%eax),%cl
    1391:	05 84 00 00 00       	add    $0x84,%eax
    1396:	02 01                	add    (%ecx),%al
    1398:	08 c3                	or     %al,%bl
    139a:	00 00                	add    %al,(%eax)
    139c:	00 02                	add    %al,(%edx)
    139e:	02 07                	add    (%edi),%al
    13a0:	32 01                	xor    (%ecx),%al
    13a2:	00 00                	add    %al,(%eax)
    13a4:	03 08                	add    (%eax),%ecx
    13a6:	01 00                	add    %eax,(%eax)
    13a8:	00 02                	add    %al,(%edx)
    13aa:	0d 1d 5c 00 00       	or     $0x5c1d,%eax
    13af:	00 02                	add    %al,(%edx)
    13b1:	04 07                	add    $0x7,%al
    13b3:	fb                   	sti
    13b4:	00 00                	add    %al,(%eax)
    13b6:	00 03                	add    %al,(%ebx)
    13b8:	17                   	pop    %ss
    13b9:	00 00                	add    %al,(%eax)
    13bb:	00 02                	add    %al,(%edx)
    13bd:	0e                   	push   %cs
    13be:	1d 6f 00 00 00       	sbb    $0x6f,%eax
    13c3:	02 08                	add    (%eax),%cl
    13c5:	07                   	pop    %es
    13c6:	f1                   	int1
    13c7:	00 00                	add    %al,(%eax)
    13c9:	00 08                	add    %cl,(%eax)
    13cb:	08 0a                	or     %cl,(%edx)
    13cd:	95                   	xchg   %eax,%ebp
    13ce:	00 00                	add    %al,(%eax)
    13d0:	00 01                	add    %al,(%ecx)
    13d2:	a9 00 00 00 0b       	test   $0xb000000,%eax
    13d7:	0e                   	push   %cs
    13d8:	50                   	push   %eax
    13d9:	00 00                	add    %al,(%eax)
    13db:	00 00                	add    %al,(%eax)
    13dd:	09 6c 65 6e          	or     %ebp,0x6e(%ebp,%eiz,2)
    13e1:	00 0c 50             	add    %cl,(%eax,%edx,2)
    13e4:	00 00                	add    %al,(%eax)
    13e6:	00 04 00             	add    %al,(%eax,%eax,1)
    13e9:	03 b8 00 00 00 03    	add    0x3000000(%eax),%edi
    13ef:	0d 03 76 00 00       	or     $0x7603,%eax
    13f4:	00 08                	add    %cl,(%eax)
    13f6:	18 1a                	sbb    %bl,(%edx)
    13f8:	d8 00                	fadds  (%eax)
    13fa:	00 00                	add    %al,(%eax)
    13fc:	01 85 09 00 00 1b    	add    %eax,0x1b000009(%ebp)
    1402:	0e                   	push   %cs
    1403:	50                   	push   %eax
    1404:	00 00                	add    %al,(%eax)
    1406:	00 00                	add    %al,(%eax)
    1408:	01 a9 00 00 00 1c    	add    %ebp,0x1c000000(%ecx)
    140e:	0e                   	push   %cs
    140f:	63 00                	arpl   %eax,(%eax)
    1411:	00 00                	add    %al,(%eax)
    1413:	04 09                	add    $0x9,%al
    1415:	6c                   	insb   (%dx),%es:(%edi)
    1416:	65 6e                	outsb  %gs:(%esi),(%dx)
    1418:	00 1d 63 00 00 00    	add    %bl,0x63
    141e:	0c 01                	or     $0x1,%al
    1420:	37                   	aaa
    1421:	09 00                	or     %eax,(%eax)
    1423:	00 1e                	add    %bl,(%esi)
    1425:	0e                   	push   %cs
    1426:	50                   	push   %eax
    1427:	00 00                	add    %al,(%eax)
    1429:	00 14 00             	add    %dl,(%eax,%eax,1)
    142c:	03 e0                	add    %eax,%esp
    142e:	00 00                	add    %al,(%eax)
    1430:	00 03                	add    %al,(%ebx)
    1432:	1f                   	pop    %ds
    1433:	03 a1 00 00 00 10    	add    0x10000000(%ecx),%esp
    1439:	2c 03                	sub    $0x3,%al
    143b:	03 27                	add    (%edi),%esp
    143d:	09 6a 01             	or     %ebp,0x1(%edx)
    1440:	00 00                	add    %al,(%eax)
    1442:	01 92 00 00 00 28    	add    %edx,0x28000000(%edx)
    1448:	0e                   	push   %cs
    1449:	50                   	push   %eax
    144a:	00 00                	add    %al,(%eax)
    144c:	00 00                	add    %al,(%eax)
    144e:	01 af 01 00 00 2b    	add    %ebp,0x2b000001(%edi)
    1454:	0e                   	push   %cs
    1455:	50                   	push   %eax
    1456:	00 00                	add    %al,(%eax)
    1458:	00 04 01             	add    %al,(%ecx,%eax,1)
    145b:	ae                   	scas   %es:(%edi),%al
    145c:	00 00                	add    %al,(%eax)
    145e:	00 2c 10             	add    %ch,(%eax,%edx,1)
    1461:	95                   	xchg   %eax,%ebp
    1462:	00 00                	add    %al,(%eax)
    1464:	00 08                	add    %cl,(%eax)
    1466:	01 4c 00 00          	add    %ecx,0x0(%eax,%eax,1)
    146a:	00 2f                	add    %ch,(%edi)
    146c:	10 95 00 00 00 10    	adc    %dl,0x10000000(%ebp)
    1472:	01 0c 00             	add    %ecx,(%eax,%eax,1)
    1475:	00 00                	add    %al,(%eax)
    1477:	32 0e                	xor    (%esi),%cl
    1479:	50                   	push   %eax
    147a:	00 00                	add    %al,(%eax)
    147c:	00 18                	add    %bl,(%eax)
    147e:	01 75 00             	add    %esi,0x0(%ebp)
    1481:	00 00                	add    %al,(%eax)
    1483:	33 0e                	xor    (%esi),%ecx
    1485:	50                   	push   %eax
    1486:	00 00                	add    %al,(%eax)
    1488:	00 1c 01             	add    %bl,(%ecx,%eax,1)
    148b:	92                   	xchg   %eax,%edx
    148c:	01 00                	add    %eax,(%eax)
    148e:	00 36                	add    %dh,(%esi)
    1490:	16                   	push   %ss
    1491:	6a 01                	push   $0x1
    1493:	00 00                	add    %al,(%eax)
    1495:	20 05 a0 00 00 00    	and    %al,0xa0
    149b:	37                   	aaa
    149c:	0e                   	push   %cs
    149d:	50                   	push   %eax
    149e:	00 00                	add    %al,(%eax)
    14a0:	00 20                	add    %ah,(%eax)
    14a2:	03 05 6d 00 00 00    	add    0x6d,%eax
    14a8:	3a 0f                	cmp    (%edi),%cl
    14aa:	81 01 00 00 24 03    	addl   $0x3240000,(%ecx)
    14b0:	05 65 00 00 00       	add    $0x65,%eax
    14b5:	3b 0e                	cmp    (%esi),%ecx
    14b7:	50                   	push   %eax
    14b8:	00 00                	add    %al,(%eax)
    14ba:	00 28                	add    %ch,(%eax)
    14bc:	03 00                	add    (%eax),%eax
    14be:	11 d8                	adc    %ebx,%eax
    14c0:	00 00                	add    %al,(%eax)
    14c2:	00 7a 01             	add    %bh,0x1(%edx)
    14c5:	00 00                	add    %al,(%eax)
    14c7:	12 7a 01             	adc    0x1(%edx),%bh
    14ca:	00 00                	add    %al,(%eax)
    14cc:	1f                   	pop    %ds
    14cd:	00 02                	add    %al,(%edx)
    14cf:	04 07                	add    $0x7,%al
    14d1:	f6 00 00             	testb  $0x0,(%eax)
    14d4:	00 0a                	add    %cl,(%edx)
    14d6:	50                   	push   %eax
    14d7:	00 00                	add    %al,(%eax)
    14d9:	00 03                	add    %al,(%ebx)
    14db:	00 00                	add    %al,(%eax)
    14dd:	00 00                	add    %al,(%eax)
    14df:	03 3c 03             	add    (%ebx,%eax,1),%edi
    14e2:	e4 00                	in     $0x0,%al
    14e4:	00 00                	add    %al,(%eax)
    14e6:	06                   	push   %es
    14e7:	a2 09 00 00 0a       	mov    %al,0xa000009
    14ec:	9c                   	pushf
    14ed:	01 00                	add    %eax,(%eax)
    14ef:	00 13                	add    %dl,(%ebx)
    14f1:	04 06                	add    $0x6,%al
    14f3:	5f                   	pop    %edi
    14f4:	09 00                	or     %eax,(%eax)
    14f6:	00 0b                	add    %cl,(%ebx)
    14f8:	9c                   	pushf
    14f9:	01 00                	add    %eax,(%eax)
    14fb:	00 06                	add    %al,(%esi)
    14fd:	81 09 00 00 11 9c    	orl    $0x9c110000,(%ecx)
    1503:	01 00                	add    %eax,(%eax)
    1505:	00 14 b0             	add    %dl,(%eax,%esi,4)
    1508:	09 00                	or     %eax,(%eax)
    150a:	00 05 0e 0d c4 01    	add    %al,0x1c40d0e
    1510:	00 00                	add    %al,(%eax)
    1512:	15 50 00 00 00       	adc    $0x50,%eax
    1517:	00 0b                	add    %cl,(%ebx)
    1519:	8a 09                	mov    (%ecx),%cl
    151b:	00 00                	add    %al,(%eax)
    151d:	29 74 62 40          	sub    %esi,0x40(%edx,%eiz,2)
    1521:	f0 65 00 00          	lock add %al,%gs:(%eax)
    1525:	00 01                	add    %al,(%ecx)
    1527:	9c                   	pushf
    1528:	11 02                	adc    %eax,(%edx)
    152a:	00 00                	add    %al,(%eax)
    152c:	07                   	pop    %es
    152d:	aa                   	stos   %al,%es:(%edi)
    152e:	01 00                	add    %eax,(%eax)
    1530:	00 29                	add    %ch,(%ecx)
    1532:	2b 11                	sub    (%ecx),%edx
    1534:	02 00                	add    (%eax),%al
    1536:	00 02                	add    %al,(%edx)
    1538:	91                   	xchg   %eax,%ecx
    1539:	00 04 ba             	add    %al,(%edx,%edi,4)
    153c:	09 00                	or     %eax,(%eax)
    153e:	00 2a                	add    %ch,(%edx)
    1540:	0e                   	push   %cs
    1541:	50                   	push   %eax
    1542:	00 00                	add    %al,(%eax)
    1544:	00 02                	add    %al,(%edx)
    1546:	91                   	xchg   %eax,%ecx
    1547:	74 04                	je     154d <SEG_KERN_CS+0x1545>
    1549:	9b                   	fwait
    154a:	00 00                	add    %al,(%eax)
    154c:	00 2a                	add    %ch,(%edx)
    154e:	1a 50 00             	sbb    0x0(%eax),%dl
    1551:	00 00                	add    %al,(%eax)
    1553:	02 91 70 0c 70 64    	add    0x64700c70(%ecx),%dl
    1559:	65 00 2b             	add    %ch,%gs:(%ebx)
    155c:	0e                   	push   %cs
    155d:	50                   	push   %eax
    155e:	00 00                	add    %al,(%eax)
    1560:	00 02                	add    %al,(%edx)
    1562:	91                   	xchg   %eax,%ecx
    1563:	6c                   	insb   (%dx),%es:(%edi)
    1564:	00 0a                	add    %cl,(%edx)
    1566:	86 01                	xchg   %al,(%ecx)
    1568:	00 00                	add    %al,(%eax)
    156a:	0b 6d 09             	or     0x9(%ebp),%ebp
    156d:	00 00                	add    %al,(%eax)
    156f:	17                   	pop    %ss
    1570:	10 62 40             	adc    %ah,0x40(%edx)
    1573:	f0 64 00 00          	lock add %al,%fs:(%eax)
    1577:	00 01                	add    %al,(%ecx)
    1579:	9c                   	pushf
    157a:	75 02                	jne    157e <SEG_KERN_CS+0x1576>
    157c:	00 00                	add    %al,(%eax)
    157e:	07                   	pop    %es
    157f:	aa                   	stos   %al,%es:(%edi)
    1580:	01 00                	add    %eax,(%eax)
    1582:	00 17                	add    %dl,(%edi)
    1584:	27                   	daa
    1585:	11 02                	adc    %eax,(%edx)
    1587:	00 00                	add    %al,(%eax)
    1589:	02 91 00 0d 16 62    	add    0x62160d00(%ecx),%dl
    158f:	40                   	inc    %eax
    1590:	f0 5a                	lock pop %edx
    1592:	00 00                	add    %al,(%eax)
    1594:	00 0c 69             	add    %cl,(%ecx,%ebp,2)
    1597:	00 19                	add    %bl,(%ecx)
    1599:	12 50 00             	adc    0x0(%eax),%dl
    159c:	00 00                	add    %al,(%eax)
    159e:	02 91 74 0d 1f 62    	add    0x621f0d74(%ecx),%dl
    15a4:	40                   	inc    %eax
    15a5:	f0 44                	lock inc %esp
    15a7:	00 00                	add    %al,(%eax)
    15a9:	00 04 df             	add    %al,(%edi,%ebx,8)
    15ac:	03 00                	add    (%eax),%eax
    15ae:	00 1a                	add    %bl,(%edx)
    15b0:	12 50 00             	adc    0x0(%eax),%dl
    15b3:	00 00                	add    %al,(%eax)
    15b5:	02 91 70 04 9b 00    	add    0x9b0470(%ecx),%dl
    15bb:	00 00                	add    %al,(%eax)
    15bd:	1f                   	pop    %ds
    15be:	12 50 00             	adc    0x0(%eax),%dl
    15c1:	00 00                	add    %al,(%eax)
    15c3:	02 91 6c 00 00 00    	add    0x6c(%ecx),%dl
    15c9:	16                   	push   %ss
    15ca:	22 01                	and    (%ecx),%al
    15cc:	00 00                	add    %al,(%eax)
    15ce:	01 10                	add    %edx,(%eax)
    15d0:	06                   	push   %es
    15d1:	d6                   	(bad)
    15d2:	61                   	popa
    15d3:	40                   	inc    %eax
    15d4:	f0 3a 00             	lock cmp (%eax),%al
    15d7:	00 00                	add    %al,(%eax)
    15d9:	01 9c 07 aa 01 00 00 	add    %ebx,0x1aa(%edi,%eax,1)
    15e0:	10 23                	adc    %ah,(%ebx)
    15e2:	11 02                	adc    %eax,(%edx)
    15e4:	00 00                	add    %al,(%eax)
    15e6:	02 91 00 00 00 3a    	add    0x3a000000(%ecx),%dl
    15ec:	05 00 00 05 00       	add    $0x50000,%eax
    15f1:	01 04 c9             	add    %eax,(%ecx,%ecx,8)
    15f4:	09 00                	or     %eax,(%eax)
    15f6:	00 14 45 01 00 00 0c 	add    %dl,0xc000001(,%eax,2)
    15fd:	c8 01 00 00          	enter  $0x1,$0x0
    1601:	0b 00                	or     (%eax),%eax
    1603:	00 00                	add    %al,(%eax)
    1605:	d9 62 40             	fldenv 0x40(%edx)
    1608:	f0 79 02             	lock jns 160d <SEG_KERN_CS+0x1605>
    160b:	00 00                	add    %al,(%eax)
    160d:	5e                   	pop    %esi
    160e:	07                   	pop    %es
    160f:	00 00                	add    %al,(%eax)
    1611:	06                   	push   %es
    1612:	01 06                	add    %eax,(%esi)
    1614:	cc                   	int3
    1615:	00 00                	add    %al,(%eax)
    1617:	00 06                	add    %al,(%esi)
    1619:	02 05 20 00 00 00    	add    0x20,%al
    161f:	15 04 05 69 6e       	adc    $0x6e690504,%eax
    1624:	74 00                	je     1626 <SEG_KERN_CS+0x161e>
    1626:	06                   	push   %es
    1627:	08 05 84 00 00 00    	or     %al,0x84
    162d:	04 a2                	add    $0xa2,%al
    162f:	02 00                	add    (%eax),%al
    1631:	00 02                	add    %al,(%edx)
    1633:	0b 1d 4e 00 00 00    	or     0x4e,%ebx
    1639:	06                   	push   %es
    163a:	01 08                	add    %ecx,(%eax)
    163c:	c3                   	ret
    163d:	00 00                	add    %al,(%eax)
    163f:	00 04 fb             	add    %al,(%ebx,%edi,8)
    1642:	05 00 00 02 0c       	add    $0xc020000,%eax
    1647:	1d 61 00 00 00       	sbb    $0x61,%eax
    164c:	06                   	push   %es
    164d:	02 07                	add    (%edi),%al
    164f:	32 01                	xor    (%ecx),%al
    1651:	00 00                	add    %al,(%eax)
    1653:	04 08                	add    $0x8,%al
    1655:	01 00                	add    %eax,(%eax)
    1657:	00 02                	add    %al,(%edx)
    1659:	0d 1d 74 00 00       	or     $0x741d,%eax
    165e:	00 06                	add    %al,(%esi)
    1660:	04 07                	add    $0x7,%al
    1662:	fb                   	sti
    1663:	00 00                	add    %al,(%eax)
    1665:	00 06                	add    %al,(%esi)
    1667:	08 07                	or     %al,(%edi)
    1669:	f1                   	int1
    166a:	00 00                	add    %al,(%eax)
    166c:	00 04 2a             	add    %al,(%edx,%ebp,1)
    166f:	00 00                	add    %al,(%eax)
    1671:	00 02                	add    %al,(%edx)
    1673:	13 1d 68 00 00 00    	adc    0x68,%ebx
    1679:	08 57 06             	or     %dl,0x6(%edi)
    167c:	00 00                	add    %al,(%eax)
    167e:	08 1d e2 00 00 00    	or     %bl,0xe2
    1684:	03 d6                	add    %esi,%edx
    1686:	05 00 00 1e 0e       	add    $0xe1e0000,%eax
    168b:	55                   	push   %ebp
    168c:	00 00                	add    %al,(%eax)
    168e:	00 00                	add    %al,(%eax)
    1690:	03 38                	add    (%eax),%edi
    1692:	06                   	push   %es
    1693:	00 00                	add    %al,(%eax)
    1695:	1f                   	pop    %ds
    1696:	0e                   	push   %cs
    1697:	55                   	push   %ebp
    1698:	00 00                	add    %al,(%eax)
    169a:	00 02                	add    %al,(%edx)
    169c:	03 46 05             	add    0x5(%esi),%eax
    169f:	00 00                	add    %al,(%eax)
    16a1:	20 0d 42 00 00 00    	and    %cl,0x42
    16a7:	04 03                	add    $0x3,%al
    16a9:	f4                   	hlt
    16aa:	05 00 00 21 0d       	add    $0xd210000,%eax
    16af:	42                   	inc    %edx
    16b0:	00 00                	add    %al,(%eax)
    16b2:	00 05 03 bc 05 00    	add    %al,0x5bc03
    16b8:	00 22                	add    %ah,(%edx)
    16ba:	0d 42 00 00 00       	or     $0x42,%eax
    16bf:	06                   	push   %es
    16c0:	03 11                	add    (%ecx),%edx
    16c2:	06                   	push   %es
    16c3:	00 00                	add    %al,(%eax)
    16c5:	23 0d 42 00 00 00    	and    0x42,%ecx
    16cb:	07                   	pop    %es
    16cc:	00 04 4f             	add    %al,(%edi,%ecx,2)
    16cf:	05 00 00 03 2b       	add    $0x2b030000,%eax
    16d4:	20 8e 00 00 00 04    	and    %cl,0x4000000(%esi)
    16da:	8c 03                	mov    %es,(%ebx)
    16dc:	00 00                	add    %al,(%eax)
    16de:	03 2f                	add    (%edi),%ebp
    16e0:	12 68 00             	adc    0x0(%eax),%ch
    16e3:	00 00                	add    %al,(%eax)
    16e5:	04 e3                	add    $0xe3,%al
    16e7:	09 00                	or     %eax,(%eax)
    16e9:	00 03                	add    %al,(%ebx)
    16eb:	30 12                	xor    %dl,(%edx)
    16ed:	68 00 00 00 08       	push   $0x8000000
    16f2:	1b 0a                	sbb    (%edx),%ecx
    16f4:	00 00                	add    %al,(%eax)
    16f6:	6c                   	insb   (%dx),%es:(%edi)
    16f7:	36 30 02             	xor    %al,%ss:(%edx)
    16fa:	00 00                	add    %al,(%eax)
    16fc:	03 01                	add    (%ecx),%eax
    16fe:	0a 00                	or     (%eax),%al
    1700:	00 37                	add    %dh,(%edi)
    1702:	13 ee                	adc    %esi,%ebp
    1704:	00 00                	add    %al,(%eax)
    1706:	00 00                	add    %al,(%eax)
    1708:	02 73 70             	add    0x70(%ebx),%dh
    170b:	30 00                	xor    %al,(%eax)
    170d:	38 ee                	cmp    %ch,%dh
    170f:	00 00                	add    %al,(%eax)
    1711:	00 04 02             	add    %al,(%edx,%eax,1)
    1714:	73 73                	jae    1789 <SEG_KERN_CS+0x1781>
    1716:	30 00                	xor    %al,(%eax)
    1718:	39 ee                	cmp    %ebp,%esi
    171a:	00 00                	add    %al,(%eax)
    171c:	00 08                	add    %cl,(%eax)
    171e:	02 73 70             	add    0x70(%ebx),%dh
    1721:	31 00                	xor    %eax,(%eax)
    1723:	3a ee                	cmp    %dh,%ch
    1725:	00 00                	add    %al,(%eax)
    1727:	00 0c 02             	add    %cl,(%edx,%eax,1)
    172a:	73 73                	jae    179f <SEG_KERN_CS+0x1797>
    172c:	31 00                	xor    %eax,(%eax)
    172e:	3b ee                	cmp    %esi,%ebp
    1730:	00 00                	add    %al,(%eax)
    1732:	00 10                	add    %dl,(%eax)
    1734:	02 73 70             	add    0x70(%ebx),%dh
    1737:	32 00                	xor    (%eax),%al
    1739:	3c ee                	cmp    $0xee,%al
    173b:	00 00                	add    %al,(%eax)
    173d:	00 14 02             	add    %dl,(%edx,%eax,1)
    1740:	73 73                	jae    17b5 <SEG_KERN_CS+0x17ad>
    1742:	32 00                	xor    (%eax),%al
    1744:	3d ee 00 00 00       	cmp    $0xee,%eax
    1749:	18 02                	sbb    %al,(%edx)
    174b:	63 72 33             	arpl   %esi,0x33(%edx)
    174e:	00 3e                	add    %bh,(%esi)
    1750:	ee                   	out    %al,(%dx)
    1751:	00 00                	add    %al,(%eax)
    1753:	00 1c 02             	add    %bl,(%edx,%eax,1)
    1756:	69 70 00 3f ee 00 00 	imul   $0xee3f,0x0(%eax),%esi
    175d:	00 20                	add    %ah,(%eax)
    175f:	03 df                	add    %edi,%ebx
    1761:	03 00                	add    (%eax),%eax
    1763:	00 40 13             	add    %al,0x13(%eax)
    1766:	ee                   	out    %al,(%dx)
    1767:	00 00                	add    %al,(%eax)
    1769:	00 24 02             	add    %ah,(%edx,%eax,1)
    176c:	61                   	popa
    176d:	78 00                	js     176f <SEG_KERN_CS+0x1767>
    176f:	41                   	inc    %ecx
    1770:	ee                   	out    %al,(%dx)
    1771:	00 00                	add    %al,(%eax)
    1773:	00 28                	add    %ch,(%eax)
    1775:	02 63 78             	add    0x78(%ebx),%ah
    1778:	00 42 ee             	add    %al,-0x12(%edx)
    177b:	00 00                	add    %al,(%eax)
    177d:	00 2c 02             	add    %ch,(%edx,%eax,1)
    1780:	64 78 00             	fs js  1783 <SEG_KERN_CS+0x177b>
    1783:	43                   	inc    %ebx
    1784:	ee                   	out    %al,(%dx)
    1785:	00 00                	add    %al,(%eax)
    1787:	00 30                	add    %dh,(%eax)
    1789:	02 62 78             	add    0x78(%edx),%ah
    178c:	00 44 ee 00          	add    %al,0x0(%esi,%ebp,8)
    1790:	00 00                	add    %al,(%eax)
    1792:	34 02                	xor    $0x2,%al
    1794:	73 70                	jae    1806 <SEG_KERN_CS+0x17fe>
    1796:	00 45 ee             	add    %al,-0x12(%ebp)
    1799:	00 00                	add    %al,(%eax)
    179b:	00 38                	add    %bh,(%eax)
    179d:	02 62 70             	add    0x70(%edx),%ah
    17a0:	00 46 ee             	add    %al,-0x12(%esi)
    17a3:	00 00                	add    %al,(%eax)
    17a5:	00 3c 02             	add    %bh,(%edx,%eax,1)
    17a8:	73 69                	jae    1813 <SEG_KERN_CS+0x180b>
    17aa:	00 47 ee             	add    %al,-0x12(%edi)
    17ad:	00 00                	add    %al,(%eax)
    17af:	00 40 02             	add    %al,0x2(%eax)
    17b2:	64 69 00 48 ee 00 00 	imul   $0xee48,%fs:(%eax),%eax
    17b9:	00 44 02 65          	add    %al,0x65(%edx,%eax,1)
    17bd:	73 00                	jae    17bf <SEG_KERN_CS+0x17b7>
    17bf:	49                   	dec    %ecx
    17c0:	ee                   	out    %al,(%dx)
    17c1:	00 00                	add    %al,(%eax)
    17c3:	00 48 02             	add    %cl,0x2(%eax)
    17c6:	63 73 00             	arpl   %esi,0x0(%ebx)
    17c9:	4a                   	dec    %edx
    17ca:	ee                   	out    %al,(%dx)
    17cb:	00 00                	add    %al,(%eax)
    17cd:	00 4c 02 73          	add    %cl,0x73(%edx,%eax,1)
    17d1:	73 00                	jae    17d3 <SEG_KERN_CS+0x17cb>
    17d3:	4b                   	dec    %ebx
    17d4:	ee                   	out    %al,(%dx)
    17d5:	00 00                	add    %al,(%eax)
    17d7:	00 50 02             	add    %dl,0x2(%eax)
    17da:	64 73 00             	fs jae 17dd <SEG_KERN_CS+0x17d5>
    17dd:	4c                   	dec    %esp
    17de:	ee                   	out    %al,(%dx)
    17df:	00 00                	add    %al,(%eax)
    17e1:	00 54 02 66          	add    %dl,0x66(%edx,%eax,1)
    17e5:	73 00                	jae    17e7 <SEG_KERN_CS+0x17df>
    17e7:	4d                   	dec    %ebp
    17e8:	ee                   	out    %al,(%dx)
    17e9:	00 00                	add    %al,(%eax)
    17eb:	00 58 02             	add    %bl,0x2(%eax)
    17ee:	67 73 00             	addr16 jae 17f1 <SEG_KERN_CS+0x17e9>
    17f1:	4e                   	dec    %esi
    17f2:	ee                   	out    %al,(%dx)
    17f3:	00 00                	add    %al,(%eax)
    17f5:	00 5c 02 6c          	add    %bl,0x6c(%edx,%eax,1)
    17f9:	64 74 00             	fs je  17fc <SEG_KERN_CS+0x17f4>
    17fc:	4f                   	dec    %edi
    17fd:	ee                   	out    %al,(%dx)
    17fe:	00 00                	add    %al,(%eax)
    1800:	00 60 03             	add    %ah,0x3(%eax)
    1803:	51                   	push   %ecx
    1804:	00 00                	add    %al,(%eax)
    1806:	00 50 13             	add    %dl,0x13(%eax)
    1809:	fa                   	cli
    180a:	00 00                	add    %al,(%eax)
    180c:	00 64 03 fa          	add    %ah,-0x6(%ebx,%eax,1)
    1810:	09 00                	or     %eax,(%eax)
    1812:	00 51 13             	add    %dl,0x13(%ecx)
    1815:	fa                   	cli
    1816:	00 00                	add    %al,(%eax)
    1818:	00 68 00             	add    %ch,0x0(%eax)
    181b:	08 49 0a             	or     %cl,0xa(%ecx)
    181e:	00 00                	add    %al,(%eax)
    1820:	08 57 53             	or     %dl,0x53(%edi)
    1823:	02 00                	add    (%eax),%al
    1825:	00 03                	add    %al,(%ebx)
    1827:	73 0a                	jae    1833 <SEG_KERN_CS+0x182b>
    1829:	00 00                	add    %al,(%eax)
    182b:	58                   	pop    %eax
    182c:	13 ee                	adc    %esi,%ebp
    182e:	00 00                	add    %al,(%eax)
    1830:	00 00                	add    %al,(%eax)
    1832:	02 63 70             	add    0x70(%ebx),%ah
    1835:	75 00                	jne    1837 <SEG_KERN_CS+0x182f>
    1837:	59                   	pop    %ecx
    1838:	ee                   	out    %al,(%dx)
    1839:	00 00                	add    %al,(%eax)
    183b:	00 04 00             	add    %al,(%eax,%eax,1)
    183e:	04 3d                	add    $0x3d,%al
    1840:	0a 00                	or     (%eax),%al
    1842:	00 03                	add    %al,(%ebx)
    1844:	5d                   	pop    %ebp
    1845:	20 06                	and    %al,(%esi)
    1847:	01 00                	add    %eax,(%eax)
    1849:	00 04 c1             	add    %al,(%ecx,%eax,8)
    184c:	09 00                	or     %eax,(%eax)
    184e:	00 03                	add    %al,(%ebx)
    1850:	5e                   	pop    %esi
    1851:	26 30 02             	xor    %al,%es:(%edx)
    1854:	00 00                	add    %al,(%eax)
    1856:	09 74 00 00          	or     %esi,0x0(%eax,%eax,1)
    185a:	00 04 11             	add    %al,(%ecx,%edx,1)
    185d:	06                   	push   %es
    185e:	a8 02                	test   $0x2,%al
    1860:	00 00                	add    %al,(%eax)
    1862:	01 77 05             	add    %esi,0x5(%edi)
    1865:	00 00                	add    %al,(%eax)
    1867:	00 01                	add    %al,(%ecx)
    1869:	80 05 00 00 01 01 e0 	addb   $0xe0,0x1010000
    1870:	05 00 00 02 01       	add    $0x1020000,%eax
    1875:	9f                   	lahf
    1876:	05 00 00 03 01       	add    $0x1030000,%eax
    187b:	1b 06                	sbb    (%esi),%eax
    187d:	00 00                	add    %al,(%eax)
    187f:	04 01                	add    $0x1,%al
    1881:	ec                   	in     (%dx),%al
    1882:	05 00 00 05 01       	add    $0x1050000,%eax
    1887:	4f                   	dec    %edi
    1888:	06                   	push   %es
    1889:	00 00                	add    %al,(%eax)
    188b:	06                   	push   %es
    188c:	01 30                	add    %esi,(%eax)
    188e:	06                   	push   %es
    188f:	00 00                	add    %al,(%eax)
    1891:	16                   	push   %ss
    1892:	00 09                	add    %cl,(%ecx)
    1894:	74 00                	je     1896 <SEG_KERN_CS+0x188e>
    1896:	00 00                	add    %al,(%eax)
    1898:	05 11 0e 21 03       	add    $0x3210e11,%eax
    189d:	00 00                	add    %al,(%eax)
    189f:	01 6f 02             	add    %ebp,0x2(%edi)
    18a2:	00 00                	add    %al,(%eax)
    18a4:	01 01                	add    %eax,(%ecx)
    18a6:	38 03                	cmp    %al,(%ebx)
    18a8:	00 00                	add    %al,(%eax)
    18aa:	02 01                	add    (%ecx),%al
    18ac:	0f 02 00             	lar    (%eax),%eax
    18af:	00 03                	add    %al,(%ebx)
    18b1:	01 fc                	add    %edi,%esp
    18b3:	01 00                	add    %eax,(%eax)
    18b5:	00 04 01             	add    %al,(%ecx,%eax,1)
    18b8:	dd 02                	fldl   (%edx)
    18ba:	00 00                	add    %al,(%eax)
    18bc:	05 01 8b 02 00       	add    $0x28b01,%eax
    18c1:	00 06                	add    %al,(%esi)
    18c3:	01 29                	add    %ebp,(%ecx)
    18c5:	03 00                	add    (%eax),%eax
    18c7:	00 07                	add    %al,(%edi)
    18c9:	01 80 02 00 00 08    	add    %eax,0x8000002(%eax)
    18cf:	01 ef                	add    %ebp,%edi
    18d1:	02 00                	add    (%eax),%al
    18d3:	00 09                	add    %cl,(%ecx)
    18d5:	01 fa                	add    %edi,%edx
    18d7:	02 00                	add    (%eax),%al
    18d9:	00 0a                	add    %cl,(%edx)
    18db:	01 05 03 00 00 0b    	add    %eax,0xb000003
    18e1:	01 63 02             	add    %esp,0x2(%ebx)
    18e4:	00 00                	add    %al,(%eax)
    18e6:	0c 01                	or     $0x1,%al
    18e8:	49                   	dec    %ecx
    18e9:	02 00                	add    (%eax),%al
    18eb:	00 0d 01 56 02 00    	add    %cl,0x25601
    18f1:	00 0e                	add    %cl,(%esi)
    18f3:	01 30                	add    %esi,(%eax)
    18f5:	02 00                	add    (%eax),%al
    18f7:	00 0f                	add    %cl,(%edi)
    18f9:	01 ee                	add    %ebp,%esi
    18fb:	01 00                	add    %eax,(%eax)
    18fd:	00 10                	add    %dl,(%eax)
    18ff:	01 ce                	add    %ecx,%esi
    1901:	02 00                	add    (%eax),%al
    1903:	00 11                	add    %dl,(%ecx)
    1905:	01 1b                	add    %ebx,(%ebx)
    1907:	03 00                	add    (%eax),%eax
    1909:	00 12                	add    %dl,(%edx)
    190b:	00 04 aa             	add    %al,(%edx,%ebp,4)
    190e:	02 00                	add    (%eax),%al
    1910:	00 05 24 03 a8 02    	add    %al,0x2a80324
    1916:	00 00                	add    %al,(%eax)
    1918:	0d 53 02 00 00       	or     $0x253,%eax
    191d:	3c 03                	cmp    $0x3,%al
    191f:	00 00                	add    %al,(%eax)
    1921:	0e                   	push   %cs
    1922:	3c 03                	cmp    $0x3,%al
    1924:	00 00                	add    %al,(%eax)
    1926:	00 06                	add    %al,(%esi)
    1928:	04 07                	add    $0x7,%al
    192a:	f6 00 00             	testb  $0x0,(%eax)
    192d:	00 16                	add    %dl,(%esi)
    192f:	74 73                	je     19a4 <SEG_KERN_CS+0x199c>
    1931:	73 00                	jae    1933 <SEG_KERN_CS+0x192b>
    1933:	01 09                	add    %ecx,(%ecx)
    1935:	0d 2d 03 00 00       	or     $0x32d,%eax
    193a:	08 05 03 48 1d 41    	or     %al,0x411d4803
    1940:	f0 0d 65 03 00 00    	lock or $0x365,%eax
    1946:	65 03 00             	add    %gs:(%eax),%eax
    1949:	00 0e                	add    %cl,(%esi)
    194b:	3c 03                	cmp    $0x3,%al
    194d:	00 00                	add    %al,(%eax)
    194f:	00 0a                	add    %cl,(%edx)
    1951:	5f                   	pop    %edi
    1952:	02 00                	add    (%eax),%al
    1954:	00 17                	add    %dl,(%edi)
    1956:	11 0a                	adc    %ecx,(%edx)
    1958:	00 00                	add    %al,(%eax)
    195a:	01 0a                	add    %ecx,(%edx)
    195c:	14 56                	adc    $0x56,%al
    195e:	03 00                	add    (%eax),%eax
    1960:	00 08                	add    %cl,(%eax)
    1962:	05 03 08 24 41       	add    $0x41240803,%eax
    1967:	f0 18 5f 0a          	lock sbb %bl,0xa(%edi)
    196b:	00 00                	add    %al,(%eax)
    196d:	01 0b                	add    %ecx,(%ebx)
    196f:	09 42 00             	or     %eax,0x0(%edx)
    1972:	00 00                	add    %al,(%eax)
    1974:	05 03 48 24 41       	add    $0x41244803,%eax
    1979:	f0 09 74 00 00       	lock or %esi,0x0(%eax,%eax,1)
    197e:	00 01                	add    %al,(%ecx)
    1980:	0d 06 a8 03 00       	or     $0x3a806,%eax
    1985:	00 01                	add    %al,(%ecx)
    1987:	a6                   	cmpsb  %es:(%edi),%ds:(%esi)
    1988:	0a 00                	or     (%eax),%al
    198a:	00 01                	add    %al,(%ecx)
    198c:	01 8c 0a 00 00 02 00 	add    %ecx,0x20000(%edx,%ecx,1)
    1993:	19 2b                	sbb    %ebp,(%ebx)
    1995:	0a 00                	or     (%eax),%al
    1997:	00 01                	add    %al,(%ecx)
    1999:	12 0e                	adc    (%esi),%cl
    199b:	b4 03                	mov    $0x3,%ah
    199d:	00 00                	add    %al,(%eax)
    199f:	1a 04 0b             	sbb    (%ebx,%ecx,1),%al
    19a2:	f1                   	int1
    19a3:	09 00                	or     %eax,(%eax)
    19a5:	00 49 34             	add    %cl,0x34(%ecx)
    19a8:	00 00                	add    %al,(%eax)
    19aa:	00 c6                	add    %al,%dh
    19ac:	03 00                	add    (%eax),%eax
    19ae:	00 07                	add    %al,(%edi)
    19b0:	00 0b                	add    %cl,(%ebx)
    19b2:	78 0a                	js     19be <SEG_KERN_CS+0x19b6>
    19b4:	00 00                	add    %al,(%eax)
    19b6:	41                   	inc    %ecx
    19b7:	34 00                	xor    $0x0,%al
    19b9:	00 00                	add    %al,(%eax)
    19bb:	d6                   	(bad)
    19bc:	03 00                	add    (%eax),%eax
    19be:	00 07                	add    %al,(%edi)
    19c0:	00 0f                	add    %cl,(%edi)
    19c2:	8c 05 00 00 06 19    	mov    %es,0x19060000
    19c8:	f6 03 00             	testb  $0x0,(%ebx)
    19cb:	00 05 f6 03 00 00    	add    %al,0x3f6
    19d1:	05 68 00 00 00       	add    $0x68,%eax
    19d6:	05 68 00 00 00       	add    $0x68,%eax
    19db:	05 68 00 00 00       	add    $0x68,%eax
    19e0:	00 0a                	add    %cl,(%edx)
    19e2:	e2 00                	loop   19e4 <SEG_KERN_CS+0x19dc>
    19e4:	00 00                	add    %al,(%eax)
    19e6:	10 c8                	adc    %cl,%al
    19e8:	05 00 00 06 14       	add    $0x14060000,%eax
    19ed:	0e                   	push   %cs
    19ee:	f6 03 00             	testb  $0x0,(%ebx)
    19f1:	00 11                	add    %dl,(%ecx)
    19f3:	04 00                	add    $0x0,%al
    19f5:	00 05 42 00 00 00    	add    %al,0x42
    19fb:	00 10                	add    %dl,(%eax)
    19fd:	e5 01                	in     $0x1,%eax
    19ff:	00 00                	add    %al,(%eax)
    1a01:	05 2e 0a 68 00       	add    $0x680a2e,%eax
    1a06:	00 00                	add    %al,(%eax)
    1a08:	27                   	daa
    1a09:	04 00                	add    $0x0,%al
    1a0b:	00 05 21 03 00 00    	add    %al,0x321
    1a11:	00 0f                	add    %cl,(%edi)
    1a13:	aa                   	stos   %al,%es:(%edi)
    1a14:	03 00                	add    (%eax),%eax
    1a16:	00 07                	add    %al,(%edi)
    1a18:	09 42 04             	or     %eax,0x4(%edx)
    1a1b:	00 00                	add    %al,(%eax)
    1a1d:	05 b4 03 00 00       	add    $0x3b4,%eax
    1a22:	05 42 00 00 00       	add    $0x42,%eax
    1a27:	05 82 00 00 00       	add    $0x82,%eax
    1a2c:	00 1b                	add    %bl,(%ebx)
    1a2e:	d3 09                	rorl   %cl,(%ecx)
    1a30:	00 00                	add    %al,(%eax)
    1a32:	01 29                	add    %ebp,(%ecx)
    1a34:	09 42 00             	or     %eax,0x0(%edx)
    1a37:	00 00                	add    %al,(%eax)
    1a39:	9f                   	lahf
    1a3a:	63 40 f0             	arpl   %eax,-0x10(%eax)
    1a3d:	b3 01                	mov    $0x1,%bl
    1a3f:	00 00                	add    %al,(%eax)
    1a41:	01 9c ff 04 00 00 11 	add    %ebx,0x11000004(%edi,%edi,8)
    1a48:	63 70 75             	arpl   %esi,0x75(%eax)
    1a4b:	00 29                	add    %ch,(%ecx)
    1a4d:	21 42 00             	and    %eax,0x0(%edx)
    1a50:	00 00                	add    %al,(%eax)
    1a52:	02 91 4c 1c 82 0a    	add    0xa821c4c(%ecx),%dl
    1a58:	00 00                	add    %al,(%eax)
    1a5a:	01 29                	add    %ebp,(%ecx)
    1a5c:	2c b4                	sub    $0xb4,%al
    1a5e:	03 00                	add    (%eax),%eax
    1a60:	00 02                	add    %al,(%edx)
    1a62:	91                   	xchg   %eax,%ecx
    1a63:	04 0c                	add    $0xc,%al
    1a65:	74 73                	je     1ada <SEG_KERN_CS+0x1ad2>
    1a67:	73 00                	jae    1a69 <SEG_KERN_CS+0x1a61>
    1a69:	2a 12                	sub    (%edx),%dl
    1a6b:	ff 04 00             	incl   (%eax,%eax,1)
    1a6e:	00 02                	add    %al,(%edx)
    1a70:	91                   	xchg   %eax,%ecx
    1a71:	6c                   	insb   (%dx),%es:(%edi)
    1a72:	0c 73                	or     $0x73,%al
    1a74:	65 67 00 2b          	add    %ch,%gs:(%bp,%di)
    1a78:	12 f6                	adc    %dh,%dh
    1a7a:	03 00                	add    (%eax),%eax
    1a7c:	00 02                	add    %al,(%edx)
    1a7e:	91                   	xchg   %eax,%ecx
    1a7f:	68 0c 73 6d 00       	push   $0x6d730c
    1a84:	31 18                	xor    %ebx,(%eax)
    1a86:	65 03 00             	add    %gs:(%eax),%eax
    1a89:	00 02                	add    %al,(%edx)
    1a8b:	91                   	xchg   %eax,%ecx
    1a8c:	64 1d ae 64 40 f0    	fs sbb $0xf04064ae,%eax
    1a92:	41                   	inc    %ecx
    1a93:	00 00                	add    %al,(%eax)
    1a95:	00 bc 04 00 00 12 78 	add    %bh,0x78120000(%esp,%eax,1)
    1a9c:	0a 00                	or     (%eax),%al
    1a9e:	00 41 34             	add    %al,0x34(%ecx)
    1aa1:	00 00                	add    %al,(%eax)
    1aa3:	00 07                	add    %al,(%edi)
    1aa5:	00 00                	add    %al,(%eax)
    1aa7:	1e                   	push   %ds
    1aa8:	00 65 40             	add    %ah,0x40(%ebp)
    1aab:	f0 50                	lock push %eax
    1aad:	00 00                	add    %al,(%eax)
    1aaf:	00 13                	add    %dl,(%ebx)
    1ab1:	6c                   	insb   (%dx),%es:(%edi)
    1ab2:	0a 00                	or     (%eax),%al
    1ab4:	00 47 12             	add    %al,0x12(%edi)
    1ab7:	68 00 00 00 02       	push   $0x2000000
    1abc:	91                   	xchg   %eax,%ecx
    1abd:	60                   	pusha
    1abe:	13 0a                	adc    (%edx),%ecx
    1ac0:	0a 00                	or     (%eax),%al
    1ac2:	00 47 1a             	add    %al,0x1a(%edi)
    1ac5:	68 00 00 00 02       	push   $0x2000000
    1aca:	91                   	xchg   %eax,%ecx
    1acb:	5c                   	pop    %esp
    1acc:	0b f1                	or     %ecx,%esi
    1ace:	09 00                	or     %eax,(%eax)
    1ad0:	00 49 34             	add    %cl,0x34(%ecx)
    1ad3:	00 00                	add    %al,(%eax)
    1ad5:	00 f1                	add    %dh,%cl
    1ad7:	04 00                	add    $0x0,%al
    1ad9:	00 07                	add    %al,(%edi)
    1adb:	00 12                	add    %dl,(%edx)
    1add:	78 0a                	js     1ae9 <SEG_KERN_CS+0x1ae1>
    1adf:	00 00                	add    %al,(%eax)
    1ae1:	41                   	inc    %ecx
    1ae2:	34 00                	xor    $0x0,%al
    1ae4:	00 00                	add    %al,(%eax)
    1ae6:	07                   	pop    %es
    1ae7:	00 00                	add    %al,(%eax)
    1ae9:	00 0a                	add    %cl,(%edx)
    1aeb:	53                   	push   %ebx
    1aec:	02 00                	add    (%eax),%al
    1aee:	00 1f                	add    %bl,(%edi)
    1af0:	98                   	cwtl
    1af1:	0a 00                	or     (%eax),%al
    1af3:	00 01                	add    %al,(%ecx)
    1af5:	21 0e                	and    %ecx,(%esi)
    1af7:	ff 04 00             	incl   (%eax,%eax,1)
    1afa:	00 78 63             	add    %bh,0x63(%eax)
    1afd:	40                   	inc    %eax
    1afe:	f0 27                	lock daa
    1b00:	00 00                	add    %al,(%eax)
    1b02:	00 01                	add    %al,(%ecx)
    1b04:	9c                   	pushf
    1b05:	2b 05 00 00 11 6e    	sub    0x6e110000,%eax
    1b0b:	00 21                	add    %ah,(%ecx)
    1b0d:	24 42                	and    $0x42,%al
    1b0f:	00 00                	add    %al,(%eax)
    1b11:	00 02                	add    %al,(%edx)
    1b13:	91                   	xchg   %eax,%ecx
    1b14:	74 00                	je     1b16 <SEG_KERN_CS+0x1b0e>
    1b16:	20 d6                	and    %dl,%dh
    1b18:	01 00                	add    %eax,(%eax)
    1b1a:	00 01                	add    %al,(%ecx)
    1b1c:	15 06 d9 62 40       	adc    $0x4062d906,%eax
    1b21:	f0 9f                	lock lahf
    1b23:	00 00                	add    %al,(%eax)
    1b25:	00 01                	add    %al,(%ecx)
    1b27:	9c                   	pushf
    1b28:	00 c3                	add    %al,%bl
    1b2a:	02 00                	add    (%eax),%al
    1b2c:	00 05 00 01 04 df    	add    %al,0xdf040100
    1b32:	0b 00                	or     (%eax),%eax
    1b34:	00 08                	add    %cl,(%eax)
    1b36:	45                   	inc    %ebp
    1b37:	01 00                	add    %eax,(%eax)
    1b39:	00 0c d8             	add    %cl,(%eax,%ebx,8)
    1b3c:	01 00                	add    %eax,(%eax)
    1b3e:	00 e5                	add    %ah,%ch
    1b40:	01 00                	add    %eax,(%eax)
    1b42:	00 52 65             	add    %dl,0x65(%edx)
    1b45:	40                   	inc    %eax
    1b46:	f0 24 02             	lock and $0x2,%al
    1b49:	00 00                	add    %al,(%eax)
    1b4b:	9c                   	pushf
    1b4c:	08 00                	or     %al,(%eax)
    1b4e:	00 03                	add    %al,(%ebx)
    1b50:	01 06                	add    %eax,(%esi)
    1b52:	cc                   	int3
    1b53:	00 00                	add    %al,(%eax)
    1b55:	00 03                	add    %al,(%ebx)
    1b57:	02 05 20 00 00 00    	add    0x20,%al
    1b5d:	05 09 01 00 00       	add    $0x109,%eax
    1b62:	09 3e                	or     %edi,(%esi)
    1b64:	00 00                	add    %al,(%eax)
    1b66:	00 09                	add    %cl,(%ecx)
    1b68:	04 05                	add    $0x5,%al
    1b6a:	69 6e 74 00 03 08 05 	imul   $0x5080300,0x74(%esi),%ebp
    1b71:	84 00                	test   %al,(%eax)
    1b73:	00 00                	add    %al,(%eax)
    1b75:	05 a2 02 00 00       	add    $0x2a2,%eax
    1b7a:	0b 56 00             	or     0x0(%esi),%edx
    1b7d:	00 00                	add    %al,(%eax)
    1b7f:	03 01                	add    (%ecx),%eax
    1b81:	08 c3                	or     %al,%bl
    1b83:	00 00                	add    %al,(%eax)
    1b85:	00 03                	add    %al,(%ebx)
    1b87:	02 07                	add    (%edi),%al
    1b89:	32 01                	xor    (%ecx),%al
    1b8b:	00 00                	add    %al,(%eax)
    1b8d:	05 08 01 00 00       	add    $0x108,%eax
    1b92:	0d 6e 00 00 00       	or     $0x6e,%eax
    1b97:	03 04 07             	add    (%edi,%eax,1),%eax
    1b9a:	fb                   	sti
    1b9b:	00 00                	add    %al,(%eax)
    1b9d:	00 03                	add    %al,(%ebx)
    1b9f:	08 07                	or     %al,(%edi)
    1ba1:	f1                   	int1
    1ba2:	00 00                	add    %al,(%eax)
    1ba4:	00 05 2a 00 00 00    	add    %al,0x2a
    1baa:	13 64 00 00          	adc    0x0(%eax,%eax,1),%esp
    1bae:	00 0a                	add    %cl,(%edx)
    1bb0:	fd                   	std
    1bb1:	0a 00                	or     (%eax),%al
    1bb3:	00 01                	add    %al,(%ecx)
    1bb5:	42                   	inc    %edx
    1bb6:	09 34 00             	or     %esi,(%eax,%eax,1)
    1bb9:	00 00                	add    %al,(%eax)
    1bbb:	cc                   	int3
    1bbc:	66 40                	inc    %ax
    1bbe:	f0 aa                	lock stos %al,%es:(%edi)
    1bc0:	00 00                	add    %al,(%eax)
    1bc2:	00 01                	add    %al,(%ecx)
    1bc4:	9c                   	pushf
    1bc5:	58                   	pop    %eax
    1bc6:	01 00                	add    %eax,(%eax)
    1bc8:	00 07                	add    %al,(%edi)
    1bca:	d1 0a                	rorl   $1,(%edx)
    1bcc:	00 00                	add    %al,(%eax)
    1bce:	42                   	inc    %edx
    1bcf:	1d 58 01 00 00       	sbb    $0x158,%eax
    1bd4:	02 91 00 07 be 0a    	add    0xabe0700(%ecx),%dl
    1bda:	00 00                	add    %al,(%eax)
    1bdc:	42                   	inc    %edx
    1bdd:	2f                   	das
    1bde:	58                   	pop    %eax
    1bdf:	01 00                	add    %eax,(%eax)
    1be1:	00 02                	add    %al,(%edx)
    1be3:	91                   	xchg   %eax,%ecx
    1be4:	04 02                	add    $0x2,%al
    1be6:	6c                   	insb   (%dx),%es:(%edi)
    1be7:	65 6e                	outsb  %gs:(%esi),(%dx)
    1be9:	00 42 3d             	add    %al,0x3d(%edx)
    1bec:	7c 00                	jl     1bee <SEG_KERN_CS+0x1be6>
    1bee:	00 00                	add    %al,(%eax)
    1bf0:	02 91 08 01 cd 0a    	add    0xacd0108(%ecx),%dl
    1bf6:	00 00                	add    %al,(%eax)
    1bf8:	43                   	inc    %ebx
    1bf9:	0e                   	push   %cs
    1bfa:	5e                   	pop    %esi
    1bfb:	01 00                	add    %eax,(%eax)
    1bfd:	00 02                	add    %al,(%edx)
    1bff:	91                   	xchg   %eax,%ecx
    1c00:	74 01                	je     1c03 <SEG_KERN_CS+0x1bfb>
    1c02:	ba 0a 00 00 44       	mov    $0x4400000a,%edx
    1c07:	0e                   	push   %cs
    1c08:	5e                   	pop    %esi
    1c09:	01 00                	add    %eax,(%eax)
    1c0b:	00 02                	add    %al,(%edx)
    1c0d:	91                   	xchg   %eax,%ecx
    1c0e:	70 04                	jo     1c14 <SEG_KERN_CS+0x1c0c>
    1c10:	64 76 00             	fs jbe 1c13 <SEG_KERN_CS+0x1c0b>
    1c13:	45                   	inc    %ebp
    1c14:	0d 34 00 00 00       	or     $0x34,%eax
    1c19:	02 91 64 01 d6 0a    	add    0xad60164(%ecx),%dl
    1c1f:	00 00                	add    %al,(%eax)
    1c21:	51                   	push   %ecx
    1c22:	0e                   	push   %cs
    1c23:	63 01                	arpl   %eax,(%ecx)
    1c25:	00 00                	add    %al,(%eax)
    1c27:	02 91 6c 01 e6 0a    	add    0xae6016c(%ecx),%dl
    1c2d:	00 00                	add    %al,(%eax)
    1c2f:	52                   	push   %edx
    1c30:	0e                   	push   %cs
    1c31:	63 01                	arpl   %eax,(%ecx)
    1c33:	00 00                	add    %al,(%eax)
    1c35:	02 91 68 0b 0c 00    	add    0xc0b68(%ecx),%dl
    1c3b:	00 00                	add    %al,(%eax)
    1c3d:	33 01                	xor    (%ecx),%eax
    1c3f:	00 00                	add    %al,(%eax)
    1c41:	04 76                	add    $0x76,%al
    1c43:	6c                   	insb   (%dx),%es:(%edi)
    1c44:	00 48 11             	add    %cl,0x11(%eax)
    1c47:	34 00                	xor    $0x0,%al
    1c49:	00 00                	add    %al,(%eax)
    1c4b:	02 91 60 04 76 72    	add    0x72760460(%ecx),%dl
    1c51:	00 49 11             	add    %cl,0x11(%ecx)
    1c54:	34 00                	xor    $0x0,%al
    1c56:	00 00                	add    %al,(%eax)
    1c58:	02 91 5c 00 0c 2d    	add    0x2d0c005c(%ecx),%dl
    1c5e:	67 40                	addr16 inc %eax
    1c60:	f0 3c 00             	lock cmp $0x0,%al
    1c63:	00 00                	add    %al,(%eax)
    1c65:	04 76                	add    $0x76,%al
    1c67:	6c                   	insb   (%dx),%es:(%edi)
    1c68:	00 55 11             	add    %dl,0x11(%ebp)
    1c6b:	34 00                	xor    $0x0,%al
    1c6d:	00 00                	add    %al,(%eax)
    1c6f:	02 91 58 04 76 72    	add    0x72760458(%ecx),%dl
    1c75:	00 56 11             	add    %dl,0x11(%esi)
    1c78:	34 00                	xor    $0x0,%al
    1c7a:	00 00                	add    %al,(%eax)
    1c7c:	02 91 54 00 00 06    	add    0x6000054(%ecx),%dl
    1c82:	5d                   	pop    %ebp
    1c83:	01 00                	add    %eax,(%eax)
    1c85:	00 0d 06 34 00 00    	add    %cl,0x3406
    1c8b:	00 06                	add    %al,(%esi)
    1c8d:	4c                   	dec    %esp
    1c8e:	00 00                	add    %al,(%eax)
    1c90:	00 0e                	add    %cl,(%esi)
    1c92:	c4 0a                	les    (%edx),%ecx
    1c94:	00 00                	add    %al,(%eax)
    1c96:	01 29                	add    %ebp,(%ecx)
    1c98:	06                   	push   %es
    1c99:	41                   	inc    %ecx
    1c9a:	66 40                	inc    %ax
    1c9c:	f0 8b 00             	lock mov (%eax),%eax
    1c9f:	00 00                	add    %al,(%eax)
    1ca1:	01 9c e1 01 00 00 02 	add    %ebx,0x2000001(%ecx,%eiz,8)
    1ca8:	64 73 74             	fs jae 1d1f <SEG_KERN_CS+0x1d17>
    1cab:	00 29                	add    %ch,(%ecx)
    1cad:	15 e1 01 00 00       	adc    $0x1e1,%eax
    1cb2:	02 91 00 02 73 72    	add    0x72730200(%ecx),%dl
    1cb8:	63 00                	arpl   %eax,(%eax)
    1cba:	29 26                	sub    %esp,(%esi)
    1cbc:	58                   	pop    %eax
    1cbd:	01 00                	add    %eax,(%eax)
    1cbf:	00 02                	add    %al,(%edx)
    1cc1:	91                   	xchg   %eax,%ecx
    1cc2:	04 02                	add    $0x2,%al
    1cc4:	6c                   	insb   (%dx),%es:(%edi)
    1cc5:	65 6e                	outsb  %gs:(%esi),(%dx)
    1cc7:	00 29                	add    %ch,(%ecx)
    1cc9:	32 7c 00 00          	xor    0x0(%eax,%eax,1),%bh
    1ccd:	00 02                	add    %al,(%edx)
    1ccf:	91                   	xchg   %eax,%ecx
    1cd0:	08 01                	or     %al,(%ecx)
    1cd2:	de 0a                	fimuls (%edx)
    1cd4:	00 00                	add    %al,(%eax)
    1cd6:	33 0f                	xor    (%edi),%ecx
    1cd8:	e3 01                	jecxz  1cdb <SEG_KERN_CS+0x1cd3>
    1cda:	00 00                	add    %al,(%eax)
    1cdc:	02 91 74 01 05 0b    	add    0xb050174(%ecx),%dl
    1ce2:	00 00                	add    %al,(%eax)
    1ce4:	34 0f                	xor    $0xf,%al
    1ce6:	e3 01                	jecxz  1ce9 <SEG_KERN_CS+0x1ce1>
    1ce8:	00 00                	add    %al,(%eax)
    1cea:	02 91 70 01 f6 0a    	add    0xaf60170(%ecx),%dl
    1cf0:	00 00                	add    %al,(%eax)
    1cf2:	3a 0e                	cmp    (%esi),%cl
    1cf4:	63 01                	arpl   %eax,(%ecx)
    1cf6:	00 00                	add    %al,(%eax)
    1cf8:	02 91 6c 01 b3 0a    	add    0xab3016c(%ecx),%dl
    1cfe:	00 00                	add    %al,(%eax)
    1d00:	3b 0e                	cmp    (%esi),%ecx
    1d02:	63 01                	arpl   %eax,(%ecx)
    1d04:	00 00                	add    %al,(%eax)
    1d06:	02 91 68 00 0f 04    	add    0x40f0068(%ecx),%dl
    1d0c:	06                   	push   %es
    1d0d:	64 00 00             	add    %al,%fs:(%eax)
    1d10:	00 10                	add    %dl,(%eax)
    1d12:	be 01 00 00 01       	mov    $0x1000001,%esi
    1d17:	17                   	pop    %ss
    1d18:	06                   	push   %es
    1d19:	da 65 40             	fisubl 0x40(%ebp)
    1d1c:	f0 67 00 00          	lock add %al,(%bx,%si)
    1d20:	00 01                	add    %al,(%ecx)
    1d22:	9c                   	pushf
    1d23:	61                   	popa
    1d24:	02 00                	add    (%eax),%al
    1d26:	00 02                	add    %al,(%edx)
    1d28:	64 73 74             	fs jae 1d9f <SEG_KERN_CS+0x1d97>
    1d2b:	00 17                	add    %dl,(%edi)
    1d2d:	14 e1                	adc    $0xe1,%al
    1d2f:	01 00                	add    %eax,(%eax)
    1d31:	00 02                	add    %al,(%edx)
    1d33:	91                   	xchg   %eax,%ecx
    1d34:	00 02                	add    %al,(%edx)
    1d36:	73 72                	jae    1daa <SEG_KERN_CS+0x1da2>
    1d38:	63 00                	arpl   %eax,(%eax)
    1d3a:	17                   	pop    %ss
    1d3b:	25 58 01 00 00       	and    $0x158,%eax
    1d40:	02 91 04 02 6c 65    	add    0x656c0204(%ecx),%dl
    1d46:	6e                   	outsb  %ds:(%esi),(%dx)
    1d47:	00 17                	add    %dl,(%edi)
    1d49:	31 7c 00 00          	xor    %edi,0x0(%eax,%eax,1)
    1d4d:	00 02                	add    %al,(%edx)
    1d4f:	91                   	xchg   %eax,%ecx
    1d50:	08 01                	or     %al,(%ecx)
    1d52:	de 0a                	fimuls (%edx)
    1d54:	00 00                	add    %al,(%eax)
    1d56:	18 0f                	sbb    %cl,(%edi)
    1d58:	e3 01                	jecxz  1d5b <SEG_KERN_CS+0x1d53>
    1d5a:	00 00                	add    %al,(%eax)
    1d5c:	02 91 74 01 05 0b    	add    0xb050174(%ecx),%dl
    1d62:	00 00                	add    %al,(%eax)
    1d64:	19 0f                	sbb    %ecx,(%edi)
    1d66:	e3 01                	jecxz  1d69 <SEG_KERN_CS+0x1d61>
    1d68:	00 00                	add    %al,(%eax)
    1d6a:	02 91 70 01 f6 0a    	add    0xaf60170(%ecx),%dl
    1d70:	00 00                	add    %al,(%eax)
    1d72:	20 0e                	and    %cl,(%esi)
    1d74:	63 01                	arpl   %eax,(%ecx)
    1d76:	00 00                	add    %al,(%eax)
    1d78:	02 91 6c 01 b3 0a    	add    0xab3016c(%ecx),%dl
    1d7e:	00 00                	add    %al,(%eax)
    1d80:	21 0e                	and    %ecx,(%esi)
    1d82:	63 01                	arpl   %eax,(%ecx)
    1d84:	00 00                	add    %al,(%eax)
    1d86:	02 91 68 00 11 aa    	add    -0x55eeff98(%ecx),%dl
    1d8c:	03 00                	add    (%eax),%eax
    1d8e:	00 01                	add    %al,(%ecx)
    1d90:	03 06                	add    (%esi),%eax
    1d92:	52                   	push   %edx
    1d93:	65 40                	gs inc %eax
    1d95:	f0 88 00             	lock mov %al,(%eax)
    1d98:	00 00                	add    %al,(%eax)
    1d9a:	01 9c 02 64 73 74 00 	add    %ebx,0x747364(%edx,%eax,1)
    1da1:	03 14 e1             	add    (%ecx,%eiz,8),%edx
    1da4:	01 00                	add    %eax,(%eax)
    1da6:	00 02                	add    %al,(%edx)
    1da8:	91                   	xchg   %eax,%ecx
    1da9:	00 02                	add    %al,(%edx)
    1dab:	76 61                	jbe    1e0e <SEG_KERN_CS+0x1e06>
    1dad:	6c                   	insb   (%dx),%es:(%edi)
    1dae:	00 03                	add    %al,(%ebx)
    1db0:	21 4c 00 00          	and    %ecx,0x0(%eax,%eax,1)
    1db4:	00 02                	add    %al,(%edx)
    1db6:	91                   	xchg   %eax,%ecx
    1db7:	64 02 6c 65 6e       	add    %fs:0x6e(%ebp,%eiz,2),%ch
    1dbc:	00 03                	add    %al,(%ebx)
    1dbe:	2d 7c 00 00 00       	sub    $0x7c,%eax
    1dc3:	02 91 08 01 0d 0b    	add    0xb0d0108(%ecx),%dl
    1dc9:	00 00                	add    %al,(%eax)
    1dcb:	04 0e                	add    $0xe,%al
    1dcd:	64 00 00             	add    %al,%fs:(%eax)
    1dd0:	00 02                	add    %al,(%edx)
    1dd2:	91                   	xchg   %eax,%ecx
    1dd3:	6c                   	insb   (%dx),%es:(%edi)
    1dd4:	01 ef                	add    %ebp,%edi
    1dd6:	0a 00                	or     (%eax),%al
    1dd8:	00 0b                	add    %cl,(%ebx)
    1dda:	0e                   	push   %cs
    1ddb:	63 01                	arpl   %eax,(%ecx)
    1ddd:	00 00                	add    %al,(%eax)
    1ddf:	02 91 70 04 69 00    	add    0x690470(%ecx),%dl
    1de5:	0c 0c                	or     $0xc,%al
    1de7:	7c 00                	jl     1de9 <SEG_KERN_CS+0x1de1>
    1de9:	00 00                	add    %al,(%eax)
    1deb:	02 91 74 00 00 93    	add    -0x6cffff8c(%ecx),%dl
    1df1:	00 00                	add    %al,(%eax)
    1df3:	00 05 00 01 04 f6    	add    %al,0xf6040100
    1df9:	0c 00                	or     $0x0,%al
    1dfb:	00 02                	add    %al,(%edx)
    1dfd:	15 0b 00 00 21       	adc    $0x2100000b,%eax
    1e02:	16                   	push   %ss
    1e03:	02 00                	add    (%eax),%al
    1e05:	00 00                	add    %al,(%eax)
    1e07:	02 00                	add    (%eax),%al
    1e09:	00 76 67             	add    %dh,0x67(%esi)
    1e0c:	40                   	inc    %eax
    1e0d:	f0 18 00             	lock sbb %al,(%eax)
    1e10:	00 00                	add    %al,(%eax)
    1e12:	0e                   	push   %cs
    1e13:	0a 00                	or     (%eax),%al
    1e15:	00 01                	add    %al,(%ecx)
    1e17:	01 06                	add    %eax,(%esi)
    1e19:	cc                   	int3
    1e1a:	00 00                	add    %al,(%eax)
    1e1c:	00 01                	add    %al,(%ecx)
    1e1e:	02 05 20 00 00 00    	add    0x20,%al
    1e24:	03 04 05 69 6e 74 00 	add    0x746e69(,%eax,1),%eax
    1e2b:	01 08                	add    %ecx,(%eax)
    1e2d:	05 84 00 00 00       	add    $0x84,%eax
    1e32:	01 01                	add    %eax,(%ecx)
    1e34:	08 c3                	or     %al,%bl
    1e36:	00 00                	add    %al,(%eax)
    1e38:	00 04 fb             	add    %al,(%ebx,%edi,8)
    1e3b:	05 00 00 02 0c       	add    $0xc020000,%eax
    1e40:	1d 55 00 00 00       	sbb    $0x55,%eax
    1e45:	01 02                	add    %eax,(%edx)
    1e47:	07                   	pop    %es
    1e48:	32 01                	xor    (%ecx),%al
    1e4a:	00 00                	add    %al,(%eax)
    1e4c:	01 04 07             	add    %eax,(%edi,%eax,1)
    1e4f:	fb                   	sti
    1e50:	00 00                	add    %al,(%eax)
    1e52:	00 01                	add    %al,(%ecx)
    1e54:	08 07                	or     %al,(%edi)
    1e56:	f1                   	int1
    1e57:	00 00                	add    %al,(%eax)
    1e59:	00 05 73 0b 00 00    	add    %al,0xb73
    1e5f:	01 03                	add    %eax,(%ebx)
    1e61:	11 76 67             	adc    %esi,0x67(%esi)
    1e64:	40                   	inc    %eax
    1e65:	f0 18 00             	lock sbb %al,(%eax)
    1e68:	00 00                	add    %al,(%eax)
    1e6a:	01 9c 90 00 00 00 06 	add    %ebx,0x6000000(%eax,%edx,4)
    1e71:	76 67                	jbe    1eda <SEG_KERN_CS+0x1ed2>
    1e73:	61                   	popa
    1e74:	00 01                	add    %al,(%ecx)
    1e76:	04 0f                	add    $0xf,%al
    1e78:	90                   	nop
    1e79:	00 00                	add    %al,(%eax)
    1e7b:	00 02                	add    %al,(%edx)
    1e7d:	91                   	xchg   %eax,%ecx
    1e7e:	74 00                	je     1e80 <SEG_KERN_CS+0x1e78>
    1e80:	07                   	pop    %es
    1e81:	04 49                	add    $0x49,%al
    1e83:	00 00                	add    %al,(%eax)
	...

Disassembly of section .debug_abbrev:

00000000 <.debug_abbrev>:
   0:	01 0d 00 03 0e 3a    	add    %ecx,0x3a0e0300
   6:	21 03                	and    %eax,(%ebx)
   8:	3b 0b                	cmp    (%ebx),%ecx
   a:	39 0b                	cmp    %ecx,(%ebx)
   c:	49                   	dec    %ecx
   d:	13 38                	adc    (%eax),%edi
   f:	0b 00                	or     (%eax),%eax
  11:	00 02                	add    %al,(%edx)
  13:	24 00                	and    $0x0,%al
  15:	0b 0b                	or     (%ebx),%ecx
  17:	3e 0b 03             	or     %ds:(%ebx),%eax
  1a:	0e                   	push   %cs
  1b:	00 00                	add    %al,(%eax)
  1d:	03 2e                	add    (%esi),%ebp
  1f:	01 3f                	add    %edi,(%edi)
  21:	19 03                	sbb    %eax,(%ebx)
  23:	0e                   	push   %cs
  24:	3a 0b                	cmp    (%ebx),%cl
  26:	3b 0b                	cmp    (%ebx),%ecx
  28:	39 21                	cmp    %esp,(%ecx)
  2a:	06                   	push   %es
  2b:	3c 19                	cmp    $0x19,%al
  2d:	01 13                	add    %edx,(%ebx)
  2f:	00 00                	add    %al,(%eax)
  31:	04 18                	add    $0x18,%al
  33:	00 00                	add    %al,(%eax)
  35:	00 05 16 00 03 0e    	add    %al,0xe030016
  3b:	3a 0b                	cmp    (%ebx),%cl
  3d:	3b 0b                	cmp    (%ebx),%ecx
  3f:	39 0b                	cmp    %ecx,(%ebx)
  41:	49                   	dec    %ecx
  42:	13 00                	adc    (%eax),%eax
  44:	00 06                	add    %al,(%esi)
  46:	05 00 49 13 00       	add    $0x134900,%eax
  4b:	00 07                	add    %al,(%edi)
  4d:	0d 00 03 0e 3a       	or     $0x3a0e0300,%eax
  52:	21 03                	and    %eax,(%ebx)
  54:	3b 0b                	cmp    (%ebx),%ecx
  56:	39 0b                	cmp    %ecx,(%ebx)
  58:	49                   	dec    %ecx
  59:	13 38                	adc    (%eax),%edi
  5b:	05 00 00 08 0f       	add    $0xf080000,%eax
  60:	00 0b                	add    %cl,(%ebx)
  62:	21 04 49             	and    %eax,(%ecx,%ecx,2)
  65:	13 00                	adc    (%eax),%eax
  67:	00 09                	add    %cl,(%ecx)
  69:	13 01                	adc    (%ecx),%eax
  6b:	0b 0b                	or     (%ebx),%ecx
  6d:	3a 21                	cmp    (%ecx),%ah
  6f:	03 3b                	add    (%ebx),%edi
  71:	0b 39                	or     (%ecx),%edi
  73:	21 09                	and    %ecx,(%ecx)
  75:	01 13                	add    %edx,(%ebx)
  77:	00 00                	add    %al,(%eax)
  79:	0a 0d 00 03 08 3a    	or     0x3a080300,%cl
  7f:	21 03                	and    %eax,(%ebx)
  81:	3b 0b                	cmp    (%ebx),%ecx
  83:	39 21                	cmp    %esp,(%ecx)
  85:	0e                   	push   %cs
  86:	49                   	dec    %ecx
  87:	13 38                	adc    (%eax),%edi
  89:	0b 00                	or     (%eax),%eax
  8b:	00 0b                	add    %cl,(%ebx)
  8d:	2e 01 3f             	add    %edi,%cs:(%edi)
  90:	19 03                	sbb    %eax,(%ebx)
  92:	0e                   	push   %cs
  93:	3a 0b                	cmp    (%ebx),%cl
  95:	3b 21                	cmp    (%ecx),%esp
  97:	0a 39                	or     (%ecx),%bh
  99:	21 06                	and    %eax,(%esi)
  9b:	27                   	daa
  9c:	19 3c 19             	sbb    %edi,(%ecx,%ebx,1)
  9f:	01 13                	add    %edx,(%ebx)
  a1:	00 00                	add    %al,(%eax)
  a3:	0c 11                	or     $0x11,%al
  a5:	01 25 0e 13 0b 03    	add    %esp,0x30b130e
  ab:	1f                   	pop    %ds
  ac:	1b 1f                	sbb    (%edi),%ebx
  ae:	11 01                	adc    %eax,(%ecx)
  b0:	12 06                	adc    (%esi),%al
  b2:	10 17                	adc    %dl,(%edi)
  b4:	00 00                	add    %al,(%eax)
  b6:	0d 24 00 0b 0b       	or     $0xb0b0024,%eax
  bb:	3e 0b 03             	or     %ds:(%ebx),%eax
  be:	08 00                	or     %al,(%eax)
  c0:	00 0e                	add    %cl,(%esi)
  c2:	13 01                	adc    (%ecx),%eax
  c4:	0b 05 3a 0b 3b 0b    	or     0xb3b0b3a,%eax
  ca:	39 0b                	cmp    %ecx,(%ebx)
  cc:	01 13                	add    %edx,(%ebx)
  ce:	00 00                	add    %al,(%eax)
  d0:	0f 01 01             	sgdtl  (%ecx)
  d3:	49                   	dec    %ecx
  d4:	13 01                	adc    (%ecx),%eax
  d6:	13 00                	adc    (%eax),%eax
  d8:	00 10                	add    %dl,(%eax)
  da:	21 00                	and    %eax,(%eax)
  dc:	49                   	dec    %ecx
  dd:	13 2f                	adc    (%edi),%ebp
  df:	0b 00                	or     (%eax),%eax
  e1:	00 11                	add    %dl,(%ecx)
  e3:	0f 00 0b             	str    (%ebx)
  e6:	0b 00                	or     (%eax),%eax
  e8:	00 12                	add    %dl,(%edx)
  ea:	34 00                	xor    $0x0,%al
  ec:	03 0e                	add    (%esi),%ecx
  ee:	3a 0b                	cmp    (%ebx),%cl
  f0:	3b 0b                	cmp    (%ebx),%ecx
  f2:	39 0b                	cmp    %ecx,(%ebx)
  f4:	49                   	dec    %ecx
  f5:	13 3f                	adc    (%edi),%edi
  f7:	19 02                	sbb    %eax,(%edx)
  f9:	18 00                	sbb    %al,(%eax)
  fb:	00 13                	add    %dl,(%ebx)
  fd:	26 00 00             	add    %al,%es:(%eax)
 100:	00 14 2e             	add    %dl,(%esi,%ebp,1)
 103:	01 3f                	add    %edi,(%edi)
 105:	19 03                	sbb    %eax,(%ebx)
 107:	0e                   	push   %cs
 108:	3a 0b                	cmp    (%ebx),%cl
 10a:	3b 0b                	cmp    (%ebx),%ecx
 10c:	39 0b                	cmp    %ecx,(%ebx)
 10e:	27                   	daa
 10f:	19 11                	sbb    %edx,(%ecx)
 111:	01 12                	add    %edx,(%edx)
 113:	06                   	push   %es
 114:	40                   	inc    %eax
 115:	18 7c 19 00          	sbb    %bh,0x0(%ecx,%ebx,1)
 119:	00 15 05 00 03 0e    	add    %dl,0xe030005
 11f:	3a 0b                	cmp    (%ebx),%cl
 121:	3b 0b                	cmp    (%ebx),%ecx
 123:	39 0b                	cmp    %ecx,(%ebx)
 125:	49                   	dec    %ecx
 126:	13 02                	adc    (%edx),%eax
 128:	18 00                	sbb    %al,(%eax)
 12a:	00 00                	add    %al,(%eax)
 12c:	01 28                	add    %ebp,(%eax)
 12e:	00 03                	add    %al,(%ebx)
 130:	0e                   	push   %cs
 131:	1c 0b                	sbb    $0xb,%al
 133:	00 00                	add    %al,(%eax)
 135:	02 34 00             	add    (%eax,%eax,1),%dh
 138:	03 0e                	add    (%esi),%ecx
 13a:	3a 21                	cmp    (%ecx),%ah
 13c:	01 3b                	add    %edi,(%ebx)
 13e:	0b 39                	or     (%ecx),%edi
 140:	0b 49 13             	or     0x13(%ecx),%ecx
 143:	02 18                	add    (%eax),%bl
 145:	00 00                	add    %al,(%eax)
 147:	03 24 00             	add    (%eax,%eax,1),%esp
 14a:	0b 0b                	or     (%ebx),%ecx
 14c:	3e 0b 03             	or     %ds:(%ebx),%eax
 14f:	0e                   	push   %cs
 150:	00 00                	add    %al,(%eax)
 152:	04 34                	add    $0x34,%al
 154:	00 03                	add    %al,(%ebx)
 156:	08 3a                	or     %bh,(%edx)
 158:	21 01                	and    %eax,(%ecx)
 15a:	3b 0b                	cmp    (%ebx),%ecx
 15c:	39 0b                	cmp    %ecx,(%ebx)
 15e:	49                   	dec    %ecx
 15f:	13 02                	adc    (%edx),%eax
 161:	18 00                	sbb    %al,(%eax)
 163:	00 05 05 00 49 13    	add    %al,0x13490005
 169:	00 00                	add    %al,(%eax)
 16b:	06                   	push   %es
 16c:	16                   	push   %ss
 16d:	00 03                	add    %al,(%ebx)
 16f:	0e                   	push   %cs
 170:	3a 0b                	cmp    (%ebx),%cl
 172:	3b 0b                	cmp    (%ebx),%ecx
 174:	39 0b                	cmp    %ecx,(%ebx)
 176:	49                   	dec    %ecx
 177:	13 00                	adc    (%eax),%eax
 179:	00 07                	add    %al,(%edi)
 17b:	34 00                	xor    $0x0,%al
 17d:	03 0e                	add    (%esi),%ecx
 17f:	3a 21                	cmp    (%ecx),%ah
 181:	01 3b                	add    %edi,(%ebx)
 183:	0b 39                	or     (%ecx),%edi
 185:	21 0d 49 13 3f 19    	and    %ecx,0x193f1349
 18b:	02 18                	add    (%eax),%bl
 18d:	00 00                	add    %al,(%eax)
 18f:	08 0f                	or     %cl,(%edi)
 191:	00 0b                	add    %cl,(%ebx)
 193:	21 04 49             	and    %eax,(%ecx,%ecx,2)
 196:	13 00                	adc    (%eax),%eax
 198:	00 09                	add    %cl,(%ecx)
 19a:	11 01                	adc    %eax,(%ecx)
 19c:	25 0e 13 0b 03       	and    $0x30b130e,%eax
 1a1:	1f                   	pop    %ds
 1a2:	1b 1f                	sbb    (%edi),%ebx
 1a4:	11 01                	adc    %eax,(%ecx)
 1a6:	12 06                	adc    (%esi),%al
 1a8:	10 17                	adc    %dl,(%edi)
 1aa:	00 00                	add    %al,(%eax)
 1ac:	0a 26                	or     (%esi),%ah
 1ae:	00 49 13             	add    %cl,0x13(%ecx)
 1b1:	00 00                	add    %al,(%eax)
 1b3:	0b 24 00             	or     (%eax,%eax,1),%esp
 1b6:	0b 0b                	or     (%ebx),%ecx
 1b8:	3e 0b 03             	or     %ds:(%ebx),%eax
 1bb:	08 00                	or     %al,(%eax)
 1bd:	00 0c 04             	add    %cl,(%esp,%eax,1)
 1c0:	01 3e                	add    %edi,(%esi)
 1c2:	0b 0b                	or     (%ebx),%ecx
 1c4:	0b 49 13             	or     0x13(%ecx),%ecx
 1c7:	3a 0b                	cmp    (%ebx),%cl
 1c9:	3b 0b                	cmp    (%ebx),%ecx
 1cb:	39 0b                	cmp    %ecx,(%ebx)
 1cd:	01 13                	add    %edx,(%ebx)
 1cf:	00 00                	add    %al,(%eax)
 1d1:	0d 2e 01 3f 19       	or     $0x193f012e,%eax
 1d6:	03 0e                	add    (%esi),%ecx
 1d8:	3a 0b                	cmp    (%ebx),%cl
 1da:	3b 0b                	cmp    (%ebx),%ecx
 1dc:	39 0b                	cmp    %ecx,(%ebx)
 1de:	27                   	daa
 1df:	19 3c 19             	sbb    %edi,(%ecx,%ebx,1)
 1e2:	01 13                	add    %edx,(%ebx)
 1e4:	00 00                	add    %al,(%eax)
 1e6:	0e                   	push   %cs
 1e7:	2e 01 3f             	add    %edi,%cs:(%edi)
 1ea:	19 03                	sbb    %eax,(%ebx)
 1ec:	0e                   	push   %cs
 1ed:	3a 0b                	cmp    (%ebx),%cl
 1ef:	3b 0b                	cmp    (%ebx),%ecx
 1f1:	39 0b                	cmp    %ecx,(%ebx)
 1f3:	27                   	daa
 1f4:	19 49 13             	sbb    %ecx,0x13(%ecx)
 1f7:	11 01                	adc    %eax,(%ecx)
 1f9:	12 06                	adc    (%esi),%al
 1fb:	40                   	inc    %eax
 1fc:	18 7c 19 00          	sbb    %bh,0x0(%ecx,%ebx,1)
 200:	00 0f                	add    %cl,(%edi)
 202:	05 00 03 0e 3a       	add    $0x3a0e0300,%eax
 207:	0b 3b                	or     (%ebx),%edi
 209:	0b 39                	or     (%ecx),%edi
 20b:	0b 49 13             	or     0x13(%ecx),%ecx
 20e:	02 18                	add    (%eax),%bl
 210:	00 00                	add    %al,(%eax)
 212:	00 01                	add    %al,(%ecx)
 214:	2e 01 3f             	add    %edi,%cs:(%edi)
 217:	19 03                	sbb    %eax,(%ebx)
 219:	0e                   	push   %cs
 21a:	3a 21                	cmp    (%ecx),%ah
 21c:	01 3b                	add    %edi,(%ebx)
 21e:	0b 39                	or     (%ecx),%edi
 220:	21 0d 3c 19 01 13    	and    %ecx,0x1301193c
 226:	00 00                	add    %al,(%eax)
 228:	02 18                	add    (%eax),%bl
 22a:	00 00                	add    %al,(%eax)
 22c:	00 03                	add    %al,(%ebx)
 22e:	24 00                	and    $0x0,%al
 230:	0b 0b                	or     (%ebx),%ecx
 232:	3e 0b 03             	or     %ds:(%ebx),%eax
 235:	0e                   	push   %cs
 236:	00 00                	add    %al,(%eax)
 238:	04 0d                	add    $0xd,%al
 23a:	00 03                	add    %al,(%ebx)
 23c:	08 3a                	or     %bh,(%edx)
 23e:	0b 3b                	or     (%ebx),%edi
 240:	0b 39                	or     (%ecx),%edi
 242:	0b 49 13             	or     0x13(%ecx),%ecx
 245:	38 0b                	cmp    %cl,(%ebx)
 247:	00 00                	add    %al,(%eax)
 249:	05 16 00 03 0e       	add    $0xe030016,%eax
 24e:	3a 0b                	cmp    (%ebx),%cl
 250:	3b 0b                	cmp    (%ebx),%ecx
 252:	39 0b                	cmp    %ecx,(%ebx)
 254:	49                   	dec    %ecx
 255:	13 00                	adc    (%eax),%eax
 257:	00 06                	add    %al,(%esi)
 259:	0f 00 0b             	str    (%ebx)
 25c:	21 04 49             	and    %eax,(%ecx,%ecx,2)
 25f:	13 00                	adc    (%eax),%eax
 261:	00 07                	add    %al,(%edi)
 263:	05 00 49 13 00       	add    $0x134900,%eax
 268:	00 08                	add    %cl,(%eax)
 26a:	05 00 03 08 3a       	add    $0x3a080300,%eax
 26f:	21 01                	and    %eax,(%ecx)
 271:	3b 0b                	cmp    (%ebx),%ecx
 273:	39 0b                	cmp    %ecx,(%ebx)
 275:	49                   	dec    %ecx
 276:	13 02                	adc    (%edx),%eax
 278:	18 00                	sbb    %al,(%eax)
 27a:	00 09                	add    %cl,(%ecx)
 27c:	0d 00 03 0e 3a       	or     $0x3a0e0300,%eax
 281:	0b 3b                	or     (%ebx),%edi
 283:	0b 39                	or     (%ecx),%edi
 285:	0b 49 13             	or     0x13(%ecx),%ecx
 288:	38 0b                	cmp    %cl,(%ebx)
 28a:	00 00                	add    %al,(%eax)
 28c:	0a 26                	or     (%esi),%ah
 28e:	00 49 13             	add    %cl,0x13(%ecx)
 291:	00 00                	add    %al,(%eax)
 293:	0b 01                	or     (%ecx),%eax
 295:	01 49 13             	add    %ecx,0x13(%ecx)
 298:	01 13                	add    %edx,(%ebx)
 29a:	00 00                	add    %al,(%eax)
 29c:	0c 21                	or     $0x21,%al
 29e:	00 49 13             	add    %cl,0x13(%ecx)
 2a1:	2f                   	das
 2a2:	21 12                	and    %edx,(%edx)
 2a4:	00 00                	add    %al,(%eax)
 2a6:	0d 05 00 03 0e       	or     $0xe030005,%eax
 2ab:	3a 21                	cmp    (%ecx),%ah
 2ad:	01 3b                	add    %edi,(%ebx)
 2af:	0b 39                	or     (%ecx),%edi
 2b1:	0b 49 13             	or     0x13(%ecx),%ecx
 2b4:	02 18                	add    (%eax),%bl
 2b6:	00 00                	add    %al,(%eax)
 2b8:	0e                   	push   %cs
 2b9:	13 01                	adc    (%ecx),%eax
 2bb:	03 0e                	add    (%esi),%ecx
 2bd:	0b 0b                	or     (%ebx),%ecx
 2bf:	3a 0b                	cmp    (%ebx),%cl
 2c1:	3b 0b                	cmp    (%ebx),%ecx
 2c3:	39 21                	cmp    %esp,(%ecx)
 2c5:	08 01                	or     %al,(%ecx)
 2c7:	13 00                	adc    (%eax),%eax
 2c9:	00 0f                	add    %cl,(%edi)
 2cb:	34 00                	xor    $0x0,%al
 2cd:	03 0e                	add    (%esi),%ecx
 2cf:	3a 21                	cmp    (%ecx),%ah
 2d1:	01 3b                	add    %edi,(%ebx)
 2d3:	0b 39                	or     (%ecx),%edi
 2d5:	0b 49 13             	or     0x13(%ecx),%ecx
 2d8:	3f                   	aas
 2d9:	19 02                	sbb    %eax,(%edx)
 2db:	18 00                	sbb    %al,(%eax)
 2dd:	00 10                	add    %dl,(%eax)
 2df:	2e 01 3f             	add    %edi,%cs:(%edi)
 2e2:	19 03                	sbb    %eax,(%ebx)
 2e4:	0e                   	push   %cs
 2e5:	3a 0b                	cmp    (%ebx),%cl
 2e7:	3b 0b                	cmp    (%ebx),%ecx
 2e9:	39 21                	cmp    %esp,(%ecx)
 2eb:	06                   	push   %es
 2ec:	27                   	daa
 2ed:	19 3c 19             	sbb    %edi,(%ecx,%ebx,1)
 2f0:	01 13                	add    %edx,(%ebx)
 2f2:	00 00                	add    %al,(%eax)
 2f4:	11 2e                	adc    %ebp,(%esi)
 2f6:	01 3f                	add    %edi,(%edi)
 2f8:	19 03                	sbb    %eax,(%ebx)
 2fa:	0e                   	push   %cs
 2fb:	3a 21                	cmp    (%ecx),%ah
 2fd:	01 3b                	add    %edi,(%ebx)
 2ff:	0b 39                	or     (%ecx),%edi
 301:	21 09                	and    %ecx,(%ecx)
 303:	27                   	daa
 304:	19 49 13             	sbb    %ecx,0x13(%ecx)
 307:	11 01                	adc    %eax,(%ecx)
 309:	12 06                	adc    (%esi),%al
 30b:	40                   	inc    %eax
 30c:	18 7a 19             	sbb    %bh,0x19(%edx)
 30f:	01 13                	add    %edx,(%ebx)
 311:	00 00                	add    %al,(%eax)
 313:	12 11                	adc    (%ecx),%dl
 315:	01 25 0e 13 0b 03    	add    %esp,0x30b130e
 31b:	1f                   	pop    %ds
 31c:	1b 1f                	sbb    (%edi),%ebx
 31e:	11 01                	adc    %eax,(%ecx)
 320:	12 06                	adc    (%esi),%al
 322:	10 17                	adc    %dl,(%edi)
 324:	00 00                	add    %al,(%eax)
 326:	13 24 00             	adc    (%eax,%eax,1),%esp
 329:	0b 0b                	or     (%ebx),%ecx
 32b:	3e 0b 03             	or     %ds:(%ebx),%eax
 32e:	08 00                	or     %al,(%eax)
 330:	00 14 13             	add    %dl,(%ebx,%edx,1)
 333:	01 0b                	add    %ecx,(%ebx)
 335:	0b 3a                	or     (%edx),%edi
 337:	0b 3b                	or     (%ebx),%edi
 339:	0b 39                	or     (%ecx),%edi
 33b:	0b 01                	or     (%ecx),%eax
 33d:	13 00                	adc    (%eax),%eax
 33f:	00 15 0f 00 0b 0b    	add    %dl,0xb0b000f
 345:	00 00                	add    %al,(%eax)
 347:	16                   	push   %ss
 348:	15 01 27 19 01       	adc    $0x1192701,%eax
 34d:	13 00                	adc    (%eax),%eax
 34f:	00 17                	add    %dl,(%edi)
 351:	15 00 27 19 00       	adc    $0x192700,%eax
 356:	00 18                	add    %bl,(%eax)
 358:	34 00                	xor    $0x0,%al
 35a:	03 0e                	add    (%esi),%ecx
 35c:	3a 0b                	cmp    (%ebx),%cl
 35e:	3b 0b                	cmp    (%ebx),%ecx
 360:	39 0b                	cmp    %ecx,(%ebx)
 362:	49                   	dec    %ecx
 363:	13 02                	adc    (%edx),%eax
 365:	18 00                	sbb    %al,(%eax)
 367:	00 19                	add    %bl,(%ecx)
 369:	2e 01 3f             	add    %edi,%cs:(%edi)
 36c:	19 03                	sbb    %eax,(%ebx)
 36e:	0e                   	push   %cs
 36f:	3a 0b                	cmp    (%ebx),%cl
 371:	3b 0b                	cmp    (%ebx),%ecx
 373:	39 0b                	cmp    %ecx,(%ebx)
 375:	27                   	daa
 376:	19 11                	sbb    %edx,(%ecx)
 378:	01 12                	add    %edx,(%edx)
 37a:	06                   	push   %es
 37b:	40                   	inc    %eax
 37c:	18 7c 19 01          	sbb    %bh,0x1(%ecx,%ebx,1)
 380:	13 00                	adc    (%eax),%eax
 382:	00 1a                	add    %bl,(%edx)
 384:	0b 01                	or     (%ecx),%eax
 386:	11 01                	adc    %eax,(%ecx)
 388:	12 06                	adc    (%esi),%al
 38a:	00 00                	add    %al,(%eax)
 38c:	1b 34 00             	sbb    (%eax,%eax,1),%esi
 38f:	03 08                	add    (%eax),%ecx
 391:	3a 0b                	cmp    (%ebx),%cl
 393:	3b 0b                	cmp    (%ebx),%ecx
 395:	39 0b                	cmp    %ecx,(%ebx)
 397:	49                   	dec    %ecx
 398:	13 02                	adc    (%edx),%eax
 39a:	18 00                	sbb    %al,(%eax)
 39c:	00 1c 2e             	add    %bl,(%esi,%ebp,1)
 39f:	00 3f                	add    %bh,(%edi)
 3a1:	19 03                	sbb    %eax,(%ebx)
 3a3:	0e                   	push   %cs
 3a4:	3a 0b                	cmp    (%ebx),%cl
 3a6:	3b 0b                	cmp    (%ebx),%ecx
 3a8:	39 0b                	cmp    %ecx,(%ebx)
 3aa:	11 01                	adc    %eax,(%ecx)
 3ac:	12 06                	adc    (%esi),%al
 3ae:	40                   	inc    %eax
 3af:	18 7c 19 00          	sbb    %bh,0x0(%ecx,%ebx,1)
 3b3:	00 00                	add    %al,(%eax)
 3b5:	01 24 00             	add    %esp,(%eax,%eax,1)
 3b8:	0b 0b                	or     (%ebx),%ecx
 3ba:	3e 0b 03             	or     %ds:(%ebx),%eax
 3bd:	0e                   	push   %cs
 3be:	00 00                	add    %al,(%eax)
 3c0:	02 0d 00 03 0e 3a    	add    0x3a0e0300,%cl
 3c6:	21 03                	and    %eax,(%ebx)
 3c8:	3b 0b                	cmp    (%ebx),%ecx
 3ca:	39 0b                	cmp    %ecx,(%ebx)
 3cc:	49                   	dec    %ecx
 3cd:	13 38                	adc    (%eax),%edi
 3cf:	0b 00                	or     (%eax),%eax
 3d1:	00 03                	add    %al,(%ebx)
 3d3:	28 00                	sub    %al,(%eax)
 3d5:	03 0e                	add    (%esi),%ecx
 3d7:	1c 0b                	sbb    $0xb,%al
 3d9:	00 00                	add    %al,(%eax)
 3db:	04 05                	add    $0x5,%al
 3dd:	00 03                	add    %al,(%ebx)
 3df:	0e                   	push   %cs
 3e0:	3a 21                	cmp    (%ecx),%ah
 3e2:	01 3b                	add    %edi,(%ebx)
 3e4:	0b 39                	or     (%ecx),%edi
 3e6:	0b 49 13             	or     0x13(%ecx),%ecx
 3e9:	02 18                	add    (%eax),%bl
 3eb:	00 00                	add    %al,(%eax)
 3ed:	05 16 00 03 0e       	add    $0xe030016,%eax
 3f2:	3a 0b                	cmp    (%ebx),%cl
 3f4:	3b 0b                	cmp    (%ebx),%ecx
 3f6:	39 0b                	cmp    %ecx,(%ebx)
 3f8:	49                   	dec    %ecx
 3f9:	13 00                	adc    (%eax),%eax
 3fb:	00 06                	add    %al,(%esi)
 3fd:	05 00 49 13 00       	add    $0x134900,%eax
 402:	00 07                	add    %al,(%edi)
 404:	05 00 03 08 3a       	add    $0x3a080300,%eax
 409:	21 01                	and    %eax,(%ecx)
 40b:	3b 0b                	cmp    (%ebx),%ecx
 40d:	39 0b                	cmp    %ecx,(%ebx)
 40f:	49                   	dec    %ecx
 410:	13 02                	adc    (%edx),%eax
 412:	18 00                	sbb    %al,(%eax)
 414:	00 08                	add    %cl,(%eax)
 416:	13 01                	adc    (%ecx),%eax
 418:	03 0e                	add    (%esi),%ecx
 41a:	0b 0b                	or     (%ebx),%ecx
 41c:	3a 21                	cmp    (%ecx),%ah
 41e:	03 3b                	add    (%ebx),%edi
 420:	0b 39                	or     (%ecx),%edi
 422:	21 08                	and    %ecx,(%eax)
 424:	01 13                	add    %edx,(%ebx)
 426:	00 00                	add    %al,(%eax)
 428:	09 2e                	or     %ebp,(%esi)
 42a:	01 3f                	add    %edi,(%edi)
 42c:	19 03                	sbb    %eax,(%ebx)
 42e:	0e                   	push   %cs
 42f:	3a 0b                	cmp    (%ebx),%cl
 431:	3b 0b                	cmp    (%ebx),%ecx
 433:	39 0b                	cmp    %ecx,(%ebx)
 435:	27                   	daa
 436:	19 3c 19             	sbb    %edi,(%ecx,%ebx,1)
 439:	01 13                	add    %edx,(%ebx)
 43b:	00 00                	add    %al,(%eax)
 43d:	0a 2e                	or     (%esi),%ch
 43f:	01 3f                	add    %edi,(%edi)
 441:	19 03                	sbb    %eax,(%ebx)
 443:	0e                   	push   %cs
 444:	3a 21                	cmp    (%ecx),%ah
 446:	01 3b                	add    %edi,(%ebx)
 448:	0b 39                	or     (%ecx),%edi
 44a:	21 06                	and    %eax,(%esi)
 44c:	27                   	daa
 44d:	19 11                	sbb    %edx,(%ecx)
 44f:	01 12                	add    %edx,(%edx)
 451:	06                   	push   %es
 452:	40                   	inc    %eax
 453:	18 7c 19 01          	sbb    %bh,0x1(%ecx,%ebx,1)
 457:	13 00                	adc    (%eax),%eax
 459:	00 0b                	add    %cl,(%ebx)
 45b:	2e 00 3f             	add    %bh,%cs:(%edi)
 45e:	19 03                	sbb    %eax,(%ebx)
 460:	0e                   	push   %cs
 461:	3a 21                	cmp    (%ecx),%ah
 463:	01 3b                	add    %edi,(%ebx)
 465:	0b 39                	or     (%ecx),%edi
 467:	21 06                	and    %eax,(%esi)
 469:	11 01                	adc    %eax,(%ecx)
 46b:	12 06                	adc    (%esi),%al
 46d:	40                   	inc    %eax
 46e:	18 7c 19 00          	sbb    %bh,0x0(%ecx,%ebx,1)
 472:	00 0c 11             	add    %cl,(%ecx,%edx,1)
 475:	01 25 0e 13 0b 03    	add    %esp,0x30b130e
 47b:	1f                   	pop    %ds
 47c:	1b 1f                	sbb    (%edi),%ebx
 47e:	11 01                	adc    %eax,(%ecx)
 480:	12 06                	adc    (%esi),%al
 482:	10 17                	adc    %dl,(%edi)
 484:	00 00                	add    %al,(%eax)
 486:	0d 24 00 0b 0b       	or     $0xb0b0024,%eax
 48b:	3e 0b 03             	or     %ds:(%ebx),%eax
 48e:	08 00                	or     %al,(%eax)
 490:	00 0e                	add    %cl,(%esi)
 492:	04 01                	add    $0x1,%al
 494:	3e 0b 0b             	or     %ds:(%ebx),%ecx
 497:	0b 49 13             	or     0x13(%ecx),%ecx
 49a:	3a 0b                	cmp    (%ebx),%cl
 49c:	3b 0b                	cmp    (%ebx),%ecx
 49e:	39 0b                	cmp    %ecx,(%ebx)
 4a0:	01 13                	add    %edx,(%ebx)
 4a2:	00 00                	add    %al,(%eax)
 4a4:	0f 34                	sysenter
 4a6:	00 03                	add    %al,(%ebx)
 4a8:	0e                   	push   %cs
 4a9:	3a 0b                	cmp    (%ebx),%cl
 4ab:	3b 0b                	cmp    (%ebx),%ecx
 4ad:	39 0b                	cmp    %ecx,(%ebx)
 4af:	49                   	dec    %ecx
 4b0:	13 3f                	adc    (%edi),%edi
 4b2:	19 02                	sbb    %eax,(%edx)
 4b4:	18 00                	sbb    %al,(%eax)
 4b6:	00 10                	add    %dl,(%eax)
 4b8:	01 01                	add    %eax,(%ecx)
 4ba:	49                   	dec    %ecx
 4bb:	13 01                	adc    (%ecx),%eax
 4bd:	13 00                	adc    (%eax),%eax
 4bf:	00 11                	add    %dl,(%ecx)
 4c1:	21 00                	and    %eax,(%eax)
 4c3:	49                   	dec    %ecx
 4c4:	13 2f                	adc    (%edi),%ebp
 4c6:	0b 00                	or     (%eax),%eax
 4c8:	00 12                	add    %dl,(%edx)
 4ca:	34 00                	xor    $0x0,%al
 4cc:	03 08                	add    (%eax),%ecx
 4ce:	3a 0b                	cmp    (%ebx),%cl
 4d0:	3b 0b                	cmp    (%ebx),%ecx
 4d2:	39 0b                	cmp    %ecx,(%ebx)
 4d4:	49                   	dec    %ecx
 4d5:	13 3f                	adc    (%edi),%edi
 4d7:	19 88 01 0b 02 18    	sbb    %ecx,0x18020b01(%eax)
 4dd:	00 00                	add    %al,(%eax)
 4df:	13 0f                	adc    (%edi),%ecx
 4e1:	00 0b                	add    %cl,(%ebx)
 4e3:	0b 00                	or     (%eax),%eax
 4e5:	00 14 0f             	add    %dl,(%edi,%ecx,1)
 4e8:	00 0b                	add    %cl,(%ebx)
 4ea:	0b 49 13             	or     0x13(%ecx),%ecx
 4ed:	00 00                	add    %al,(%eax)
 4ef:	15 2e 01 3f 19       	adc    $0x193f012e,%eax
 4f4:	03 0e                	add    (%esi),%ecx
 4f6:	3a 0b                	cmp    (%ebx),%cl
 4f8:	3b 0b                	cmp    (%ebx),%ecx
 4fa:	39 0b                	cmp    %ecx,(%ebx)
 4fc:	27                   	daa
 4fd:	19 11                	sbb    %edx,(%ecx)
 4ff:	01 12                	add    %edx,(%edx)
 501:	06                   	push   %es
 502:	40                   	inc    %eax
 503:	18 7a 19             	sbb    %bh,0x19(%edx)
 506:	01 13                	add    %edx,(%ebx)
 508:	00 00                	add    %al,(%eax)
 50a:	16                   	push   %ss
 50b:	2e 01 3f             	add    %edi,%cs:(%edi)
 50e:	19 03                	sbb    %eax,(%ebx)
 510:	0e                   	push   %cs
 511:	3a 0b                	cmp    (%ebx),%cl
 513:	3b 0b                	cmp    (%ebx),%ecx
 515:	39 0b                	cmp    %ecx,(%ebx)
 517:	27                   	daa
 518:	19 49 13             	sbb    %ecx,0x13(%ecx)
 51b:	11 01                	adc    %eax,(%ecx)
 51d:	12 06                	adc    (%esi),%al
 51f:	40                   	inc    %eax
 520:	18 7a 19             	sbb    %bh,0x19(%edx)
 523:	01 13                	add    %edx,(%ebx)
 525:	00 00                	add    %al,(%eax)
 527:	00 01                	add    %al,(%ecx)
 529:	2e 01 3f             	add    %edi,%cs:(%edi)
 52c:	19 03                	sbb    %eax,(%ebx)
 52e:	0e                   	push   %cs
 52f:	3a 21                	cmp    (%ecx),%ah
 531:	01 3b                	add    %edi,(%ebx)
 533:	0b 39                	or     (%ecx),%edi
 535:	21 0d 3c 19 01 13    	and    %ecx,0x1301193c
 53b:	00 00                	add    %al,(%eax)
 53d:	02 18                	add    (%eax),%bl
 53f:	00 00                	add    %al,(%eax)
 541:	00 03                	add    %al,(%ebx)
 543:	05 00 49 13 00       	add    $0x134900,%eax
 548:	00 04 05 00 03 08 3a 	add    %al,0x3a080300(,%eax,1)
 54f:	21 01                	and    %eax,(%ecx)
 551:	3b 0b                	cmp    (%ebx),%ecx
 553:	39 0b                	cmp    %ecx,(%ebx)
 555:	49                   	dec    %ecx
 556:	13 02                	adc    (%edx),%eax
 558:	18 00                	sbb    %al,(%eax)
 55a:	00 05 24 00 0b 0b    	add    %al,0xb0b0024
 560:	3e 0b 03             	or     %ds:(%ebx),%eax
 563:	0e                   	push   %cs
 564:	00 00                	add    %al,(%eax)
 566:	06                   	push   %es
 567:	16                   	push   %ss
 568:	00 03                	add    %al,(%ebx)
 56a:	0e                   	push   %cs
 56b:	3a 0b                	cmp    (%ebx),%cl
 56d:	3b 0b                	cmp    (%ebx),%ecx
 56f:	39 0b                	cmp    %ecx,(%ebx)
 571:	49                   	dec    %ecx
 572:	13 00                	adc    (%eax),%eax
 574:	00 07                	add    %al,(%edi)
 576:	0d 00 03 08 3a       	or     $0x3a080300,%eax
 57b:	0b 3b                	or     (%ebx),%edi
 57d:	0b 39                	or     (%ecx),%edi
 57f:	0b 49 13             	or     0x13(%ecx),%ecx
 582:	38 0b                	cmp    %cl,(%ebx)
 584:	00 00                	add    %al,(%eax)
 586:	08 0f                	or     %cl,(%edi)
 588:	00 0b                	add    %cl,(%ebx)
 58a:	21 04 49             	and    %eax,(%ecx,%ecx,2)
 58d:	13 00                	adc    (%eax),%eax
 58f:	00 09                	add    %cl,(%ecx)
 591:	34 00                	xor    $0x0,%al
 593:	03 0e                	add    (%esi),%ecx
 595:	3a 21                	cmp    (%ecx),%ah
 597:	01 3b                	add    %edi,(%ebx)
 599:	0b 39                	or     (%ecx),%edi
 59b:	0b 49 13             	or     0x13(%ecx),%ecx
 59e:	02 18                	add    (%eax),%bl
 5a0:	00 00                	add    %al,(%eax)
 5a2:	0a 0d 00 03 0e 3a    	or     0x3a0e0300,%cl
 5a8:	0b 3b                	or     (%ebx),%edi
 5aa:	0b 39                	or     (%ecx),%edi
 5ac:	0b 49 13             	or     0x13(%ecx),%ecx
 5af:	38 0b                	cmp    %cl,(%ebx)
 5b1:	00 00                	add    %al,(%eax)
 5b3:	0b 26                	or     (%esi),%esp
 5b5:	00 49 13             	add    %cl,0x13(%ecx)
 5b8:	00 00                	add    %al,(%eax)
 5ba:	0c 2e                	or     $0x2e,%al
 5bc:	01 3f                	add    %edi,(%edi)
 5be:	19 03                	sbb    %eax,(%ebx)
 5c0:	0e                   	push   %cs
 5c1:	3a 21                	cmp    (%ecx),%ah
 5c3:	01 3b                	add    %edi,(%ebx)
 5c5:	0b 39                	or     (%ecx),%edi
 5c7:	21 06                	and    %eax,(%esi)
 5c9:	27                   	daa
 5ca:	19 11                	sbb    %edx,(%ecx)
 5cc:	01 12                	add    %edx,(%edx)
 5ce:	06                   	push   %es
 5cf:	40                   	inc    %eax
 5d0:	18 7c 19 01          	sbb    %bh,0x1(%ecx,%ebx,1)
 5d4:	13 00                	adc    (%eax),%eax
 5d6:	00 0d 01 01 49 13    	add    %cl,0x13490101
 5dc:	01 13                	add    %edx,(%ebx)
 5de:	00 00                	add    %al,(%eax)
 5e0:	0e                   	push   %cs
 5e1:	21 00                	and    %eax,(%eax)
 5e3:	49                   	dec    %ecx
 5e4:	13 2f                	adc    (%edi),%ebp
 5e6:	0b 00                	or     (%eax),%eax
 5e8:	00 0f                	add    %cl,(%edi)
 5ea:	2e 01 3f             	add    %edi,%cs:(%edi)
 5ed:	19 03                	sbb    %eax,(%ebx)
 5ef:	0e                   	push   %cs
 5f0:	3a 0b                	cmp    (%ebx),%cl
 5f2:	3b 0b                	cmp    (%ebx),%ecx
 5f4:	39 0b                	cmp    %ecx,(%ebx)
 5f6:	27                   	daa
 5f7:	19 3c 19             	sbb    %edi,(%ecx,%ebx,1)
 5fa:	01 13                	add    %edx,(%ebx)
 5fc:	00 00                	add    %al,(%eax)
 5fe:	10 05 00 03 0e 3a    	adc    %al,0x3a0e0300
 604:	21 01                	and    %eax,(%ecx)
 606:	3b 0b                	cmp    (%ebx),%ecx
 608:	39 0b                	cmp    %ecx,(%ebx)
 60a:	49                   	dec    %ecx
 60b:	13 02                	adc    (%edx),%eax
 60d:	18 00                	sbb    %al,(%eax)
 60f:	00 11                	add    %dl,(%ecx)
 611:	2e 00 3f             	add    %bh,%cs:(%edi)
 614:	19 03                	sbb    %eax,(%ebx)
 616:	0e                   	push   %cs
 617:	3a 21                	cmp    (%ecx),%ah
 619:	01 3b                	add    %edi,(%ebx)
 61b:	0b 39                	or     (%ecx),%edi
 61d:	21 06                	and    %eax,(%esi)
 61f:	11 01                	adc    %eax,(%ecx)
 621:	12 06                	adc    (%esi),%al
 623:	40                   	inc    %eax
 624:	18 7c 19 00          	sbb    %bh,0x0(%ecx,%ebx,1)
 628:	00 12                	add    %dl,(%edx)
 62a:	13 01                	adc    (%ecx),%eax
 62c:	03 0e                	add    (%esi),%ecx
 62e:	0b 0b                	or     (%ebx),%ecx
 630:	3a 0b                	cmp    (%ebx),%cl
 632:	3b 0b                	cmp    (%ebx),%ecx
 634:	39 21                	cmp    %esp,(%ecx)
 636:	08 01                	or     %al,(%ecx)
 638:	13 00                	adc    (%eax),%eax
 63a:	00 13                	add    %dl,(%ebx)
 63c:	34 00                	xor    $0x0,%al
 63e:	03 0e                	add    (%esi),%ecx
 640:	3a 21                	cmp    (%ecx),%ah
 642:	01 3b                	add    %edi,(%ebx)
 644:	0b 39                	or     (%ecx),%edi
 646:	0b 49 13             	or     0x13(%ecx),%ecx
 649:	3f                   	aas
 64a:	19 02                	sbb    %eax,(%edx)
 64c:	18 00                	sbb    %al,(%eax)
 64e:	00 14 2e             	add    %dl,(%esi,%ebp,1)
 651:	01 3f                	add    %edi,(%edi)
 653:	19 03                	sbb    %eax,(%ebx)
 655:	0e                   	push   %cs
 656:	3a 21                	cmp    (%ecx),%ah
 658:	01 3b                	add    %edi,(%ebx)
 65a:	0b 39                	or     (%ecx),%edi
 65c:	21 09                	and    %ecx,(%ecx)
 65e:	27                   	daa
 65f:	19 49 13             	sbb    %ecx,0x13(%ecx)
 662:	11 01                	adc    %eax,(%ecx)
 664:	12 06                	adc    (%esi),%al
 666:	40                   	inc    %eax
 667:	18 7a 19             	sbb    %bh,0x19(%edx)
 66a:	01 13                	add    %edx,(%ebx)
 66c:	00 00                	add    %al,(%eax)
 66e:	15 11 01 25 0e       	adc    $0xe250111,%eax
 673:	13 0b                	adc    (%ebx),%ecx
 675:	03 1f                	add    (%edi),%ebx
 677:	1b 1f                	sbb    (%edi),%ebx
 679:	11 01                	adc    %eax,(%ecx)
 67b:	12 06                	adc    (%esi),%al
 67d:	10 17                	adc    %dl,(%edi)
 67f:	00 00                	add    %al,(%eax)
 681:	16                   	push   %ss
 682:	24 00                	and    $0x0,%al
 684:	0b 0b                	or     (%ebx),%ecx
 686:	3e 0b 03             	or     %ds:(%ebx),%eax
 689:	08 00                	or     %al,(%eax)
 68b:	00 17                	add    %dl,(%edi)
 68d:	13 01                	adc    (%ecx),%eax
 68f:	0b 0b                	or     (%ebx),%ecx
 691:	3a 0b                	cmp    (%ebx),%cl
 693:	3b 0b                	cmp    (%ebx),%ecx
 695:	39 0b                	cmp    %ecx,(%ebx)
 697:	01 13                	add    %edx,(%ebx)
 699:	00 00                	add    %al,(%eax)
 69b:	18 0f                	sbb    %cl,(%edi)
 69d:	00 0b                	add    %cl,(%ebx)
 69f:	0b 00                	or     (%eax),%eax
 6a1:	00 19                	add    %bl,(%ecx)
 6a3:	15 01 27 19 01       	adc    $0x1192701,%eax
 6a8:	13 00                	adc    (%eax),%eax
 6aa:	00 1a                	add    %bl,(%edx)
 6ac:	15 00 27 19 00       	adc    $0x192700,%eax
 6b1:	00 1b                	add    %bl,(%ebx)
 6b3:	2e 01 3f             	add    %edi,%cs:(%edi)
 6b6:	19 03                	sbb    %eax,(%ebx)
 6b8:	0e                   	push   %cs
 6b9:	3a 0b                	cmp    (%ebx),%cl
 6bb:	3b 0b                	cmp    (%ebx),%ecx
 6bd:	39 0b                	cmp    %ecx,(%ebx)
 6bf:	27                   	daa
 6c0:	19 49 13             	sbb    %ecx,0x13(%ecx)
 6c3:	3c 19                	cmp    $0x19,%al
 6c5:	01 13                	add    %edx,(%ebx)
 6c7:	00 00                	add    %al,(%eax)
 6c9:	1c 0b                	sbb    $0xb,%al
 6cb:	01 11                	add    %edx,(%ecx)
 6cd:	01 12                	add    %edx,(%edx)
 6cf:	06                   	push   %es
 6d0:	00 00                	add    %al,(%eax)
 6d2:	1d 34 00 03 08       	sbb    $0x8030034,%eax
 6d7:	3a 0b                	cmp    (%ebx),%cl
 6d9:	3b 0b                	cmp    (%ebx),%ecx
 6db:	39 0b                	cmp    %ecx,(%ebx)
 6dd:	49                   	dec    %ecx
 6de:	13 02                	adc    (%edx),%eax
 6e0:	18 00                	sbb    %al,(%eax)
 6e2:	00 00                	add    %al,(%eax)
 6e4:	01 24 00             	add    %esp,(%eax,%eax,1)
 6e7:	0b 0b                	or     (%ebx),%ecx
 6e9:	3e 0b 03             	or     %ds:(%ebx),%eax
 6ec:	0e                   	push   %cs
 6ed:	00 00                	add    %al,(%eax)
 6ef:	02 28                	add    (%eax),%ch
 6f1:	00 03                	add    %al,(%ebx)
 6f3:	0e                   	push   %cs
 6f4:	1c 0b                	sbb    $0xb,%al
 6f6:	00 00                	add    %al,(%eax)
 6f8:	03 0d 00 03 0e 3a    	add    0x3a0e0300,%ecx
 6fe:	0b 3b                	or     (%ebx),%edi
 700:	0b 39                	or     (%ecx),%edi
 702:	0b 49 13             	or     0x13(%ecx),%ecx
 705:	38 0b                	cmp    %cl,(%ebx)
 707:	00 00                	add    %al,(%eax)
 709:	04 16                	add    $0x16,%al
 70b:	00 03                	add    %al,(%ebx)
 70d:	0e                   	push   %cs
 70e:	3a 0b                	cmp    (%ebx),%cl
 710:	3b 0b                	cmp    (%ebx),%ecx
 712:	39 0b                	cmp    %ecx,(%ebx)
 714:	49                   	dec    %ecx
 715:	13 00                	adc    (%eax),%eax
 717:	00 05 05 00 49 13    	add    %al,0x13490005
 71d:	00 00                	add    %al,(%eax)
 71f:	06                   	push   %es
 720:	05 00 03 0e 3a       	add    $0x3a0e0300,%eax
 725:	21 01                	and    %eax,(%ecx)
 727:	3b 0b                	cmp    (%ebx),%ecx
 729:	39 0b                	cmp    %ecx,(%ebx)
 72b:	49                   	dec    %ecx
 72c:	13 02                	adc    (%edx),%eax
 72e:	18 00                	sbb    %al,(%eax)
 730:	00 07                	add    %al,(%edi)
 732:	13 01                	adc    (%ecx),%eax
 734:	03 0e                	add    (%esi),%ecx
 736:	0b 0b                	or     (%ebx),%ecx
 738:	3a 0b                	cmp    (%ebx),%cl
 73a:	3b 0b                	cmp    (%ebx),%ecx
 73c:	39 21                	cmp    %esp,(%ecx)
 73e:	08 01                	or     %al,(%ecx)
 740:	13 00                	adc    (%eax),%eax
 742:	00 08                	add    %cl,(%eax)
 744:	0d 00 03 08 3a       	or     $0x3a080300,%eax
 749:	0b 3b                	or     (%ebx),%edi
 74b:	0b 39                	or     (%ecx),%edi
 74d:	0b 49 13             	or     0x13(%ecx),%ecx
 750:	38 0b                	cmp    %cl,(%ebx)
 752:	00 00                	add    %al,(%eax)
 754:	09 0f                	or     %ecx,(%edi)
 756:	00 0b                	add    %cl,(%ebx)
 758:	21 04 49             	and    %eax,(%ecx,%ecx,2)
 75b:	13 00                	adc    (%eax),%eax
 75d:	00 0a                	add    %cl,(%edx)
 75f:	2e 01 3f             	add    %edi,%cs:(%edi)
 762:	19 03                	sbb    %eax,(%ebx)
 764:	0e                   	push   %cs
 765:	3a 0b                	cmp    (%ebx),%cl
 767:	3b 0b                	cmp    (%ebx),%ecx
 769:	39 0b                	cmp    %ecx,(%ebx)
 76b:	27                   	daa
 76c:	19 3c 19             	sbb    %edi,(%ecx,%ebx,1)
 76f:	01 13                	add    %edx,(%ebx)
 771:	00 00                	add    %al,(%eax)
 773:	0b 34 00             	or     (%eax,%eax,1),%esi
 776:	03 08                	add    (%eax),%ecx
 778:	3a 21                	cmp    (%ecx),%ah
 77a:	01 3b                	add    %edi,(%ebx)
 77c:	0b 39                	or     (%ecx),%edi
 77e:	0b 49 13             	or     0x13(%ecx),%ecx
 781:	02 18                	add    (%eax),%bl
 783:	00 00                	add    %al,(%eax)
 785:	0c 2e                	or     $0x2e,%al
 787:	00 3f                	add    %bh,(%edi)
 789:	19 03                	sbb    %eax,(%ebx)
 78b:	0e                   	push   %cs
 78c:	3a 21                	cmp    (%ecx),%ah
 78e:	01 3b                	add    %edi,(%ebx)
 790:	0b 39                	or     (%ecx),%edi
 792:	21 06                	and    %eax,(%esi)
 794:	11 01                	adc    %eax,(%ecx)
 796:	12 06                	adc    (%esi),%al
 798:	40                   	inc    %eax
 799:	18 7c 19 00          	sbb    %bh,0x0(%ecx,%ebx,1)
 79d:	00 0d 11 01 25 0e    	add    %cl,0xe250111
 7a3:	13 0b                	adc    (%ebx),%ecx
 7a5:	03 1f                	add    (%edi),%ebx
 7a7:	1b 1f                	sbb    (%edi),%ebx
 7a9:	11 01                	adc    %eax,(%ecx)
 7ab:	12 06                	adc    (%esi),%al
 7ad:	10 17                	adc    %dl,(%edi)
 7af:	00 00                	add    %al,(%eax)
 7b1:	0e                   	push   %cs
 7b2:	24 00                	and    $0x0,%al
 7b4:	0b 0b                	or     (%ebx),%ecx
 7b6:	3e 0b 03             	or     %ds:(%ebx),%eax
 7b9:	08 00                	or     %al,(%eax)
 7bb:	00 0f                	add    %cl,(%edi)
 7bd:	26 00 49 13          	add    %cl,%es:0x13(%ecx)
 7c1:	00 00                	add    %al,(%eax)
 7c3:	10 15 00 27 19 00    	adc    %dl,0x192700
 7c9:	00 11                	add    %dl,(%ecx)
 7cb:	04 01                	add    $0x1,%al
 7cd:	3e 0b 0b             	or     %ds:(%ebx),%ecx
 7d0:	0b 49 13             	or     0x13(%ecx),%ecx
 7d3:	3a 0b                	cmp    (%ebx),%cl
 7d5:	3b 0b                	cmp    (%ebx),%ecx
 7d7:	39 0b                	cmp    %ecx,(%ebx)
 7d9:	01 13                	add    %edx,(%ebx)
 7db:	00 00                	add    %al,(%eax)
 7dd:	12 34 00             	adc    (%eax,%eax,1),%dh
 7e0:	03 0e                	add    (%esi),%ecx
 7e2:	3a 0b                	cmp    (%ebx),%cl
 7e4:	3b 0b                	cmp    (%ebx),%ecx
 7e6:	39 0b                	cmp    %ecx,(%ebx)
 7e8:	49                   	dec    %ecx
 7e9:	13 3f                	adc    (%edi),%edi
 7eb:	19 02                	sbb    %eax,(%edx)
 7ed:	18 00                	sbb    %al,(%eax)
 7ef:	00 13                	add    %dl,(%ebx)
 7f1:	01 01                	add    %eax,(%ecx)
 7f3:	49                   	dec    %ecx
 7f4:	13 01                	adc    (%ecx),%eax
 7f6:	13 00                	adc    (%eax),%eax
 7f8:	00 14 21             	add    %dl,(%ecx,%eiz,1)
 7fb:	00 49 13             	add    %cl,0x13(%ecx)
 7fe:	2f                   	das
 7ff:	0b 00                	or     (%eax),%eax
 801:	00 15 34 00 03 08    	add    %dl,0x8030034
 807:	3a 0b                	cmp    (%ebx),%cl
 809:	3b 0b                	cmp    (%ebx),%ecx
 80b:	39 0b                	cmp    %ecx,(%ebx)
 80d:	49                   	dec    %ecx
 80e:	13 3f                	adc    (%edi),%edi
 810:	19 88 01 0b 02 18    	sbb    %ecx,0x18020b01(%eax)
 816:	00 00                	add    %al,(%eax)
 818:	16                   	push   %ss
 819:	0f 00 0b             	str    (%ebx)
 81c:	0b 00                	or     (%eax),%eax
 81e:	00 17                	add    %dl,(%edi)
 820:	2e 01 3f             	add    %edi,%cs:(%edi)
 823:	19 03                	sbb    %eax,(%ebx)
 825:	0e                   	push   %cs
 826:	3a 0b                	cmp    (%ebx),%cl
 828:	3b 0b                	cmp    (%ebx),%ecx
 82a:	39 0b                	cmp    %ecx,(%ebx)
 82c:	27                   	daa
 82d:	19 11                	sbb    %edx,(%ecx)
 82f:	01 12                	add    %edx,(%edx)
 831:	06                   	push   %es
 832:	40                   	inc    %eax
 833:	18 7c 19 01          	sbb    %bh,0x1(%ecx,%ebx,1)
 837:	13 00                	adc    (%eax),%eax
 839:	00 18                	add    %bl,(%eax)
 83b:	0b 01                	or     (%ecx),%eax
 83d:	11 01                	adc    %eax,(%ecx)
 83f:	12 06                	adc    (%esi),%al
 841:	00 00                	add    %al,(%eax)
 843:	19 2e                	sbb    %ebp,(%esi)
 845:	01 3f                	add    %edi,(%edi)
 847:	19 03                	sbb    %eax,(%ebx)
 849:	0e                   	push   %cs
 84a:	3a 0b                	cmp    (%ebx),%cl
 84c:	3b 0b                	cmp    (%ebx),%ecx
 84e:	39 0b                	cmp    %ecx,(%ebx)
 850:	27                   	daa
 851:	19 11                	sbb    %edx,(%ecx)
 853:	01 12                	add    %edx,(%edx)
 855:	06                   	push   %es
 856:	40                   	inc    %eax
 857:	18 7a 19             	sbb    %bh,0x19(%edx)
 85a:	01 13                	add    %edx,(%ebx)
 85c:	00 00                	add    %al,(%eax)
 85e:	1a 05 00 03 08 3a    	sbb    0x3a080300,%al
 864:	0b 3b                	or     (%ebx),%edi
 866:	0b 39                	or     (%ecx),%edi
 868:	0b 49 13             	or     0x13(%ecx),%ecx
 86b:	02 18                	add    (%eax),%bl
 86d:	00 00                	add    %al,(%eax)
 86f:	00 01                	add    %al,(%ecx)
 871:	0d 00 03 0e 3a       	or     $0x3a0e0300,%eax
 876:	21 03                	and    %eax,(%ebx)
 878:	3b 0b                	cmp    (%ebx),%ecx
 87a:	39 0b                	cmp    %ecx,(%ebx)
 87c:	49                   	dec    %ecx
 87d:	13 38                	adc    (%eax),%edi
 87f:	0b 00                	or     (%eax),%eax
 881:	00 02                	add    %al,(%edx)
 883:	24 00                	and    $0x0,%al
 885:	0b 0b                	or     (%ebx),%ecx
 887:	3e 0b 03             	or     %ds:(%ebx),%eax
 88a:	0e                   	push   %cs
 88b:	00 00                	add    %al,(%eax)
 88d:	03 16                	add    (%esi),%edx
 88f:	00 03                	add    %al,(%ebx)
 891:	0e                   	push   %cs
 892:	3a 0b                	cmp    (%ebx),%cl
 894:	3b 0b                	cmp    (%ebx),%ecx
 896:	39 0b                	cmp    %ecx,(%ebx)
 898:	49                   	dec    %ecx
 899:	13 00                	adc    (%eax),%eax
 89b:	00 04 34             	add    %al,(%esp,%esi,1)
 89e:	00 03                	add    %al,(%ebx)
 8a0:	0e                   	push   %cs
 8a1:	3a 21                	cmp    (%ecx),%ah
 8a3:	01 3b                	add    %edi,(%ebx)
 8a5:	0b 39                	or     (%ecx),%edi
 8a7:	0b 49 13             	or     0x13(%ecx),%ecx
 8aa:	02 18                	add    (%eax),%bl
 8ac:	00 00                	add    %al,(%eax)
 8ae:	05 0d 00 03 0e       	add    $0xe03000d,%eax
 8b3:	3a 21                	cmp    (%ecx),%ah
 8b5:	03 3b                	add    (%ebx),%edi
 8b7:	0b 39                	or     (%ecx),%edi
 8b9:	0b 49 13             	or     0x13(%ecx),%ecx
 8bc:	38 05 00 00 06 34    	cmp    %al,0x34060000
 8c2:	00 03                	add    %al,(%ebx)
 8c4:	0e                   	push   %cs
 8c5:	3a 21                	cmp    (%ecx),%ah
 8c7:	04 3b                	add    $0x3b,%al
 8c9:	0b 39                	or     (%ecx),%edi
 8cb:	21 0e                	and    %ecx,(%esi)
 8cd:	49                   	dec    %ecx
 8ce:	13 3f                	adc    (%edi),%edi
 8d0:	19 3c 19             	sbb    %edi,(%ecx,%ebx,1)
 8d3:	00 00                	add    %al,(%eax)
 8d5:	07                   	pop    %es
 8d6:	05 00 03 0e 3a       	add    $0x3a0e0300,%eax
 8db:	21 01                	and    %eax,(%ecx)
 8dd:	3b 0b                	cmp    (%ebx),%ecx
 8df:	39 0b                	cmp    %ecx,(%ebx)
 8e1:	49                   	dec    %ecx
 8e2:	13 02                	adc    (%edx),%eax
 8e4:	18 00                	sbb    %al,(%eax)
 8e6:	00 08                	add    %cl,(%eax)
 8e8:	13 01                	adc    (%ecx),%eax
 8ea:	0b 0b                	or     (%ebx),%ecx
 8ec:	3a 21                	cmp    (%ecx),%ah
 8ee:	03 3b                	add    (%ebx),%edi
 8f0:	0b 39                	or     (%ecx),%edi
 8f2:	21 09                	and    %ecx,(%ecx)
 8f4:	01 13                	add    %edx,(%ebx)
 8f6:	00 00                	add    %al,(%eax)
 8f8:	09 0d 00 03 08 3a    	or     %ecx,0x3a080300
 8fe:	21 03                	and    %eax,(%ebx)
 900:	3b 0b                	cmp    (%ebx),%ecx
 902:	39 21                	cmp    %esp,(%ecx)
 904:	0e                   	push   %cs
 905:	49                   	dec    %ecx
 906:	13 38                	adc    (%eax),%edi
 908:	0b 00                	or     (%eax),%eax
 90a:	00 0a                	add    %cl,(%edx)
 90c:	0f 00 0b             	str    (%ebx)
 90f:	21 04 49             	and    %eax,(%ecx,%ecx,2)
 912:	13 00                	adc    (%eax),%eax
 914:	00 0b                	add    %cl,(%ebx)
 916:	2e 01 3f             	add    %edi,%cs:(%edi)
 919:	19 03                	sbb    %eax,(%ebx)
 91b:	0e                   	push   %cs
 91c:	3a 21                	cmp    (%ecx),%ah
 91e:	01 3b                	add    %edi,(%ebx)
 920:	0b 39                	or     (%ecx),%edi
 922:	21 06                	and    %eax,(%esi)
 924:	27                   	daa
 925:	19 11                	sbb    %edx,(%ecx)
 927:	01 12                	add    %edx,(%edx)
 929:	06                   	push   %es
 92a:	40                   	inc    %eax
 92b:	18 7a 19             	sbb    %bh,0x19(%edx)
 92e:	01 13                	add    %edx,(%ebx)
 930:	00 00                	add    %al,(%eax)
 932:	0c 34                	or     $0x34,%al
 934:	00 03                	add    %al,(%ebx)
 936:	08 3a                	or     %bh,(%edx)
 938:	21 01                	and    %eax,(%ecx)
 93a:	3b 0b                	cmp    (%ebx),%ecx
 93c:	39 0b                	cmp    %ecx,(%ebx)
 93e:	49                   	dec    %ecx
 93f:	13 02                	adc    (%edx),%eax
 941:	18 00                	sbb    %al,(%eax)
 943:	00 0d 0b 01 11 01    	add    %cl,0x111010b
 949:	12 06                	adc    (%esi),%al
 94b:	00 00                	add    %al,(%eax)
 94d:	0e                   	push   %cs
 94e:	11 01                	adc    %eax,(%ecx)
 950:	25 0e 13 0b 03       	and    $0x30b130e,%eax
 955:	1f                   	pop    %ds
 956:	1b 1f                	sbb    (%edi),%ebx
 958:	11 01                	adc    %eax,(%ecx)
 95a:	12 06                	adc    (%esi),%al
 95c:	10 17                	adc    %dl,(%edi)
 95e:	00 00                	add    %al,(%eax)
 960:	0f 24 00             	mov    %tr0,%eax
 963:	0b 0b                	or     (%ebx),%ecx
 965:	3e 0b 03             	or     %ds:(%ebx),%eax
 968:	08 00                	or     %al,(%eax)
 96a:	00 10                	add    %dl,(%eax)
 96c:	13 01                	adc    (%ecx),%eax
 96e:	0b 05 3a 0b 3b 0b    	or     0xb3b0b3a,%eax
 974:	39 0b                	cmp    %ecx,(%ebx)
 976:	01 13                	add    %edx,(%ebx)
 978:	00 00                	add    %al,(%eax)
 97a:	11 01                	adc    %eax,(%ecx)
 97c:	01 49 13             	add    %ecx,0x13(%ecx)
 97f:	01 13                	add    %edx,(%ebx)
 981:	00 00                	add    %al,(%eax)
 983:	12 21                	adc    (%ecx),%ah
 985:	00 49 13             	add    %cl,0x13(%ecx)
 988:	2f                   	das
 989:	0b 00                	or     (%eax),%eax
 98b:	00 13                	add    %dl,(%ebx)
 98d:	0f 00 0b             	str    (%ebx)
 990:	0b 00                	or     (%eax),%eax
 992:	00 14 2e             	add    %dl,(%esi,%ebp,1)
 995:	01 3f                	add    %edi,(%edi)
 997:	19 03                	sbb    %eax,(%ebx)
 999:	0e                   	push   %cs
 99a:	3a 0b                	cmp    (%ebx),%cl
 99c:	3b 0b                	cmp    (%ebx),%ecx
 99e:	39 0b                	cmp    %ecx,(%ebx)
 9a0:	27                   	daa
 9a1:	19 3c 19             	sbb    %edi,(%ecx,%ebx,1)
 9a4:	01 13                	add    %edx,(%ebx)
 9a6:	00 00                	add    %al,(%eax)
 9a8:	15 05 00 49 13       	adc    $0x13490005,%eax
 9ad:	00 00                	add    %al,(%eax)
 9af:	16                   	push   %ss
 9b0:	2e 01 3f             	add    %edi,%cs:(%edi)
 9b3:	19 03                	sbb    %eax,(%ebx)
 9b5:	0e                   	push   %cs
 9b6:	3a 0b                	cmp    (%ebx),%cl
 9b8:	3b 0b                	cmp    (%ebx),%ecx
 9ba:	39 0b                	cmp    %ecx,(%ebx)
 9bc:	27                   	daa
 9bd:	19 11                	sbb    %edx,(%ecx)
 9bf:	01 12                	add    %edx,(%edx)
 9c1:	06                   	push   %es
 9c2:	40                   	inc    %eax
 9c3:	18 7c 19 00          	sbb    %bh,0x0(%ecx,%ebx,1)
 9c7:	00 00                	add    %al,(%eax)
 9c9:	01 28                	add    %ebp,(%eax)
 9cb:	00 03                	add    %al,(%ebx)
 9cd:	0e                   	push   %cs
 9ce:	1c 0b                	sbb    $0xb,%al
 9d0:	00 00                	add    %al,(%eax)
 9d2:	02 0d 00 03 08 3a    	add    0x3a080300,%cl
 9d8:	21 03                	and    %eax,(%ebx)
 9da:	3b 0b                	cmp    (%ebx),%ecx
 9dc:	39 21                	cmp    %esp,(%ecx)
 9de:	13 49 13             	adc    0x13(%ecx),%ecx
 9e1:	38 0b                	cmp    %cl,(%ebx)
 9e3:	00 00                	add    %al,(%eax)
 9e5:	03 0d 00 03 0e 3a    	add    0x3a0e0300,%ecx
 9eb:	21 03                	and    %eax,(%ebx)
 9ed:	3b 0b                	cmp    (%ebx),%ecx
 9ef:	39 0b                	cmp    %ecx,(%ebx)
 9f1:	49                   	dec    %ecx
 9f2:	13 38                	adc    (%eax),%edi
 9f4:	0b 00                	or     (%eax),%eax
 9f6:	00 04 16             	add    %al,(%esi,%edx,1)
 9f9:	00 03                	add    %al,(%ebx)
 9fb:	0e                   	push   %cs
 9fc:	3a 0b                	cmp    (%ebx),%cl
 9fe:	3b 0b                	cmp    (%ebx),%ecx
 a00:	39 0b                	cmp    %ecx,(%ebx)
 a02:	49                   	dec    %ecx
 a03:	13 00                	adc    (%eax),%eax
 a05:	00 05 05 00 49 13    	add    %al,0x13490005
 a0b:	00 00                	add    %al,(%eax)
 a0d:	06                   	push   %es
 a0e:	24 00                	and    $0x0,%al
 a10:	0b 0b                	or     (%ebx),%ecx
 a12:	3e 0b 03             	or     %ds:(%ebx),%eax
 a15:	0e                   	push   %cs
 a16:	00 00                	add    %al,(%eax)
 a18:	07                   	pop    %es
 a19:	18 00                	sbb    %al,(%eax)
 a1b:	00 00                	add    %al,(%eax)
 a1d:	08 13                	or     %dl,(%ebx)
 a1f:	01 03                	add    %eax,(%ebx)
 a21:	0e                   	push   %cs
 a22:	0b 0b                	or     (%ebx),%ecx
 a24:	3a 21                	cmp    (%ecx),%ah
 a26:	03 3b                	add    (%ebx),%edi
 a28:	0b 39                	or     (%ecx),%edi
 a2a:	21 08                	and    %ecx,(%eax)
 a2c:	01 13                	add    %edx,(%ebx)
 a2e:	00 00                	add    %al,(%eax)
 a30:	09 04 01             	or     %eax,(%ecx,%eax,1)
 a33:	3e 21 07             	and    %eax,%ds:(%edi)
 a36:	0b 21                	or     (%ecx),%esp
 a38:	04 49                	add    $0x49,%al
 a3a:	13 3a                	adc    (%edx),%edi
 a3c:	0b 3b                	or     (%ebx),%edi
 a3e:	0b 39                	or     (%ecx),%edi
 a40:	0b 01                	or     (%ecx),%eax
 a42:	13 00                	adc    (%eax),%eax
 a44:	00 0a                	add    %cl,(%edx)
 a46:	0f 00 0b             	str    (%ebx)
 a49:	21 04 49             	and    %eax,(%ecx,%ecx,2)
 a4c:	13 00                	adc    (%eax),%eax
 a4e:	00 0b                	add    %cl,(%ebx)
 a50:	2e 01 3f             	add    %edi,%cs:(%edi)
 a53:	19 03                	sbb    %eax,(%ebx)
 a55:	0e                   	push   %cs
 a56:	3a 21                	cmp    (%ecx),%ah
 a58:	01 3b                	add    %edi,(%ebx)
 a5a:	0b 39                	or     (%ecx),%edi
 a5c:	21 09                	and    %ecx,(%ecx)
 a5e:	49                   	dec    %ecx
 a5f:	13 3c 19             	adc    (%ecx,%ebx,1),%edi
 a62:	01 13                	add    %edx,(%ebx)
 a64:	00 00                	add    %al,(%eax)
 a66:	0c 34                	or     $0x34,%al
 a68:	00 03                	add    %al,(%ebx)
 a6a:	08 3a                	or     %bh,(%edx)
 a6c:	21 01                	and    %eax,(%ecx)
 a6e:	3b 0b                	cmp    (%ebx),%ecx
 a70:	39 0b                	cmp    %ecx,(%ebx)
 a72:	49                   	dec    %ecx
 a73:	13 02                	adc    (%edx),%eax
 a75:	18 00                	sbb    %al,(%eax)
 a77:	00 0d 01 01 49 13    	add    %cl,0x13490101
 a7d:	01 13                	add    %edx,(%ebx)
 a7f:	00 00                	add    %al,(%eax)
 a81:	0e                   	push   %cs
 a82:	21 00                	and    %eax,(%eax)
 a84:	49                   	dec    %ecx
 a85:	13 2f                	adc    (%edi),%ebp
 a87:	21 0f                	and    %ecx,(%edi)
 a89:	00 00                	add    %al,(%eax)
 a8b:	0f 2e 01             	ucomiss (%ecx),%xmm0
 a8e:	3f                   	aas
 a8f:	19 03                	sbb    %eax,(%ebx)
 a91:	0e                   	push   %cs
 a92:	3a 0b                	cmp    (%ebx),%cl
 a94:	3b 0b                	cmp    (%ebx),%ecx
 a96:	39 21                	cmp    %esp,(%ecx)
 a98:	06                   	push   %es
 a99:	27                   	daa
 a9a:	19 3c 19             	sbb    %edi,(%ecx,%ebx,1)
 a9d:	01 13                	add    %edx,(%ebx)
 a9f:	00 00                	add    %al,(%eax)
 aa1:	10 2e                	adc    %ch,(%esi)
 aa3:	01 3f                	add    %edi,(%edi)
 aa5:	19 03                	sbb    %eax,(%ebx)
 aa7:	0e                   	push   %cs
 aa8:	3a 0b                	cmp    (%ebx),%cl
 aaa:	3b 0b                	cmp    (%ebx),%ecx
 aac:	39 0b                	cmp    %ecx,(%ebx)
 aae:	27                   	daa
 aaf:	19 49 13             	sbb    %ecx,0x13(%ecx)
 ab2:	3c 19                	cmp    $0x19,%al
 ab4:	01 13                	add    %edx,(%ebx)
 ab6:	00 00                	add    %al,(%eax)
 ab8:	11 05 00 03 08 3a    	adc    %eax,0x3a080300
 abe:	21 01                	and    %eax,(%ecx)
 ac0:	3b 0b                	cmp    (%ebx),%ecx
 ac2:	39 0b                	cmp    %ecx,(%ebx)
 ac4:	49                   	dec    %ecx
 ac5:	13 02                	adc    (%edx),%eax
 ac7:	18 00                	sbb    %al,(%eax)
 ac9:	00 12                	add    %dl,(%edx)
 acb:	2e 01 3f             	add    %edi,%cs:(%edi)
 ace:	19 03                	sbb    %eax,(%ebx)
 ad0:	0e                   	push   %cs
 ad1:	3a 21                	cmp    (%ecx),%ah
 ad3:	01 3b                	add    %edi,(%ebx)
 ad5:	0b 39                	or     (%ecx),%edi
 ad7:	21 09                	and    %ecx,(%ecx)
 ad9:	49                   	dec    %ecx
 ada:	13 3c 19             	adc    (%ecx,%ebx,1),%edi
 add:	00 00                	add    %al,(%eax)
 adf:	13 34 00             	adc    (%eax,%eax,1),%esi
 ae2:	03 0e                	add    (%esi),%ecx
 ae4:	3a 21                	cmp    (%ecx),%ah
 ae6:	01 3b                	add    %edi,(%ebx)
 ae8:	0b 39                	or     (%ecx),%edi
 aea:	0b 49 13             	or     0x13(%ecx),%ecx
 aed:	02 18                	add    (%eax),%bl
 aef:	00 00                	add    %al,(%eax)
 af1:	14 11                	adc    $0x11,%al
 af3:	01 25 0e 13 0b 03    	add    %esp,0x30b130e
 af9:	1f                   	pop    %ds
 afa:	1b 1f                	sbb    (%edi),%ebx
 afc:	11 01                	adc    %eax,(%ecx)
 afe:	12 06                	adc    (%esi),%al
 b00:	10 17                	adc    %dl,(%edi)
 b02:	00 00                	add    %al,(%eax)
 b04:	15 24 00 0b 0b       	adc    $0xb0b0024,%eax
 b09:	3e 0b 03             	or     %ds:(%ebx),%eax
 b0c:	08 00                	or     %al,(%eax)
 b0e:	00 16                	add    %dl,(%esi)
 b10:	34 00                	xor    $0x0,%al
 b12:	03 08                	add    (%eax),%ecx
 b14:	3a 0b                	cmp    (%ebx),%cl
 b16:	3b 0b                	cmp    (%ebx),%ecx
 b18:	39 0b                	cmp    %ecx,(%ebx)
 b1a:	49                   	dec    %ecx
 b1b:	13 3f                	adc    (%edi),%edi
 b1d:	19 88 01 0b 02 18    	sbb    %ecx,0x18020b01(%eax)
 b23:	00 00                	add    %al,(%eax)
 b25:	17                   	pop    %ss
 b26:	34 00                	xor    $0x0,%al
 b28:	03 0e                	add    (%esi),%ecx
 b2a:	3a 0b                	cmp    (%ebx),%cl
 b2c:	3b 0b                	cmp    (%ebx),%ecx
 b2e:	39 0b                	cmp    %ecx,(%ebx)
 b30:	49                   	dec    %ecx
 b31:	13 3f                	adc    (%edi),%edi
 b33:	19 88 01 0b 02 18    	sbb    %ecx,0x18020b01(%eax)
 b39:	00 00                	add    %al,(%eax)
 b3b:	18 34 00             	sbb    %dh,(%eax,%eax,1)
 b3e:	03 0e                	add    (%esi),%ecx
 b40:	3a 0b                	cmp    (%ebx),%cl
 b42:	3b 0b                	cmp    (%ebx),%ecx
 b44:	39 0b                	cmp    %ecx,(%ebx)
 b46:	49                   	dec    %ecx
 b47:	13 3f                	adc    (%edi),%edi
 b49:	19 02                	sbb    %eax,(%edx)
 b4b:	18 00                	sbb    %al,(%eax)
 b4d:	00 19                	add    %bl,(%ecx)
 b4f:	34 00                	xor    $0x0,%al
 b51:	03 0e                	add    (%esi),%ecx
 b53:	3a 0b                	cmp    (%ebx),%cl
 b55:	3b 0b                	cmp    (%ebx),%ecx
 b57:	39 0b                	cmp    %ecx,(%ebx)
 b59:	49                   	dec    %ecx
 b5a:	13 3f                	adc    (%edi),%edi
 b5c:	19 3c 19             	sbb    %edi,(%ecx,%ebx,1)
 b5f:	00 00                	add    %al,(%eax)
 b61:	1a 0f                	sbb    (%edi),%cl
 b63:	00 0b                	add    %cl,(%ebx)
 b65:	0b 00                	or     (%eax),%eax
 b67:	00 1b                	add    %bl,(%ebx)
 b69:	2e 01 3f             	add    %edi,%cs:(%edi)
 b6c:	19 03                	sbb    %eax,(%ebx)
 b6e:	0e                   	push   %cs
 b6f:	3a 0b                	cmp    (%ebx),%cl
 b71:	3b 0b                	cmp    (%ebx),%ecx
 b73:	39 0b                	cmp    %ecx,(%ebx)
 b75:	27                   	daa
 b76:	19 49 13             	sbb    %ecx,0x13(%ecx)
 b79:	11 01                	adc    %eax,(%ecx)
 b7b:	12 06                	adc    (%esi),%al
 b7d:	40                   	inc    %eax
 b7e:	18 7c 19 01          	sbb    %bh,0x1(%ecx,%ebx,1)
 b82:	13 00                	adc    (%eax),%eax
 b84:	00 1c 05 00 03 0e 3a 	add    %bl,0x3a0e0300(,%eax,1)
 b8b:	0b 3b                	or     (%ebx),%edi
 b8d:	0b 39                	or     (%ecx),%edi
 b8f:	0b 49 13             	or     0x13(%ecx),%ecx
 b92:	02 18                	add    (%eax),%bl
 b94:	00 00                	add    %al,(%eax)
 b96:	1d 0b 01 11 01       	sbb    $0x111010b,%eax
 b9b:	12 06                	adc    (%esi),%al
 b9d:	01 13                	add    %edx,(%ebx)
 b9f:	00 00                	add    %al,(%eax)
 ba1:	1e                   	push   %ds
 ba2:	0b 01                	or     (%ecx),%eax
 ba4:	11 01                	adc    %eax,(%ecx)
 ba6:	12 06                	adc    (%esi),%al
 ba8:	00 00                	add    %al,(%eax)
 baa:	1f                   	pop    %ds
 bab:	2e 01 3f             	add    %edi,%cs:(%edi)
 bae:	19 03                	sbb    %eax,(%ebx)
 bb0:	0e                   	push   %cs
 bb1:	3a 0b                	cmp    (%ebx),%cl
 bb3:	3b 0b                	cmp    (%ebx),%ecx
 bb5:	39 0b                	cmp    %ecx,(%ebx)
 bb7:	27                   	daa
 bb8:	19 49 13             	sbb    %ecx,0x13(%ecx)
 bbb:	11 01                	adc    %eax,(%ecx)
 bbd:	12 06                	adc    (%esi),%al
 bbf:	40                   	inc    %eax
 bc0:	18 7a 19             	sbb    %bh,0x19(%edx)
 bc3:	01 13                	add    %edx,(%ebx)
 bc5:	00 00                	add    %al,(%eax)
 bc7:	20 2e                	and    %ch,(%esi)
 bc9:	00 3f                	add    %bh,(%edi)
 bcb:	19 03                	sbb    %eax,(%ebx)
 bcd:	0e                   	push   %cs
 bce:	3a 0b                	cmp    (%ebx),%cl
 bd0:	3b 0b                	cmp    (%ebx),%ecx
 bd2:	39 0b                	cmp    %ecx,(%ebx)
 bd4:	11 01                	adc    %eax,(%ecx)
 bd6:	12 06                	adc    (%esi),%al
 bd8:	40                   	inc    %eax
 bd9:	18 7c 19 00          	sbb    %bh,0x0(%ecx,%ebx,1)
 bdd:	00 00                	add    %al,(%eax)
 bdf:	01 34 00             	add    %esi,(%eax,%eax,1)
 be2:	03 0e                	add    (%esi),%ecx
 be4:	3a 21                	cmp    (%ecx),%ah
 be6:	01 3b                	add    %edi,(%ebx)
 be8:	0b 39                	or     (%ecx),%edi
 bea:	0b 49 13             	or     0x13(%ecx),%ecx
 bed:	02 18                	add    (%eax),%bl
 bef:	00 00                	add    %al,(%eax)
 bf1:	02 05 00 03 08 3a    	add    0x3a080300,%al
 bf7:	21 01                	and    %eax,(%ecx)
 bf9:	3b 0b                	cmp    (%ebx),%ecx
 bfb:	39 0b                	cmp    %ecx,(%ebx)
 bfd:	49                   	dec    %ecx
 bfe:	13 02                	adc    (%edx),%eax
 c00:	18 00                	sbb    %al,(%eax)
 c02:	00 03                	add    %al,(%ebx)
 c04:	24 00                	and    $0x0,%al
 c06:	0b 0b                	or     (%ebx),%ecx
 c08:	3e 0b 03             	or     %ds:(%ebx),%eax
 c0b:	0e                   	push   %cs
 c0c:	00 00                	add    %al,(%eax)
 c0e:	04 34                	add    $0x34,%al
 c10:	00 03                	add    %al,(%ebx)
 c12:	08 3a                	or     %bh,(%edx)
 c14:	21 01                	and    %eax,(%ecx)
 c16:	3b 0b                	cmp    (%ebx),%ecx
 c18:	39 0b                	cmp    %ecx,(%ebx)
 c1a:	49                   	dec    %ecx
 c1b:	13 02                	adc    (%edx),%eax
 c1d:	18 00                	sbb    %al,(%eax)
 c1f:	00 05 16 00 03 0e    	add    %al,0xe030016
 c25:	3a 21                	cmp    (%ecx),%ah
 c27:	02 3b                	add    (%ebx),%bh
 c29:	0b 39                	or     (%ecx),%edi
 c2b:	21 1d 49 13 00 00    	and    %ebx,0x1349
 c31:	06                   	push   %es
 c32:	0f 00 0b             	str    (%ebx)
 c35:	21 04 49             	and    %eax,(%ecx,%ecx,2)
 c38:	13 00                	adc    (%eax),%eax
 c3a:	00 07                	add    %al,(%edi)
 c3c:	05 00 03 0e 3a       	add    $0x3a0e0300,%eax
 c41:	21 01                	and    %eax,(%ecx)
 c43:	3b 0b                	cmp    (%ebx),%ecx
 c45:	39 0b                	cmp    %ecx,(%ebx)
 c47:	49                   	dec    %ecx
 c48:	13 02                	adc    (%edx),%eax
 c4a:	18 00                	sbb    %al,(%eax)
 c4c:	00 08                	add    %cl,(%eax)
 c4e:	11 01                	adc    %eax,(%ecx)
 c50:	25 0e 13 0b 03       	and    $0x30b130e,%eax
 c55:	1f                   	pop    %ds
 c56:	1b 1f                	sbb    (%edi),%ebx
 c58:	11 01                	adc    %eax,(%ecx)
 c5a:	12 06                	adc    (%esi),%al
 c5c:	10 17                	adc    %dl,(%edi)
 c5e:	00 00                	add    %al,(%eax)
 c60:	09 24 00             	or     %esp,(%eax,%eax,1)
 c63:	0b 0b                	or     (%ebx),%ecx
 c65:	3e 0b 03             	or     %ds:(%ebx),%eax
 c68:	08 00                	or     %al,(%eax)
 c6a:	00 0a                	add    %cl,(%edx)
 c6c:	2e 01 3f             	add    %edi,%cs:(%edi)
 c6f:	19 03                	sbb    %eax,(%ebx)
 c71:	0e                   	push   %cs
 c72:	3a 0b                	cmp    (%ebx),%cl
 c74:	3b 0b                	cmp    (%ebx),%ecx
 c76:	39 0b                	cmp    %ecx,(%ebx)
 c78:	27                   	daa
 c79:	19 49 13             	sbb    %ecx,0x13(%ecx)
 c7c:	11 01                	adc    %eax,(%ecx)
 c7e:	12 06                	adc    (%esi),%al
 c80:	40                   	inc    %eax
 c81:	18 7a 19             	sbb    %bh,0x19(%edx)
 c84:	01 13                	add    %edx,(%ebx)
 c86:	00 00                	add    %al,(%eax)
 c88:	0b 0b                	or     (%ebx),%ecx
 c8a:	01 55 17             	add    %edx,0x17(%ebp)
 c8d:	01 13                	add    %edx,(%ebx)
 c8f:	00 00                	add    %al,(%eax)
 c91:	0c 0b                	or     $0xb,%al
 c93:	01 11                	add    %edx,(%ecx)
 c95:	01 12                	add    %edx,(%edx)
 c97:	06                   	push   %es
 c98:	00 00                	add    %al,(%eax)
 c9a:	0d 26 00 00 00       	or     $0x26,%eax
 c9f:	0e                   	push   %cs
 ca0:	2e 01 3f             	add    %edi,%cs:(%edi)
 ca3:	19 03                	sbb    %eax,(%ebx)
 ca5:	0e                   	push   %cs
 ca6:	3a 0b                	cmp    (%ebx),%cl
 ca8:	3b 0b                	cmp    (%ebx),%ecx
 caa:	39 0b                	cmp    %ecx,(%ebx)
 cac:	27                   	daa
 cad:	19 11                	sbb    %edx,(%ecx)
 caf:	01 12                	add    %edx,(%edx)
 cb1:	06                   	push   %es
 cb2:	40                   	inc    %eax
 cb3:	18 7c 19 01          	sbb    %bh,0x1(%ecx,%ebx,1)
 cb7:	13 00                	adc    (%eax),%eax
 cb9:	00 0f                	add    %cl,(%edi)
 cbb:	0f 00 0b             	str    (%ebx)
 cbe:	0b 00                	or     (%eax),%eax
 cc0:	00 10                	add    %dl,(%eax)
 cc2:	2e 01 3f             	add    %edi,%cs:(%edi)
 cc5:	19 03                	sbb    %eax,(%ebx)
 cc7:	0e                   	push   %cs
 cc8:	3a 0b                	cmp    (%ebx),%cl
 cca:	3b 0b                	cmp    (%ebx),%ecx
 ccc:	39 0b                	cmp    %ecx,(%ebx)
 cce:	27                   	daa
 ccf:	19 11                	sbb    %edx,(%ecx)
 cd1:	01 12                	add    %edx,(%edx)
 cd3:	06                   	push   %es
 cd4:	40                   	inc    %eax
 cd5:	18 7a 19             	sbb    %bh,0x19(%edx)
 cd8:	01 13                	add    %edx,(%ebx)
 cda:	00 00                	add    %al,(%eax)
 cdc:	11 2e                	adc    %ebp,(%esi)
 cde:	01 3f                	add    %edi,(%edi)
 ce0:	19 03                	sbb    %eax,(%ebx)
 ce2:	0e                   	push   %cs
 ce3:	3a 0b                	cmp    (%ebx),%cl
 ce5:	3b 0b                	cmp    (%ebx),%ecx
 ce7:	39 0b                	cmp    %ecx,(%ebx)
 ce9:	27                   	daa
 cea:	19 11                	sbb    %edx,(%ecx)
 cec:	01 12                	add    %edx,(%edx)
 cee:	06                   	push   %es
 cef:	40                   	inc    %eax
 cf0:	18 7a 19             	sbb    %bh,0x19(%edx)
 cf3:	00 00                	add    %al,(%eax)
 cf5:	00 01                	add    %al,(%ecx)
 cf7:	24 00                	and    $0x0,%al
 cf9:	0b 0b                	or     (%ebx),%ecx
 cfb:	3e 0b 03             	or     %ds:(%ebx),%eax
 cfe:	0e                   	push   %cs
 cff:	00 00                	add    %al,(%eax)
 d01:	02 11                	add    (%ecx),%dl
 d03:	01 25 0e 13 0b 03    	add    %esp,0x30b130e
 d09:	1f                   	pop    %ds
 d0a:	1b 1f                	sbb    (%edi),%ebx
 d0c:	11 01                	adc    %eax,(%ecx)
 d0e:	12 06                	adc    (%esi),%al
 d10:	10 17                	adc    %dl,(%edi)
 d12:	00 00                	add    %al,(%eax)
 d14:	03 24 00             	add    (%eax,%eax,1),%esp
 d17:	0b 0b                	or     (%ebx),%ecx
 d19:	3e 0b 03             	or     %ds:(%ebx),%eax
 d1c:	08 00                	or     %al,(%eax)
 d1e:	00 04 16             	add    %al,(%esi,%edx,1)
 d21:	00 03                	add    %al,(%ebx)
 d23:	0e                   	push   %cs
 d24:	3a 0b                	cmp    (%ebx),%cl
 d26:	3b 0b                	cmp    (%ebx),%ecx
 d28:	39 0b                	cmp    %ecx,(%ebx)
 d2a:	49                   	dec    %ecx
 d2b:	13 00                	adc    (%eax),%eax
 d2d:	00 05 2e 01 3f 19    	add    %al,0x193f012e
 d33:	03 0e                	add    (%esi),%ecx
 d35:	3a 0b                	cmp    (%ebx),%cl
 d37:	3b 0b                	cmp    (%ebx),%ecx
 d39:	39 0b                	cmp    %ecx,(%ebx)
 d3b:	11 01                	adc    %eax,(%ecx)
 d3d:	12 06                	adc    (%esi),%al
 d3f:	40                   	inc    %eax
 d40:	18 7a 19             	sbb    %bh,0x19(%edx)
 d43:	01 13                	add    %edx,(%ebx)
 d45:	00 00                	add    %al,(%eax)
 d47:	06                   	push   %es
 d48:	34 00                	xor    $0x0,%al
 d4a:	03 08                	add    (%eax),%ecx
 d4c:	3a 0b                	cmp    (%ebx),%cl
 d4e:	3b 0b                	cmp    (%ebx),%ecx
 d50:	39 0b                	cmp    %ecx,(%ebx)
 d52:	49                   	dec    %ecx
 d53:	13 02                	adc    (%edx),%eax
 d55:	18 00                	sbb    %al,(%eax)
 d57:	00 07                	add    %al,(%edi)
 d59:	0f 00 0b             	str    (%ebx)
 d5c:	0b 49 13             	or     0x13(%ecx),%ecx
 d5f:	00 00                	add    %al,(%eax)
	...

Disassembly of section .debug_line:

00000000 <.debug_line>:
   0:	8f 00                	pop    (%eax)
   2:	00 00                	add    %al,(%eax)
   4:	05 00 04 00 67       	add    $0x67000400,%eax
   9:	00 00                	add    %al,(%eax)
   b:	00 01                	add    %al,(%ecx)
   d:	01 01                	add    %eax,(%ecx)
   f:	fb                   	sti
  10:	0e                   	push   %cs
  11:	0d 00 01 01 01       	or     $0x1010100,%eax
  16:	01 00                	add    %eax,(%eax)
  18:	00 00                	add    %al,(%eax)
  1a:	01 00                	add    %eax,(%eax)
  1c:	00 01                	add    %al,(%ecx)
  1e:	01 01                	add    %eax,(%ecx)
  20:	1f                   	pop    %ds
  21:	05 0b 00 00 00       	add    $0xb,%eax
  26:	2f                   	das
  27:	00 00                	add    %al,(%eax)
  29:	00 33                	add    %dh,(%ebx)
  2b:	00 00                	add    %al,(%eax)
  2d:	00 68 00             	add    %ch,0x0(%eax)
  30:	00 00                	add    %al,(%eax)
  32:	72 00                	jb     34 <SEG_KERN_CS+0x2c>
  34:	00 00                	add    %al,(%eax)
  36:	02 01                	add    (%ecx),%al
  38:	1f                   	pop    %ds
  39:	02 0f                	add    (%edi),%cl
  3b:	0b 04 00             	or     (%eax,%eax,1),%eax
  3e:	00 00                	add    %al,(%eax)
  40:	01 04 00             	add    %eax,(%eax,%eax,1)
  43:	00 00                	add    %al,(%eax)
  45:	01 ac 00 00 00 02 b4 	add    %ebp,-0x4bfe0000(%eax,%eax,1)
  4c:	00 00                	add    %al,(%eax)
  4e:	00 02                	add    %al,(%edx)
  50:	bb 00 00 00 03       	mov    $0x3000000,%ebx
  55:	c1 00 00             	roll   $0x0,(%eax)
  58:	00 03                	add    %al,(%ebx)
  5a:	ca 00 00             	lret   $0x0
  5d:	00 03                	add    %al,(%ebx)
  5f:	d2 00                	rolb   %cl,(%eax)
  61:	00 00                	add    %al,(%eax)
  63:	03 d8                	add    %eax,%ebx
  65:	00 00                	add    %al,(%eax)
  67:	00 03                	add    %al,(%ebx)
  69:	de 00                	fiadds (%eax)
  6b:	00 00                	add    %al,(%eax)
  6d:	03 e5                	add    %ebp,%esp
  6f:	00 00                	add    %al,(%eax)
  71:	00 04 05 24 00 05 02 	add    %al,0x2050024(,%eax,1)
  78:	00 50 40             	add    %dl,0x40(%eax)
  7b:	f0 03 11             	lock add (%ecx),%edx
  7e:	01 05 05 67 08 77    	add    %eax,0x77086705
  84:	59                   	pop    %ecx
  85:	5b                   	pop    %ebx
  86:	5b                   	pop    %ebx
  87:	59                   	pop    %ecx
  88:	59                   	pop    %ecx
  89:	5b                   	pop    %ebx
  8a:	5c                   	pop    %esp
  8b:	05 01 f4 02 03       	add    $0x302f401,%eax
  90:	00 01                	add    %al,(%ecx)
  92:	01 74 01 00          	add    %esi,0x0(%ecx,%eax,1)
  96:	00 05 00 04 00 45    	add    %al,0x45000400
  9c:	00 00                	add    %al,(%eax)
  9e:	00 01                	add    %al,(%ecx)
  a0:	01 01                	add    %eax,(%ecx)
  a2:	fb                   	sti
  a3:	0e                   	push   %cs
  a4:	0d 00 01 01 01       	or     $0x1010100,%eax
  a9:	01 00                	add    %eax,(%eax)
  ab:	00 00                	add    %al,(%eax)
  ad:	01 00                	add    %eax,(%eax)
  af:	00 01                	add    %al,(%ecx)
  b1:	01 01                	add    %eax,(%ecx)
  b3:	1f                   	pop    %ds
  b4:	04 0b                	add    $0xb,%al
  b6:	00 00                	add    %al,(%eax)
  b8:	00 04 01             	add    %al,(%ecx,%eax,1)
  bb:	00 00                	add    %al,(%eax)
  bd:	33 00                	xor    (%eax),%eax
  bf:	00 00                	add    %al,(%eax)
  c1:	10 01                	adc    %al,(%ecx)
  c3:	00 00                	add    %al,(%eax)
  c5:	02 01                	add    (%ecx),%al
  c7:	1f                   	pop    %ds
  c8:	02 0f                	add    (%edi),%cl
  ca:	05 fa 00 00 00       	add    $0xfa,%eax
  cf:	01 fa                	add    %edi,%edx
  d1:	00 00                	add    %al,(%eax)
  d3:	00 01                	add    %al,(%ecx)
  d5:	ac                   	lods   %ds:(%esi),%al
  d6:	00 00                	add    %al,(%eax)
  d8:	00 02                	add    %al,(%edx)
  da:	4e                   	dec    %esi
  db:	01 00                	add    %eax,(%eax)
  dd:	00 03                	add    %al,(%ebx)
  df:	58                   	pop    %eax
  e0:	01 00                	add    %eax,(%eax)
  e2:	00 03                	add    %al,(%ebx)
  e4:	05 2c 00 05 02       	add    $0x205002c,%eax
  e9:	8b 50 40             	mov    0x40(%eax),%edx
  ec:	f0 03 0a             	lock add (%edx),%ecx
  ef:	01 05 08 67 05 10    	add    %eax,0x10056708
  f5:	67 05 0e a1 75 05    	addr16 add $0x575a10e,%eax
  fb:	1a 74 05 26          	sbb    0x26(%ebp,%eax,1),%dh
  ff:	74 05                	je     106 <SEG_KERN_CS+0xfe>
 101:	32 74 05 05          	xor    0x5(%ebp,%eax,1),%dh
 105:	76 05                	jbe    10c <SEG_KERN_CS+0x104>
 107:	0d 08 76 05 08       	or     $0x8057608,%eax
 10c:	3c 05                	cmp    $0x5,%al
 10e:	10 4b 05             	adc    %cl,0x5(%ebx)
 111:	17                   	pop    %ss
 112:	a1 05 15 58 05       	mov    0x5581505,%eax
 117:	32 2e                	xor    (%esi),%ch
 119:	05 0d 82 05 15       	add    $0x1505820d,%eax
 11e:	3d 05 13 58 05       	cmp    $0x5581305,%eax
 123:	2e 2e 05 0d 82 05 09 	cs cs add $0x905820d,%eax
 12a:	3f                   	aas
 12b:	05 05 75 05 1d       	add    $0x1d057505,%eax
 130:	08 76 05             	or     %dh,0x5(%esi)
 133:	0e                   	push   %cs
 134:	3c 05                	cmp    $0x5,%al
 136:	1b 67 05             	sbb    0x5(%edi),%esp
 139:	0e                   	push   %cs
 13a:	66 05 08 68          	add    $0x6808,%ax
 13e:	05 17 00 02 04       	add    $0x4020017,%eax
 143:	01 66 05             	add    %esp,0x5(%esi)
 146:	18 67 05             	sbb    %ah,0x5(%edi)
 149:	27                   	daa
 14a:	66 05 0f 66          	add    $0x660f,%ax
 14e:	05 1c 3f 05 0e       	add    $0xe053f1c,%eax
 153:	66 05 08 67          	add    $0x6708,%ax
 157:	05 18 67 05 1f       	add    $0x1f056718,%eax
 15c:	66 05 10 3c          	add    $0x3c10,%ax
 160:	05 08 3f 05 10       	add    $0x10053f08,%eax
 165:	67 05 09 75 05 05    	addr16 add $0x5057509,%eax
 16b:	08 77 05             	or     %dh,0x5(%edi)
 16e:	18 08                	sbb    %cl,(%eax)
 170:	84 af 05 0f af cb    	test   %ch,-0x3450f0fb(%edi)
 176:	af                   	scas   %es:(%edi),%eax
 177:	05 10 af 05 3e       	add    $0x3e05af10,%eax
 17c:	82 05 0e 75 05 3e 00 	addb   $0x0,0x3e05750e
 183:	02 04 01             	add    (%ecx,%eax,1),%al
 186:	81 00 02 04 03 06    	addl   $0x6030402,(%eax)
 18c:	74 58                	je     1e6 <SEG_KERN_CS+0x1de>
 18e:	00 02                	add    %al,(%edx)
 190:	04 04                	add    $0x4,%al
 192:	58                   	pop    %eax
 193:	58                   	pop    %eax
 194:	05 0f 06 5c cb       	add    $0xcb5c060f,%eax
 199:	cb                   	lret
 19a:	cb                   	lret
 19b:	af                   	scas   %es:(%edi),%eax
 19c:	cb                   	lret
 19d:	cb                   	lret
 19e:	cb                   	lret
 19f:	05 10 a1 05 17       	add    $0x1705a110,%eax
 1a4:	66 05 06 5b          	add    $0x5b06,%ax
 1a8:	05 16 00 02 04       	add    $0x4020016,%eax
 1ad:	01 66 06             	add    %esp,0x6(%esi)
 1b0:	58                   	pop    %eax
 1b1:	05 0d 06 2f 05       	add    $0x52f060d,%eax
 1b6:	06                   	push   %es
 1b7:	82 05 2c 00 02 04 01 	addb   $0x1,0x402002c
 1be:	4a                   	dec    %edx
 1bf:	06                   	push   %es
 1c0:	58                   	pop    %eax
 1c1:	05 06 06 2f 05       	add    $0x52f0606,%eax
 1c6:	13 00                	adc    (%eax),%eax
 1c8:	02 04 01             	add    (%ecx,%eax,1),%al
 1cb:	66 05 20 00          	add    $0x20,%ax
 1cf:	02 04 02             	add    (%edx,%eax,1),%al
 1d2:	66 05 38 00          	add    $0x38,%ax
 1d6:	02 04 03             	add    (%ebx,%eax,1),%al
 1d9:	66 06                	pushw  %es
 1db:	58                   	pop    %eax
 1dc:	05 0b 06 2f 05       	add    $0x52f060b,%eax
 1e1:	06                   	push   %es
 1e2:	77 05                	ja     1e9 <SEG_KERN_CS+0x1e1>
 1e4:	14 00                	adc    $0x0,%al
 1e6:	02 04 01             	add    (%ecx,%eax,1),%al
 1e9:	66 06                	pushw  %es
 1eb:	58                   	pop    %eax
 1ec:	05 10 06 2f 05       	add    $0x52f0610,%eax
 1f1:	06                   	push   %es
 1f2:	82 05 31 00 02 04 01 	addb   $0x1,0x4020031
 1f9:	4a                   	dec    %edx
 1fa:	06                   	push   %es
 1fb:	58                   	pop    %eax
 1fc:	05 0b 06 2f 05       	add    $0x52f060b,%eax
 201:	0c 77                	or     $0x77,%al
 203:	05 01 59 02 02       	add    $0x2025901,%eax
 208:	00 01                	add    %al,(%ecx)
 20a:	01 e0                	add    %esp,%eax
 20c:	00 00                	add    %al,(%eax)
 20e:	00 05 00 04 00 53    	add    %al,0x53000400
 214:	00 00                	add    %al,(%eax)
 216:	00 01                	add    %al,(%ecx)
 218:	01 01                	add    %eax,(%ecx)
 21a:	fb                   	sti
 21b:	0e                   	push   %cs
 21c:	0d 00 01 01 01       	or     $0x1010100,%eax
 221:	01 00                	add    %eax,(%eax)
 223:	00 00                	add    %al,(%eax)
 225:	01 00                	add    %eax,(%eax)
 227:	00 01                	add    %al,(%ecx)
 229:	01 01                	add    %eax,(%ecx)
 22b:	1f                   	pop    %ds
 22c:	05 0b 00 00 00       	add    $0xb,%eax
 231:	68 00 00 00 33       	push   $0x33000000
 236:	00 00                	add    %al,(%eax)
 238:	00 10                	add    %dl,(%eax)
 23a:	01 00                	add    %eax,(%eax)
 23c:	00 72 00             	add    %dh,0x0(%edx)
 23f:	00 00                	add    %al,(%eax)
 241:	02 01                	add    (%ecx),%al
 243:	1f                   	pop    %ds
 244:	02 0f                	add    (%edi),%cl
 246:	07                   	pop    %es
 247:	69 01 00 00 01 69    	imul   $0x69010000,(%ecx),%eax
 24d:	01 00                	add    %eax,(%eax)
 24f:	00 01                	add    %al,(%ecx)
 251:	ac                   	lods   %ds:(%esi),%al
 252:	00 00                	add    %al,(%eax)
 254:	00 02                	add    %al,(%edx)
 256:	ac                   	lods   %ds:(%esi),%al
 257:	00 00                	add    %al,(%eax)
 259:	00 03                	add    %al,(%ebx)
 25b:	c1 00 00             	roll   $0x0,(%eax)
 25e:	00 01                	add    %al,(%ecx)
 260:	bb 00 00 00 01       	mov    $0x1000000,%ebx
 265:	e5 00                	in     $0x0,%eax
 267:	00 00                	add    %al,(%eax)
 269:	04 05                	add    $0x5,%al
 26b:	1a 00                	sbb    (%eax),%al
 26d:	05 02 9e 57 40       	add    $0x40579e02,%eax
 272:	f0 03 3b             	lock add (%ebx),%edi
 275:	01 05 05 67 08 3d    	add    %eax,0x3d086705
 27b:	08 3f                	or     %bh,(%edi)
 27d:	05 01 08 21 05       	add    $0x5210801,%eax
 282:	49                   	dec    %ecx
 283:	3e 05 08 bb 05 1b    	ds add $0x1b05bb08,%eax
 289:	00 02                	add    %al,(%edx)
 28b:	04 01                	add    $0x1,%al
 28d:	66 05 10 67          	add    $0x6710,%ax
 291:	05 08 77 05 18       	add    $0x18057708,%eax
 296:	67 05 0d ac 05 08    	addr16 add $0x805ac0d,%eax
 29c:	5b                   	pop    %ebx
 29d:	05 1f 67 05 0f       	add    $0xf05671f,%eax
 2a2:	ac                   	lods   %ds:(%esi),%al
 2a3:	05 0c 5b 05 01       	add    $0x1055b0c,%eax
 2a8:	59                   	pop    %ecx
 2a9:	05 47 30 05 08       	add    $0x8053047,%eax
 2ae:	bb 05 1b 00 02       	mov    $0x2001b05,%ebx
 2b3:	04 01                	add    $0x1,%al
 2b5:	66 05 10 67          	add    $0x6710,%ax
 2b9:	05 0e 77 05 12       	add    $0x1205770e,%eax
 2be:	4a                   	dec    %edx
 2bf:	05 13 9f 05 17       	add    $0x17059f13,%eax
 2c4:	4a                   	dec    %edx
 2c5:	05 0c a0 05 01       	add    $0x105a00c,%eax
 2ca:	59                   	pop    %ecx
 2cb:	05 48 30 05 12       	add    $0x12053048,%eax
 2d0:	67 05 08 9e 05 0d    	addr16 add $0xd059e08,%eax
 2d6:	4d                   	dec    %ebp
 2d7:	67 05 11 67 05 20    	addr16 add $0x20056711,%eax
 2dd:	67 05 10 9e 05 12    	addr16 add $0x12059e10,%eax
 2e3:	3e 05 09 9e 05 01    	ds add $0x1059e09,%eax
 2e9:	c0 02 03             	rolb   $0x3,(%edx)
 2ec:	00 01                	add    %al,(%ecx)
 2ee:	01 05 01 00 00 05    	add    %eax,0x5000001
 2f4:	00 04 00             	add    %al,(%eax,%eax,1)
 2f7:	53                   	push   %ebx
 2f8:	00 00                	add    %al,(%eax)
 2fa:	00 01                	add    %al,(%ecx)
 2fc:	01 01                	add    %eax,(%ecx)
 2fe:	fb                   	sti
 2ff:	0e                   	push   %cs
 300:	0d 00 01 01 01       	or     $0x1010100,%eax
 305:	01 00                	add    %eax,(%eax)
 307:	00 00                	add    %al,(%eax)
 309:	01 00                	add    %eax,(%eax)
 30b:	00 01                	add    %al,(%ecx)
 30d:	01 01                	add    %eax,(%ecx)
 30f:	1f                   	pop    %ds
 310:	05 0b 00 00 00       	add    $0xb,%eax
 315:	68 00 00 00 33       	push   $0x33000000
 31a:	00 00                	add    %al,(%eax)
 31c:	00 10                	add    %dl,(%eax)
 31e:	01 00                	add    %eax,(%eax)
 320:	00 72 00             	add    %dh,0x0(%edx)
 323:	00 00                	add    %al,(%eax)
 325:	02 01                	add    (%ecx),%al
 327:	1f                   	pop    %ds
 328:	02 0f                	add    (%edi),%cl
 32a:	07                   	pop    %es
 32b:	7c 01                	jl     32e <SEG_KERN_CS+0x326>
 32d:	00 00                	add    %al,(%eax)
 32f:	01 7c 01 00          	add    %edi,0x0(%ecx,%eax,1)
 333:	00 01                	add    %al,(%ecx)
 335:	ac                   	lods   %ds:(%esi),%al
 336:	00 00                	add    %al,(%eax)
 338:	00 02                	add    %al,(%edx)
 33a:	ac                   	lods   %ds:(%esi),%al
 33b:	00 00                	add    %al,(%eax)
 33d:	00 03                	add    %al,(%ebx)
 33f:	58                   	pop    %eax
 340:	01 00                	add    %eax,(%eax)
 342:	00 03                	add    %al,(%ebx)
 344:	e5 00                	in     $0x0,%eax
 346:	00 00                	add    %al,(%eax)
 348:	04 82                	add    $0x82,%al
 34a:	01 00                	add    %eax,(%eax)
 34c:	00 03                	add    %al,(%ebx)
 34e:	05 17 00 05 02       	add    $0x2050017,%eax
 353:	c1 58 40 f0          	rcrl   $0xf0,0x40(%eax)
 357:	03 11                	add    (%ecx),%edx
 359:	01 05 05 67 05 15    	add    %eax,0x15056705
 35f:	08 68 05             	or     %ch,0x5(%eax)
 362:	13 58 05             	adc    0x5(%eax),%ebx
 365:	14 59                	adc    $0x59,%al
 367:	05 05 92 05 19       	add    $0x19059205,%eax
 36c:	08 2f                	or     %ch,(%edi)
 36e:	05 05 76 08 2f       	add    $0x2f087605,%eax
 373:	08 30                	or     %dh,(%eax)
 375:	08 2f                	or     %ch,(%edi)
 377:	05 01 08 2f 05       	add    $0x52f0801,%eax
 37c:	18 3e                	sbb    %bh,(%esi)
 37e:	05 05 67 05 01       	add    $0x1056705,%eax
 383:	f3 05 27 3e 05 08    	repz add $0x8053e27,%eax
 389:	bb 05 10 67 77       	mov    $0x77671005,%ebx
 38e:	05 0c 4a 05 01       	add    $0x1054a0c,%eax
 393:	83 05 44 30 05 13 3d 	addl   $0x3d,0x13053044
 39a:	05 1b bb 05 13       	add    $0x1305bb1b,%eax
 39f:	66 05 23 83          	add    $0x8323,%ax
 3a3:	05 14 66 05 05       	add    $0x5056614,%eax
 3a8:	84 05 08 4b 05 1f    	test   %al,0x1f054b08
 3ae:	91                   	xchg   %eax,%ecx
 3af:	05 18 66 05 2d       	add    $0x2d056618,%eax
 3b4:	83 05 25 66 05 1a 58 	addl   $0x58,0x1a056625
 3bb:	05 18 84 05 21       	add    $0x21058418,%eax
 3c0:	ad                   	lods   %ds:(%esi),%eax
 3c1:	05 1a 66 05 08       	add    $0x805661a,%eax
 3c6:	85 05 16 74 05 01    	test   %eax,0x1057416
 3cc:	ae                   	scas   %es:(%edi),%al
 3cd:	05 58 3e 05 05       	add    $0x5053e58,%eax
 3d2:	3d 05 19 08 14       	cmp    $0x14081905,%eax
 3d7:	05 27 66 05 11       	add    $0x11056627,%eax
 3dc:	58                   	pop    %eax
 3dd:	05 01 69 05 58       	add    $0x58056901,%eax
 3e2:	3e 05 05 3d 05 19    	ds add $0x19053d05,%eax
 3e8:	08 14 05 27 66 05 11 	or     %dl,0x11056627(,%eax,1)
 3ef:	58                   	pop    %eax
 3f0:	05 01 69 02 03       	add    $0x3026901,%eax
 3f5:	00 01                	add    %al,(%ecx)
 3f7:	01 9b 01 00 00 05    	add    %ebx,0x5000001(%ebx)
 3fd:	00 04 00             	add    %al,(%eax,%eax,1)
 400:	58                   	pop    %eax
 401:	00 00                	add    %al,(%eax)
 403:	00 01                	add    %al,(%ecx)
 405:	01 01                	add    %eax,(%ecx)
 407:	fb                   	sti
 408:	0e                   	push   %cs
 409:	0d 00 01 01 01       	or     $0x1010100,%eax
 40e:	01 00                	add    %eax,(%eax)
 410:	00 00                	add    %al,(%eax)
 412:	01 00                	add    %eax,(%eax)
 414:	00 01                	add    %al,(%ecx)
 416:	01 01                	add    %eax,(%ecx)
 418:	1f                   	pop    %ds
 419:	05 0b 00 00 00       	add    $0xb,%eax
 41e:	68 00 00 00 33       	push   $0x33000000
 423:	00 00                	add    %al,(%eax)
 425:	00 10                	add    %dl,(%eax)
 427:	01 00                	add    %eax,(%eax)
 429:	00 72 00             	add    %dh,0x0(%edx)
 42c:	00 00                	add    %al,(%eax)
 42e:	02 01                	add    (%ecx),%al
 430:	1f                   	pop    %ds
 431:	02 0f                	add    (%edi),%cl
 433:	08 95 01 00 00 01    	or     %dl,0x1000001(%ebp)
 439:	95                   	xchg   %eax,%ebp
 43a:	01 00                	add    %eax,(%eax)
 43c:	00 01                	add    %al,(%ecx)
 43e:	ac                   	lods   %ds:(%esi),%al
 43f:	00 00                	add    %al,(%eax)
 441:	00 02                	add    %al,(%edx)
 443:	ac                   	lods   %ds:(%esi),%al
 444:	00 00                	add    %al,(%eax)
 446:	00 03                	add    %al,(%ebx)
 448:	ca 00 00             	lret   $0x0
 44b:	00 01                	add    %al,(%ecx)
 44d:	bb 00 00 00 01       	mov    $0x1000000,%ebx
 452:	58                   	pop    %eax
 453:	01 00                	add    %eax,(%eax)
 455:	00 03                	add    %al,(%ebx)
 457:	e5 00                	in     $0x0,%eax
 459:	00 00                	add    %al,(%eax)
 45b:	04 05                	add    $0x5,%al
 45d:	19 00                	sbb    %eax,(%eax)
 45f:	05 02 70 5d 40       	add    $0x405d7002,%eax
 464:	f0 03 cb             	lock add %ebx,%ecx
 467:	00 01                	add    %al,(%ecx)
 469:	05 05 67 08 3d       	add    $0x3d086705,%eax
 46e:	08 3e                	or     %bh,(%esi)
 470:	08 21                	or     %ah,(%ecx)
 472:	08 23                	or     %ah,(%ebx)
 474:	05 01 59 05 1c       	add    $0x1c055901,%eax
 479:	3e 05 05 67 e5 e5    	ds add $0xe5e56705,%eax
 47f:	e6 e5                	out    %al,$0xe5
 481:	e6 08                	out    %al,$0x8
 483:	21 08                	and    %ecx,(%eax)
 485:	21 08                	and    %ecx,(%eax)
 487:	22 08                	and    (%eax),%cl
 489:	21 05 01 08 21 05    	and    %eax,0x5210801
 48f:	26 3e 05 13 c9 00 02 	es ds add $0x200c913,%eax
 496:	04 01                	add    $0x1,%al
 498:	06                   	push   %es
 499:	66 00 02             	data16 add %al,(%edx)
 49c:	04 02                	add    $0x2,%al
 49e:	74 00                	je     4a0 <SEG_KERN_CS+0x498>
 4a0:	02 04 04             	add    (%esp,%eax,1),%al
 4a3:	58                   	pop    %eax
 4a4:	05 1a 06 3d 05       	add    $0x53d061a,%eax
 4a9:	13 00                	adc    (%eax),%eax
 4ab:	02 04 01             	add    (%ecx,%eax,1),%al
 4ae:	f2 05 1c 3e 05 2a    	repnz add $0x2a053e1c,%eax
 4b4:	4a                   	dec    %edx
 4b5:	05 22 74 05 1e       	add    $0x1e057422,%eax
 4ba:	ac                   	lods   %ds:(%esi),%al
 4bb:	05 1c 2e 05 05       	add    $0x5052e1c,%eax
 4c0:	2e 05 08 08 2f 05    	cs add $0x52f0808,%eax
 4c6:	12 00                	adc    (%eax),%al
 4c8:	02 04 01             	add    (%ecx,%eax,1),%al
 4cb:	66 05 09 67          	add    $0x6709,%ax
 4cf:	05 01 ca 05 24       	add    $0x2405ca01,%eax
 4d4:	68 05 13 bb 00       	push   $0xbb1305
 4d9:	02 04 01             	add    (%ecx,%eax,1),%al
 4dc:	06                   	push   %es
 4dd:	66 00 02             	data16 add %al,(%edx)
 4e0:	04 02                	add    $0x2,%al
 4e2:	74 00                	je     4e4 <SEG_KERN_CS+0x4dc>
 4e4:	02 04 04             	add    (%esp,%eax,1),%al
 4e7:	58                   	pop    %eax
 4e8:	05 1a 06 3d 05       	add    $0x53d061a,%eax
 4ed:	13 00                	adc    (%eax),%eax
 4ef:	02 04 01             	add    (%ecx,%eax,1),%al
 4f2:	f2 05 2e 3d 05 26    	repnz add $0x26053d2e,%eax
 4f8:	74 05                	je     4ff <SEG_KERN_CS+0x4f7>
 4fa:	21 ac 05 13 82 05 05 	and    %ebp,0x5058213(%ebp,%eax,1)
 501:	3e 05 08 08 4b 05    	ds add $0x54b0808,%eax
 507:	12 00                	adc    (%eax),%al
 509:	02 04 01             	add    (%ecx,%eax,1),%al
 50c:	66 05 09 67          	add    $0x6709,%ax
 510:	05 01 ca 05 1c       	add    $0x1c05ca01,%eax
 515:	3e 05 05 67 08 4b    	ds add $0x4b086705,%eax
 51b:	08 21                	or     %ah,(%ecx)
 51d:	05 01 c9 05 22       	add    $0x2205c901,%eax
 522:	3e 05 07 67 05 09    	ds add $0x9056707,%eax
 528:	67 05 01 ea 05 09    	addr16 add $0x905ea01,%eax
 52e:	2b e5                	sub    %ebp,%esp
 530:	05 01 08 22 05       	add    $0x5220801,%eax
 535:	4d                   	dec    %ebp
 536:	3e 05 08 bb 05 10    	ds add $0x1005bb08,%eax
 53c:	67 05 08 77 05 17    	addr16 add $0x17057708,%eax
 542:	67 05 0d ac 05 08    	addr16 add $0x805ac0d,%eax
 548:	5b                   	pop    %ebx
 549:	05 1e 67 05 0f       	add    $0xf05671e,%eax
 54e:	ac                   	lods   %ds:(%esi),%al
 54f:	05 0c 5b 05 01       	add    $0x1055b0c,%eax
 554:	59                   	pop    %ecx
 555:	05 4b 30 05 08       	add    $0x805304b,%eax
 55a:	bb 05 10 67 05       	mov    $0x5671005,%ebx
 55f:	0d 77 05 11 4a       	or     $0x4a110577,%eax
 564:	05 12 9f 05 16       	add    $0x16059f12,%eax
 569:	4a                   	dec    %edx
 56a:	05 0c 9f 05 01       	add    $0x1059f0c,%eax
 56f:	59                   	pop    %ecx
 570:	05 4b 30 05 11       	add    $0x1105304b,%eax
 575:	67 05 08 9e 05 0d    	addr16 add $0xd059e08,%eax
 57b:	4d                   	dec    %ebp
 57c:	67 05 11 67 05 1f    	addr16 add $0x1f056711,%eax
 582:	67 05 10 9e 05 11    	addr16 add $0x11059e10,%eax
 588:	3e 05 09 9e 05 05    	ds add $0x5059e09,%eax
 58e:	be 05 01 db 02       	mov    $0x2db0105,%esi
 593:	03 00                	add    (%eax),%eax
 595:	01 01                	add    %eax,(%ecx)
 597:	e0 00                	loopne 599 <SEG_KERN_CS+0x591>
 599:	00 00                	add    %al,(%eax)
 59b:	05 00 04 00 58       	add    $0x58000400,%eax
 5a0:	00 00                	add    %al,(%eax)
 5a2:	00 01                	add    %al,(%ecx)
 5a4:	01 01                	add    %eax,(%ecx)
 5a6:	fb                   	sti
 5a7:	0e                   	push   %cs
 5a8:	0d 00 01 01 01       	or     $0x1010100,%eax
 5ad:	01 00                	add    %eax,(%eax)
 5af:	00 00                	add    %al,(%eax)
 5b1:	01 00                	add    %eax,(%eax)
 5b3:	00 01                	add    %al,(%ecx)
 5b5:	01 01                	add    %eax,(%ecx)
 5b7:	1f                   	pop    %ds
 5b8:	05 0b 00 00 00       	add    $0xb,%eax
 5bd:	68 00 00 00 33       	push   $0x33000000
 5c2:	00 00                	add    %al,(%eax)
 5c4:	00 10                	add    %dl,(%eax)
 5c6:	01 00                	add    %eax,(%eax)
 5c8:	00 72 00             	add    %dh,0x0(%edx)
 5cb:	00 00                	add    %al,(%eax)
 5cd:	02 01                	add    (%ecx),%al
 5cf:	1f                   	pop    %ds
 5d0:	02 0f                	add    (%edi),%cl
 5d2:	08 a7 01 00 00 01    	or     %ah,0x1000001(%edi)
 5d8:	a7                   	cmpsl  %es:(%edi),%ds:(%esi)
 5d9:	01 00                	add    %eax,(%eax)
 5db:	00 01                	add    %al,(%ecx)
 5dd:	ac                   	lods   %ds:(%esi),%al
 5de:	00 00                	add    %al,(%eax)
 5e0:	00 02                	add    %al,(%edx)
 5e2:	ac                   	lods   %ds:(%esi),%al
 5e3:	00 00                	add    %al,(%eax)
 5e5:	00 03                	add    %al,(%ebx)
 5e7:	bb 00 00 00 01       	mov    $0x1000000,%ebx
 5ec:	58                   	pop    %eax
 5ed:	01 00                	add    %eax,(%eax)
 5ef:	00 03                	add    %al,(%ebx)
 5f1:	e5 00                	in     $0x0,%eax
 5f3:	00 00                	add    %al,(%eax)
 5f5:	04 82                	add    $0x82,%al
 5f7:	01 00                	add    %eax,(%eax)
 5f9:	00 03                	add    %al,(%ebx)
 5fb:	05 17 00 05 02       	add    $0x2050017,%eax
 600:	db 60 40             	(bad)  0x40(%eax)
 603:	f0 03 0b             	lock add (%ebx),%ecx
 606:	01 05 05 67 05 15    	add    %eax,0x15056705
 60c:	08 68 05             	or     %ch,0x5(%eax)
 60f:	13 58 05             	adc    0x5(%eax),%ebx
 612:	14 59                	adc    $0x59,%al
 614:	05 01 91 05 18       	add    $0x18059101,%eax
 619:	3e 05 05 67 05 01    	ds add $0x1056705,%eax
 61f:	f3 05 41 3e 05 1c    	repz add $0x1c053e41,%eax
 625:	bb 05 13 4a 05       	mov    $0x54a1305,%ebx
 62a:	11 ae 05 1b ad 05    	adc    %ebp,0x5ad1b05(%esi)
 630:	12 66 05             	adc    0x5(%esi),%ah
 633:	0d 92 05 14 91       	or     $0x91140592,%eax
 638:	05 01 ad 05 4c       	add    $0x4c05ad01,%eax
 63d:	3e 05 0b c9 05 2a    	ds add $0x2a05c90b,%eax
 643:	2f                   	das
 644:	05 1f 90 05 2b       	add    $0x2b05901f,%eax
 649:	40                   	inc    %eax
 64a:	05 32 9e 05 25       	add    $0x25059e32,%eax
 64f:	3c 05                	cmp    $0x5,%al
 651:	09 2d 05 3a 2e 05    	or     %ebp,0x52e3a05
 657:	09 58 05             	or     %ebx,0x5(%eax)
 65a:	1a 2e                	sbb    (%esi),%ch
 65c:	05 20 74 05 09       	add    $0x9057420,%eax
 661:	66 05 12 d2          	add    $0xd212,%ax
 665:	05 1a 00 02 04       	add    $0x402001a,%eax
 66a:	01 66 05             	add    %esp,0x5(%esi)
 66d:	12 00                	adc    (%eax),%al
 66f:	02 04 01             	add    (%ecx,%eax,1),%al
 672:	58                   	pop    %eax
 673:	05 01 51 02 06       	add    $0x6025101,%eax
 678:	00 01                	add    %al,(%ecx)
 67a:	01 df                	add    %ebx,%edi
 67c:	00 00                	add    %al,(%eax)
 67e:	00 05 00 04 00 4a    	add    %al,0x4a000400
 684:	00 00                	add    %al,(%eax)
 686:	00 01                	add    %al,(%ecx)
 688:	01 01                	add    %eax,(%ecx)
 68a:	fb                   	sti
 68b:	0e                   	push   %cs
 68c:	0d 00 01 01 01       	or     $0x1010100,%eax
 691:	01 00                	add    %eax,(%eax)
 693:	00 00                	add    %al,(%eax)
 695:	01 00                	add    %eax,(%eax)
 697:	00 01                	add    %al,(%ecx)
 699:	01 01                	add    %eax,(%ecx)
 69b:	1f                   	pop    %ds
 69c:	04 0b                	add    $0xb,%al
 69e:	00 00                	add    %al,(%eax)
 6a0:	00 68 00             	add    %ch,0x0(%eax)
 6a3:	00 00                	add    %al,(%eax)
 6a5:	33 00                	xor    (%eax),%eax
 6a7:	00 00                	add    %al,(%eax)
 6a9:	10 01                	adc    %al,(%ecx)
 6ab:	00 00                	add    %al,(%eax)
 6ad:	02 01                	add    (%ecx),%al
 6af:	1f                   	pop    %ds
 6b0:	02 0f                	add    (%edi),%cl
 6b2:	06                   	push   %es
 6b3:	b7 01                	mov    $0x1,%bh
 6b5:	00 00                	add    %al,(%eax)
 6b7:	01 b7 01 00 00 01    	add    %esi,0x1000001(%edi)
 6bd:	ac                   	lods   %ds:(%esi),%al
 6be:	00 00                	add    %al,(%eax)
 6c0:	00 02                	add    %al,(%edx)
 6c2:	b4 00                	mov    $0x0,%ah
 6c4:	00 00                	add    %al,(%eax)
 6c6:	02 be 01 00 00 03    	add    0x3000001(%esi),%bh
 6cc:	58                   	pop    %eax
 6cd:	01 00                	add    %eax,(%eax)
 6cf:	00 03                	add    %al,(%ebx)
 6d1:	05 29 00 05 02       	add    $0x2050029,%eax
 6d6:	d6                   	(bad)
 6d7:	61                   	popa
 6d8:	40                   	inc    %eax
 6d9:	f0 03 0f             	lock add (%edi),%ecx
 6dc:	01 05 05 67 d7 05    	add    %eax,0x5d76705
 6e2:	1e                   	push   %ds
 6e3:	d8 05 05 90 05 01    	fadds  0x1059005
 6e9:	bb 05 2d 3e 05       	mov    $0x53e2d05,%ebx
 6ee:	12 68 05             	adc    0x5(%eax),%ch
 6f1:	05 74 05 12 2f       	add    $0x2f120574,%eax
 6f6:	79 05                	jns    6fd <SEG_KERN_CS+0x6f5>
 6f8:	0d 92 05 33 9e       	or     $0x9e330592,%eax
 6fd:	05 0c 90 05 13       	add    $0x1305900c,%eax
 702:	4b                   	dec    %ebx
 703:	05 0d 4d 05 16       	add    $0x16054d0d,%eax
 708:	90                   	nop
 709:	05 21 82 05 1a       	add    $0x1a058221,%eax
 70e:	66 05 32 00          	add    $0x32,%ax
 712:	02 04 02             	add    (%edx,%eax,1),%al
 715:	03 74 2e 05          	add    0x5(%esi,%ebp,1),%esi
 719:	1b 00                	sbb    (%eax),%eax
 71b:	02 04 01             	add    (%ecx,%eax,1),%al
 71e:	4a                   	dec    %edx
 71f:	05 01 03 0e 90       	add    $0x900e0301,%eax
 724:	05 31 4c 05 0e       	add    $0xe054c31,%eax
 729:	67 05 1a 74 05 14    	addr16 add $0x1405741a,%eax
 72f:	75 05                	jne    736 <SEG_KERN_CS+0x72e>
 731:	0e                   	push   %cs
 732:	58                   	pop    %eax
 733:	05 0b 68 05 0d       	add    $0xd05680b,%eax
 738:	2f                   	das
 739:	05 16 90 05 1f       	add    $0x1f059016,%eax
 73e:	84 05 0d 65 05 10    	test   %al,0x1005650d
 744:	32 05 0e 75 05 0c    	xor    0xc05750e,%al
 74a:	75 05                	jne    751 <SEG_KERN_CS+0x749>
 74c:	15 03 78 4a 05       	adc    $0x54a7803,%eax
 751:	13 58 03             	adc    0x3(%eax),%ebx
 754:	0b 58 05             	or     0x5(%eax),%ebx
 757:	01 bb 02 03 00 01    	add    %edi,0x1000302(%ebx)
 75d:	01 3a                	add    %edi,(%edx)
 75f:	01 00                	add    %eax,(%eax)
 761:	00 05 00 04 00 58    	add    %al,0x58000400
 767:	00 00                	add    %al,(%eax)
 769:	00 01                	add    %al,(%ecx)
 76b:	01 01                	add    %eax,(%ecx)
 76d:	fb                   	sti
 76e:	0e                   	push   %cs
 76f:	0d 00 01 01 01       	or     $0x1010100,%eax
 774:	01 00                	add    %eax,(%eax)
 776:	00 00                	add    %al,(%eax)
 778:	01 00                	add    %eax,(%eax)
 77a:	00 01                	add    %al,(%ecx)
 77c:	01 01                	add    %eax,(%ecx)
 77e:	1f                   	pop    %ds
 77f:	05 0b 00 00 00       	add    $0xb,%eax
 784:	68 00 00 00 33       	push   $0x33000000
 789:	00 00                	add    %al,(%eax)
 78b:	00 10                	add    %dl,(%eax)
 78d:	01 00                	add    %eax,(%eax)
 78f:	00 72 00             	add    %dh,0x0(%edx)
 792:	00 00                	add    %al,(%eax)
 794:	02 01                	add    (%ecx),%al
 796:	1f                   	pop    %ds
 797:	02 0f                	add    (%edi),%cl
 799:	08 d2                	or     %dl,%dl
 79b:	01 00                	add    %eax,(%eax)
 79d:	00 01                	add    %al,(%ecx)
 79f:	d2 01                	rolb   %cl,(%ecx)
 7a1:	00 00                	add    %al,(%eax)
 7a3:	01 ac 00 00 00 02 ac 	add    %ebp,-0x53fe0000(%eax,%eax,1)
 7aa:	00 00                	add    %al,(%eax)
 7ac:	00 03                	add    %al,(%ebx)
 7ae:	82 01 00             	addb   $0x0,(%ecx)
 7b1:	00 03                	add    %al,(%ebx)
 7b3:	4e                   	dec    %esi
 7b4:	01 00                	add    %eax,(%eax)
 7b6:	00 03                	add    %al,(%ebx)
 7b8:	d2 00                	rolb   %cl,(%eax)
 7ba:	00 00                	add    %al,(%eax)
 7bc:	01 e5                	add    %esp,%ebp
 7be:	00 00                	add    %al,(%eax)
 7c0:	00 04 05 17 00 05 02 	add    %al,0x2050017(,%eax,1)
 7c7:	d9 62 40             	fldenv 0x40(%edx)
 7ca:	f0 03 14 01          	lock add (%ecx,%eax,1),%edx
 7ce:	05 05 67 08 67       	add    $0x67086705,%eax
 7d3:	05 12 08 3d 05       	add    $0x53d0812,%eax
 7d8:	15 76 05 3c 00       	adc    $0x3c0576,%eax
 7dd:	02 04 01             	add    (%ecx,%eax,1),%al
 7e0:	c8 05 12 00          	enter  $0x1205,$0x0
 7e4:	02 04 01             	add    (%ecx,%eax,1),%al
 7e7:	82 05 15 f3 05 3b 00 	addb   $0x0,0x3b05f315
 7ee:	02 04 01             	add    (%ecx,%eax,1),%al
 7f1:	c8 00 02 04          	enter  $0x200,$0x4
 7f5:	02 06                	add    (%esi),%al
 7f7:	ac                   	lods   %ds:(%esi),%al
 7f8:	05 12 00 02 04       	add    $0x4020012,%eax
 7fd:	04 06                	add    $0x6,%al
 7ff:	58                   	pop    %eax
 800:	05 05 f5 05 01       	add    $0x105f505,%eax
 805:	08 21                	or     %ah,(%ecx)
 807:	05 27 3e 05 08       	add    $0x8053e27,%eax
 80c:	bb 05 10 67 77       	mov    $0x77671005,%ebx
 811:	05 0c 4a 05 01       	add    $0x1054a0c,%eax
 816:	83 05 37 30 05 18 bb 	addl   $0xffffffbb,0x18053037
 81d:	05 26 f3 05 18       	add    $0x1805f326,%eax
 822:	74 05                	je     829 <SEG_KERN_CS+0x821>
 824:	08 08                	or     %cl,(%eax)
 826:	22 05 0e 00 02 04    	and    0x402000e,%al
 82c:	01 66 05             	add    %esp,0x5(%esi)
 82f:	10 67 05             	adc    %ah,0x5(%edi)
 832:	18 a1 05 05 93 05    	sbb    %ah,0x5930505(%ecx)
 838:	11 08                	adc    %ecx,(%eax)
 83a:	2f                   	das
 83b:	05 05 76 05 36       	add    $0x36057605,%eax
 840:	08 21                	or     %ah,(%ecx)
 842:	05 30 9e 05 2b       	add    $0x2b059e30,%eax
 847:	66 05 26 66          	add    $0x6626,%ax
 84b:	05 21 66 05 1c       	add    $0x1c056621,%eax
 850:	66 05 17 66          	add    $0x6617,%ax
 854:	05 12 66 05 0d       	add    $0xd056612,%eax
 859:	66 67 05 11 9f       	addr16 add $0x9f11,%ax
 85e:	05 24 9f 05 2a       	add    $0x2a059f24,%eax
 863:	4a                   	dec    %edx
 864:	05 24 9e 05 10       	add    $0x10059e24,%eax
 869:	74 05                	je     870 <SEG_KERN_CS+0x868>
 86b:	0e                   	push   %cs
 86c:	2e 05 0d 68 05 0e    	cs add $0xe05680d,%eax
 872:	9f                   	lahf
 873:	05 17 92 05 08       	add    $0x8059217,%eax
 878:	c8 05 09 4b          	enter  $0x905,$0x4b
 87c:	08 3d 08 83 05 17    	or     %bh,0x17058308
 882:	08 3f                	or     %bh,(%edi)
 884:	05 08 c8 05 09       	add    $0x905c808,%eax
 889:	4d                   	dec    %ebp
 88a:	05 10 08 75 05       	add    $0x5750810,%eax
 88f:	09 92 08 75 05 01    	or     %edx,0x1057508(%edx)
 895:	08 6b 02             	or     %ch,0x2(%ebx)
 898:	02 00                	add    (%eax),%al
 89a:	01 01                	add    %eax,(%ecx)
 89c:	6e                   	outsb  %ds:(%esi),(%dx)
 89d:	01 00                	add    %eax,(%eax)
 89f:	00 05 00 04 00 37    	add    %al,0x37000400
 8a5:	00 00                	add    %al,(%eax)
 8a7:	00 01                	add    %al,(%ecx)
 8a9:	01 01                	add    %eax,(%ecx)
 8ab:	fb                   	sti
 8ac:	0e                   	push   %cs
 8ad:	0d 00 01 01 01       	or     $0x1010100,%eax
 8b2:	01 00                	add    %eax,(%eax)
 8b4:	00 00                	add    %al,(%eax)
 8b6:	01 00                	add    %eax,(%eax)
 8b8:	00 01                	add    %al,(%ecx)
 8ba:	01 01                	add    %eax,(%ecx)
 8bc:	1f                   	pop    %ds
 8bd:	03 e5                	add    %ebp,%esp
 8bf:	01 00                	add    %eax,(%eax)
 8c1:	00 2f                	add    %ch,(%edi)
 8c3:	00 00                	add    %al,(%eax)
 8c5:	00 33                	add    %dh,(%ebx)
 8c7:	00 00                	add    %al,(%eax)
 8c9:	00 02                	add    %al,(%edx)
 8cb:	01 1f                	add    %ebx,(%edi)
 8cd:	02 0f                	add    (%edi),%cl
 8cf:	03 dc                	add    %esp,%ebx
 8d1:	01 00                	add    %eax,(%eax)
 8d3:	00 01                	add    %al,(%ecx)
 8d5:	dc 01                	faddl  (%ecx)
 8d7:	00 00                	add    %al,(%eax)
 8d9:	01 ac 00 00 00 02 05 	add    %ebp,0x5020000(%eax,%eax,1)
 8e0:	32 00                	xor    (%eax),%al
 8e2:	05 02 52 65 40       	add    $0x40655202,%eax
 8e7:	f0 14 05             	lock adc $0x5,%al
 8ea:	0e                   	push   %cs
 8eb:	bb 05 12 76 05       	mov    $0x5761205,%ebx
 8f0:	21 3c 05 1c 67 05 21 	and    %edi,0x2105671c(,%eax,1)
 8f7:	66 05 1c 67          	add    $0x671c,%ax
 8fb:	05 21 66 05 1c       	add    $0x1c056621,%eax
 900:	67 05 21 66 05 0e    	addr16 add $0xe056621,%eax
 906:	68 05 0c 67 05       	push   $0x5670c05
 90b:	05 76 05 1e 2f       	add    $0x2f1e0576,%eax
 910:	05 24 82 05 17       	add    $0x17058224,%eax
 915:	00 02                	add    %al,(%edx)
 917:	04 02                	add    $0x2,%al
 919:	57                   	push   %edi
 91a:	05 0e 00 02 04       	add    $0x402000e,%eax
 91f:	01 4a 05             	add    %ecx,0x5(%edx)
 922:	05 86 05 12 2f       	add    $0x2f120586,%eax
 927:	05 17 82 05 14       	add    $0x14058217,%eax
 92c:	00 02                	add    %al,(%edx)
 92e:	04 02                	add    $0x2,%al
 930:	65 05 0d 00 02 04    	gs add $0x402000d,%eax
 936:	01 4a 05             	add    %ecx,0x5(%edx)
 939:	01 85 05 36 4c 05    	add    %eax,0x54c3605(%ebp)
 93f:	0f 67 67 05          	packuswb 0x5(%edi),%mm4
 943:	0a 68 05             	or     0x5(%eax),%ch
 946:	1e                   	push   %ds
 947:	2f                   	das
 948:	05 11 90 05 16       	add    $0x16059011,%eax
 94d:	90                   	nop
 94e:	05 14 2e 05 0d       	add    $0xd052e14,%eax
 953:	2f                   	das
 954:	05 0f 48 05 0e       	add    $0xe05480f,%eax
 959:	6b 67 05 0a          	imul   $0xa,0x5(%edi),%esp
 95d:	68 05 1c 2f 05       	push   $0x52f1c05
 962:	10 90 05 15 90 05    	adc    %dl,0x5901505(%eax)
 968:	13 3c 05 0c 2f 05 0b 	adc    0xb052f0c(,%eax,1),%edi
 96f:	48                   	dec    %eax
 970:	05 01 6a 05 37       	add    $0x37056a01,%eax
 975:	4c                   	dec    %esp
 976:	05 08 67 6a 05       	add    $0x56a6708,%eax
 97b:	09 83 08 13 05 0f    	or     %eax,0xf051308(%ebx)
 981:	31 ad 05 0b ad 05    	xor    %ebp,0x5ad0b05(%ebp)
 987:	16                   	push   %ss
 988:	2f                   	das
 989:	05 18 82 05 16       	add    $0x16058218,%eax
 98e:	58                   	pop    %eax
 98f:	05 0d 59 05 10       	add    $0x1005590d,%eax
 994:	48                   	dec    %eax
 995:	05 0e 6b 67 05       	add    $0x5676b0e,%eax
 99a:	0a 67 05             	or     0x5(%edi),%ah
 99d:	15 2f 05 17 82       	adc    $0x8217052f,%eax
 9a2:	05 15 66 05 0c       	add    $0xc056615,%eax
 9a7:	59                   	pop    %ecx
 9a8:	05 0b 48 05 09       	add    $0x905480b,%eax
 9ad:	03 6f 82             	add    -0x7e(%edi),%ebp
 9b0:	05 01 03 15 20       	add    $0x20150301,%eax
 9b5:	05 42 30 05 0e       	add    $0xe053042,%eax
 9ba:	67 67 05 0d 67 05 0b 	addr16 addr16 add $0xb05670d,%eax
 9c1:	76 05                	jbe    9c8 <SEG_KERN_CS+0x9c0>
 9c3:	1f                   	pop    %ds
 9c4:	2f                   	das
 9c5:	05 11 90 05 20       	add    $0x20059011,%eax
 9ca:	59                   	pop    %ecx
 9cb:	05 11 90 59 05       	add    $0x5599011,%eax
 9d0:	0c 90                	or     $0x90,%al
 9d2:	05 0d 6a 05 10       	add    $0x10056a0d,%eax
 9d7:	03 79 4a             	add    0x4a(%ecx),%edi
 9da:	05 0d 86 05 0e       	add    $0xe05860d,%eax
 9df:	26 67 05 0b 68 05 1e 	es addr16 add $0x1e05680b,%eax
 9e6:	2f                   	das
 9e7:	05 16 90 05 11       	add    $0x11059016,%eax
 9ec:	3c 05                	cmp    $0x5,%al
 9ee:	1f                   	pop    %ds
 9ef:	67 05 16 90 05 11    	addr16 add $0x11059016,%eax
 9f5:	3c 67                	cmp    $0x67,%al
 9f7:	05 0c 90 05 14       	add    $0x1405900c,%eax
 9fc:	67 05 0c 5b 03 79    	addr16 add $0x79035b0c,%eax
 a02:	4a                   	dec    %edx
 a03:	03 0a                	add    (%edx),%ecx
 a05:	66 05 01 59          	add    $0x5901,%ax
 a09:	02 02                	add    (%edx),%al
 a0b:	00 01                	add    %al,(%ecx)
 a0d:	01 57 00             	add    %edx,0x0(%edi)
 a10:	00 00                	add    %al,(%eax)
 a12:	05 00 04 00 37       	add    $0x37000400,%eax
 a17:	00 00                	add    %al,(%eax)
 a19:	00 01                	add    %al,(%ecx)
 a1b:	01 01                	add    %eax,(%ecx)
 a1d:	fb                   	sti
 a1e:	0e                   	push   %cs
 a1f:	0d 00 01 01 01       	or     $0x1010100,%eax
 a24:	01 00                	add    %eax,(%eax)
 a26:	00 00                	add    %al,(%eax)
 a28:	01 00                	add    %eax,(%eax)
 a2a:	00 01                	add    %al,(%ecx)
 a2c:	01 01                	add    %eax,(%ecx)
 a2e:	1f                   	pop    %ds
 a2f:	03 00                	add    (%eax),%eax
 a31:	02 00                	add    (%eax),%al
 a33:	00 2f                	add    %ch,(%edi)
 a35:	00 00                	add    %al,(%eax)
 a37:	00 33                	add    %dh,(%ebx)
 a39:	00 00                	add    %al,(%eax)
 a3b:	00 02                	add    %al,(%edx)
 a3d:	01 1f                	add    %ebx,(%edi)
 a3f:	02 0f                	add    (%edi),%cl
 a41:	03 1a                	add    (%edx),%ebx
 a43:	02 00                	add    (%eax),%al
 a45:	00 01                	add    %al,(%ecx)
 a47:	1a 02                	sbb    (%edx),%al
 a49:	00 00                	add    %al,(%eax)
 a4b:	01 ac 00 00 00 02 05 	add    %ebp,0x5020000(%eax,%eax,1)
 a52:	19 00                	sbb    %eax,(%eax)
 a54:	05 02 76 67 40       	add    $0x40677602,%eax
 a59:	f0 14 05             	lock adc $0x5,%al
 a5c:	0f 67 05 0a 76 05 01 	packuswb 0x105760a,%mm0
 a63:	83 02 03             	addl   $0x3,(%edx)
 a66:	00 01                	add    %al,(%ecx)
 a68:	01                   	.byte 0x1

Disassembly of section .debug_frame:

00000000 <.debug_frame>:
   0:	10 00                	adc    %al,(%eax)
   2:	00 00                	add    %al,(%eax)
   4:	ff                   	(bad)
   5:	ff                   	(bad)
   6:	ff                   	(bad)
   7:	ff 01                	incl   (%ecx)
   9:	00 01                	add    %al,(%ecx)
   b:	7c 08                	jl     15 <SEG_KERN_CS+0xd>
   d:	0c 04                	or     $0x4,%al
   f:	04 88                	add    $0x88,%al
  11:	01 00                	add    %eax,(%eax)
  13:	00 1c 00             	add    %bl,(%eax,%eax,1)
  16:	00 00                	add    %al,(%eax)
  18:	00 00                	add    %al,(%eax)
  1a:	00 00                	add    %al,(%eax)
  1c:	00 50 40             	add    %dl,0x40(%eax)
  1f:	f0 54                	lock push %esp
  21:	00 00                	add    %al,(%eax)
  23:	00 41 0e             	add    %al,0xe(%ecx)
  26:	08 85 02 42 0d 05    	or     %al,0x50d4202(%ebp)
  2c:	02 50 c5             	add    -0x3b(%eax),%dl
  2f:	0c 04                	or     $0x4,%al
  31:	04 00                	add    $0x0,%al
  33:	00 10                	add    %dl,(%eax)
  35:	00 00                	add    %al,(%eax)
  37:	00 ff                	add    %bh,%bh
  39:	ff                   	(bad)
  3a:	ff                   	(bad)
  3b:	ff 01                	incl   (%ecx)
  3d:	00 01                	add    %al,(%ecx)
  3f:	7c 08                	jl     49 <SEG_KERN_CS+0x41>
  41:	0c 04                	or     $0x4,%al
  43:	04 88                	add    $0x88,%al
  45:	01 00                	add    %eax,(%eax)
  47:	00 1c 00             	add    %bl,(%eax,%eax,1)
  4a:	00 00                	add    %al,(%eax)
  4c:	34 00                	xor    $0x0,%al
  4e:	00 00                	add    %al,(%eax)
  50:	8b 50 40             	mov    0x40(%eax),%edx
  53:	f0 78 02             	lock js 58 <SEG_KERN_CS+0x50>
  56:	00 00                	add    %al,(%eax)
  58:	41                   	inc    %ecx
  59:	0e                   	push   %cs
  5a:	08 85 02 42 0d 05    	or     %al,0x50d4202(%ebp)
  60:	03 74 02 c5          	add    -0x3b(%edx,%eax,1),%esi
  64:	0c 04                	or     $0x4,%al
  66:	04 00                	add    $0x0,%al
  68:	10 00                	adc    %al,(%eax)
  6a:	00 00                	add    %al,(%eax)
  6c:	ff                   	(bad)
  6d:	ff                   	(bad)
  6e:	ff                   	(bad)
  6f:	ff 01                	incl   (%ecx)
  71:	00 01                	add    %al,(%ecx)
  73:	7c 08                	jl     7d <SEG_KERN_CS+0x75>
  75:	0c 04                	or     $0x4,%al
  77:	04 88                	add    $0x88,%al
  79:	01 00                	add    %eax,(%eax)
  7b:	00 1c 00             	add    %bl,(%eax,%eax,1)
  7e:	00 00                	add    %al,(%eax)
  80:	68 00 00 00 9e       	push   $0x9e000000
  85:	57                   	push   %edi
  86:	40                   	inc    %eax
  87:	f0 43                	lock inc %ebx
  89:	00 00                	add    %al,(%eax)
  8b:	00 41 0e             	add    %al,0xe(%ecx)
  8e:	08 85 02 42 0d 05    	or     %al,0x50d4202(%ebp)
  94:	7f c5                	jg     5b <SEG_KERN_CS+0x53>
  96:	0c 04                	or     $0x4,%al
  98:	04 00                	add    $0x0,%al
  9a:	00 00                	add    %al,(%eax)
  9c:	1c 00                	sbb    $0x0,%al
  9e:	00 00                	add    %al,(%eax)
  a0:	68 00 00 00 e1       	push   $0xe1000000
  a5:	57                   	push   %edi
  a6:	40                   	inc    %eax
  a7:	f0 52                	lock push %edx
  a9:	00 00                	add    %al,(%eax)
  ab:	00 41 0e             	add    %al,0xe(%ecx)
  ae:	08 85 02 42 0d 05    	or     %al,0x50d4202(%ebp)
  b4:	02 4e c5             	add    -0x3b(%esi),%cl
  b7:	0c 04                	or     $0x4,%al
  b9:	04 00                	add    $0x0,%al
  bb:	00 1c 00             	add    %bl,(%eax,%eax,1)
  be:	00 00                	add    %al,(%eax)
  c0:	68 00 00 00 33       	push   $0x33000000
  c5:	58                   	pop    %eax
  c6:	40                   	inc    %eax
  c7:	f0 42                	lock inc %edx
  c9:	00 00                	add    %al,(%eax)
  cb:	00 41 0e             	add    %al,0xe(%ecx)
  ce:	08 85 02 42 0d 05    	or     %al,0x50d4202(%ebp)
  d4:	7e c5                	jle    9b <SEG_KERN_CS+0x93>
  d6:	0c 04                	or     $0x4,%al
  d8:	04 00                	add    $0x0,%al
  da:	00 00                	add    %al,(%eax)
  dc:	1c 00                	sbb    $0x0,%al
  de:	00 00                	add    %al,(%eax)
  e0:	68 00 00 00 75       	push   $0x75000000
  e5:	58                   	pop    %eax
  e6:	40                   	inc    %eax
  e7:	f0 4c                	lock dec %esp
  e9:	00 00                	add    %al,(%eax)
  eb:	00 41 0e             	add    %al,0xe(%ecx)
  ee:	08 85 02 42 0d 05    	or     %al,0x50d4202(%ebp)
  f4:	02 48 c5             	add    -0x3b(%eax),%cl
  f7:	0c 04                	or     $0x4,%al
  f9:	04 00                	add    $0x0,%al
  fb:	00 10                	add    %dl,(%eax)
  fd:	00 00                	add    %al,(%eax)
  ff:	00 ff                	add    %bh,%bh
 101:	ff                   	(bad)
 102:	ff                   	(bad)
 103:	ff 01                	incl   (%ecx)
 105:	00 01                	add    %al,(%ecx)
 107:	7c 08                	jl     111 <SEG_KERN_CS+0x109>
 109:	0c 04                	or     $0x4,%al
 10b:	04 88                	add    $0x88,%al
 10d:	01 00                	add    %eax,(%eax)
 10f:	00 1c 00             	add    %bl,(%eax,%eax,1)
 112:	00 00                	add    %al,(%eax)
 114:	fc                   	cld
 115:	00 00                	add    %al,(%eax)
 117:	00 c1                	add    %al,%cl
 119:	58                   	pop    %eax
 11a:	40                   	inc    %eax
 11b:	f0 99                	lock cltd
 11d:	00 00                	add    %al,(%eax)
 11f:	00 41 0e             	add    %al,0xe(%ecx)
 122:	08 85 02 42 0d 05    	or     %al,0x50d4202(%ebp)
 128:	02 95 c5 0c 04 04    	add    0x4040cc5(%ebp),%dl
 12e:	00 00                	add    %al,(%eax)
 130:	1c 00                	sbb    $0x0,%al
 132:	00 00                	add    %al,(%eax)
 134:	fc                   	cld
 135:	00 00                	add    %al,(%eax)
 137:	00 5a 59             	add    %bl,0x59(%edx)
 13a:	40                   	inc    %eax
 13b:	f0 19 00             	lock sbb %eax,(%eax)
 13e:	00 00                	add    %al,(%eax)
 140:	41                   	inc    %ecx
 141:	0e                   	push   %cs
 142:	08 85 02 42 0d 05    	or     %al,0x50d4202(%ebp)
 148:	55                   	push   %ebp
 149:	c5 0c 04             	lds    (%esp,%eax,1),%ecx
 14c:	04 00                	add    $0x0,%al
 14e:	00 00                	add    %al,(%eax)
 150:	1c 00                	sbb    $0x0,%al
 152:	00 00                	add    %al,(%eax)
 154:	fc                   	cld
 155:	00 00                	add    %al,(%eax)
 157:	00 73 59             	add    %dh,0x59(%ebx)
 15a:	40                   	inc    %eax
 15b:	f0 27                	lock daa
 15d:	00 00                	add    %al,(%eax)
 15f:	00 41 0e             	add    %al,0xe(%ecx)
 162:	08 85 02 42 0d 05    	or     %al,0x50d4202(%ebp)
 168:	63 c5                	arpl   %eax,%ebp
 16a:	0c 04                	or     $0x4,%al
 16c:	04 00                	add    $0x0,%al
 16e:	00 00                	add    %al,(%eax)
 170:	1c 00                	sbb    $0x0,%al
 172:	00 00                	add    %al,(%eax)
 174:	fc                   	cld
 175:	00 00                	add    %al,(%eax)
 177:	00 9a 59 40 f0 87    	add    %bl,-0x780fbfa7(%edx)
 17d:	00 00                	add    %al,(%eax)
 17f:	00 41 0e             	add    %al,0xe(%ecx)
 182:	08 85 02 42 0d 05    	or     %al,0x50d4202(%ebp)
 188:	02 83 c5 0c 04 04    	add    0x4040cc5(%ebx),%al
 18e:	00 00                	add    %al,(%eax)
 190:	1c 00                	sbb    $0x0,%al
 192:	00 00                	add    %al,(%eax)
 194:	fc                   	cld
 195:	00 00                	add    %al,(%eax)
 197:	00 21                	add    %ah,(%ecx)
 199:	5a                   	pop    %edx
 19a:	40                   	inc    %eax
 19b:	f0 28 00             	lock sub %al,(%eax)
 19e:	00 00                	add    %al,(%eax)
 1a0:	41                   	inc    %ecx
 1a1:	0e                   	push   %cs
 1a2:	08 85 02 42 0d 05    	or     %al,0x50d4202(%ebp)
 1a8:	64 c5 0c 04          	lds    %fs:(%esp,%eax,1),%ecx
 1ac:	04 00                	add    $0x0,%al
 1ae:	00 00                	add    %al,(%eax)
 1b0:	1c 00                	sbb    $0x0,%al
 1b2:	00 00                	add    %al,(%eax)
 1b4:	fc                   	cld
 1b5:	00 00                	add    %al,(%eax)
 1b7:	00 49 5a             	add    %cl,0x5a(%ecx)
 1ba:	40                   	inc    %eax
 1bb:	f0 28 00             	lock sub %al,(%eax)
 1be:	00 00                	add    %al,(%eax)
 1c0:	41                   	inc    %ecx
 1c1:	0e                   	push   %cs
 1c2:	08 85 02 42 0d 05    	or     %al,0x50d4202(%ebp)
 1c8:	64 c5 0c 04          	lds    %fs:(%esp,%eax,1),%ecx
 1cc:	04 00                	add    $0x0,%al
 1ce:	00 00                	add    %al,(%eax)
 1d0:	10 00                	adc    %al,(%eax)
 1d2:	00 00                	add    %al,(%eax)
 1d4:	ff                   	(bad)
 1d5:	ff                   	(bad)
 1d6:	ff                   	(bad)
 1d7:	ff 01                	incl   (%ecx)
 1d9:	00 01                	add    %al,(%ecx)
 1db:	7c 08                	jl     1e5 <SEG_KERN_CS+0x1dd>
 1dd:	0c 04                	or     $0x4,%al
 1df:	04 88                	add    $0x88,%al
 1e1:	01 00                	add    %eax,(%eax)
 1e3:	00 1c 00             	add    %bl,(%eax,%eax,1)
 1e6:	00 00                	add    %al,(%eax)
 1e8:	d0 01                	rolb   $1,(%ecx)
 1ea:	00 00                	add    %al,(%eax)
 1ec:	70 5d                	jo     24b <SEG_KERN_CS+0x243>
 1ee:	40                   	inc    %eax
 1ef:	f0 5a                	lock pop %edx
 1f1:	00 00                	add    %al,(%eax)
 1f3:	00 41 0e             	add    %al,0xe(%ecx)
 1f6:	08 85 02 42 0d 05    	or     %al,0x50d4202(%ebp)
 1fc:	02 56 c5             	add    -0x3b(%esi),%dl
 1ff:	0c 04                	or     $0x4,%al
 201:	04 00                	add    $0x0,%al
 203:	00 1c 00             	add    %bl,(%eax,%eax,1)
 206:	00 00                	add    %al,(%eax)
 208:	d0 01                	rolb   $1,(%ecx)
 20a:	00 00                	add    %al,(%eax)
 20c:	ca 5d 40             	lret   $0x405d
 20f:	f0 ae                	lock scas %es:(%edi),%al
 211:	00 00                	add    %al,(%eax)
 213:	00 41 0e             	add    %al,0xe(%ecx)
 216:	08 85 02 42 0d 05    	or     %al,0x50d4202(%ebp)
 21c:	02 aa c5 0c 04 04    	add    0x4040cc5(%edx),%ch
 222:	00 00                	add    %al,(%eax)
 224:	20 00                	and    %al,(%eax)
 226:	00 00                	add    %al,(%eax)
 228:	d0 01                	rolb   $1,(%ecx)
 22a:	00 00                	add    %al,(%eax)
 22c:	78 5e                	js     28c <SEG_KERN_CS+0x284>
 22e:	40                   	inc    %eax
 22f:	f0 81 00 00 00 41 0e 	lock addl $0xe410000,(%eax)
 236:	08 85 02 42 0d 05    	or     %al,0x50d4202(%ebp)
 23c:	44                   	inc    %esp
 23d:	83 03 02             	addl   $0x2,(%ebx)
 240:	79 c5                	jns    207 <SEG_KERN_CS+0x1ff>
 242:	c3                   	ret
 243:	0c 04                	or     $0x4,%al
 245:	04 00                	add    $0x0,%al
 247:	00 1c 00             	add    %bl,(%eax,%eax,1)
 24a:	00 00                	add    %al,(%eax)
 24c:	d0 01                	rolb   $1,(%ecx)
 24e:	00 00                	add    %al,(%eax)
 250:	f9                   	stc
 251:	5e                   	pop    %esi
 252:	40                   	inc    %eax
 253:	f0 82 00 00          	lock addb $0x0,(%eax)
 257:	00 41 0e             	add    %al,0xe(%ecx)
 25a:	08 85 02 42 0d 05    	or     %al,0x50d4202(%ebp)
 260:	02 7e c5             	add    -0x3b(%esi),%bh
 263:	0c 04                	or     $0x4,%al
 265:	04 00                	add    $0x0,%al
 267:	00 1c 00             	add    %bl,(%eax,%eax,1)
 26a:	00 00                	add    %al,(%eax)
 26c:	d0 01                	rolb   $1,(%ecx)
 26e:	00 00                	add    %al,(%eax)
 270:	7b 5f                	jnp    2d1 <SEG_KERN_CS+0x2c9>
 272:	40                   	inc    %eax
 273:	f0 3d 00 00 00 41    	lock cmp $0x41000000,%eax
 279:	0e                   	push   %cs
 27a:	08 85 02 42 0d 05    	or     %al,0x50d4202(%ebp)
 280:	79 c5                	jns    247 <SEG_KERN_CS+0x23f>
 282:	0c 04                	or     $0x4,%al
 284:	04 00                	add    $0x0,%al
 286:	00 00                	add    %al,(%eax)
 288:	1c 00                	sbb    $0x0,%al
 28a:	00 00                	add    %al,(%eax)
 28c:	d0 01                	rolb   $1,(%ecx)
 28e:	00 00                	add    %al,(%eax)
 290:	b8 5f 40 f0 41       	mov    $0x41f0405f,%eax
 295:	00 00                	add    %al,(%eax)
 297:	00 41 0e             	add    %al,0xe(%ecx)
 29a:	08 85 02 42 0d 05    	or     %al,0x50d4202(%ebp)
 2a0:	7d c5                	jge    267 <SEG_KERN_CS+0x25f>
 2a2:	0c 04                	or     $0x4,%al
 2a4:	04 00                	add    $0x0,%al
 2a6:	00 00                	add    %al,(%eax)
 2a8:	1c 00                	sbb    $0x0,%al
 2aa:	00 00                	add    %al,(%eax)
 2ac:	d0 01                	rolb   $1,(%ecx)
 2ae:	00 00                	add    %al,(%eax)
 2b0:	f9                   	stc
 2b1:	5f                   	pop    %edi
 2b2:	40                   	inc    %eax
 2b3:	f0 4c                	lock dec %esp
 2b5:	00 00                	add    %al,(%eax)
 2b7:	00 41 0e             	add    %al,0xe(%ecx)
 2ba:	08 85 02 42 0d 05    	or     %al,0x50d4202(%ebp)
 2c0:	02 48 c5             	add    -0x3b(%eax),%cl
 2c3:	0c 04                	or     $0x4,%al
 2c5:	04 00                	add    $0x0,%al
 2c7:	00 1c 00             	add    %bl,(%eax,%eax,1)
 2ca:	00 00                	add    %al,(%eax)
 2cc:	d0 01                	rolb   $1,(%ecx)
 2ce:	00 00                	add    %al,(%eax)
 2d0:	45                   	inc    %ebp
 2d1:	60                   	pusha
 2d2:	40                   	inc    %eax
 2d3:	f0 3c 00             	lock cmp $0x0,%al
 2d6:	00 00                	add    %al,(%eax)
 2d8:	41                   	inc    %ecx
 2d9:	0e                   	push   %cs
 2da:	08 85 02 42 0d 05    	or     %al,0x50d4202(%ebp)
 2e0:	78 c5                	js     2a7 <SEG_KERN_CS+0x29f>
 2e2:	0c 04                	or     $0x4,%al
 2e4:	04 00                	add    $0x0,%al
 2e6:	00 00                	add    %al,(%eax)
 2e8:	1c 00                	sbb    $0x0,%al
 2ea:	00 00                	add    %al,(%eax)
 2ec:	d0 01                	rolb   $1,(%ecx)
 2ee:	00 00                	add    %al,(%eax)
 2f0:	81 60 40 f0 5a 00 00 	andl   $0x5af0,0x40(%eax)
 2f7:	00 41 0e             	add    %al,0xe(%ecx)
 2fa:	08 85 02 42 0d 05    	or     %al,0x50d4202(%ebp)
 300:	02 56 c5             	add    -0x3b(%esi),%dl
 303:	0c 04                	or     $0x4,%al
 305:	04 00                	add    $0x0,%al
 307:	00 10                	add    %dl,(%eax)
 309:	00 00                	add    %al,(%eax)
 30b:	00 ff                	add    %bh,%bh
 30d:	ff                   	(bad)
 30e:	ff                   	(bad)
 30f:	ff 01                	incl   (%ecx)
 311:	00 01                	add    %al,(%ecx)
 313:	7c 08                	jl     31d <SEG_KERN_CS+0x315>
 315:	0c 04                	or     $0x4,%al
 317:	04 88                	add    $0x88,%al
 319:	01 00                	add    %eax,(%eax)
 31b:	00 1c 00             	add    %bl,(%eax,%eax,1)
 31e:	00 00                	add    %al,(%eax)
 320:	08 03                	or     %al,(%ebx)
 322:	00 00                	add    %al,(%eax)
 324:	db 60 40             	(bad)  0x40(%eax)
 327:	f0 33 00             	lock xor (%eax),%eax
 32a:	00 00                	add    %al,(%eax)
 32c:	41                   	inc    %ecx
 32d:	0e                   	push   %cs
 32e:	08 85 02 42 0d 05    	or     %al,0x50d4202(%ebp)
 334:	6f                   	outsl  %ds:(%esi),(%dx)
 335:	c5 0c 04             	lds    (%esp,%eax,1),%ecx
 338:	04 00                	add    $0x0,%al
 33a:	00 00                	add    %al,(%eax)
 33c:	1c 00                	sbb    $0x0,%al
 33e:	00 00                	add    %al,(%eax)
 340:	08 03                	or     %al,(%ebx)
 342:	00 00                	add    %al,(%eax)
 344:	0e                   	push   %cs
 345:	61                   	popa
 346:	40                   	inc    %eax
 347:	f0 19 00             	lock sbb %eax,(%eax)
 34a:	00 00                	add    %al,(%eax)
 34c:	41                   	inc    %ecx
 34d:	0e                   	push   %cs
 34e:	08 85 02 42 0d 05    	or     %al,0x50d4202(%ebp)
 354:	55                   	push   %ebp
 355:	c5 0c 04             	lds    (%esp,%eax,1),%ecx
 358:	04 00                	add    $0x0,%al
 35a:	00 00                	add    %al,(%eax)
 35c:	1c 00                	sbb    $0x0,%al
 35e:	00 00                	add    %al,(%eax)
 360:	08 03                	or     %al,(%ebx)
 362:	00 00                	add    %al,(%eax)
 364:	27                   	daa
 365:	61                   	popa
 366:	40                   	inc    %eax
 367:	f0 4c                	lock dec %esp
 369:	00 00                	add    %al,(%eax)
 36b:	00 41 0e             	add    %al,0xe(%ecx)
 36e:	08 85 02 42 0d 05    	or     %al,0x50d4202(%ebp)
 374:	02 48 c5             	add    -0x3b(%eax),%cl
 377:	0c 04                	or     $0x4,%al
 379:	04 00                	add    $0x0,%al
 37b:	00 20                	add    %ah,(%eax)
 37d:	00 00                	add    %al,(%eax)
 37f:	00 08                	add    %cl,(%eax)
 381:	03 00                	add    (%eax),%eax
 383:	00 73 61             	add    %dh,0x61(%ebx)
 386:	40                   	inc    %eax
 387:	f0 63 00             	lock arpl %eax,(%eax)
 38a:	00 00                	add    %al,(%eax)
 38c:	41                   	inc    %ecx
 38d:	0e                   	push   %cs
 38e:	08 85 02 42 0d 05    	or     %al,0x50d4202(%ebp)
 394:	44                   	inc    %esp
 395:	83 03 02             	addl   $0x2,(%ebx)
 398:	5b                   	pop    %ebx
 399:	c5 c3 0c             	(bad)
 39c:	04 04                	add    $0x4,%al
 39e:	00 00                	add    %al,(%eax)
 3a0:	10 00                	adc    %al,(%eax)
 3a2:	00 00                	add    %al,(%eax)
 3a4:	ff                   	(bad)
 3a5:	ff                   	(bad)
 3a6:	ff                   	(bad)
 3a7:	ff 01                	incl   (%ecx)
 3a9:	00 01                	add    %al,(%ecx)
 3ab:	7c 08                	jl     3b5 <SEG_KERN_CS+0x3ad>
 3ad:	0c 04                	or     $0x4,%al
 3af:	04 88                	add    $0x88,%al
 3b1:	01 00                	add    %eax,(%eax)
 3b3:	00 1c 00             	add    %bl,(%eax,%eax,1)
 3b6:	00 00                	add    %al,(%eax)
 3b8:	a0 03 00 00 d6       	mov    0xd6000003,%al
 3bd:	61                   	popa
 3be:	40                   	inc    %eax
 3bf:	f0 3a 00             	lock cmp (%eax),%al
 3c2:	00 00                	add    %al,(%eax)
 3c4:	41                   	inc    %ecx
 3c5:	0e                   	push   %cs
 3c6:	08 85 02 42 0d 05    	or     %al,0x50d4202(%ebp)
 3cc:	76 c5                	jbe    393 <SEG_KERN_CS+0x38b>
 3ce:	0c 04                	or     $0x4,%al
 3d0:	04 00                	add    $0x0,%al
 3d2:	00 00                	add    %al,(%eax)
 3d4:	1c 00                	sbb    $0x0,%al
 3d6:	00 00                	add    %al,(%eax)
 3d8:	a0 03 00 00 10       	mov    0x10000003,%al
 3dd:	62 40 f0             	bound  %eax,-0x10(%eax)
 3e0:	64 00 00             	add    %al,%fs:(%eax)
 3e3:	00 41 0e             	add    %al,0xe(%ecx)
 3e6:	08 85 02 42 0d 05    	or     %al,0x50d4202(%ebp)
 3ec:	02 60 c5             	add    -0x3b(%eax),%ah
 3ef:	0c 04                	or     $0x4,%al
 3f1:	04 00                	add    $0x0,%al
 3f3:	00 1c 00             	add    %bl,(%eax,%eax,1)
 3f6:	00 00                	add    %al,(%eax)
 3f8:	a0 03 00 00 74       	mov    0x74000003,%al
 3fd:	62 40 f0             	bound  %eax,-0x10(%eax)
 400:	65 00 00             	add    %al,%gs:(%eax)
 403:	00 41 0e             	add    %al,0xe(%ecx)
 406:	08 85 02 42 0d 05    	or     %al,0x50d4202(%ebp)
 40c:	02 61 c5             	add    -0x3b(%ecx),%ah
 40f:	0c 04                	or     $0x4,%al
 411:	04 00                	add    $0x0,%al
 413:	00 10                	add    %dl,(%eax)
 415:	00 00                	add    %al,(%eax)
 417:	00 ff                	add    %bh,%bh
 419:	ff                   	(bad)
 41a:	ff                   	(bad)
 41b:	ff 01                	incl   (%ecx)
 41d:	00 01                	add    %al,(%ecx)
 41f:	7c 08                	jl     429 <SEG_KERN_CS+0x421>
 421:	0c 04                	or     $0x4,%al
 423:	04 88                	add    $0x88,%al
 425:	01 00                	add    %eax,(%eax)
 427:	00 1c 00             	add    %bl,(%eax,%eax,1)
 42a:	00 00                	add    %al,(%eax)
 42c:	14 04                	adc    $0x4,%al
 42e:	00 00                	add    %al,(%eax)
 430:	d9 62 40             	fldenv 0x40(%edx)
 433:	f0 9f                	lock lahf
 435:	00 00                	add    %al,(%eax)
 437:	00 41 0e             	add    %al,0xe(%ecx)
 43a:	08 85 02 42 0d 05    	or     %al,0x50d4202(%ebp)
 440:	02 9b c5 0c 04 04    	add    0x4040cc5(%ebx),%bl
 446:	00 00                	add    %al,(%eax)
 448:	1c 00                	sbb    $0x0,%al
 44a:	00 00                	add    %al,(%eax)
 44c:	14 04                	adc    $0x4,%al
 44e:	00 00                	add    %al,(%eax)
 450:	78 63                	js     4b5 <SEG_KERN_CS+0x4ad>
 452:	40                   	inc    %eax
 453:	f0 27                	lock daa
 455:	00 00                	add    %al,(%eax)
 457:	00 41 0e             	add    %al,0xe(%ecx)
 45a:	08 85 02 42 0d 05    	or     %al,0x50d4202(%ebp)
 460:	63 c5                	arpl   %eax,%ebp
 462:	0c 04                	or     $0x4,%al
 464:	04 00                	add    $0x0,%al
 466:	00 00                	add    %al,(%eax)
 468:	1c 00                	sbb    $0x0,%al
 46a:	00 00                	add    %al,(%eax)
 46c:	14 04                	adc    $0x4,%al
 46e:	00 00                	add    %al,(%eax)
 470:	9f                   	lahf
 471:	63 40 f0             	arpl   %eax,-0x10(%eax)
 474:	b3 01                	mov    $0x1,%bl
 476:	00 00                	add    %al,(%eax)
 478:	41                   	inc    %ecx
 479:	0e                   	push   %cs
 47a:	08 85 02 42 0d 05    	or     %al,0x50d4202(%ebp)
 480:	03 af 01 c5 0c 04    	add    0x40cc501(%edi),%ebp
 486:	04 00                	add    $0x0,%al
 488:	10 00                	adc    %al,(%eax)
 48a:	00 00                	add    %al,(%eax)
 48c:	ff                   	(bad)
 48d:	ff                   	(bad)
 48e:	ff                   	(bad)
 48f:	ff 01                	incl   (%ecx)
 491:	00 01                	add    %al,(%ecx)
 493:	7c 08                	jl     49d <SEG_KERN_CS+0x495>
 495:	0c 04                	or     $0x4,%al
 497:	04 88                	add    $0x88,%al
 499:	01 00                	add    %eax,(%eax)
 49b:	00 1c 00             	add    %bl,(%eax,%eax,1)
 49e:	00 00                	add    %al,(%eax)
 4a0:	88 04 00             	mov    %al,(%eax,%eax,1)
 4a3:	00 52 65             	add    %dl,0x65(%edx)
 4a6:	40                   	inc    %eax
 4a7:	f0 88 00             	lock mov %al,(%eax)
 4aa:	00 00                	add    %al,(%eax)
 4ac:	41                   	inc    %ecx
 4ad:	0e                   	push   %cs
 4ae:	08 85 02 42 0d 05    	or     %al,0x50d4202(%ebp)
 4b4:	02 84 c5 0c 04 04 00 	add    0x4040c(%ebp,%eax,8),%al
 4bb:	00 1c 00             	add    %bl,(%eax,%eax,1)
 4be:	00 00                	add    %al,(%eax)
 4c0:	88 04 00             	mov    %al,(%eax,%eax,1)
 4c3:	00 da                	add    %bl,%dl
 4c5:	65 40                	gs inc %eax
 4c7:	f0 67 00 00          	lock add %al,(%bx,%si)
 4cb:	00 41 0e             	add    %al,0xe(%ecx)
 4ce:	08 85 02 42 0d 05    	or     %al,0x50d4202(%ebp)
 4d4:	02 63 c5             	add    -0x3b(%ebx),%ah
 4d7:	0c 04                	or     $0x4,%al
 4d9:	04 00                	add    $0x0,%al
 4db:	00 1c 00             	add    %bl,(%eax,%eax,1)
 4de:	00 00                	add    %al,(%eax)
 4e0:	88 04 00             	mov    %al,(%eax,%eax,1)
 4e3:	00 41 66             	add    %al,0x66(%ecx)
 4e6:	40                   	inc    %eax
 4e7:	f0 8b 00             	lock mov (%eax),%eax
 4ea:	00 00                	add    %al,(%eax)
 4ec:	41                   	inc    %ecx
 4ed:	0e                   	push   %cs
 4ee:	08 85 02 42 0d 05    	or     %al,0x50d4202(%ebp)
 4f4:	02 87 c5 0c 04 04    	add    0x4040cc5(%edi),%al
 4fa:	00 00                	add    %al,(%eax)
 4fc:	1c 00                	sbb    $0x0,%al
 4fe:	00 00                	add    %al,(%eax)
 500:	88 04 00             	mov    %al,(%eax,%eax,1)
 503:	00 cc                	add    %cl,%ah
 505:	66 40                	inc    %ax
 507:	f0 aa                	lock stos %al,%es:(%edi)
 509:	00 00                	add    %al,(%eax)
 50b:	00 41 0e             	add    %al,0xe(%ecx)
 50e:	08 85 02 42 0d 05    	or     %al,0x50d4202(%ebp)
 514:	02 a6 c5 0c 04 04    	add    0x4040cc5(%esi),%ah
 51a:	00 00                	add    %al,(%eax)
 51c:	10 00                	adc    %al,(%eax)
 51e:	00 00                	add    %al,(%eax)
 520:	ff                   	(bad)
 521:	ff                   	(bad)
 522:	ff                   	(bad)
 523:	ff 01                	incl   (%ecx)
 525:	00 01                	add    %al,(%ecx)
 527:	7c 08                	jl     531 <SEG_KERN_CS+0x529>
 529:	0c 04                	or     $0x4,%al
 52b:	04 88                	add    $0x88,%al
 52d:	01 00                	add    %eax,(%eax)
 52f:	00 1c 00             	add    %bl,(%eax,%eax,1)
 532:	00 00                	add    %al,(%eax)
 534:	1c 05                	sbb    $0x5,%al
 536:	00 00                	add    %al,(%eax)
 538:	76 67                	jbe    5a1 <SEG_KERN_CS+0x599>
 53a:	40                   	inc    %eax
 53b:	f0 18 00             	lock sbb %al,(%eax)
 53e:	00 00                	add    %al,(%eax)
 540:	41                   	inc    %ecx
 541:	0e                   	push   %cs
 542:	08 85 02 42 0d 05    	or     %al,0x50d4202(%ebp)
 548:	54                   	push   %esp
 549:	c5 0c 04             	lds    (%esp,%eax,1),%ecx
 54c:	04 00                	add    $0x0,%al
	...

Disassembly of section .debug_str:

00000000 <.debug_str>:
   0:	6b 62 6f 6f          	imul   $0x6f,0x6f(%edx),%esp
   4:	74 69                	je     6f <SEG_KERN_CS+0x67>
   6:	6e                   	outsb  %ds:(%esi),(%dx)
   7:	66 6f                	outsw  %ds:(%esi),(%dx)
   9:	5f                   	pop    %edi
   a:	74 00                	je     c <SEG_KERN_CS+0x4>
   c:	6b 65 72 6e          	imul   $0x6e,0x72(%ebp),%esp
  10:	5f                   	pop    %edi
  11:	61                   	popa
  12:	6c                   	insb   (%dx),%es:(%edi)
  13:	6c                   	insb   (%dx),%es:(%edi)
  14:	6f                   	outsl  %ds:(%esi),(%dx)
  15:	63 00                	arpl   %eax,(%eax)
  17:	75 69                	jne    82 <SEG_KERN_CS+0x7a>
  19:	6e                   	outsb  %ds:(%esi),(%dx)
  1a:	74 36                	je     52 <SEG_KERN_CS+0x4a>
  1c:	34 5f                	xor    $0x5f,%al
  1e:	74 00                	je     20 <SEG_KERN_CS+0x18>
  20:	73 68                	jae    8a <SEG_KERN_CS+0x82>
  22:	6f                   	outsl  %ds:(%esi),(%dx)
  23:	72 74                	jb     99 <SEG_KERN_CS+0x91>
  25:	20 69 6e             	and    %ch,0x6e(%ecx)
  28:	74 00                	je     2a <SEG_KERN_CS+0x22>
  2a:	73 69                	jae    95 <SEG_KERN_CS+0x8d>
  2c:	7a 65                	jp     93 <SEG_KERN_CS+0x8b>
  2e:	5f                   	pop    %edi
  2f:	74 00                	je     31 <SEG_KERN_CS+0x29>
  31:	6b 61 72 63          	imul   $0x63,0x72(%ecx),%esp
  35:	68 5f 66 6c 75       	push   $0x756c665f
  3a:	73 68                	jae    a4 <SEG_KERN_CS+0x9c>
  3c:	5f                   	pop    %edi
  3d:	67 64 74 00          	addr16 fs je 41 <SEG_KERN_CS+0x39>
  41:	6b 61 72 63          	imul   $0x63,0x72(%ecx),%esp
  45:	68 5f 69 6e 69       	push   $0x696e695f
  4a:	74 00                	je     4c <SEG_KERN_CS+0x44>
  4c:	62 6f 6f             	bound  %ebp,0x6f(%edi)
  4f:	74 73                	je     c4 <SEG_KERN_CS+0xbc>
  51:	74 72                	je     c5 <SEG_KERN_CS+0xbd>
  53:	61                   	popa
  54:	70 00                	jo     56 <SEG_KERN_CS+0x4e>
  56:	6b 61 72 63          	imul   $0x63,0x72(%ecx),%esp
  5a:	68 5f 69 6e 69       	push   $0x696e695f
  5f:	74 5f                	je     c0 <SEG_KERN_CS+0xb8>
  61:	69 64 74 00 66 72 65 	imul   $0x65657266,0x0(%esp,%esi,2),%esp
  68:	65 
  69:	70 64                	jo     cf <SEG_KERN_CS+0xc7>
  6b:	65 00 70 61          	add    %dh,%gs:0x61(%eax)
  6f:	67 65 64 69 72 00 6b 	gs imul $0x6e72656b,%fs:0x0(%bp,%si),%esi
  76:	65 72 6e 
  79:	5f                   	pop    %edi
  7a:	61                   	popa
  7b:	6c                   	insb   (%dx),%es:(%edi)
  7c:	6c                   	insb   (%dx),%es:(%edi)
  7d:	6f                   	outsl  %ds:(%esi),(%dx)
  7e:	63 5f 64             	arpl   %ebx,0x64(%edi)
  81:	79 6e                	jns    f1 <SEG_KERN_CS+0xe9>
  83:	00 6c 6f 6e          	add    %ch,0x6e(%edi,%ebp,2)
  87:	67 20 6c 6f          	and    %ch,0x6f(%si)
  8b:	6e                   	outsb  %ds:(%esi),(%dx)
  8c:	67 20 69 6e          	and    %ch,0x6e(%bx,%di)
  90:	74 00                	je     92 <SEG_KERN_CS+0x8a>
  92:	6d                   	insl   (%dx),%es:(%edi)
  93:	65 6d                	gs insl (%dx),%es:(%edi)
  95:	5f                   	pop    %edi
  96:	68 69 67 68 5f       	push   $0x5f686769
  9b:	70 68                	jo     105 <SEG_KERN_CS+0xfd>
  9d:	79 73                	jns    112 <SEG_KERN_CS+0x10a>
  9f:	00 6d 6d             	add    %ch,0x6d(%ebp)
  a2:	61                   	popa
  a3:	70 5f                	jo     104 <SEG_KERN_CS+0xfc>
  a5:	63 6e 74             	arpl   %ebp,0x74(%esi)
  a8:	00 61 64             	add    %ah,0x64(%ecx)
  ab:	64 72 00             	fs jb  ae <SEG_KERN_CS+0xa6>
  ae:	6b 65 72 6e          	imul   $0x6e,0x72(%ebp),%esp
  b2:	5f                   	pop    %edi
  b3:	76 69                	jbe    11e <SEG_KERN_CS+0x116>
  b5:	72 74                	jb     12b <SEG_KERN_CS+0x123>
  b7:	00 6b 62             	add    %ch,0x62(%ebx)
  ba:	6f                   	outsl  %ds:(%esi),(%dx)
  bb:	6f                   	outsl  %ds:(%esi),(%dx)
  bc:	74 6d                	je     12b <SEG_KERN_CS+0x123>
  be:	65 6d                	gs insl (%dx),%es:(%edi)
  c0:	5f                   	pop    %edi
  c1:	74 00                	je     c3 <SEG_KERN_CS+0xbb>
  c3:	75 6e                	jne    133 <SEG_KERN_CS+0x12b>
  c5:	73 69                	jae    130 <SEG_KERN_CS+0x128>
  c7:	67 6e                	outsb  %ds:(%si),(%dx)
  c9:	65 64 20 63 68       	gs and %ah,%fs:0x68(%ebx)
  ce:	61                   	popa
  cf:	72 00                	jb     d1 <SEG_KERN_CS+0xc9>
  d1:	6b 61 72 63          	imul   $0x63,0x72(%ecx),%esp
  d5:	68 5f 69 6e 69       	push   $0x696e695f
  da:	74 5f                	je     13b <SEG_KERN_CS+0x133>
  dc:	67 64 74 00          	addr16 fs je e0 <SEG_KERN_CS+0xd8>
  e0:	6b 62 6f 6f          	imul   $0x6f,0x6f(%edx),%esp
  e4:	74 69                	je     14f <SEG_KERN_CS+0x147>
  e6:	6e                   	outsb  %ds:(%esi),(%dx)
  e7:	66 6f                	outsw  %ds:(%esi),(%dx)
  e9:	5f                   	pop    %edi
  ea:	6d                   	insl   (%dx),%es:(%edi)
  eb:	6d                   	insl   (%dx),%es:(%edi)
  ec:	61                   	popa
  ed:	70 5f                	jo     14e <SEG_KERN_CS+0x146>
  ef:	74 00                	je     f1 <SEG_KERN_CS+0xe9>
  f1:	6c                   	insb   (%dx),%es:(%edi)
  f2:	6f                   	outsl  %ds:(%esi),(%dx)
  f3:	6e                   	outsb  %ds:(%esi),(%dx)
  f4:	67 20 6c 6f          	and    %ch,0x6f(%si)
  f8:	6e                   	outsb  %ds:(%esi),(%dx)
  f9:	67 20 75 6e          	and    %dh,0x6e(%di)
  fd:	73 69                	jae    168 <SEG_KERN_CS+0x160>
  ff:	67 6e                	outsb  %ds:(%si),(%dx)
 101:	65 64 20 69 6e       	gs and %ch,%fs:0x6e(%ecx)
 106:	74 00                	je     108 <SEG_KERN_CS+0x100>
 108:	75 69                	jne    173 <SEG_KERN_CS+0x16b>
 10a:	6e                   	outsb  %ds:(%esi),(%dx)
 10b:	74 33                	je     140 <SEG_KERN_CS+0x138>
 10d:	32 5f 74             	xor    0x74(%edi),%bl
 110:	00 6b 61             	add    %ch,0x61(%ebx)
 113:	72 63                	jb     178 <SEG_KERN_CS+0x170>
 115:	68 5f 69 6e 69       	push   $0x696e695f
 11a:	74 5f                	je     17b <SEG_KERN_CS+0x173>
 11c:	69 38 32 35 39 00    	imul   $0x393532,(%eax),%edi
 122:	6b 61 72 63          	imul   $0x63,0x72(%ecx),%esp
 126:	68 5f 69 6e 69       	push   $0x696e695f
 12b:	74 5f                	je     18c <SEG_KERN_CS+0x184>
 12d:	70 61                	jo     190 <SEG_KERN_CS+0x188>
 12f:	67 65 00 73 68       	add    %dh,%gs:0x68(%bp,%di)
 134:	6f                   	outsl  %ds:(%esi),(%dx)
 135:	72 74                	jb     1ab <SEG_KERN_CS+0x1a3>
 137:	20 75 6e             	and    %dh,0x6e(%ebp)
 13a:	73 69                	jae    1a5 <SEG_KERN_CS+0x19d>
 13c:	67 6e                	outsb  %ds:(%si),(%dx)
 13e:	65 64 20 69 6e       	gs and %ch,%fs:0x6e(%ecx)
 143:	74 00                	je     145 <SEG_KERN_CS+0x13d>
 145:	47                   	inc    %edi
 146:	4e                   	dec    %esi
 147:	55                   	push   %ebp
 148:	20 43 39             	and    %al,0x39(%ebx)
 14b:	39 20                	cmp    %esp,(%eax)
 14d:	31 33                	xor    %esi,(%ebx)
 14f:	2e 32 2e             	xor    %cs:(%esi),%ch
 152:	30 20                	xor    %ah,(%eax)
 154:	2d 6d 74 75 6e       	sub    $0x6e75746d,%eax
 159:	65 3d 67 65 6e 65    	gs cmp $0x656e6567,%eax
 15f:	72 69                	jb     1ca <SEG_KERN_CS+0x1c2>
 161:	63 20                	arpl   %esp,(%eax)
 163:	2d 6d 61 72 63       	sub    $0x6372616d,%eax
 168:	68 3d 70 65 6e       	push   $0x6e65703d
 16d:	74 69                	je     1d8 <SEG_KERN_CS+0x1d0>
 16f:	75 6d                	jne    1de <SEG_KERN_CS+0x1d6>
 171:	70 72                	jo     1e5 <SEG_KERN_CS+0x1dd>
 173:	6f                   	outsl  %ds:(%esi),(%dx)
 174:	20 2d 67 20 2d 73    	and    %ch,0x732d2067
 17a:	74 64                	je     1e0 <SEG_KERN_CS+0x1d8>
 17c:	3d 67 6e 75 39       	cmp    $0x39756e67,%eax
 181:	39 20                	cmp    %esp,(%eax)
 183:	2d 66 66 72 65       	sub    $0x65726666,%eax
 188:	65 73 74             	gs jae 1ff <SEG_KERN_CS+0x1f7>
 18b:	61                   	popa
 18c:	6e                   	outsb  %ds:(%esi),(%dx)
 18d:	64 69 6e 67 00 6d 6d 	imul   $0x616d6d00,%fs:0x67(%esi),%ebp
 194:	61 
 195:	70 00                	jo     197 <SEG_KERN_CS+0x18f>
 197:	6b 61 72 63          	imul   $0x63,0x72(%ecx),%esp
 19b:	68 5f 69 6e 69       	push   $0x696e695f
 1a0:	74 5f                	je     201 <SEG_KERN_CS+0x1f9>
 1a2:	65 78 63             	gs js  208 <SEG_KERN_CS+0x200>
 1a5:	65 70 74             	gs jo  21c <SEG_KERN_CS+0x214>
 1a8:	00 6b 69             	add    %ch,0x69(%ebx)
 1ab:	6e                   	outsb  %ds:(%esi),(%dx)
 1ac:	66 6f                	outsw  %ds:(%esi),(%dx)
 1ae:	00 6b 65             	add    %ch,0x65(%ebx)
 1b1:	72 6e                	jb     221 <SEG_KERN_CS+0x219>
 1b3:	5f                   	pop    %edi
 1b4:	76 69                	jbe    21f <SEG_KERN_CS+0x217>
 1b6:	72 74                	jb     22c <SEG_KERN_CS+0x224>
 1b8:	5f                   	pop    %edi
 1b9:	62 61 73             	bound  %esp,0x73(%ecx)
 1bc:	65 00 6b 6d          	add    %ch,%gs:0x6d(%ebx)
 1c0:	65 6d                	gs insl (%dx),%es:(%edi)
 1c2:	63 70 79             	arpl   %esi,0x79(%eax)
 1c5:	00 6b 61             	add    %ch,0x61(%ebx)
 1c8:	72 63                	jb     22d <SEG_KERN_CS+0x225>
 1ca:	68 5f 66 6c 75       	push   $0x756c665f
 1cf:	73 68                	jae    239 <SEG_KERN_CS+0x231>
 1d1:	5f                   	pop    %edi
 1d2:	69 64 74 00 6b 61 72 	imul   $0x6372616b,0x0(%esp,%esi,2),%esp
 1d9:	63 
 1da:	68 5f 69 6e 69       	push   $0x696e695f
 1df:	74 5f                	je     240 <SEG_KERN_CS+0x238>
 1e1:	74 73                	je     256 <SEG_KERN_CS+0x24e>
 1e3:	73 00                	jae    1e5 <SEG_KERN_CS+0x1dd>
 1e5:	6b 63 70 75          	imul   $0x75,0x70(%ebx),%esp
 1e9:	69 6e 66 6f 00 4b 43 	imul   $0x434b006f,0x66(%esi),%ebp
 1f0:	50                   	push   %eax
 1f1:	55                   	push   %ebp
 1f2:	46                   	inc    %esi
 1f3:	5f                   	pop    %edi
 1f4:	48                   	dec    %eax
 1f5:	54                   	push   %esp
 1f6:	54                   	push   %esp
 1f7:	5f                   	pop    %edi
 1f8:	4d                   	dec    %ebp
 1f9:	41                   	inc    %ecx
 1fa:	58                   	pop    %eax
 1fb:	00 4b 43             	add    %cl,0x43(%ebx)
 1fe:	50                   	push   %eax
 1ff:	55                   	push   %ebp
 200:	46                   	inc    %esi
 201:	5f                   	pop    %edi
 202:	41                   	inc    %ecx
 203:	50                   	push   %eax
 204:	49                   	dec    %ecx
 205:	43                   	inc    %ebx
 206:	5f                   	pop    %edi
 207:	4f                   	dec    %edi
 208:	4e                   	dec    %esi
 209:	5f                   	pop    %edi
 20a:	43                   	inc    %ebx
 20b:	48                   	dec    %eax
 20c:	49                   	dec    %ecx
 20d:	50                   	push   %eax
 20e:	00 4b 43             	add    %cl,0x43(%ebx)
 211:	50                   	push   %eax
 212:	55                   	push   %ebp
 213:	46                   	inc    %esi
 214:	5f                   	pop    %edi
 215:	50                   	push   %eax
 216:	47                   	inc    %edi
 217:	45                   	inc    %ebp
 218:	00 65 66             	add    %ah,0x66(%ebp)
 21b:	5f                   	pop    %edi
 21c:	65 61                	gs popa
 21e:	78 00                	js     220 <SEG_KERN_CS+0x218>
 220:	65 66 5f             	gs pop %di
 223:	65 63 78 00          	arpl   %edi,%gs:0x0(%eax)
 227:	73 74                	jae    29d <SEG_KERN_CS+0x295>
 229:	65 70 70             	gs jo  29c <SEG_KERN_CS+0x294>
 22c:	69 6e 67 00 4b 43 50 	imul   $0x50434b00,0x67(%esi),%ebp
 233:	55                   	push   %ebp
 234:	46                   	inc    %esi
 235:	5f                   	pop    %edi
 236:	48                   	dec    %eax
 237:	54                   	push   %esp
 238:	54                   	push   %esp
 239:	00 5f 5f             	add    %bl,0x5f(%edi)
 23c:	76 65                	jbe    2a3 <SEG_KERN_CS+0x29b>
 23e:	6e                   	outsb  %ds:(%esi),(%dx)
 23f:	64 6f                	outsl  %fs:(%esi),(%dx)
 241:	72 5f                	jb     2a2 <SEG_KERN_CS+0x29a>
 243:	69 6e 74 65 6c 00 4b 	imul   $0x4b006c65,0x74(%esi),%ebp
 24a:	43                   	inc    %ebx
 24b:	50                   	push   %eax
 24c:	55                   	push   %ebp
 24d:	46                   	inc    %esi
 24e:	5f                   	pop    %edi
 24f:	53                   	push   %ebx
 250:	53                   	push   %ebx
 251:	45                   	inc    %ebp
 252:	34 5f                	xor    $0x5f,%al
 254:	31 00                	xor    %eax,(%eax)
 256:	4b                   	dec    %ebx
 257:	43                   	inc    %ebx
 258:	50                   	push   %eax
 259:	55                   	push   %ebp
 25a:	46                   	inc    %esi
 25b:	5f                   	pop    %edi
 25c:	53                   	push   %ebx
 25d:	53                   	push   %ebx
 25e:	45                   	inc    %ebp
 25f:	34 5f                	xor    $0x5f,%al
 261:	32 00                	xor    (%eax),%al
 263:	4b                   	dec    %ebx
 264:	43                   	inc    %ebx
 265:	50                   	push   %eax
 266:	55                   	push   %ebp
 267:	46                   	inc    %esi
 268:	5f                   	pop    %edi
 269:	53                   	push   %ebx
 26a:	53                   	push   %ebx
 26b:	53                   	push   %ebx
 26c:	45                   	inc    %ebp
 26d:	33 00                	xor    (%eax),%eax
 26f:	4b                   	dec    %ebx
 270:	43                   	inc    %ebx
 271:	50                   	push   %eax
 272:	55                   	push   %ebp
 273:	46                   	inc    %esi
 274:	5f                   	pop    %edi
 275:	50                   	push   %eax
 276:	53                   	push   %ebx
 277:	45                   	inc    %ebp
 278:	00 66 61             	add    %ah,0x61(%esi)
 27b:	6d                   	insl   (%dx),%es:(%edi)
 27c:	69 6c 79 00 4b 43 50 	imul   $0x5550434b,0x0(%ecx,%edi,2),%ebp
 283:	55 
 284:	46                   	inc    %esi
 285:	5f                   	pop    %edi
 286:	46                   	inc    %esi
 287:	58                   	pop    %eax
 288:	53                   	push   %ebx
 289:	52                   	push   %edx
 28a:	00 4b 43             	add    %cl,0x43(%ebx)
 28d:	50                   	push   %eax
 28e:	55                   	push   %ebp
 28f:	46                   	inc    %esi
 290:	5f                   	pop    %edi
 291:	46                   	inc    %esi
 292:	50                   	push   %eax
 293:	55                   	push   %ebp
 294:	00 5f 5f             	add    %bl,0x5f(%edi)
 297:	76 65                	jbe    2fe <SEG_KERN_CS+0x2f6>
 299:	6e                   	outsb  %ds:(%esi),(%dx)
 29a:	64 6f                	outsl  %fs:(%esi),(%dx)
 29c:	72 5f                	jb     2fd <SEG_KERN_CS+0x2f5>
 29e:	61                   	popa
 29f:	6d                   	insl   (%dx),%es:(%edi)
 2a0:	64 00 75 69          	add    %dh,%fs:0x69(%ebp)
 2a4:	6e                   	outsb  %ds:(%esi),(%dx)
 2a5:	74 38                	je     2df <SEG_KERN_CS+0x2d7>
 2a7:	5f                   	pop    %edi
 2a8:	74 00                	je     2aa <SEG_KERN_CS+0x2a2>
 2aa:	6b 61 72 63          	imul   $0x63,0x72(%ecx),%esp
 2ae:	68 5f 66 65 61       	push   $0x6165665f
 2b3:	74 75                	je     32a <SEG_KERN_CS+0x322>
 2b5:	72 65                	jb     31c <SEG_KERN_CS+0x314>
 2b7:	5f                   	pop    %edi
 2b8:	74 00                	je     2ba <SEG_KERN_CS+0x2b2>
 2ba:	65 66 5f             	gs pop %di
 2bd:	65 62 78 00          	bound  %edi,%gs:0x0(%eax)
 2c1:	6d                   	insl   (%dx),%es:(%edi)
 2c2:	6f                   	outsl  %ds:(%esi),(%dx)
 2c3:	64 65 6c             	fs gs insb (%dx),%es:(%edi)
 2c6:	00 65 66             	add    %ah,0x66(%ebp)
 2c9:	5f                   	pop    %edi
 2ca:	65 64 78 00          	gs fs js 2ce <SEG_KERN_CS+0x2c6>
 2ce:	4b                   	dec    %ebx
 2cf:	43                   	inc    %ebx
 2d0:	50                   	push   %eax
 2d1:	55                   	push   %ebp
 2d2:	46                   	inc    %esi
 2d3:	5f                   	pop    %edi
 2d4:	53                   	push   %ebx
 2d5:	59                   	pop    %ecx
 2d6:	53                   	push   %ebx
 2d7:	45                   	inc    %ebp
 2d8:	4e                   	dec    %esi
 2d9:	54                   	push   %esp
 2da:	45                   	inc    %ebp
 2db:	52                   	push   %edx
 2dc:	00 4b 43             	add    %cl,0x43(%ebx)
 2df:	50                   	push   %eax
 2e0:	55                   	push   %ebp
 2e1:	46                   	inc    %esi
 2e2:	5f                   	pop    %edi
 2e3:	54                   	push   %esp
 2e4:	53                   	push   %ebx
 2e5:	43                   	inc    %ebx
 2e6:	00 66 65             	add    %ah,0x65(%esi)
 2e9:	61                   	popa
 2ea:	74 75                	je     361 <SEG_KERN_CS+0x359>
 2ec:	72 65                	jb     353 <SEG_KERN_CS+0x34b>
 2ee:	00 4b 43             	add    %cl,0x43(%ebx)
 2f1:	50                   	push   %eax
 2f2:	55                   	push   %ebp
 2f3:	46                   	inc    %esi
 2f4:	5f                   	pop    %edi
 2f5:	53                   	push   %ebx
 2f6:	53                   	push   %ebx
 2f7:	45                   	inc    %ebp
 2f8:	31 00                	xor    %eax,(%eax)
 2fa:	4b                   	dec    %ebx
 2fb:	43                   	inc    %ebx
 2fc:	50                   	push   %eax
 2fd:	55                   	push   %ebp
 2fe:	46                   	inc    %esi
 2ff:	5f                   	pop    %edi
 300:	53                   	push   %ebx
 301:	53                   	push   %ebx
 302:	45                   	inc    %ebp
 303:	32 00                	xor    (%eax),%al
 305:	4b                   	dec    %ebx
 306:	43                   	inc    %ebx
 307:	50                   	push   %eax
 308:	55                   	push   %ebp
 309:	46                   	inc    %esi
 30a:	5f                   	pop    %edi
 30b:	53                   	push   %ebx
 30c:	53                   	push   %ebx
 30d:	45                   	inc    %ebp
 30e:	33 00                	xor    (%eax),%eax
 310:	72 65                	jb     377 <SEG_KERN_CS+0x36f>
 312:	61                   	popa
 313:	64 5f                	fs pop %edi
 315:	63 70 75             	arpl   %esi,0x75(%eax)
 318:	69 64 00 4b 43 50 55 	imul   $0x46555043,0x4b(%eax,%eax,1),%esp
 31f:	46 
 320:	5f                   	pop    %edi
 321:	53                   	push   %ebx
 322:	59                   	pop    %ecx
 323:	53                   	push   %ebx
 324:	43                   	inc    %ebx
 325:	41                   	inc    %ecx
 326:	4c                   	dec    %esp
 327:	4c                   	dec    %esp
 328:	00 4b 43             	add    %cl,0x43(%ebx)
 32b:	50                   	push   %eax
 32c:	55                   	push   %ebp
 32d:	46                   	inc    %esi
 32e:	5f                   	pop    %edi
 32f:	53                   	push   %ebx
 330:	53                   	push   %ebx
 331:	45                   	inc    %ebp
 332:	5f                   	pop    %edi
 333:	46                   	inc    %esi
 334:	55                   	push   %ebp
 335:	4c                   	dec    %esp
 336:	4c                   	dec    %esp
 337:	00 4b 43             	add    %cl,0x43(%ebx)
 33a:	50                   	push   %eax
 33b:	55                   	push   %ebp
 33c:	46                   	inc    %esi
 33d:	5f                   	pop    %edi
 33e:	50                   	push   %eax
 33f:	41                   	inc    %ecx
 340:	45                   	inc    %ebp
 341:	00 70 72             	add    %dh,0x72(%eax)
 344:	69 76 00 65 78 63 65 	imul   $0x65637865,0x0(%esi),%esi
 34b:	70 74                	jo     3c1 <SEG_KERN_CS+0x3b9>
 34d:	5f                   	pop    %edi
 34e:	63 62 00             	arpl   %esp,0x0(%edx)
 351:	6b 61 72 63          	imul   $0x63,0x72(%ecx),%esp
 355:	68 5f 73 65 74       	push   $0x7465735f
 35a:	5f                   	pop    %edi
 35b:	65 78 63             	gs js  3c1 <SEG_KERN_CS+0x3b9>
 35e:	65 70 74             	gs jo  3d5 <SEG_KERN_CS+0x3cd>
 361:	00 67 76             	add    %ah,0x76(%edi)
 364:	5f                   	pop    %edi
 365:	65 78 63             	gs js  3cb <SEG_KERN_CS+0x3c3>
 368:	65 70 74             	gs jo  3df <SEG_KERN_CS+0x3d7>
 36b:	00 6b 61             	add    %ch,0x61(%ebx)
 36e:	72 63                	jb     3d3 <SEG_KERN_CS+0x3cb>
 370:	68 5f 6c 6f 61       	push   $0x616f6c5f
 375:	64 5f                	fs pop %edi
 377:	69 64 74 5f 67 61 74 	imul   $0x65746167,0x5f(%esp,%esi,2),%esp
 37e:	65 
 37f:	76 65                	jbe    3e6 <SEG_KERN_CS+0x3de>
 381:	63 00                	arpl   %eax,(%eax)
 383:	65 78 63             	gs js  3e9 <SEG_KERN_CS+0x3e1>
 386:	65 70 74             	gs jo  3fd <SEG_KERN_CS+0x3f5>
 389:	5f                   	pop    %edi
 38a:	74 00                	je     38c <SEG_KERN_CS+0x384>
 38c:	6b 61 72 63          	imul   $0x63,0x72(%ecx),%esp
 390:	68 5f 72 65 67       	push   $0x6765725f
 395:	33 32                	xor    (%edx),%esi
 397:	5f                   	pop    %edi
 398:	74 00                	je     39a <SEG_KERN_CS+0x392>
 39a:	6b 61 72 63          	imul   $0x63,0x72(%ecx),%esp
 39e:	68 5f 65 78 63       	push   $0x6378655f
 3a3:	65 70 74             	gs jo  41a <SEG_KERN_CS+0x412>
 3a6:	5f                   	pop    %edi
 3a7:	30 37                	xor    %dh,(%edi)
 3a9:	00 6b 6d             	add    %ch,0x6d(%ebx)
 3ac:	65 6d                	gs insl (%dx),%es:(%edi)
 3ae:	73 65                	jae    415 <SEG_KERN_CS+0x40d>
 3b0:	74 00                	je     3b2 <SEG_KERN_CS+0x3aa>
 3b2:	6b 61 72 63          	imul   $0x63,0x72(%ecx),%esp
 3b6:	68 5f 65 78 63       	push   $0x6378655f
 3bb:	65 70 74             	gs jo  432 <SEG_KERN_CS+0x42a>
 3be:	5f                   	pop    %edi
 3bf:	66 72 61             	data16 jb 423 <SEG_KERN_CS+0x41b>
 3c2:	6d                   	insl   (%dx),%es:(%edi)
 3c3:	65 5f                	gs pop %edi
 3c5:	74 00                	je     3c7 <SEG_KERN_CS+0x3bf>
 3c7:	66 72 61             	data16 jb 42b <SEG_KERN_CS+0x423>
 3ca:	6d                   	insl   (%dx),%es:(%edi)
 3cb:	65 00 6b 61          	add    %ch,%gs:0x61(%ebx)
 3cf:	72 63                	jb     434 <SEG_KERN_CS+0x42c>
 3d1:	68 5f 65 78 63       	push   $0x6378655f
 3d6:	65 70 74             	gs jo  44d <SEG_KERN_CS+0x445>
 3d9:	00 67 61             	add    %ah,0x61(%edi)
 3dc:	74 65                	je     443 <SEG_KERN_CS+0x43b>
 3de:	00 66 6c             	add    %ah,0x6c(%esi)
 3e1:	61                   	popa
 3e2:	67 73 00             	addr16 jae 3e5 <SEG_KERN_CS+0x3dd>
 3e5:	6b 61 72 63          	imul   $0x63,0x72(%ecx),%esp
 3e9:	68 5f 78 38 36       	push   $0x3638785f
 3ee:	5f                   	pop    %edi
 3ef:	65 78 63             	gs js  455 <SEG_KERN_CS+0x44d>
 3f2:	65 70 74             	gs jo  469 <SEG_KERN_CS+0x461>
 3f5:	5f                   	pop    %edi
 3f6:	66 72 61             	data16 jb 45a <SEG_KERN_CS+0x452>
 3f9:	6d                   	insl   (%dx),%es:(%edi)
 3fa:	65 5f                	gs pop %edi
 3fc:	74 00                	je     3fe <SEG_KERN_CS+0x3f6>
 3fe:	6b 61 72 63          	imul   $0x63,0x72(%ecx),%esp
 402:	68 5f 65 78 63       	push   $0x6378655f
 407:	65 70 74             	gs jo  47e <SEG_KERN_CS+0x476>
 40a:	5f                   	pop    %edi
 40b:	30 30                	xor    %dh,(%eax)
 40d:	00 6b 61             	add    %ch,0x61(%ebx)
 410:	72 63                	jb     475 <SEG_KERN_CS+0x46d>
 412:	68 5f 65 78 63       	push   $0x6378655f
 417:	65 70 74             	gs jo  48e <SEG_KERN_CS+0x486>
 41a:	5f                   	pop    %edi
 41b:	30 31                	xor    %dh,(%ecx)
 41d:	00 6b 61             	add    %ch,0x61(%ebx)
 420:	72 63                	jb     485 <SEG_KERN_CS+0x47d>
 422:	68 5f 65 78 63       	push   $0x6378655f
 427:	65 70 74             	gs jo  49e <SEG_KERN_CS+0x496>
 42a:	5f                   	pop    %edi
 42b:	30 32                	xor    %dh,(%edx)
 42d:	00 6b 61             	add    %ch,0x61(%ebx)
 430:	72 63                	jb     495 <SEG_KERN_CS+0x48d>
 432:	68 5f 65 78 63       	push   $0x6378655f
 437:	65 70 74             	gs jo  4ae <SEG_KERN_CS+0x4a6>
 43a:	5f                   	pop    %edi
 43b:	30 33                	xor    %dh,(%ebx)
 43d:	00 6b 61             	add    %ch,0x61(%ebx)
 440:	72 63                	jb     4a5 <SEG_KERN_CS+0x49d>
 442:	68 5f 65 78 63       	push   $0x6378655f
 447:	65 70 74             	gs jo  4be <SEG_KERN_CS+0x4b6>
 44a:	5f                   	pop    %edi
 44b:	30 34 00             	xor    %dh,(%eax,%eax,1)
 44e:	6b 61 72 63          	imul   $0x63,0x72(%ecx),%esp
 452:	68 5f 65 78 63       	push   $0x6378655f
 457:	65 70 74             	gs jo  4ce <SEG_KERN_CS+0x4c6>
 45a:	5f                   	pop    %edi
 45b:	30 35 00 6b 61 72    	xor    %dh,0x72616b00
 461:	63 68 5f             	arpl   %ebp,0x5f(%eax)
 464:	65 78 63             	gs js  4ca <SEG_KERN_CS+0x4c2>
 467:	65 70 74             	gs jo  4de <SEG_KERN_CS+0x4d6>
 46a:	5f                   	pop    %edi
 46b:	30 36                	xor    %dh,(%esi)
 46d:	00 6b 61             	add    %ch,0x61(%ebx)
 470:	72 63                	jb     4d5 <SEG_KERN_CS+0x4cd>
 472:	68 5f 65 78 63       	push   $0x6378655f
 477:	65 70 74             	gs jo  4ee <SEG_KERN_CS+0x4e6>
 47a:	5f                   	pop    %edi
 47b:	30 38                	xor    %bh,(%eax)
 47d:	00 6b 61             	add    %ch,0x61(%ebx)
 480:	72 63                	jb     4e5 <SEG_KERN_CS+0x4dd>
 482:	68 5f 65 78 63       	push   $0x6378655f
 487:	65 70 74             	gs jo  4fe <SEG_KERN_CS+0x4f6>
 48a:	5f                   	pop    %edi
 48b:	30 39                	xor    %bh,(%ecx)
 48d:	00 65 78             	add    %ah,0x78(%ebp)
 490:	63 65 70             	arpl   %esp,0x70(%ebp)
 493:	74 5f                	je     4f4 <SEG_KERN_CS+0x4ec>
 495:	63 62 5f             	arpl   %esp,0x5f(%edx)
 498:	64 61                	fs popa
 49a:	74 61                	je     4fd <SEG_KERN_CS+0x4f5>
 49c:	00 6b 61             	add    %ch,0x61(%ebx)
 49f:	72 63                	jb     504 <SEG_KERN_CS+0x4fc>
 4a1:	68 5f 65 78 63       	push   $0x6378655f
 4a6:	65 70 74             	gs jo  51d <SEG_KERN_CS+0x515>
 4a9:	5f                   	pop    %edi
 4aa:	63 62 5f             	arpl   %esp,0x5f(%edx)
 4ad:	74 00                	je     4af <SEG_KERN_CS+0x4a7>
 4af:	6b 61 72 63          	imul   $0x63,0x72(%ecx),%esp
 4b3:	68 5f 67 65 74       	push   $0x7465675f
 4b8:	5f                   	pop    %edi
 4b9:	65 78 63             	gs js  51f <SEG_KERN_CS+0x517>
 4bc:	65 70 74             	gs jo  533 <SEG_KERN_CS+0x52b>
 4bf:	00 6b 61             	add    %ch,0x61(%ebx)
 4c2:	72 63                	jb     527 <SEG_KERN_CS+0x51f>
 4c4:	68 5f 65 78 63       	push   $0x6378655f
 4c9:	65 70 74             	gs jo  540 <SEG_KERN_CS+0x538>
 4cc:	5f                   	pop    %edi
 4cd:	31 30                	xor    %esi,(%eax)
 4cf:	00 6b 61             	add    %ch,0x61(%ebx)
 4d2:	72 63                	jb     537 <SEG_KERN_CS+0x52f>
 4d4:	68 5f 65 78 63       	push   $0x6378655f
 4d9:	65 70 74             	gs jo  550 <SEG_KERN_CS+0x548>
 4dc:	5f                   	pop    %edi
 4dd:	31 31                	xor    %esi,(%ecx)
 4df:	00 6b 61             	add    %ch,0x61(%ebx)
 4e2:	72 63                	jb     547 <SEG_KERN_CS+0x53f>
 4e4:	68 5f 65 78 63       	push   $0x6378655f
 4e9:	65 70 74             	gs jo  560 <SEG_KERN_CS+0x558>
 4ec:	5f                   	pop    %edi
 4ed:	31 32                	xor    %esi,(%edx)
 4ef:	00 6b 61             	add    %ch,0x61(%ebx)
 4f2:	72 63                	jb     557 <SEG_KERN_CS+0x54f>
 4f4:	68 5f 65 78 63       	push   $0x6378655f
 4f9:	65 70 74             	gs jo  570 <SEG_KERN_CS+0x568>
 4fc:	5f                   	pop    %edi
 4fd:	31 33                	xor    %esi,(%ebx)
 4ff:	00 6b 61             	add    %ch,0x61(%ebx)
 502:	72 63                	jb     567 <SEG_KERN_CS+0x55f>
 504:	68 5f 65 78 63       	push   $0x6378655f
 509:	65 70 74             	gs jo  580 <SEG_KERN_CS+0x578>
 50c:	5f                   	pop    %edi
 50d:	31 34 00             	xor    %esi,(%eax,%eax,1)
 510:	6b 61 72 63          	imul   $0x63,0x72(%ecx),%esp
 514:	68 5f 65 78 63       	push   $0x6378655f
 519:	65 70 74             	gs jo  590 <SEG_KERN_CS+0x588>
 51c:	5f                   	pop    %edi
 51d:	31 36                	xor    %esi,(%esi)
 51f:	00 6b 61             	add    %ch,0x61(%ebx)
 522:	72 63                	jb     587 <SEG_KERN_CS+0x57f>
 524:	68 5f 65 78 63       	push   $0x6378655f
 529:	65 70 74             	gs jo  5a0 <SEG_KERN_CS+0x598>
 52c:	5f                   	pop    %edi
 52d:	31 37                	xor    %esi,(%edi)
 52f:	00 6b 61             	add    %ch,0x61(%ebx)
 532:	72 63                	jb     597 <SEG_KERN_CS+0x58f>
 534:	68 5f 65 78 63       	push   $0x6378655f
 539:	65 70 74             	gs jo  5b0 <SEG_KERN_CS+0x5a8>
 53c:	5f                   	pop    %edi
 53d:	31 38                	xor    %edi,(%eax)
 53f:	00 6c 69 6d          	add    %ch,0x6d(%ecx,%ebp,2)
 543:	69 74 00 62 61 73 65 	imul   $0x5f657361,0x62(%eax,%eax,1),%esi
 54a:	5f 
 54b:	6d                   	insl   (%dx),%es:(%edi)
 54c:	69 64 00 6b 61 72 63 	imul   $0x68637261,0x6b(%eax,%eax,1),%esp
 553:	68 
 554:	5f                   	pop    %edi
 555:	73 65                	jae    5bc <SEG_KERN_CS+0x5b4>
 557:	67 5f                	addr16 pop %edi
 559:	74 00                	je     55b <SEG_KERN_CS+0x553>
 55b:	64 65 73 63          	fs gs jae 5c2 <SEG_KERN_CS+0x5ba>
 55f:	5f                   	pop    %edi
 560:	67 64 74 00          	addr16 fs je 564 <SEG_KERN_CS+0x55c>
 564:	6b 61 72 63          	imul   $0x63,0x72(%ecx),%esp
 568:	68 5f 73 65 74       	push   $0x7465735f
 56d:	5f                   	pop    %edi
 56e:	67 64 74 5f          	addr16 fs je 5d1 <SEG_KERN_CS+0x5c9>
 572:	63 6f 64             	arpl   %ebp,0x64(%edi)
 575:	65 00 47 44          	add    %al,%gs:0x44(%edi)
 579:	54                   	push   %esp
 57a:	5f                   	pop    %edi
 57b:	4e                   	dec    %esi
 57c:	55                   	push   %ebp
 57d:	4c                   	dec    %esp
 57e:	4c                   	dec    %esp
 57f:	00 47 44             	add    %al,0x44(%edi)
 582:	54                   	push   %esp
 583:	5f                   	pop    %edi
 584:	4b                   	dec    %ebx
 585:	45                   	inc    %ebp
 586:	52                   	push   %edx
 587:	4e                   	dec    %esi
 588:	5f                   	pop    %edi
 589:	43                   	inc    %ebx
 58a:	53                   	push   %ebx
 58b:	00 6b 61             	add    %ch,0x61(%ebx)
 58e:	72 63                	jb     5f3 <SEG_KERN_CS+0x5eb>
 590:	68 5f 73 65 74       	push   $0x7465735f
 595:	5f                   	pop    %edi
 596:	67 64 74 5f          	addr16 fs je 5f9 <SEG_KERN_CS+0x5f1>
 59a:	64 61                	fs popa
 59c:	74 61                	je     5ff <SEG_KERN_CS+0x5f7>
 59e:	00 47 44             	add    %al,0x44(%edi)
 5a1:	54                   	push   %esp
 5a2:	5f                   	pop    %edi
 5a3:	55                   	push   %ebp
 5a4:	53                   	push   %ebx
 5a5:	45                   	inc    %ebp
 5a6:	52                   	push   %edx
 5a7:	5f                   	pop    %edi
 5a8:	43                   	inc    %ebx
 5a9:	53                   	push   %ebx
 5aa:	00 6b 61             	add    %ch,0x61(%ebx)
 5ad:	72 63                	jb     612 <SEG_KERN_CS+0x60a>
 5af:	68 5f 78 38 36       	push   $0x3638785f
 5b4:	5f                   	pop    %edi
 5b5:	64 65 73 63          	fs gs jae 61c <SEG_KERN_CS+0x614>
 5b9:	5f                   	pop    %edi
 5ba:	74 00                	je     5bc <SEG_KERN_CS+0x5b4>
 5bc:	67 72 61             	addr16 jb 620 <SEG_KERN_CS+0x618>
 5bf:	6e                   	outsb  %ds:(%esi),(%dx)
 5c0:	75 6c                	jne    62e <SEG_KERN_CS+0x626>
 5c2:	61                   	popa
 5c3:	72 69                	jb     62e <SEG_KERN_CS+0x626>
 5c5:	74 79                	je     640 <SEG_KERN_CS+0x638>
 5c7:	00 6b 61             	add    %ch,0x61(%ebx)
 5ca:	72 63                	jb     62f <SEG_KERN_CS+0x627>
 5cc:	68 5f 67 65 74       	push   $0x7465675f
 5d1:	5f                   	pop    %edi
 5d2:	67 64 74 00          	addr16 fs je 5d6 <SEG_KERN_CS+0x5ce>
 5d6:	6c                   	insb   (%dx),%es:(%edi)
 5d7:	69 6d 69 74 5f 6c 6f 	imul   $0x6f6c5f74,0x69(%ebp),%ebp
 5de:	77 00                	ja     5e0 <SEG_KERN_CS+0x5d8>
 5e0:	47                   	inc    %edi
 5e1:	44                   	inc    %esp
 5e2:	54                   	push   %esp
 5e3:	5f                   	pop    %edi
 5e4:	4b                   	dec    %ebx
 5e5:	45                   	inc    %ebp
 5e6:	52                   	push   %edx
 5e7:	4e                   	dec    %esi
 5e8:	5f                   	pop    %edi
 5e9:	44                   	inc    %esp
 5ea:	53                   	push   %ebx
 5eb:	00 47 44             	add    %al,0x44(%edi)
 5ee:	54                   	push   %esp
 5ef:	5f                   	pop    %edi
 5f0:	4c                   	dec    %esp
 5f1:	44                   	inc    %esp
 5f2:	54                   	push   %esp
 5f3:	00 61 63             	add    %ah,0x63(%ecx)
 5f6:	63 65 73             	arpl   %esp,0x73(%ebp)
 5f9:	73 00                	jae    5fb <SEG_KERN_CS+0x5f3>
 5fb:	75 69                	jne    666 <SEG_KERN_CS+0x65e>
 5fd:	6e                   	outsb  %ds:(%esi),(%dx)
 5fe:	74 31                	je     631 <SEG_KERN_CS+0x629>
 600:	36 5f                	ss pop %edi
 602:	74 00                	je     604 <SEG_KERN_CS+0x5fc>
 604:	6b 61 72 63          	imul   $0x63,0x72(%ecx),%esp
 608:	68 5f 64 65 73       	push   $0x7365645f
 60d:	63 5f 74             	arpl   %ebx,0x74(%edi)
 610:	00 62 61             	add    %ah,0x61(%edx)
 613:	73 65                	jae    67a <SEG_KERN_CS+0x672>
 615:	5f                   	pop    %edi
 616:	68 69 67 68 00       	push   $0x686769
 61b:	47                   	inc    %edi
 61c:	44                   	inc    %esp
 61d:	54                   	push   %esp
 61e:	5f                   	pop    %edi
 61f:	55                   	push   %ebp
 620:	53                   	push   %ebx
 621:	45                   	inc    %ebp
 622:	52                   	push   %edx
 623:	5f                   	pop    %edi
 624:	44                   	inc    %esp
 625:	53                   	push   %ebx
 626:	00 6c 6f 61          	add    %ch,0x61(%edi,%ebp,2)
 62a:	64 5f                	fs pop %edi
 62c:	67 64 74 00          	addr16 fs je 630 <SEG_KERN_CS+0x628>
 630:	47                   	inc    %edi
 631:	44                   	inc    %esp
 632:	54                   	push   %esp
 633:	5f                   	pop    %edi
 634:	4d                   	dec    %ebp
 635:	41                   	inc    %ecx
 636:	58                   	pop    %eax
 637:	00 62 61             	add    %ah,0x61(%edx)
 63a:	73 65                	jae    6a1 <SEG_KERN_CS+0x699>
 63c:	5f                   	pop    %edi
 63d:	6c                   	insb   (%dx),%es:(%edi)
 63e:	6f                   	outsl  %ds:(%esi),(%dx)
 63f:	77 00                	ja     641 <SEG_KERN_CS+0x639>
 641:	6b 61 72 63          	imul   $0x63,0x72(%ecx),%esp
 645:	68 5f 73 65 74       	push   $0x7465735f
 64a:	5f                   	pop    %edi
 64b:	67 64 74 00          	addr16 fs je 64f <SEG_KERN_CS+0x647>
 64f:	47                   	inc    %edi
 650:	44                   	inc    %esp
 651:	54                   	push   %esp
 652:	5f                   	pop    %edi
 653:	54                   	push   %esp
 654:	53                   	push   %ebx
 655:	53                   	push   %ebx
 656:	00 6b 61             	add    %ch,0x61(%ebx)
 659:	72 63                	jb     6be <SEG_KERN_CS+0x6b6>
 65b:	68 5f 78 38 36       	push   $0x3638785f
 660:	5f                   	pop    %edi
 661:	73 65                	jae    6c8 <SEG_KERN_CS+0x6c0>
 663:	67 5f                	addr16 pop %edi
 665:	74 00                	je     667 <SEG_KERN_CS+0x65f>
 667:	6b 61 72 63          	imul   $0x63,0x72(%ecx),%esp
 66b:	68 5f 69 38 32       	push   $0x3238695f
 670:	35 39 5f 68 77       	xor    $0x77685f39,%eax
 675:	69 6e 74 5f 30 30 00 	imul   $0x30305f,0x74(%esi),%ebp
 67c:	6b 61 72 63          	imul   $0x63,0x72(%ecx),%esp
 680:	68 5f 69 38 32       	push   $0x3238695f
 685:	35 39 5f 68 77       	xor    $0x77685f39,%eax
 68a:	69 6e 74 5f 30 31 00 	imul   $0x31305f,0x74(%esi),%ebp
 691:	6b 61 72 63          	imul   $0x63,0x72(%ecx),%esp
 695:	68 5f 69 38 32       	push   $0x3238695f
 69a:	35 39 5f 68 77       	xor    $0x77685f39,%eax
 69f:	69 6e 74 5f 30 32 00 	imul   $0x32305f,0x74(%esi),%ebp
 6a6:	6b 61 72 63          	imul   $0x63,0x72(%ecx),%esp
 6aa:	68 5f 69 38 32       	push   $0x3238695f
 6af:	35 39 5f 68 77       	xor    $0x77685f39,%eax
 6b4:	69 6e 74 5f 30 33 00 	imul   $0x33305f,0x74(%esi),%ebp
 6bb:	6b 61 72 63          	imul   $0x63,0x72(%ecx),%esp
 6bf:	68 5f 69 38 32       	push   $0x3238695f
 6c4:	35 39 5f 68 77       	xor    $0x77685f39,%eax
 6c9:	69 6e 74 5f 30 34 00 	imul   $0x34305f,0x74(%esi),%ebp
 6d0:	6b 61 72 63          	imul   $0x63,0x72(%ecx),%esp
 6d4:	68 5f 69 38 32       	push   $0x3238695f
 6d9:	35 39 5f 68 77       	xor    $0x77685f39,%eax
 6de:	69 6e 74 5f 30 35 00 	imul   $0x35305f,0x74(%esi),%ebp
 6e5:	6b 61 72 63          	imul   $0x63,0x72(%ecx),%esp
 6e9:	68 5f 69 38 32       	push   $0x3238695f
 6ee:	35 39 5f 68 77       	xor    $0x77685f39,%eax
 6f3:	69 6e 74 5f 30 36 00 	imul   $0x36305f,0x74(%esi),%ebp
 6fa:	6b 61 72 63          	imul   $0x63,0x72(%ecx),%esp
 6fe:	68 5f 69 38 32       	push   $0x3238695f
 703:	35 39 5f 68 77       	xor    $0x77685f39,%eax
 708:	69 6e 74 5f 30 37 00 	imul   $0x37305f,0x74(%esi),%ebp
 70f:	6b 61 72 63          	imul   $0x63,0x72(%ecx),%esp
 713:	68 5f 69 38 32       	push   $0x3238695f
 718:	35 39 5f 68 77       	xor    $0x77685f39,%eax
 71d:	69 6e 74 5f 30 38 00 	imul   $0x38305f,0x74(%esi),%ebp
 724:	6b 61 72 63          	imul   $0x63,0x72(%ecx),%esp
 728:	68 5f 69 38 32       	push   $0x3238695f
 72d:	35 39 5f 68 77       	xor    $0x77685f39,%eax
 732:	69 6e 74 5f 30 39 00 	imul   $0x39305f,0x74(%esi),%ebp
 739:	67 76 5f             	addr16 jbe 79b <SEG_KERN_CS+0x793>
 73c:	69 38 32 35 39 5f    	imul   $0x5f393532,(%eax),%edi
 742:	6d                   	insl   (%dx),%es:(%edi)
 743:	61                   	popa
 744:	73 74                	jae    7ba <SEG_KERN_CS+0x7b2>
 746:	65 72 00             	gs jb  749 <SEG_KERN_CS+0x741>
 749:	6b 61 72 63          	imul   $0x63,0x72(%ecx),%esp
 74d:	68 5f 75 6e 6d       	push   $0x6d6e755f
 752:	61                   	popa
 753:	73 6b                	jae    7c0 <SEG_KERN_CS+0x7b8>
 755:	5f                   	pop    %edi
 756:	69 38 32 35 39 00    	imul   $0x393532,(%eax),%edi
 75c:	6b 61 72 63          	imul   $0x63,0x72(%ecx),%esp
 760:	68 5f 64 69 73       	push   $0x7369645f
 765:	61                   	popa
 766:	62 6c 65 5f          	bound  %ebp,0x5f(%ebp,%eiz,2)
 76a:	69 38 32 35 39 00    	imul   $0x393532,(%eax),%edi
 770:	6b 61 72 63          	imul   $0x63,0x72(%ecx),%esp
 774:	68 5f 69 38 32       	push   $0x3238695f
 779:	35 39 5f 68 77       	xor    $0x77685f39,%eax
 77e:	69 6e 74 5f 31 30 00 	imul   $0x30315f,0x74(%esi),%ebp
 785:	6b 61 72 63          	imul   $0x63,0x72(%ecx),%esp
 789:	68 5f 69 38 32       	push   $0x3238695f
 78e:	35 39 5f 68 77       	xor    $0x77685f39,%eax
 793:	69 6e 74 5f 31 31 00 	imul   $0x31315f,0x74(%esi),%ebp
 79a:	6b 61 72 63          	imul   $0x63,0x72(%ecx),%esp
 79e:	68 5f 69 38 32       	push   $0x3238695f
 7a3:	35 39 5f 68 77       	xor    $0x77685f39,%eax
 7a8:	69 6e 74 5f 31 32 00 	imul   $0x32315f,0x74(%esi),%ebp
 7af:	6b 61 72 63          	imul   $0x63,0x72(%ecx),%esp
 7b3:	68 5f 69 38 32       	push   $0x3238695f
 7b8:	35 39 5f 68 77       	xor    $0x77685f39,%eax
 7bd:	69 6e 74 5f 31 33 00 	imul   $0x33315f,0x74(%esi),%ebp
 7c4:	6b 61 72 63          	imul   $0x63,0x72(%ecx),%esp
 7c8:	68 5f 69 38 32       	push   $0x3238695f
 7cd:	35 39 5f 68 77       	xor    $0x77685f39,%eax
 7d2:	69 6e 74 5f 31 34 00 	imul   $0x34315f,0x74(%esi),%ebp
 7d9:	6b 61 72 63          	imul   $0x63,0x72(%ecx),%esp
 7dd:	68 5f 69 38 32       	push   $0x3238695f
 7e2:	35 39 5f 68 77       	xor    $0x77685f39,%eax
 7e7:	69 6e 74 5f 31 35 00 	imul   $0x35315f,0x74(%esi),%ebp
 7ee:	6b 61 72 63          	imul   $0x63,0x72(%ecx),%esp
 7f2:	68 5f 67 65 74       	push   $0x7465675f
 7f7:	5f                   	pop    %edi
 7f8:	68 77 69 6e 74       	push   $0x746e6977
 7fd:	5f                   	pop    %edi
 7fe:	69 38 32 35 39 00    	imul   $0x393532,(%eax),%edi
 804:	6e                   	outsb  %ds:(%esi),(%dx)
 805:	65 77 76             	gs ja  87e <SEG_KERN_CS+0x876>
 808:	61                   	popa
 809:	6c                   	insb   (%dx),%es:(%edi)
 80a:	00 63 70             	add    %ah,0x70(%ebx)
 80d:	75 5f                	jne    86e <SEG_KERN_CS+0x866>
 80f:	6f                   	outsl  %ds:(%esi),(%dx)
 810:	75 74                	jne    886 <SEG_KERN_CS+0x87e>
 812:	38 00                	cmp    %al,(%eax)
 814:	69 38 32 35 36 5f    	imul   $0x5f363532,(%eax),%edi
 81a:	74 00                	je     81c <SEG_KERN_CS+0x814>
 81c:	63 74 6c 6d          	arpl   %esi,0x6d(%esp,%ebp,2)
 820:	61                   	popa
 821:	73 6b                	jae    88e <SEG_KERN_CS+0x886>
 823:	00 6b 61             	add    %ch,0x61(%ebx)
 826:	72 63                	jb     88b <SEG_KERN_CS+0x883>
 828:	68 5f 69 38 32       	push   $0x3238695f
 82d:	35 39 5f 65 6f       	xor    $0x6f655f39,%eax
 832:	69 00 69 38 32 35    	imul   $0x35323869,(%eax),%eax
 838:	39 5f 63             	cmp    %ebx,0x63(%edi)
 83b:	62 00                	bound  %eax,(%eax)
 83d:	6b 61 72 63          	imul   $0x63,0x72(%ecx),%esp
 841:	68 5f 78 38 36       	push   $0x3638785f
 846:	5f                   	pop    %edi
 847:	69 6e 74 72 5f 66 72 	imul   $0x72665f72,0x74(%esi),%ebp
 84e:	61                   	popa
 84f:	6d                   	insl   (%dx),%es:(%edi)
 850:	65 5f                	gs pop %edi
 852:	74 00                	je     854 <SEG_KERN_CS+0x84c>
 854:	6b 61 72 63          	imul   $0x63,0x72(%ecx),%esp
 858:	68 5f 69 38 32       	push   $0x3238695f
 85d:	35 39 5f 63 62       	xor    $0x62635f39,%eax
 862:	5f                   	pop    %edi
 863:	74 00                	je     865 <SEG_KERN_CS+0x85d>
 865:	6c                   	insb   (%dx),%es:(%edi)
 866:	61                   	popa
 867:	73 74                	jae    8dd <SEG_KERN_CS+0x8d5>
 869:	00 69 38             	add    %ch,0x38(%ecx)
 86c:	32 35 39 5f 63 62    	xor    0x62635f39,%dh
 872:	5f                   	pop    %edi
 873:	64 61                	fs popa
 875:	74 61                	je     8d8 <SEG_KERN_CS+0x8d0>
 877:	00 6b 61             	add    %ch,0x61(%ebx)
 87a:	72 63                	jb     8df <SEG_KERN_CS+0x8d7>
 87c:	68 5f 70 72 6f       	push   $0x6f72705f
 881:	67 72 61             	addr16 jb 8e5 <SEG_KERN_CS+0x8dd>
 884:	6d                   	insl   (%dx),%es:(%edi)
 885:	5f                   	pop    %edi
 886:	69 38 32 35 39 00    	imul   $0x393532,(%eax),%edi
 88c:	6b 61 72 63          	imul   $0x63,0x72(%ecx),%esp
 890:	68 5f 69 6e 74       	push   $0x746e695f
 895:	72 5f                	jb     8f6 <SEG_KERN_CS+0x8ee>
 897:	66 72 61             	data16 jb 8fb <SEG_KERN_CS+0x8f3>
 89a:	6d                   	insl   (%dx),%es:(%edi)
 89b:	65 5f                	gs pop %edi
 89d:	74 00                	je     89f <SEG_KERN_CS+0x897>
 89f:	6b 61 72 63          	imul   $0x63,0x72(%ecx),%esp
 8a3:	68 5f 6d 61 73       	push   $0x73616d5f
 8a8:	6b 5f 69 38          	imul   $0x38,0x69(%edi),%ebx
 8ac:	32 35 39 00 6b 61    	xor    0x616b0039,%dh
 8b2:	72 63                	jb     917 <SEG_KERN_CS+0x90f>
 8b4:	68 5f 69 38 32       	push   $0x3238695f
 8b9:	35 39 5f 68 77       	xor    $0x77685f39,%eax
 8be:	69 6e 74 00 6b 61 72 	imul   $0x72616b00,0x74(%esi),%ebp
 8c5:	63 68 5f             	arpl   %ebp,0x5f(%eax)
 8c8:	73 65                	jae    92f <SEG_KERN_CS+0x927>
 8ca:	74 5f                	je     92b <SEG_KERN_CS+0x923>
 8cc:	68 77 69 6e 74       	push   $0x746e6977
 8d1:	5f                   	pop    %edi
 8d2:	69 38 32 35 39 00    	imul   $0x393532,(%eax),%edi
 8d8:	63 70 75             	arpl   %esi,0x75(%eax)
 8db:	5f                   	pop    %edi
 8dc:	69 6e 38 00 67 76 5f 	imul   $0x5f766700,0x38(%esi),%ebp
 8e3:	69 38 32 35 39 5f    	imul   $0x5f393532,(%eax),%edi
 8e9:	73 6c                	jae    957 <SEG_KERN_CS+0x94f>
 8eb:	61                   	popa
 8ec:	76 65                	jbe    953 <SEG_KERN_CS+0x94b>
 8ee:	00 6f 66             	add    %ch,0x66(%edi)
 8f1:	66 5f                	pop    %di
 8f3:	6c                   	insb   (%dx),%es:(%edi)
 8f4:	6f                   	outsl  %ds:(%esi),(%dx)
 8f5:	77 00                	ja     8f7 <SEG_KERN_CS+0x8ef>
 8f7:	6b 61 72 63          	imul   $0x63,0x72(%ecx),%esp
 8fb:	68 5f 67 61 74       	push   $0x7461675f
 900:	65 5f                	gs pop %edi
 902:	74 00                	je     904 <SEG_KERN_CS+0x8fc>
 904:	74 61                	je     967 <SEG_KERN_CS+0x95f>
 906:	62 6c 65 00          	bound  %ebp,0x0(%ebp,%eiz,2)
 90a:	76 65                	jbe    971 <SEG_KERN_CS+0x969>
 90c:	63 5f 62             	arpl   %ebx,0x62(%edi)
 90f:	61                   	popa
 910:	73 65                	jae    977 <SEG_KERN_CS+0x96f>
 912:	00 6c 6f 61          	add    %ch,0x61(%edi,%ebp,2)
 916:	64 5f                	fs pop %edi
 918:	69 64 74 00 6f 66 66 	imul   $0x7366666f,0x0(%esp,%esi,2),%esp
 91f:	73 
 920:	65 74 00             	gs je  923 <SEG_KERN_CS+0x91b>
 923:	6b 61 72 63          	imul   $0x63,0x72(%ecx),%esp
 927:	68 5f 73 65 74       	push   $0x7465735f
 92c:	5f                   	pop    %edi
 92d:	69 64 74 00 70 5f 64 	imul   $0x70645f70,0x0(%esp,%esi,2),%esp
 934:	70 
 935:	6c                   	insb   (%dx),%es:(%edi)
 936:	5f                   	pop    %edi
 937:	74 79                	je     9b2 <SEG_KERN_CS+0x9aa>
 939:	70 65                	jo     9a0 <SEG_KERN_CS+0x998>
 93b:	00 64 65 73          	add    %ah,0x73(%ebp,%eiz,2)
 93f:	63 5f 69             	arpl   %ebx,0x69(%edi)
 942:	64 74 00             	fs je  945 <SEG_KERN_CS+0x93d>
 945:	6b 61 72 63          	imul   $0x63,0x72(%ecx),%esp
 949:	68 5f 78 38 36       	push   $0x3638785f
 94e:	5f                   	pop    %edi
 94f:	67 61                	addr16 popa
 951:	74 65                	je     9b8 <SEG_KERN_CS+0x9b0>
 953:	5f                   	pop    %edi
 954:	74 00                	je     956 <SEG_KERN_CS+0x94e>
 956:	6f                   	outsl  %ds:(%esi),(%dx)
 957:	66 66 5f             	data16 pop %di
 95a:	68 69 67 68 00       	push   $0x686769
 95f:	5f                   	pop    %edi
 960:	6d                   	insl   (%dx),%es:(%edi)
 961:	62 5f 76             	bound  %ebx,0x76(%edi)
 964:	69 72 74 5f 62 61 73 	imul   $0x7361625f,0x74(%edx),%esi
 96b:	65 00 6b 61          	add    %ch,%gs:0x61(%ebx)
 96f:	72 63                	jb     9d4 <SEG_KERN_CS+0x9cc>
 971:	68 5f 70 61 67       	push   $0x6761705f
 976:	65 5f                	gs pop %edi
 978:	69 64 65 6e 74 69 74 	imul   $0x79746974,0x6e(%ebp,%eiz,2),%esp
 97f:	79 
 980:	00 5f 6d             	add    %bl,0x6d(%edi)
 983:	62 5f 73             	bound  %ebx,0x73(%edi)
 986:	69 7a 65 00 6b 61 72 	imul   $0x72616b00,0x65(%edx),%edi
 98d:	63 68 5f             	arpl   %ebp,0x5f(%eax)
 990:	70 61                	jo     9f3 <SEG_KERN_CS+0x9eb>
 992:	67 65 5f             	addr16 gs pop %edi
 995:	72 65                	jb     9fc <SEG_KERN_CS+0x9f4>
 997:	6d                   	insl   (%dx),%es:(%edi)
 998:	61                   	popa
 999:	70 5f                	jo     9fa <SEG_KERN_CS+0x9f2>
 99b:	6b 65 72 6e          	imul   $0x6e,0x72(%ebp),%esp
 99f:	65 6c                	gs insb (%dx),%es:(%edi)
 9a1:	00 5f 6d             	add    %bl,0x6d(%edi)
 9a4:	62 5f 70             	bound  %ebx,0x70(%edi)
 9a7:	68 79 73 5f 62       	push   $0x625f7379
 9ac:	61                   	popa
 9ad:	73 65                	jae    a14 <SEG_KERN_CS+0xa0c>
 9af:	00 77 72             	add    %dh,0x72(%edi)
 9b2:	69 74 65 5f 63 72 33 	imul   $0x337263,0x5f(%ebp,%eiz,2),%esi
 9b9:	00 
 9ba:	6d                   	insl   (%dx),%es:(%edi)
 9bb:	61                   	popa
 9bc:	70 70                	jo     a2e <SEG_KERN_CS+0xa26>
 9be:	65 64 00 6b 61       	gs add %ch,%fs:0x61(%ebx)
 9c3:	72 63                	jb     a28 <SEG_KERN_CS+0xa20>
 9c5:	68 5f 73 74 61       	push   $0x6174735f
 9ca:	63 6b 6d             	arpl   %ebp,0x6d(%ebx)
 9cd:	61                   	popa
 9ce:	72 6b                	jb     a3b <SEG_KERN_CS+0xa33>
 9d0:	5f                   	pop    %edi
 9d1:	74 00                	je     9d3 <SEG_KERN_CS+0x9cb>
 9d3:	6b 61 72 63          	imul   $0x63,0x72(%ecx),%esp
 9d7:	68 5f 73 65 74       	push   $0x7465735f
 9dc:	75 70                	jne    a4e <SEG_KERN_CS+0xa46>
 9de:	5f                   	pop    %edi
 9df:	74 73                	je     a54 <SEG_KERN_CS+0xa4c>
 9e1:	73 00                	jae    9e3 <SEG_KERN_CS+0x9db>
 9e3:	6b 61 72 63          	imul   $0x63,0x72(%ecx),%esp
 9e7:	68 5f 72 65 67       	push   $0x6765725f
 9ec:	31 36                	xor    %esi,(%esi)
 9ee:	5f                   	pop    %edi
 9ef:	74 00                	je     9f1 <SEG_KERN_CS+0x9e9>
 9f1:	72 65                	jb     a58 <SEG_KERN_CS+0xa50>
 9f3:	61                   	popa
 9f4:	64 5f                	fs pop %edi
 9f6:	6d                   	insl   (%dx),%es:(%edi)
 9f7:	73 72                	jae    a6b <SEG_KERN_CS+0xa63>
 9f9:	00 69 6f             	add    %ch,0x6f(%ecx)
 9fc:	62 61 73             	bound  %esp,0x73(%ecx)
 9ff:	65 00 62 61          	add    %ah,%gs:0x61(%edx)
 a03:	63 6b 6c             	arpl   %ebp,0x6c(%ebx)
 a06:	69 6e 6b 00 6d 73 72 	imul   $0x72736d00,0x6b(%esi),%ebp
 a0d:	5f                   	pop    %edi
 a0e:	68 69 00 73 74       	push   $0x74730069
 a13:	61                   	popa
 a14:	63 6b 6d             	arpl   %ebp,0x6d(%ebx)
 a17:	61                   	popa
 a18:	72 6b                	jb     a85 <SEG_KERN_CS+0xa7d>
 a1a:	00 6b 61             	add    %ch,0x61(%ebx)
 a1d:	72 63                	jb     a82 <SEG_KERN_CS+0xa7a>
 a1f:	68 5f 78 38 36       	push   $0x3638785f
 a24:	5f                   	pop    %edi
 a25:	74 73                	je     a9a <SEG_KERN_CS+0xa92>
 a27:	73 5f                	jae    a88 <SEG_KERN_CS+0xa80>
 a29:	74 00                	je     a2b <SEG_KERN_CS+0xa23>
 a2b:	5f                   	pop    %edi
 a2c:	6b 61 72 63          	imul   $0x63,0x72(%ecx),%esp
 a30:	68 5f 74 73 73       	push   $0x7373745f
 a35:	30 5f 73             	xor    %bl,0x73(%edi)
 a38:	74 61                	je     a9b <SEG_KERN_CS+0xa93>
 a3a:	63 6b 00             	arpl   %ebp,0x0(%ebx)
 a3d:	6b 61 72 63          	imul   $0x63,0x72(%ecx),%esp
 a41:	68 5f 74 73 73       	push   $0x7373745f
 a46:	5f                   	pop    %edi
 a47:	74 00                	je     a49 <SEG_KERN_CS+0xa41>
 a49:	6b 61 72 63          	imul   $0x63,0x72(%ecx),%esp
 a4d:	68 5f 78 38 36       	push   $0x3638785f
 a52:	5f                   	pop    %edi
 a53:	73 74                	jae    ac9 <SEG_KERN_CS+0xac1>
 a55:	61                   	popa
 a56:	63 6b 6d             	arpl   %ebp,0x6d(%ebx)
 a59:	61                   	popa
 a5a:	72 6b                	jb     ac7 <SEG_KERN_CS+0xabf>
 a5c:	5f                   	pop    %edi
 a5d:	74 00                	je     a5f <SEG_KERN_CS+0xa57>
 a5f:	73 79                	jae    ada <SEG_KERN_CS+0xad2>
 a61:	73 63                	jae    ac6 <SEG_KERN_CS+0xabe>
 a63:	61                   	popa
 a64:	6c                   	insb   (%dx),%es:(%edi)
 a65:	6c                   	insb   (%dx),%es:(%edi)
 a66:	5f                   	pop    %edi
 a67:	69 6d 70 6c 00 6d 73 	imul   $0x736d006c,0x70(%ebp),%ebp
 a6e:	72 5f                	jb     acf <SEG_KERN_CS+0xac7>
 a70:	6c                   	insb   (%dx),%es:(%edi)
 a71:	6f                   	outsl  %ds:(%esi),(%dx)
 a72:	00 70 72             	add    %dh,0x72(%eax)
 a75:	6f                   	outsl  %ds:(%esi),(%dx)
 a76:	63 00                	arpl   %eax,(%eax)
 a78:	77 72                	ja     aec <SEG_KERN_CS+0xae4>
 a7a:	69 74 65 5f 6d 73 72 	imul   $0x72736d,0x5f(%ebp,%eiz,2),%esi
 a81:	00 
 a82:	73 74                	jae    af8 <SEG_KERN_CS+0xaf0>
 a84:	61                   	popa
 a85:	63 6b 5f             	arpl   %ebp,0x5f(%ebx)
 a88:	74 6f                	je     af9 <SEG_KERN_CS+0xaf1>
 a8a:	70 00                	jo     a8c <SEG_KERN_CS+0xa84>
 a8c:	55                   	push   %ebp
 a8d:	53                   	push   %ebx
 a8e:	45                   	inc    %ebp
 a8f:	5f                   	pop    %edi
 a90:	53                   	push   %ebx
 a91:	59                   	pop    %ecx
 a92:	53                   	push   %ebx
 a93:	43                   	inc    %ebx
 a94:	41                   	inc    %ecx
 a95:	4c                   	dec    %esp
 a96:	4c                   	dec    %esp
 a97:	00 6b 61             	add    %ch,0x61(%ebx)
 a9a:	72 63                	jb     aff <SEG_KERN_CS+0xaf7>
 a9c:	68 5f 67 65 74       	push   $0x7465675f
 aa1:	5f                   	pop    %edi
 aa2:	74 73                	je     b17 <SEG_KERN_CS+0xb0f>
 aa4:	73 00                	jae    aa6 <SEG_KERN_CS+0xa9e>
 aa6:	55                   	push   %ebp
 aa7:	53                   	push   %ebx
 aa8:	45                   	inc    %ebp
 aa9:	5f                   	pop    %edi
 aaa:	53                   	push   %ebx
 aab:	59                   	pop    %ecx
 aac:	53                   	push   %ebx
 aad:	45                   	inc    %ebp
 aae:	4e                   	dec    %esi
 aaf:	54                   	push   %esp
 ab0:	45                   	inc    %ebp
 ab1:	52                   	push   %edx
 ab2:	00 75 38             	add    %dh,0x38(%ebp)
 ab5:	5f                   	pop    %edi
 ab6:	73 72                	jae    b2a <SEG_KERN_CS+0xb22>
 ab8:	63 00                	arpl   %eax,(%eax)
 aba:	73 33                	jae    aef <SEG_KERN_CS+0xae7>
 abc:	32 5f 72             	xor    0x72(%edi),%bl
 abf:	69 67 68 74 00 6b 6d 	imul   $0x6d6b0074,0x68(%edi),%esp
 ac6:	65 6d                	gs insl (%dx),%es:(%edi)
 ac8:	6d                   	insl   (%dx),%es:(%edi)
 ac9:	6f                   	outsl  %ds:(%esi),(%dx)
 aca:	76 65                	jbe    b31 <SEG_KERN_CS+0xb29>
 acc:	00 73 33             	add    %dh,0x33(%ebx)
 acf:	32 5f 6c             	xor    0x6c(%edi),%bl
 ad2:	65 66 74 00          	gs data16 je ad6 <SEG_KERN_CS+0xace>
 ad6:	75 38                	jne    b10 <SEG_KERN_CS+0xb08>
 ad8:	5f                   	pop    %edi
 ad9:	6c                   	insb   (%dx),%es:(%edi)
 ada:	65 66 74 00          	gs data16 je ade <SEG_KERN_CS+0xad6>
 ade:	75 33                	jne    b13 <SEG_KERN_CS+0xb0b>
 ae0:	32 5f 64             	xor    0x64(%edi),%bl
 ae3:	73 74                	jae    b59 <SEG_KERN_CS+0xb51>
 ae5:	00 75 38             	add    %dh,0x38(%ebp)
 ae8:	5f                   	pop    %edi
 ae9:	72 69                	jb     b54 <SEG_KERN_CS+0xb4c>
 aeb:	67 68 74 00 75 38    	addr16 push $0x38750074
 af1:	5f                   	pop    %edi
 af2:	70 74                	jo     b68 <SEG_KERN_CS+0xb60>
 af4:	72 00                	jb     af6 <SEG_KERN_CS+0xaee>
 af6:	75 38                	jne    b30 <SEG_KERN_CS+0xb28>
 af8:	5f                   	pop    %edi
 af9:	64 73 74             	fs jae b70 <SEG_KERN_CS+0xb68>
 afc:	00 6b 6d             	add    %ch,0x6d(%ebx)
 aff:	65 6d                	gs insl (%dx),%es:(%edi)
 b01:	63 6d 70             	arpl   %ebp,0x70(%ebp)
 b04:	00 75 33             	add    %dh,0x33(%ebp)
 b07:	32 5f 73             	xor    0x73(%edi),%bl
 b0a:	72 63                	jb     b6f <SEG_KERN_CS+0xb67>
 b0c:	00 75 33             	add    %dh,0x33(%ebp)
 b0f:	32 5f 76             	xor    0x76(%edi),%bl
 b12:	61                   	popa
 b13:	6c                   	insb   (%dx),%es:(%edi)
 b14:	00 47 4e             	add    %al,0x4e(%edi)
 b17:	55                   	push   %ebp
 b18:	20 43 2b             	and    %al,0x2b(%ebx)
 b1b:	2b 31                	sub    (%ecx),%esi
 b1d:	37                   	aaa
 b1e:	20 31                	and    %dh,(%ecx)
 b20:	33 2e                	xor    (%esi),%ebp
 b22:	32 2e                	xor    (%esi),%ch
 b24:	30 20                	xor    %ah,(%eax)
 b26:	2d 6d 74 75 6e       	sub    $0x6e75746d,%eax
 b2b:	65 3d 67 65 6e 65    	gs cmp $0x656e6567,%eax
 b31:	72 69                	jb     b9c <SEG_KERN_CS+0xb94>
 b33:	63 20                	arpl   %esp,(%eax)
 b35:	2d 6d 61 72 63       	sub    $0x6372616d,%eax
 b3a:	68 3d 70 65 6e       	push   $0x6e65703d
 b3f:	74 69                	je     baa <SEG_KERN_CS+0xba2>
 b41:	75 6d                	jne    bb0 <SEG_KERN_CS+0xba8>
 b43:	70 72                	jo     bb7 <SEG_KERN_CS+0xbaf>
 b45:	6f                   	outsl  %ds:(%esi),(%dx)
 b46:	20 2d 67 20 2d 66    	and    %ch,0x662d2067
 b4c:	66 72 65             	data16 jb bb4 <SEG_KERN_CS+0xbac>
 b4f:	65 73 74             	gs jae bc6 <SEG_KERN_CS+0xbbe>
 b52:	61                   	popa
 b53:	6e                   	outsb  %ds:(%esi),(%dx)
 b54:	64 69 6e 67 20 2d 66 	imul   $0x6e662d20,%fs:0x67(%esi),%ebp
 b5b:	6e 
 b5c:	6f                   	outsl  %ds:(%esi),(%dx)
 b5d:	2d 65 78 63 65       	sub    $0x65637865,%eax
 b62:	70 74                	jo     bd8 <SEG_KERN_CS+0xbd0>
 b64:	69 6f 6e 73 20 2d 66 	imul   $0x662d2073,0x6e(%edi),%ebp
 b6b:	6e                   	outsb  %ds:(%esi),(%dx)
 b6c:	6f                   	outsl  %ds:(%esi),(%dx)
 b6d:	2d 72 74 74 69       	sub    $0x69747472,%eax
 b72:	00 6b 6d             	add    %ch,0x6d(%ebx)
 b75:	61                   	popa
 b76:	69                   	.byte 0x69
 b77:	6e                   	outsb  %ds:(%esi),(%dx)
	...

Disassembly of section .debug_line_str:

00000000 <.debug_line_str>:
   0:	73 72                	jae    74 <SEG_KERN_CS+0x6c>
   2:	63 2f                	arpl   %ebp,(%edi)
   4:	61                   	popa
   5:	72 63                	jb     6a <SEG_KERN_CS+0x62>
   7:	68 2e 63 00 2f       	push   $0x2f00632e
   c:	6f                   	outsl  %ds:(%esi),(%dx)
   d:	73 64                	jae    73 <SEG_KERN_CS+0x6b>
   f:	65 76 2f             	gs jbe 41 <SEG_KERN_CS+0x39>
  12:	7a 65                	jp     79 <SEG_KERN_CS+0x71>
  14:	72 6f                	jb     85 <SEG_KERN_CS+0x7d>
  16:	6e                   	outsb  %ds:(%esi),(%dx)
  17:	69 78 2f 6b 65 72 6e 	imul   $0x6e72656b,0x2f(%eax),%edi
  1e:	65 6c                	gs insb (%dx),%es:(%edi)
  20:	2f                   	das
  21:	61                   	popa
  22:	72 63                	jb     87 <SEG_KERN_CS+0x7f>
  24:	68 2f 78 38 36       	push   $0x3638782f
  29:	2f                   	das
  2a:	69 6d 70 6c 00 73 72 	imul   $0x7273006c,0x70(%ebp),%ebp
  31:	63 00                	arpl   %eax,(%eax)
  33:	2f                   	das
  34:	6f                   	outsl  %ds:(%esi),(%dx)
  35:	73 64                	jae    9b <SEG_KERN_CS+0x93>
  37:	65 76 2f             	gs jbe 69 <SEG_KERN_CS+0x61>
  3a:	7a 65                	jp     a1 <SEG_KERN_CS+0x99>
  3c:	72 6f                	jb     ad <SEG_KERN_CS+0xa5>
  3e:	6e                   	outsb  %ds:(%esi),(%dx)
  3f:	69 78 2f 6b 65 72 6e 	imul   $0x6e72656b,0x2f(%eax),%edi
  46:	65 6c                	gs insb (%dx),%es:(%edi)
  48:	2f                   	das
  49:	61                   	popa
  4a:	72 63                	jb     af <SEG_KERN_CS+0xa7>
  4c:	68 2f 78 38 36       	push   $0x3638782f
  51:	2f                   	das
  52:	2e 2e 2f             	cs cs das
  55:	2e 2e 2f             	cs cs das
  58:	69 6e 63 6c 75 64 65 	imul   $0x6564756c,0x63(%esi),%ebp
  5f:	2f                   	das
  60:	7a 65                	jp     c7 <SEG_KERN_CS+0xbf>
  62:	72 6f                	jb     d3 <SEG_KERN_CS+0xcb>
  64:	6e                   	outsb  %ds:(%esi),(%dx)
  65:	69 78 00 73 72 63 2f 	imul   $0x2f637273,0x0(%eax),%edi
  6c:	6d                   	insl   (%dx),%es:(%edi)
  6d:	69 6e 38 36 00 2f 6f 	imul   $0x6f2f0036,0x38(%esi),%ebp
  74:	73 64                	jae    da <SEG_KERN_CS+0xd2>
  76:	65 76 2f             	gs jbe a8 <SEG_KERN_CS+0xa0>
  79:	7a 65                	jp     e0 <SEG_KERN_CS+0xd8>
  7b:	72 6f                	jb     ec <SEG_KERN_CS+0xe4>
  7d:	6e                   	outsb  %ds:(%esi),(%dx)
  7e:	69 78 2f 6b 65 72 6e 	imul   $0x6e72656b,0x2f(%eax),%edi
  85:	65 6c                	gs insb (%dx),%es:(%edi)
  87:	2f                   	das
  88:	61                   	popa
  89:	72 63                	jb     ee <SEG_KERN_CS+0xe6>
  8b:	68 2f 78 38 36       	push   $0x3638782f
  90:	2f                   	das
  91:	2e 2e 2f             	cs cs das
  94:	2e 2e 2f             	cs cs das
  97:	69 6e 63 6c 75 64 65 	imul   $0x6564756c,0x63(%esi),%ebp
  9e:	2f                   	das
  9f:	7a 65                	jp     106 <SEG_KERN_CS+0xfe>
  a1:	72 6f                	jb     112 <SEG_KERN_CS+0x10a>
  a3:	6e                   	outsb  %ds:(%esi),(%dx)
  a4:	69 78 2f 6b 63 72 74 	imul   $0x7472636b,0x2f(%eax),%edi
  ab:	00 74 79 70          	add    %dh,0x70(%ecx,%edi,2)
  af:	65 73 2e             	gs jae e0 <SEG_KERN_CS+0xd8>
  b2:	68 00 62 6f 6f       	push   $0x6f6f6200
  b7:	74 2e                	je     e7 <SEG_KERN_CS+0xdf>
  b9:	68 00 69 64 74       	push   $0x74646900
  be:	2e 68 00 65 78 63    	cs push $0x63786500
  c4:	65 70 74             	gs jo  13b <SEG_KERN_CS+0x133>
  c7:	2e 68 00 69 38 32    	cs push $0x32386900
  cd:	35 39 2e 68 00       	xor    $0x682e39,%eax
  d2:	67 64 74 2e          	addr16 fs je 104 <SEG_KERN_CS+0xfc>
  d6:	68 00 74 73 73       	push   $0x73737400
  db:	2e 68 00 70 61 67    	cs push $0x67617000
  e1:	65 2e 68 00 73 74 72 	gs cs push $0x72747300
  e8:	69 6e 67 2e 68 00 73 	imul   $0x7300682e,0x67(%esi),%ebp
  ef:	72 63                	jb     154 <SEG_KERN_CS+0x14c>
  f1:	2f                   	das
  f2:	68 65 6c 70 65       	push   $0x65706c65
  f7:	72 73                	jb     16c <SEG_KERN_CS+0x164>
  f9:	2f                   	das
  fa:	63 70 75             	arpl   %esi,0x75(%eax)
  fd:	69 6e 66 6f 2e 63 00 	imul   $0x632e6f,0x66(%esi),%ebp
 104:	73 72                	jae    178 <SEG_KERN_CS+0x170>
 106:	63 2f                	arpl   %ebp,(%edi)
 108:	68 65 6c 70 65       	push   $0x65706c65
 10d:	72 73                	jb     182 <SEG_KERN_CS+0x17a>
 10f:	00 2f                	add    %ch,(%edi)
 111:	6f                   	outsl  %ds:(%esi),(%dx)
 112:	73 64                	jae    178 <SEG_KERN_CS+0x170>
 114:	65 76 2f             	gs jbe 146 <SEG_KERN_CS+0x13e>
 117:	7a 65                	jp     17e <SEG_KERN_CS+0x176>
 119:	72 6f                	jb     18a <SEG_KERN_CS+0x182>
 11b:	6e                   	outsb  %ds:(%esi),(%dx)
 11c:	69 78 2f 6b 65 72 6e 	imul   $0x6e72656b,0x2f(%eax),%edi
 123:	65 6c                	gs insb (%dx),%es:(%edi)
 125:	2f                   	das
 126:	61                   	popa
 127:	72 63                	jb     18c <SEG_KERN_CS+0x184>
 129:	68 2f 78 38 36       	push   $0x3638782f
 12e:	2f                   	das
 12f:	2e 2e 2f             	cs cs das
 132:	2e 2e 2f             	cs cs das
 135:	69 6e 63 6c 75 64 65 	imul   $0x6564756c,0x63(%esi),%ebp
 13c:	2f                   	das
 13d:	7a 65                	jp     1a4 <SEG_KERN_CS+0x19c>
 13f:	72 6f                	jb     1b0 <SEG_KERN_CS+0x1a8>
 141:	6e                   	outsb  %ds:(%esi),(%dx)
 142:	69 78 2f 61 72 63 68 	imul   $0x68637261,0x2f(%eax),%edi
 149:	2f                   	das
 14a:	78 38                	js     184 <SEG_KERN_CS+0x17c>
 14c:	36 00 63 70          	add    %ah,%ss:0x70(%ebx)
 150:	75 69                	jne    1bb <SEG_KERN_CS+0x1b3>
 152:	6e                   	outsb  %ds:(%esi),(%dx)
 153:	66 6f                	outsw  %ds:(%esi),(%dx)
 155:	2e 68 00 6b 6c 69    	cs push $0x696c6b00
 15b:	62 2e                	bound  %ebp,(%esi)
 15d:	68 00 73 72 63       	push   $0x63727300
 162:	2f                   	das
 163:	6d                   	insl   (%dx),%es:(%edi)
 164:	69 6e 38 36 2f 65 78 	imul   $0x78652f36,0x38(%esi),%ebp
 16b:	63 65 70             	arpl   %esp,0x70(%ebp)
 16e:	74 2e                	je     19e <SEG_KERN_CS+0x196>
 170:	63 00                	arpl   %eax,(%eax)
 172:	73 72                	jae    1e6 <SEG_KERN_CS+0x1de>
 174:	63 2f                	arpl   %ebp,(%edi)
 176:	6d                   	insl   (%dx),%es:(%edi)
 177:	69 6e 38 36 2f 67 64 	imul   $0x64672f36,0x38(%esi),%ebp
 17e:	74 2e                	je     1ae <SEG_KERN_CS+0x1a6>
 180:	63 00                	arpl   %eax,(%eax)
 182:	6c                   	insb   (%dx),%es:(%edi)
 183:	61                   	popa
 184:	79 6f                	jns    1f5 <SEG_KERN_CS+0x1ed>
 186:	75 74                	jne    1fc <SEG_KERN_CS+0x1f4>
 188:	2e 68 00 73 72 63    	cs push $0x63727300
 18e:	2f                   	das
 18f:	6d                   	insl   (%dx),%es:(%edi)
 190:	69 6e 38 36 2f 69 38 	imul   $0x38692f36,0x38(%esi),%ebp
 197:	32 35 39 2e 63 00    	xor    0x632e39,%dh
 19d:	73 72                	jae    211 <SEG_KERN_CS+0x209>
 19f:	63 2f                	arpl   %ebp,(%edi)
 1a1:	6d                   	insl   (%dx),%es:(%edi)
 1a2:	69 6e 38 36 2f 69 64 	imul   $0x64692f36,0x38(%esi),%ebp
 1a9:	74 2e                	je     1d9 <SEG_KERN_CS+0x1d1>
 1ab:	63 00                	arpl   %eax,(%eax)
 1ad:	73 72                	jae    221 <SEG_KERN_CS+0x219>
 1af:	63 2f                	arpl   %ebp,(%edi)
 1b1:	6d                   	insl   (%dx),%es:(%edi)
 1b2:	69 6e 38 36 2f 70 61 	imul   $0x61702f36,0x38(%esi),%ebp
 1b9:	67 65 2e 63 00       	gs arpl %eax,%cs:(%bx,%si)
 1be:	62 6f 6f             	bound  %ebp,0x6f(%edi)
 1c1:	74 65                	je     228 <SEG_KERN_CS+0x220>
 1c3:	6e                   	outsb  %ds:(%esi),(%dx)
 1c4:	76 2e                	jbe    1f4 <SEG_KERN_CS+0x1ec>
 1c6:	68 00 73 72 63       	push   $0x63727300
 1cb:	2f                   	das
 1cc:	6d                   	insl   (%dx),%es:(%edi)
 1cd:	69 6e 38 36 2f 74 73 	imul   $0x73742f36,0x38(%esi),%ebp
 1d4:	73 2e                	jae    204 <SEG_KERN_CS+0x1fc>
 1d6:	63 00                	arpl   %eax,(%eax)
 1d8:	73 72                	jae    24c <SEG_KERN_CS+0x244>
 1da:	63 2f                	arpl   %ebp,(%edi)
 1dc:	73 74                	jae    252 <SEG_KERN_CS+0x24a>
 1de:	72 69                	jb     249 <SEG_KERN_CS+0x241>
 1e0:	6e                   	outsb  %ds:(%esi),(%dx)
 1e1:	67 2e 63 00          	arpl   %eax,%cs:(%bx,%si)
 1e5:	2f                   	das
 1e6:	6f                   	outsl  %ds:(%esi),(%dx)
 1e7:	73 64                	jae    24d <SEG_KERN_CS+0x245>
 1e9:	65 76 2f             	gs jbe 21b <SEG_KERN_CS+0x213>
 1ec:	7a 65                	jp     253 <SEG_KERN_CS+0x24b>
 1ee:	72 6f                	jb     25f <SEG_KERN_CS+0x257>
 1f0:	6e                   	outsb  %ds:(%esi),(%dx)
 1f1:	69 78 2f 6b 65 72 6e 	imul   $0x6e72656b,0x2f(%eax),%edi
 1f8:	65 6c                	gs insb (%dx),%es:(%edi)
 1fa:	2f                   	das
 1fb:	6b 63 72 74          	imul   $0x74,0x72(%ebx),%esp
 1ff:	00 2f                	add    %ch,(%edi)
 201:	6f                   	outsl  %ds:(%esi),(%dx)
 202:	73 64                	jae    268 <SEG_KERN_CS+0x260>
 204:	65 76 2f             	gs jbe 236 <SEG_KERN_CS+0x22e>
 207:	7a 65                	jp     26e <SEG_KERN_CS+0x266>
 209:	72 6f                	jb     27a <SEG_KERN_CS+0x272>
 20b:	6e                   	outsb  %ds:(%esi),(%dx)
 20c:	69 78 2f 6b 65 72 6e 	imul   $0x6e72656b,0x2f(%eax),%edi
 213:	65 6c                	gs insb (%dx),%es:(%edi)
 215:	00 73 72             	add    %dh,0x72(%ebx)
 218:	63 2f                	arpl   %ebp,(%edi)
 21a:	6d                   	insl   (%dx),%es:(%edi)
 21b:	61                   	popa
 21c:	69 6e 2e 63 70 70 00 	imul   $0x707063,0x2e(%esi),%ebp

Disassembly of section .debug_rnglists:

00000000 <.debug_rnglists>:
   0:	13 00                	adc    (%eax),%eax
   2:	00 00                	add    %al,(%eax)
   4:	05 00 04 00 00       	add    $0x400,%eax
   9:	00 00                	add    %al,(%eax)
   b:	00 04 95 03 c4 03 04 	add    %al,0x403c403(,%edx,4)
  12:	cc                   	int3
  13:	03 cd                	add    %ebp,%ecx
  15:	03 00                	add    (%eax),%eax
