
/osdev/zeronix/kernel/kernel.elf:     file format elf32-i386


Disassembly of section .multiboot:

00400000 <_mb_unpaged_start-0x10>:
  400000:	02 b0 ad 1b 03 00    	add    0x31bad(%eax),%dh
  400006:	00 00                	add    %al,(%eax)
  400008:	fb                   	sti
  400009:	4f                   	dec    %edi
  40000a:	52                   	push   %edx
  40000b:	e4 00                	in     $0x0,%al
  40000d:	00 00                	add    %al,(%eax)
	...

Disassembly of section .unpaged.text:

00401000 <kboot>:
  401000:	55                   	push   %ebp
  401001:	89 e5                	mov    %esp,%ebp
  401003:	83 ec 18             	sub    $0x18,%esp
  401006:	81 7d 08 02 b0 ad 2b 	cmpl   $0x2badb002,0x8(%ebp)
  40100d:	74 10                	je     40101f <kboot+0x1f>
  40100f:	83 ec 0c             	sub    $0xc,%esp
  401012:	68 cc 71 40 f0       	push   $0xf04071cc
  401017:	e8 57 00 00 00       	call   401073 <kboot_panic>
  40101c:	83 c4 10             	add    $0x10,%esp
  40101f:	c7 45 f4 00 30 40 00 	movl   $0x403000,-0xc(%ebp)
  401026:	8b 45 0c             	mov    0xc(%ebp),%eax
  401029:	83 ec 08             	sub    $0x8,%esp
  40102c:	50                   	push   %eax
  40102d:	ff 75 f4             	push   -0xc(%ebp)
  401030:	e8 80 00 00 00       	call   4010b5 <kboot_read_mbinfo>
  401035:	83 c4 10             	add    $0x10,%esp
  401038:	83 ec 0c             	sub    $0xc,%esp
  40103b:	ff 75 f4             	push   -0xc(%ebp)
  40103e:	e8 7d 03 00 00       	call   4013c0 <kboot_tpg_identity>
  401043:	83 c4 10             	add    $0x10,%esp
  401046:	83 ec 0c             	sub    $0xc,%esp
  401049:	ff 75 f4             	push   -0xc(%ebp)
  40104c:	e8 d3 03 00 00       	call   401424 <kboot_tpg_map_kernel>
  401051:	83 c4 10             	add    $0x10,%esp
  401054:	8b 45 f4             	mov    -0xc(%ebp),%eax
  401057:	8b 80 24 03 00 00    	mov    0x324(%eax),%eax
  40105d:	83 ec 0c             	sub    $0xc,%esp
  401060:	50                   	push   %eax
  401061:	e8 9f 05 00 00       	call   401605 <tpg_write_cr3>
  401066:	83 c4 10             	add    $0x10,%esp
  401069:	e8 97 04 00 00       	call   401505 <kboot_tpg_enable_paging>
  40106e:	8b 45 f4             	mov    -0xc(%ebp),%eax
  401071:	c9                   	leave
  401072:	c3                   	ret

00401073 <kboot_panic>:
  401073:	55                   	push   %ebp
  401074:	89 e5                	mov    %esp,%ebp
  401076:	83 ec 10             	sub    $0x10,%esp
  401079:	c7 45 fc 00 80 0b 00 	movl   $0xb8000,-0x4(%ebp)
  401080:	eb 1f                	jmp    4010a1 <kboot_panic+0x2e>
  401082:	8b 45 08             	mov    0x8(%ebp),%eax
  401085:	0f b6 00             	movzbl (%eax),%eax
  401088:	66 98                	cbtw
  40108a:	80 cc 0f             	or     $0xf,%ah
  40108d:	89 c1                	mov    %eax,%ecx
  40108f:	8b 45 fc             	mov    -0x4(%ebp),%eax
  401092:	8d 50 02             	lea    0x2(%eax),%edx
  401095:	89 55 fc             	mov    %edx,-0x4(%ebp)
  401098:	89 ca                	mov    %ecx,%edx
  40109a:	66 89 10             	mov    %dx,(%eax)
  40109d:	83 45 08 01          	addl   $0x1,0x8(%ebp)
  4010a1:	83 7d 08 00          	cmpl   $0x0,0x8(%ebp)
  4010a5:	74 0c                	je     4010b3 <kboot_panic+0x40>
  4010a7:	8b 45 08             	mov    0x8(%ebp),%eax
  4010aa:	0f b6 00             	movzbl (%eax),%eax
  4010ad:	84 c0                	test   %al,%al
  4010af:	75 d1                	jne    401082 <kboot_panic+0xf>
  4010b1:	eb 00                	jmp    4010b3 <kboot_panic+0x40>
  4010b3:	eb fe                	jmp    4010b3 <kboot_panic+0x40>

004010b5 <kboot_read_mbinfo>:
  4010b5:	55                   	push   %ebp
  4010b6:	89 e5                	mov    %esp,%ebp
  4010b8:	53                   	push   %ebx
  4010b9:	83 ec 14             	sub    $0x14,%esp
  4010bc:	8b 45 08             	mov    0x8(%ebp),%eax
  4010bf:	c7 00 00 00 00 00    	movl   $0x0,(%eax)
  4010c5:	8b 45 08             	mov    0x8(%ebp),%eax
  4010c8:	c7 80 24 03 00 00 00 	movl   $0x404000,0x324(%eax)
  4010cf:	40 40 00 
  4010d2:	8b 45 08             	mov    0x8(%ebp),%eax
  4010d5:	c7 80 28 03 00 00 00 	movl   $0x0,0x328(%eax)
  4010dc:	00 00 00 
  4010df:	ba 00 00 40 f0       	mov    $0xf0400000,%edx
  4010e4:	8b 45 08             	mov    0x8(%ebp),%eax
  4010e7:	89 50 04             	mov    %edx,0x4(%eax)
  4010ea:	ba 00 50 40 f0       	mov    $0xf0405000,%edx
  4010ef:	8b 45 08             	mov    0x8(%ebp),%eax
  4010f2:	89 50 08             	mov    %edx,0x8(%eax)
  4010f5:	ba 5c 24 41 f0       	mov    $0xf041245c,%edx
  4010fa:	8b 45 08             	mov    0x8(%ebp),%eax
  4010fd:	89 50 0c             	mov    %edx,0xc(%eax)
  401100:	ba 10 00 40 00       	mov    $0x400010,%edx
  401105:	8b 45 08             	mov    0x8(%ebp),%eax
  401108:	89 50 10             	mov    %edx,0x10(%eax)
  40110b:	ba 00 50 40 00       	mov    $0x405000,%edx
  401110:	b8 10 00 40 00       	mov    $0x400010,%eax
  401115:	29 c2                	sub    %eax,%edx
  401117:	8b 45 08             	mov    0x8(%ebp),%eax
  40111a:	89 50 14             	mov    %edx,0x14(%eax)
  40111d:	ba 5c 24 01 00       	mov    $0x1245c,%edx
  401122:	8b 45 08             	mov    0x8(%ebp),%eax
  401125:	8b 40 14             	mov    0x14(%eax),%eax
  401128:	29 c2                	sub    %eax,%edx
  40112a:	8b 45 08             	mov    0x8(%ebp),%eax
  40112d:	89 50 18             	mov    %edx,0x18(%eax)
  401130:	8b 45 08             	mov    0x8(%ebp),%eax
  401133:	c7 40 1c 00 00 00 00 	movl   $0x0,0x1c(%eax)
  40113a:	8b 45 08             	mov    0x8(%ebp),%eax
  40113d:	c7 80 20 03 00 00 00 	movl   $0x0,0x320(%eax)
  401144:	00 00 00 
  401147:	8b 45 0c             	mov    0xc(%ebp),%eax
  40114a:	8b 00                	mov    (%eax),%eax
  40114c:	83 e0 40             	and    $0x40,%eax
  40114f:	85 c0                	test   %eax,%eax
  401151:	74 73                	je     4011c6 <kboot_read_mbinfo+0x111>
  401153:	8b 45 0c             	mov    0xc(%ebp),%eax
  401156:	8b 40 30             	mov    0x30(%eax),%eax
  401159:	89 45 f4             	mov    %eax,-0xc(%ebp)
  40115c:	eb 51                	jmp    4011af <kboot_read_mbinfo+0xfa>
  40115e:	8b 45 f4             	mov    -0xc(%ebp),%eax
  401161:	8b 40 14             	mov    0x14(%eax),%eax
  401164:	83 f8 01             	cmp    $0x1,%eax
  401167:	74 12                	je     40117b <kboot_read_mbinfo+0xc6>
  401169:	8b 45 f4             	mov    -0xc(%ebp),%eax
  40116c:	8b 10                	mov    (%eax),%edx
  40116e:	8b 45 f4             	mov    -0xc(%ebp),%eax
  401171:	01 d0                	add    %edx,%eax
  401173:	83 c0 04             	add    $0x4,%eax
  401176:	89 45 f4             	mov    %eax,-0xc(%ebp)
  401179:	eb 34                	jmp    4011af <kboot_read_mbinfo+0xfa>
  40117b:	8b 45 f4             	mov    -0xc(%ebp),%eax
  40117e:	8b 48 0c             	mov    0xc(%eax),%ecx
  401181:	8b 58 10             	mov    0x10(%eax),%ebx
  401184:	8b 45 f4             	mov    -0xc(%ebp),%eax
  401187:	8b 50 08             	mov    0x8(%eax),%edx
  40118a:	8b 40 04             	mov    0x4(%eax),%eax
  40118d:	83 ec 0c             	sub    $0xc,%esp
  401190:	53                   	push   %ebx
  401191:	51                   	push   %ecx
  401192:	52                   	push   %edx
  401193:	50                   	push   %eax
  401194:	ff 75 08             	push   0x8(%ebp)
  401197:	e8 b8 00 00 00       	call   401254 <kboot_add_mmap>
  40119c:	83 c4 20             	add    $0x20,%esp
  40119f:	8b 45 f4             	mov    -0xc(%ebp),%eax
  4011a2:	8b 10                	mov    (%eax),%edx
  4011a4:	8b 45 f4             	mov    -0xc(%ebp),%eax
  4011a7:	01 d0                	add    %edx,%eax
  4011a9:	83 c0 04             	add    $0x4,%eax
  4011ac:	89 45 f4             	mov    %eax,-0xc(%ebp)
  4011af:	8b 45 0c             	mov    0xc(%ebp),%eax
  4011b2:	8b 50 30             	mov    0x30(%eax),%edx
  4011b5:	8b 45 0c             	mov    0xc(%ebp),%eax
  4011b8:	8b 40 2c             	mov    0x2c(%eax),%eax
  4011bb:	01 d0                	add    %edx,%eax
  4011bd:	8b 55 f4             	mov    -0xc(%ebp),%edx
  4011c0:	39 c2                	cmp    %eax,%edx
  4011c2:	72 9a                	jb     40115e <kboot_read_mbinfo+0xa9>
  4011c4:	eb 47                	jmp    40120d <kboot_read_mbinfo+0x158>
  4011c6:	8b 45 0c             	mov    0xc(%ebp),%eax
  4011c9:	8b 40 04             	mov    0x4(%eax),%eax
  4011cc:	c1 e0 0a             	shl    $0xa,%eax
  4011cf:	ba 00 00 00 00       	mov    $0x0,%edx
  4011d4:	83 ec 0c             	sub    $0xc,%esp
  4011d7:	52                   	push   %edx
  4011d8:	50                   	push   %eax
  4011d9:	6a 00                	push   $0x0
  4011db:	6a 00                	push   $0x0
  4011dd:	ff 75 08             	push   0x8(%ebp)
  4011e0:	e8 6f 00 00 00       	call   401254 <kboot_add_mmap>
  4011e5:	83 c4 20             	add    $0x20,%esp
  4011e8:	8b 45 0c             	mov    0xc(%ebp),%eax
  4011eb:	8b 40 08             	mov    0x8(%eax),%eax
  4011ee:	c1 e0 0a             	shl    $0xa,%eax
  4011f1:	ba 00 00 00 00       	mov    $0x0,%edx
  4011f6:	83 ec 0c             	sub    $0xc,%esp
  4011f9:	52                   	push   %edx
  4011fa:	50                   	push   %eax
  4011fb:	6a 00                	push   $0x0
  4011fd:	68 00 00 10 00       	push   $0x100000
  401202:	ff 75 08             	push   0x8(%ebp)
  401205:	e8 4a 00 00 00       	call   401254 <kboot_add_mmap>
  40120a:	83 c4 20             	add    $0x20,%esp
  40120d:	90                   	nop
  40120e:	8b 5d fc             	mov    -0x4(%ebp),%ebx
  401211:	c9                   	leave
  401212:	c3                   	ret

00401213 <kboot_round_up>:
  401213:	55                   	push   %ebp
  401214:	89 e5                	mov    %esp,%ebp
  401216:	8b 45 08             	mov    0x8(%ebp),%eax
  401219:	ba 00 00 00 00       	mov    $0x0,%edx
  40121e:	f7 75 0c             	divl   0xc(%ebp)
  401221:	89 d0                	mov    %edx,%eax
  401223:	85 c0                	test   %eax,%eax
  401225:	74 14                	je     40123b <kboot_round_up+0x28>
  401227:	8b 45 08             	mov    0x8(%ebp),%eax
  40122a:	ba 00 00 00 00       	mov    $0x0,%edx
  40122f:	f7 75 0c             	divl   0xc(%ebp)
  401232:	83 c0 01             	add    $0x1,%eax
  401235:	0f af 45 0c          	imul   0xc(%ebp),%eax
  401239:	eb 03                	jmp    40123e <kboot_round_up+0x2b>
  40123b:	8b 45 08             	mov    0x8(%ebp),%eax
  40123e:	5d                   	pop    %ebp
  40123f:	c3                   	ret

00401240 <kboot_round_down>:
  401240:	55                   	push   %ebp
  401241:	89 e5                	mov    %esp,%ebp
  401243:	8b 45 08             	mov    0x8(%ebp),%eax
  401246:	ba 00 00 00 00       	mov    $0x0,%edx
  40124b:	f7 75 0c             	divl   0xc(%ebp)
  40124e:	0f af 45 0c          	imul   0xc(%ebp),%eax
  401252:	5d                   	pop    %ebp
  401253:	c3                   	ret

00401254 <kboot_add_mmap>:
  401254:	55                   	push   %ebp
  401255:	89 e5                	mov    %esp,%ebp
  401257:	53                   	push   %ebx
  401258:	83 ec 24             	sub    $0x24,%esp
  40125b:	8b 45 0c             	mov    0xc(%ebp),%eax
  40125e:	89 45 e0             	mov    %eax,-0x20(%ebp)
  401261:	8b 45 10             	mov    0x10(%ebp),%eax
  401264:	89 45 e4             	mov    %eax,-0x1c(%ebp)
  401267:	8b 45 14             	mov    0x14(%ebp),%eax
  40126a:	89 45 d8             	mov    %eax,-0x28(%ebp)
  40126d:	8b 45 18             	mov    0x18(%ebp),%eax
  401270:	89 45 dc             	mov    %eax,-0x24(%ebp)
  401273:	ba 00 f0 ff ff       	mov    $0xfffff000,%edx
  401278:	b8 00 00 00 00       	mov    $0x0,%eax
  40127d:	3b 55 e0             	cmp    -0x20(%ebp),%edx
  401280:	1b 45 e4             	sbb    -0x1c(%ebp),%eax
  401283:	0f 82 2e 01 00 00    	jb     4013b7 <kboot_add_mmap+0x163>
  401289:	8b 4d e0             	mov    -0x20(%ebp),%ecx
  40128c:	8b 5d e4             	mov    -0x1c(%ebp),%ebx
  40128f:	8b 45 d8             	mov    -0x28(%ebp),%eax
  401292:	8b 55 dc             	mov    -0x24(%ebp),%edx
  401295:	01 c8                	add    %ecx,%eax
  401297:	11 da                	adc    %ebx,%edx
  401299:	bb 00 f0 ff ff       	mov    $0xfffff000,%ebx
  40129e:	b9 00 00 00 00       	mov    $0x0,%ecx
  4012a3:	39 c3                	cmp    %eax,%ebx
  4012a5:	19 d1                	sbb    %edx,%ecx
  4012a7:	73 28                	jae    4012d1 <kboot_add_mmap+0x7d>
  4012a9:	8b 4d e0             	mov    -0x20(%ebp),%ecx
  4012ac:	8b 5d e4             	mov    -0x1c(%ebp),%ebx
  4012af:	8b 45 d8             	mov    -0x28(%ebp),%eax
  4012b2:	8b 55 dc             	mov    -0x24(%ebp),%edx
  4012b5:	01 c1                	add    %eax,%ecx
  4012b7:	11 d3                	adc    %edx,%ebx
  4012b9:	8b 45 d8             	mov    -0x28(%ebp),%eax
  4012bc:	8b 55 dc             	mov    -0x24(%ebp),%edx
  4012bf:	29 c8                	sub    %ecx,%eax
  4012c1:	19 da                	sbb    %ebx,%edx
  4012c3:	05 00 f0 ff ff       	add    $0xfffff000,%eax
  4012c8:	83 d2 00             	adc    $0x0,%edx
  4012cb:	89 45 d8             	mov    %eax,-0x28(%ebp)
  4012ce:	89 55 dc             	mov    %edx,-0x24(%ebp)
  4012d1:	8b 45 d8             	mov    -0x28(%ebp),%eax
  4012d4:	0b 45 dc             	or     -0x24(%ebp),%eax
  4012d7:	0f 84 dd 00 00 00    	je     4013ba <kboot_add_mmap+0x166>
  4012dd:	8b 45 e0             	mov    -0x20(%ebp),%eax
  4012e0:	68 00 10 00 00       	push   $0x1000
  4012e5:	50                   	push   %eax
  4012e6:	e8 28 ff ff ff       	call   401213 <kboot_round_up>
  4012eb:	83 c4 08             	add    $0x8,%esp
  4012ee:	89 45 e0             	mov    %eax,-0x20(%ebp)
  4012f1:	c7 45 e4 00 00 00 00 	movl   $0x0,-0x1c(%ebp)
  4012f8:	8b 45 e0             	mov    -0x20(%ebp),%eax
  4012fb:	68 00 10 00 00       	push   $0x1000
  401300:	50                   	push   %eax
  401301:	e8 3a ff ff ff       	call   401240 <kboot_round_down>
  401306:	83 c4 08             	add    $0x8,%esp
  401309:	89 45 d8             	mov    %eax,-0x28(%ebp)
  40130c:	c7 45 dc 00 00 00 00 	movl   $0x0,-0x24(%ebp)
  401313:	8b 45 08             	mov    0x8(%ebp),%eax
  401316:	8b 80 20 03 00 00    	mov    0x320(%eax),%eax
  40131c:	8d 48 01             	lea    0x1(%eax),%ecx
  40131f:	8b 55 08             	mov    0x8(%ebp),%edx
  401322:	89 8a 20 03 00 00    	mov    %ecx,0x320(%edx)
  401328:	89 45 f4             	mov    %eax,-0xc(%ebp)
  40132b:	83 7d f4 1f          	cmpl   $0x1f,-0xc(%ebp)
  40132f:	76 0d                	jbe    40133e <kboot_add_mmap+0xea>
  401331:	68 f0 71 40 f0       	push   $0xf04071f0
  401336:	e8 38 fd ff ff       	call   401073 <kboot_panic>
  40133b:	83 c4 04             	add    $0x4,%esp
  40133e:	8b 4d 08             	mov    0x8(%ebp),%ecx
  401341:	8b 55 f4             	mov    -0xc(%ebp),%edx
  401344:	89 d0                	mov    %edx,%eax
  401346:	01 c0                	add    %eax,%eax
  401348:	01 d0                	add    %edx,%eax
  40134a:	c1 e0 03             	shl    $0x3,%eax
  40134d:	01 c8                	add    %ecx,%eax
  40134f:	8d 48 20             	lea    0x20(%eax),%ecx
  401352:	8b 45 e0             	mov    -0x20(%ebp),%eax
  401355:	8b 55 e4             	mov    -0x1c(%ebp),%edx
  401358:	89 41 04             	mov    %eax,0x4(%ecx)
  40135b:	89 51 08             	mov    %edx,0x8(%ecx)
  40135e:	8b 4d 08             	mov    0x8(%ebp),%ecx
  401361:	8b 55 f4             	mov    -0xc(%ebp),%edx
  401364:	89 d0                	mov    %edx,%eax
  401366:	01 c0                	add    %eax,%eax
  401368:	01 d0                	add    %edx,%eax
  40136a:	c1 e0 03             	shl    $0x3,%eax
  40136d:	01 c8                	add    %ecx,%eax
  40136f:	8d 48 20             	lea    0x20(%eax),%ecx
  401372:	8b 45 d8             	mov    -0x28(%ebp),%eax
  401375:	8b 55 dc             	mov    -0x24(%ebp),%edx
  401378:	89 41 0c             	mov    %eax,0xc(%ecx)
  40137b:	89 51 10             	mov    %edx,0x10(%ecx)
  40137e:	8b 4d 08             	mov    0x8(%ebp),%ecx
  401381:	8b 55 f4             	mov    -0xc(%ebp),%edx
  401384:	89 d0                	mov    %edx,%eax
  401386:	01 c0                	add    %eax,%eax
  401388:	01 d0                	add    %edx,%eax
  40138a:	c1 e0 03             	shl    $0x3,%eax
  40138d:	01 c8                	add    %ecx,%eax
  40138f:	83 c0 34             	add    $0x34,%eax
  401392:	c7 00 01 00 00 00    	movl   $0x1,(%eax)
  401398:	8b 55 e0             	mov    -0x20(%ebp),%edx
  40139b:	8b 45 d8             	mov    -0x28(%ebp),%eax
  40139e:	01 d0                	add    %edx,%eax
  4013a0:	89 45 f0             	mov    %eax,-0x10(%ebp)
  4013a3:	8b 45 08             	mov    0x8(%ebp),%eax
  4013a6:	8b 00                	mov    (%eax),%eax
  4013a8:	3b 45 f0             	cmp    -0x10(%ebp),%eax
  4013ab:	73 0e                	jae    4013bb <kboot_add_mmap+0x167>
  4013ad:	8b 45 08             	mov    0x8(%ebp),%eax
  4013b0:	8b 55 f0             	mov    -0x10(%ebp),%edx
  4013b3:	89 10                	mov    %edx,(%eax)
  4013b5:	eb 04                	jmp    4013bb <kboot_add_mmap+0x167>
  4013b7:	90                   	nop
  4013b8:	eb 01                	jmp    4013bb <kboot_add_mmap+0x167>
  4013ba:	90                   	nop
  4013bb:	8b 5d fc             	mov    -0x4(%ebp),%ebx
  4013be:	c9                   	leave
  4013bf:	c3                   	ret

004013c0 <kboot_tpg_identity>:
  4013c0:	55                   	push   %ebp
  4013c1:	89 e5                	mov    %esp,%ebp
  4013c3:	83 ec 10             	sub    $0x10,%esp
  4013c6:	c7 45 fc 00 00 00 00 	movl   $0x0,-0x4(%ebp)
  4013cd:	eb 48                	jmp    401417 <kboot_tpg_identity+0x57>
  4013cf:	c7 45 f8 87 00 00 00 	movl   $0x87,-0x8(%ebp)
  4013d6:	8b 45 fc             	mov    -0x4(%ebp),%eax
  4013d9:	c1 e0 16             	shl    $0x16,%eax
  4013dc:	89 45 f4             	mov    %eax,-0xc(%ebp)
  4013df:	8b 45 08             	mov    0x8(%ebp),%eax
  4013e2:	8b 00                	mov    (%eax),%eax
  4013e4:	25 00 00 c0 ff       	and    $0xffc00000,%eax
  4013e9:	8b 55 f4             	mov    -0xc(%ebp),%edx
  4013ec:	81 e2 00 00 c0 ff    	and    $0xffc00000,%edx
  4013f2:	39 c2                	cmp    %eax,%edx
  4013f4:	72 04                	jb     4013fa <kboot_tpg_identity+0x3a>
  4013f6:	83 4d f8 18          	orl    $0x18,-0x8(%ebp)
  4013fa:	8b 45 08             	mov    0x8(%ebp),%eax
  4013fd:	8b 80 24 03 00 00    	mov    0x324(%eax),%eax
  401403:	8b 55 fc             	mov    -0x4(%ebp),%edx
  401406:	c1 e2 02             	shl    $0x2,%edx
  401409:	01 c2                	add    %eax,%edx
  40140b:	8b 45 f4             	mov    -0xc(%ebp),%eax
  40140e:	0b 45 f8             	or     -0x8(%ebp),%eax
  401411:	89 02                	mov    %eax,(%edx)
  401413:	83 45 fc 01          	addl   $0x1,-0x4(%ebp)
  401417:	81 7d fc ff 03 00 00 	cmpl   $0x3ff,-0x4(%ebp)
  40141e:	76 af                	jbe    4013cf <kboot_tpg_identity+0xf>
  401420:	90                   	nop
  401421:	90                   	nop
  401422:	c9                   	leave
  401423:	c3                   	ret

00401424 <kboot_tpg_map_kernel>:
  401424:	55                   	push   %ebp
  401425:	89 e5                	mov    %esp,%ebp
  401427:	83 ec 10             	sub    $0x10,%esp
  40142a:	c7 45 fc 00 00 00 00 	movl   $0x0,-0x4(%ebp)
  401431:	c7 45 f8 00 00 40 00 	movl   $0x400000,-0x8(%ebp)
  401438:	b8 00 00 40 f0       	mov    $0xf0400000,%eax
  40143d:	c1 e8 16             	shr    $0x16,%eax
  401440:	89 45 f4             	mov    %eax,-0xc(%ebp)
  401443:	eb 2b                	jmp    401470 <kboot_tpg_map_kernel+0x4c>
  401445:	8b 45 08             	mov    0x8(%ebp),%eax
  401448:	8b 80 24 03 00 00    	mov    0x324(%eax),%eax
  40144e:	8b 55 f4             	mov    -0xc(%ebp),%edx
  401451:	c1 e2 02             	shl    $0x2,%edx
  401454:	01 d0                	add    %edx,%eax
  401456:	8b 55 f8             	mov    -0x8(%ebp),%edx
  401459:	80 ca 83             	or     $0x83,%dl
  40145c:	89 10                	mov    %edx,(%eax)
  40145e:	81 45 fc 00 00 40 00 	addl   $0x400000,-0x4(%ebp)
  401465:	81 45 f8 00 00 40 00 	addl   $0x400000,-0x8(%ebp)
  40146c:	83 45 f4 01          	addl   $0x1,-0xc(%ebp)
  401470:	b8 5c 24 01 00       	mov    $0x1245c,%eax
  401475:	39 45 fc             	cmp    %eax,-0x4(%ebp)
  401478:	72 cb                	jb     401445 <kboot_tpg_map_kernel+0x21>
  40147a:	8b 45 08             	mov    0x8(%ebp),%eax
  40147d:	8b 55 f4             	mov    -0xc(%ebp),%edx
  401480:	89 90 28 03 00 00    	mov    %edx,0x328(%eax)
  401486:	90                   	nop
  401487:	c9                   	leave
  401488:	c3                   	ret

00401489 <kboot_tpg_check_cpuf>:
  401489:	55                   	push   %ebp
  40148a:	89 e5                	mov    %esp,%ebp
  40148c:	83 ec 28             	sub    $0x28,%esp
  40148f:	c7 45 f0 00 00 00 00 	movl   $0x0,-0x10(%ebp)
  401496:	8d 45 e4             	lea    -0x1c(%ebp),%eax
  401499:	50                   	push   %eax
  40149a:	8d 45 e8             	lea    -0x18(%ebp),%eax
  40149d:	50                   	push   %eax
  40149e:	8d 45 ec             	lea    -0x14(%ebp),%eax
  4014a1:	50                   	push   %eax
  4014a2:	8d 45 f0             	lea    -0x10(%ebp),%eax
  4014a5:	50                   	push   %eax
  4014a6:	e8 74 01 00 00       	call   40161f <tpg_cpuid>
  4014ab:	83 c4 10             	add    $0x10,%esp
  4014ae:	8b 45 f0             	mov    -0x10(%ebp),%eax
  4014b1:	85 c0                	test   %eax,%eax
  4014b3:	75 07                	jne    4014bc <kboot_tpg_check_cpuf+0x33>
  4014b5:	b8 00 00 00 00       	mov    $0x0,%eax
  4014ba:	eb 47                	jmp    401503 <kboot_tpg_check_cpuf+0x7a>
  4014bc:	c7 45 f0 01 00 00 00 	movl   $0x1,-0x10(%ebp)
  4014c3:	8d 45 e4             	lea    -0x1c(%ebp),%eax
  4014c6:	50                   	push   %eax
  4014c7:	8d 45 e8             	lea    -0x18(%ebp),%eax
  4014ca:	50                   	push   %eax
  4014cb:	8d 45 ec             	lea    -0x14(%ebp),%eax
  4014ce:	50                   	push   %eax
  4014cf:	8d 45 f0             	lea    -0x10(%ebp),%eax
  4014d2:	50                   	push   %eax
  4014d3:	e8 47 01 00 00       	call   40161f <tpg_cpuid>
  4014d8:	83 c4 10             	add    $0x10,%esp
  4014db:	c7 45 f4 00 00 00 00 	movl   $0x0,-0xc(%ebp)
  4014e2:	8b 45 e8             	mov    -0x18(%ebp),%eax
  4014e5:	25 00 20 00 00       	and    $0x2000,%eax
  4014ea:	85 c0                	test   %eax,%eax
  4014ec:	74 04                	je     4014f2 <kboot_tpg_check_cpuf+0x69>
  4014ee:	83 4d f4 02          	orl    $0x2,-0xc(%ebp)
  4014f2:	8b 45 e8             	mov    -0x18(%ebp),%eax
  4014f5:	83 e0 40             	and    $0x40,%eax
  4014f8:	85 c0                	test   %eax,%eax
  4014fa:	74 04                	je     401500 <kboot_tpg_check_cpuf+0x77>
  4014fc:	83 4d f4 01          	orl    $0x1,-0xc(%ebp)
  401500:	8b 45 f4             	mov    -0xc(%ebp),%eax
  401503:	c9                   	leave
  401504:	c3                   	ret

00401505 <kboot_tpg_enable_paging>:
  401505:	55                   	push   %ebp
  401506:	89 e5                	mov    %esp,%ebp
  401508:	83 ec 18             	sub    $0x18,%esp
  40150b:	e8 79 ff ff ff       	call   401489 <kboot_tpg_check_cpuf>
  401510:	89 45 f0             	mov    %eax,-0x10(%ebp)
  401513:	e8 c8 00 00 00       	call   4015e0 <tpg_read_cr0>
  401518:	89 45 ec             	mov    %eax,-0x14(%ebp)
  40151b:	e8 d0 00 00 00       	call   4015f0 <tpg_read_cr4>
  401520:	89 45 f4             	mov    %eax,-0xc(%ebp)
  401523:	8b 45 ec             	mov    -0x14(%ebp),%eax
  401526:	25 ff ff ff 7f       	and    $0x7fffffff,%eax
  40152b:	83 ec 0c             	sub    $0xc,%esp
  40152e:	50                   	push   %eax
  40152f:	e8 c4 00 00 00       	call   4015f8 <tpg_write_cr0>
  401534:	83 c4 10             	add    $0x10,%esp
  401537:	8b 45 f4             	mov    -0xc(%ebp),%eax
  40153a:	24 6f                	and    $0x6f,%al
  40153c:	83 ec 0c             	sub    $0xc,%esp
  40153f:	50                   	push   %eax
  401540:	e8 cd 00 00 00       	call   401612 <tpg_write_cr4>
  401545:	83 c4 10             	add    $0x10,%esp
  401548:	e8 93 00 00 00       	call   4015e0 <tpg_read_cr0>
  40154d:	89 45 ec             	mov    %eax,-0x14(%ebp)
  401550:	e8 9b 00 00 00       	call   4015f0 <tpg_read_cr4>
  401555:	89 45 f4             	mov    %eax,-0xc(%ebp)
  401558:	83 4d f4 10          	orl    $0x10,-0xc(%ebp)
  40155c:	83 ec 0c             	sub    $0xc,%esp
  40155f:	ff 75 f4             	push   -0xc(%ebp)
  401562:	e8 ab 00 00 00       	call   401612 <tpg_write_cr4>
  401567:	83 c4 10             	add    $0x10,%esp
  40156a:	81 4d ec 00 00 00 80 	orl    $0x80000000,-0x14(%ebp)
  401571:	83 ec 0c             	sub    $0xc,%esp
  401574:	ff 75 ec             	push   -0x14(%ebp)
  401577:	e8 7c 00 00 00       	call   4015f8 <tpg_write_cr0>
  40157c:	83 c4 10             	add    $0x10,%esp
  40157f:	81 4d ec 00 00 01 00 	orl    $0x10000,-0x14(%ebp)
  401586:	83 ec 0c             	sub    $0xc,%esp
  401589:	ff 75 ec             	push   -0x14(%ebp)
  40158c:	e8 67 00 00 00       	call   4015f8 <tpg_write_cr0>
  401591:	83 c4 10             	add    $0x10,%esp
  401594:	8b 45 f0             	mov    -0x10(%ebp),%eax
  401597:	83 e0 02             	and    $0x2,%eax
  40159a:	85 c0                	test   %eax,%eax
  40159c:	74 07                	je     4015a5 <kboot_tpg_enable_paging+0xa0>
  40159e:	81 4d f4 80 00 00 00 	orl    $0x80,-0xc(%ebp)
  4015a5:	83 ec 0c             	sub    $0xc,%esp
  4015a8:	ff 75 f4             	push   -0xc(%ebp)
  4015ab:	e8 62 00 00 00       	call   401612 <tpg_write_cr4>
  4015b0:	83 c4 10             	add    $0x10,%esp
  4015b3:	90                   	nop
  4015b4:	c9                   	leave
  4015b5:	c3                   	ret
  4015b6:	66 90                	xchg   %ax,%ax
  4015b8:	66 90                	xchg   %ax,%ax
  4015ba:	66 90                	xchg   %ax,%ax
  4015bc:	66 90                	xchg   %ax,%ax
  4015be:	66 90                	xchg   %ax,%ax

004015c0 <_start>:
  4015c0:	fa                   	cli
  4015c1:	bc 00 24 40 00       	mov    $0x402400,%esp
  4015c6:	89 e5                	mov    %esp,%ebp
  4015c8:	53                   	push   %ebx
  4015c9:	50                   	push   %eax
  4015ca:	e8 31 fa ff ff       	call   401000 <kboot>
  4015cf:	83 c4 08             	add    $0x8,%esp
  4015d2:	e9 09 3b 00 f0       	jmp    f04050e0 <__karch_init>
  4015d7:	66 90                	xchg   %ax,%ax
  4015d9:	66 90                	xchg   %ax,%ax
  4015db:	66 90                	xchg   %ax,%ax
  4015dd:	66 90                	xchg   %ax,%ax
  4015df:	90                   	nop

004015e0 <tpg_read_cr0>:
  4015e0:	55                   	push   %ebp
  4015e1:	89 e5                	mov    %esp,%ebp
  4015e3:	0f 20 c0             	mov    %cr0,%eax
  4015e6:	5d                   	pop    %ebp
  4015e7:	c3                   	ret

004015e8 <tpg_read_cr3>:
  4015e8:	55                   	push   %ebp
  4015e9:	89 e5                	mov    %esp,%ebp
  4015eb:	0f 20 d8             	mov    %cr3,%eax
  4015ee:	5d                   	pop    %ebp
  4015ef:	c3                   	ret

004015f0 <tpg_read_cr4>:
  4015f0:	55                   	push   %ebp
  4015f1:	89 e5                	mov    %esp,%ebp
  4015f3:	0f 20 e0             	mov    %cr4,%eax
  4015f6:	5d                   	pop    %ebp
  4015f7:	c3                   	ret

004015f8 <tpg_write_cr0>:
  4015f8:	55                   	push   %ebp
  4015f9:	89 e5                	mov    %esp,%ebp
  4015fb:	8b 45 08             	mov    0x8(%ebp),%eax
  4015fe:	0f 22 c0             	mov    %eax,%cr0
  401601:	eb 00                	jmp    401603 <tpg_write_cr0.done>

00401603 <tpg_write_cr0.done>:
  401603:	5d                   	pop    %ebp
  401604:	c3                   	ret

00401605 <tpg_write_cr3>:
  401605:	55                   	push   %ebp
  401606:	89 e5                	mov    %esp,%ebp
  401608:	8b 45 08             	mov    0x8(%ebp),%eax
  40160b:	0f 22 d8             	mov    %eax,%cr3
  40160e:	eb 00                	jmp    401610 <tpg_write_cr3.done>

00401610 <tpg_write_cr3.done>:
  401610:	5d                   	pop    %ebp
  401611:	c3                   	ret

00401612 <tpg_write_cr4>:
  401612:	55                   	push   %ebp
  401613:	89 e5                	mov    %esp,%ebp
  401615:	8b 45 08             	mov    0x8(%ebp),%eax
  401618:	0f 22 e0             	mov    %eax,%cr4
  40161b:	eb 00                	jmp    40161d <tpg_write_cr4.done>

0040161d <tpg_write_cr4.done>:
  40161d:	5d                   	pop    %ebp
  40161e:	c3                   	ret

0040161f <tpg_cpuid>:
  40161f:	55                   	push   %ebp
  401620:	53                   	push   %ebx
  401621:	8b 6c 24 0c          	mov    0xc(%esp),%ebp
  401625:	8b 45 00             	mov    0x0(%ebp),%eax
  401628:	8b 6c 24 10          	mov    0x10(%esp),%ebp
  40162c:	8b 5d 00             	mov    0x0(%ebp),%ebx
  40162f:	8b 6c 24 14          	mov    0x14(%esp),%ebp
  401633:	8b 4d 00             	mov    0x0(%ebp),%ecx
  401636:	8b 6c 24 18          	mov    0x18(%esp),%ebp
  40163a:	8b 55 00             	mov    0x0(%ebp),%edx
  40163d:	0f a2                	cpuid
  40163f:	8b 6c 24 0c          	mov    0xc(%esp),%ebp
  401643:	89 45 00             	mov    %eax,0x0(%ebp)
  401646:	8b 6c 24 10          	mov    0x10(%esp),%ebp
  40164a:	89 5d 00             	mov    %ebx,0x0(%ebp)
  40164d:	8b 6c 24 14          	mov    0x14(%esp),%ebp
  401651:	89 4d 00             	mov    %ecx,0x0(%ebp)
  401654:	8b 6c 24 18          	mov    0x18(%esp),%ebp
  401658:	89 55 00             	mov    %edx,0x0(%ebp)
  40165b:	5b                   	pop    %ebx
  40165c:	5d                   	pop    %ebp
  40165d:	c3                   	ret

Disassembly of section .unpaged.bss:

00402000 <_kstack_head>:
	...

00402400 <_kstack_tail>:
	...

00403000 <temp_bootinfo>:
	...

00404000 <pagedir>:
	...

Disassembly of section .text:

f0405000 <karch_init>:
f0405000:	55                   	push   %ebp
f0405001:	89 e5                	mov    %esp,%ebp
f0405003:	83 ec 08             	sub    $0x8,%esp
f0405006:	83 ec 04             	sub    $0x4,%esp
f0405009:	68 2c 03 00 00       	push   $0x32c
f040500e:	ff 75 08             	push   0x8(%ebp)
f0405011:	68 00 10 41 f0       	push   $0xf0411000
f0405016:	e8 d3 1d 00 00       	call   f0406dee <kmemcpy>
f040501b:	83 c4 10             	add    $0x10,%esp
f040501e:	e8 13 00 00 00       	call   f0405036 <karch_early_init>
f0405023:	e8 aa 16 00 00       	call   f04066d2 <karch_init_acpi>
f0405028:	84 c0                	test   %al,%al
f040502a:	74 07                	je     f0405033 <karch_init+0x33>
f040502c:	e8 e8 18 00 00       	call   f0406919 <karch_acpi_poweroff>
f0405031:	eb 01                	jmp    f0405034 <karch_init+0x34>
f0405033:	90                   	nop
f0405034:	c9                   	leave
f0405035:	c3                   	ret

f0405036 <karch_early_init>:
f0405036:	55                   	push   %ebp
f0405037:	89 e5                	mov    %esp,%ebp
f0405039:	83 ec 08             	sub    $0x8,%esp
f040503c:	e8 80 09 00 00       	call   f04059c1 <karch_init_gdt>
f0405041:	e8 13 14 00 00       	call   f0406459 <karch_init_tss>
f0405046:	e8 0f 0a 00 00       	call   f0405a5a <karch_flush_gdt>
f040504b:	e8 0b 12 00 00       	call   f040625b <karch_init_idt>
f0405050:	e8 9b 0e 00 00       	call   f0405ef0 <karch_init_i8259>
f0405055:	e8 44 08 00 00       	call   f040589e <karch_init_except>
f040505a:	e8 2f 12 00 00       	call   f040628e <karch_flush_idt>
f040505f:	83 ec 0c             	sub    $0xc,%esp
f0405062:	6a 28                	push   $0x28
f0405064:	e8 f3 03 00 00       	call   f040545c <load_ldt>
f0405069:	83 c4 10             	add    $0x10,%esp
f040506c:	83 ec 0c             	sub    $0xc,%esp
f040506f:	6a 30                	push   $0x30
f0405071:	e8 f1 03 00 00       	call   f0405467 <load_tr>
f0405076:	83 c4 10             	add    $0x10,%esp
f0405079:	e8 0e 04 00 00       	call   f040548c <load_kern_cs>
f040507e:	83 ec 0c             	sub    $0xc,%esp
f0405081:	6a 10                	push   $0x10
f0405083:	e8 10 04 00 00       	call   f0405498 <load_ds>
f0405088:	83 c4 10             	add    $0x10,%esp
f040508b:	83 ec 0c             	sub    $0xc,%esp
f040508e:	6a 10                	push   $0x10
f0405090:	e8 10 04 00 00       	call   f04054a5 <load_es>
f0405095:	83 c4 10             	add    $0x10,%esp
f0405098:	83 ec 0c             	sub    $0xc,%esp
f040509b:	6a 10                	push   $0x10
f040509d:	e8 10 04 00 00       	call   f04054b2 <load_fs>
f04050a2:	83 c4 10             	add    $0x10,%esp
f04050a5:	83 ec 0c             	sub    $0xc,%esp
f04050a8:	6a 10                	push   $0x10
f04050aa:	e8 10 04 00 00       	call   f04054bf <load_gs>
f04050af:	83 c4 10             	add    $0x10,%esp
f04050b2:	83 ec 0c             	sub    $0xc,%esp
f04050b5:	6a 10                	push   $0x10
f04050b7:	e8 10 04 00 00       	call   f04054cc <load_ss>
f04050bc:	83 c4 10             	add    $0x10,%esp
f04050bf:	83 ec 0c             	sub    $0xc,%esp
f04050c2:	68 00 10 41 f0       	push   $0xf0411000
f04050c7:	e8 8a 12 00 00       	call   f0406356 <karch_init_page>
f04050cc:	83 c4 10             	add    $0x10,%esp
f04050cf:	90                   	nop
f04050d0:	c9                   	leave
f04050d1:	c3                   	ret
f04050d2:	66 90                	xchg   %ax,%ax
f04050d4:	66 90                	xchg   %ax,%ax
f04050d6:	66 90                	xchg   %ax,%ax
f04050d8:	66 90                	xchg   %ax,%ax
f04050da:	66 90                	xchg   %ax,%ax
f04050dc:	66 90                	xchg   %ax,%ax
f04050de:	66 90                	xchg   %ax,%ax

f04050e0 <__karch_init>:
f04050e0:	bc 00 d0 40 f0       	mov    $0xf040d000,%esp
f04050e5:	89 e5                	mov    %esp,%ebp
f04050e7:	6a 00                	push   $0x0
f04050e9:	50                   	push   %eax
f04050ea:	e8 11 ff ff ff       	call   f0405000 <karch_init>
f04050ef:	bb 00 90 40 f0       	mov    $0xf0409000,%ebx
f04050f4:	eb 05                	jmp    f04050fb <__karch_init.p2>

f04050f6 <__karch_init.p1>:
f04050f6:	ff 13                	call   *(%ebx)
f04050f8:	83 c3 04             	add    $0x4,%ebx

f04050fb <__karch_init.p2>:
f04050fb:	81 fb 00 90 40 f0    	cmp    $0xf0409000,%ebx
f0405101:	72 f3                	jb     f04050f6 <__karch_init.p1>
f0405103:	e8 82 1e 00 00       	call   f0406f8a <kmain>

f0405108 <__karch_init.hang>:
f0405108:	f4                   	hlt
f0405109:	eb fd                	jmp    f0405108 <__karch_init.hang>

f040510b <kcpuinfo>:
f040510b:	55                   	push   %ebp
f040510c:	89 e5                	mov    %esp,%ebp
f040510e:	83 ec 38             	sub    $0x38,%esp
f0405111:	83 7d 08 00          	cmpl   $0x0,0x8(%ebp)
f0405115:	75 0a                	jne    f0405121 <kcpuinfo+0x16>
f0405117:	b8 00 00 00 00       	mov    $0x0,%eax
f040511c:	e9 60 02 00 00       	jmp    f0405381 <kcpuinfo+0x276>
f0405121:	c7 45 e4 00 00 00 00 	movl   $0x0,-0x1c(%ebp)
f0405128:	c7 45 d4 00 00 00 00 	movl   $0x0,-0x2c(%ebp)
f040512f:	c7 45 d0 00 00 00 00 	movl   $0x0,-0x30(%ebp)
f0405136:	c7 45 cc 00 00 00 00 	movl   $0x0,-0x34(%ebp)
f040513d:	c7 45 c8 00 00 00 00 	movl   $0x0,-0x38(%ebp)
f0405144:	8d 45 d8             	lea    -0x28(%ebp),%eax
f0405147:	50                   	push   %eax
f0405148:	8d 45 dc             	lea    -0x24(%ebp),%eax
f040514b:	50                   	push   %eax
f040514c:	8d 45 e0             	lea    -0x20(%ebp),%eax
f040514f:	50                   	push   %eax
f0405150:	8d 45 e4             	lea    -0x1c(%ebp),%eax
f0405153:	50                   	push   %eax
f0405154:	e8 82 02 00 00       	call   f04053db <read_cpuid>
f0405159:	83 c4 10             	add    $0x10,%esp
f040515c:	8b 45 e4             	mov    -0x1c(%ebp),%eax
f040515f:	85 c0                	test   %eax,%eax
f0405161:	75 0a                	jne    f040516d <kcpuinfo+0x62>
f0405163:	b8 00 00 00 00       	mov    $0x0,%eax
f0405168:	e9 14 02 00 00       	jmp    f0405381 <kcpuinfo+0x276>
f040516d:	a1 00 80 40 f0       	mov    0xf0408000,%eax
f0405172:	8b 10                	mov    (%eax),%edx
f0405174:	8b 45 d8             	mov    -0x28(%ebp),%eax
f0405177:	39 c2                	cmp    %eax,%edx
f0405179:	0f 94 c0             	sete   %al
f040517c:	88 45 ef             	mov    %al,-0x11(%ebp)
f040517f:	a1 04 80 40 f0       	mov    0xf0408004,%eax
f0405184:	8b 10                	mov    (%eax),%edx
f0405186:	8b 45 d8             	mov    -0x28(%ebp),%eax
f0405189:	39 c2                	cmp    %eax,%edx
f040518b:	0f 94 c0             	sete   %al
f040518e:	88 45 ee             	mov    %al,-0x12(%ebp)
f0405191:	c7 45 e4 01 00 00 00 	movl   $0x1,-0x1c(%ebp)
f0405198:	8d 45 d8             	lea    -0x28(%ebp),%eax
f040519b:	50                   	push   %eax
f040519c:	8d 45 dc             	lea    -0x24(%ebp),%eax
f040519f:	50                   	push   %eax
f04051a0:	8d 45 e0             	lea    -0x20(%ebp),%eax
f04051a3:	50                   	push   %eax
f04051a4:	8d 45 e4             	lea    -0x1c(%ebp),%eax
f04051a7:	50                   	push   %eax
f04051a8:	e8 2e 02 00 00       	call   f04053db <read_cpuid>
f04051ad:	83 c4 10             	add    $0x10,%esp
f04051b0:	8b 45 e4             	mov    -0x1c(%ebp),%eax
f04051b3:	83 e0 0f             	and    $0xf,%eax
f04051b6:	89 45 e8             	mov    %eax,-0x18(%ebp)
f04051b9:	8b 45 e4             	mov    -0x1c(%ebp),%eax
f04051bc:	c1 e8 04             	shr    $0x4,%eax
f04051bf:	83 e0 0f             	and    $0xf,%eax
f04051c2:	89 45 f4             	mov    %eax,-0xc(%ebp)
f04051c5:	83 7d f4 0f          	cmpl   $0xf,-0xc(%ebp)
f04051c9:	74 06                	je     f04051d1 <kcpuinfo+0xc6>
f04051cb:	83 7d f4 06          	cmpl   $0x6,-0xc(%ebp)
f04051cf:	75 0f                	jne    f04051e0 <kcpuinfo+0xd5>
f04051d1:	8b 45 e4             	mov    -0x1c(%ebp),%eax
f04051d4:	c1 e8 10             	shr    $0x10,%eax
f04051d7:	c1 e0 04             	shl    $0x4,%eax
f04051da:	0f b6 c0             	movzbl %al,%eax
f04051dd:	01 45 f4             	add    %eax,-0xc(%ebp)
f04051e0:	8b 45 e4             	mov    -0x1c(%ebp),%eax
f04051e3:	c1 e8 08             	shr    $0x8,%eax
f04051e6:	83 e0 0f             	and    $0xf,%eax
f04051e9:	89 45 f0             	mov    %eax,-0x10(%ebp)
f04051ec:	83 7d f0 0f          	cmpl   $0xf,-0x10(%ebp)
f04051f0:	75 0c                	jne    f04051fe <kcpuinfo+0xf3>
f04051f2:	8b 45 e4             	mov    -0x1c(%ebp),%eax
f04051f5:	c1 e8 14             	shr    $0x14,%eax
f04051f8:	0f b6 c0             	movzbl %al,%eax
f04051fb:	01 45 f0             	add    %eax,-0x10(%ebp)
f04051fe:	80 7d ee 00          	cmpb   $0x0,-0x12(%ebp)
f0405202:	74 1f                	je     f0405223 <kcpuinfo+0x118>
f0405204:	c7 45 d4 01 00 00 80 	movl   $0x80000001,-0x2c(%ebp)
f040520b:	8d 45 cc             	lea    -0x34(%ebp),%eax
f040520e:	50                   	push   %eax
f040520f:	8d 45 c8             	lea    -0x38(%ebp),%eax
f0405212:	50                   	push   %eax
f0405213:	8d 45 d0             	lea    -0x30(%ebp),%eax
f0405216:	50                   	push   %eax
f0405217:	8d 45 d4             	lea    -0x2c(%ebp),%eax
f040521a:	50                   	push   %eax
f040521b:	e8 bb 01 00 00       	call   f04053db <read_cpuid>
f0405220:	83 c4 10             	add    $0x10,%esp
f0405223:	83 7d 08 12          	cmpl   $0x12,0x8(%ebp)
f0405227:	0f 87 4f 01 00 00    	ja     f040537c <kcpuinfo+0x271>
f040522d:	8b 45 08             	mov    0x8(%ebp),%eax
f0405230:	c1 e0 02             	shl    $0x2,%eax
f0405233:	05 0c 70 40 f0       	add    $0xf040700c,%eax
f0405238:	8b 00                	mov    (%eax),%eax
f040523a:	ff e0                	jmp    *%eax
f040523c:	8b 45 dc             	mov    -0x24(%ebp),%eax
f040523f:	83 e0 08             	and    $0x8,%eax
f0405242:	e9 3a 01 00 00       	jmp    f0405381 <kcpuinfo+0x276>
f0405247:	8b 45 dc             	mov    -0x24(%ebp),%eax
f040524a:	83 e0 40             	and    $0x40,%eax
f040524d:	e9 2f 01 00 00       	jmp    f0405381 <kcpuinfo+0x276>
f0405252:	8b 45 dc             	mov    -0x24(%ebp),%eax
f0405255:	25 00 02 00 00       	and    $0x200,%eax
f040525a:	e9 22 01 00 00       	jmp    f0405381 <kcpuinfo+0x276>
f040525f:	8b 45 dc             	mov    -0x24(%ebp),%eax
f0405262:	83 e0 10             	and    $0x10,%eax
f0405265:	e9 17 01 00 00       	jmp    f0405381 <kcpuinfo+0x276>
f040526a:	8b 45 dc             	mov    -0x24(%ebp),%eax
f040526d:	83 e0 01             	and    $0x1,%eax
f0405270:	e9 0c 01 00 00       	jmp    f0405381 <kcpuinfo+0x276>
f0405275:	8b 45 dc             	mov    -0x24(%ebp),%eax
f0405278:	25 00 00 00 07       	and    $0x7000000,%eax
f040527d:	3d 00 00 00 07       	cmp    $0x7000000,%eax
f0405282:	75 19                	jne    f040529d <kcpuinfo+0x192>
f0405284:	8b 45 d8             	mov    -0x28(%ebp),%eax
f0405287:	25 01 02 18 00       	and    $0x180201,%eax
f040528c:	3d 01 02 18 00       	cmp    $0x180201,%eax
f0405291:	75 0a                	jne    f040529d <kcpuinfo+0x192>
f0405293:	b8 01 00 00 00       	mov    $0x1,%eax
f0405298:	e9 e4 00 00 00       	jmp    f0405381 <kcpuinfo+0x276>
f040529d:	b8 00 00 00 00       	mov    $0x0,%eax
f04052a2:	e9 da 00 00 00       	jmp    f0405381 <kcpuinfo+0x276>
f04052a7:	8b 45 dc             	mov    -0x24(%ebp),%eax
f04052aa:	25 00 00 00 01       	and    $0x1000000,%eax
f04052af:	e9 cd 00 00 00       	jmp    f0405381 <kcpuinfo+0x276>
f04052b4:	8b 45 dc             	mov    -0x24(%ebp),%eax
f04052b7:	25 00 00 00 02       	and    $0x2000000,%eax
f04052bc:	e9 c0 00 00 00       	jmp    f0405381 <kcpuinfo+0x276>
f04052c1:	8b 45 dc             	mov    -0x24(%ebp),%eax
f04052c4:	25 00 00 00 04       	and    $0x4000000,%eax
f04052c9:	e9 b3 00 00 00       	jmp    f0405381 <kcpuinfo+0x276>
f04052ce:	8b 45 d8             	mov    -0x28(%ebp),%eax
f04052d1:	83 e0 01             	and    $0x1,%eax
f04052d4:	e9 a8 00 00 00       	jmp    f0405381 <kcpuinfo+0x276>
f04052d9:	8b 45 d8             	mov    -0x28(%ebp),%eax
f04052dc:	25 00 02 00 00       	and    $0x200,%eax
f04052e1:	e9 9b 00 00 00       	jmp    f0405381 <kcpuinfo+0x276>
f04052e6:	8b 45 d8             	mov    -0x28(%ebp),%eax
f04052e9:	25 00 00 08 00       	and    $0x80000,%eax
f04052ee:	e9 8e 00 00 00       	jmp    f0405381 <kcpuinfo+0x276>
f04052f3:	8b 45 d8             	mov    -0x28(%ebp),%eax
f04052f6:	25 00 00 10 00       	and    $0x100000,%eax
f04052fb:	e9 81 00 00 00       	jmp    f0405381 <kcpuinfo+0x276>
f0405300:	8b 45 dc             	mov    -0x24(%ebp),%eax
f0405303:	25 00 00 00 10       	and    $0x10000000,%eax
f0405308:	eb 77                	jmp    f0405381 <kcpuinfo+0x276>
f040530a:	8b 45 e0             	mov    -0x20(%ebp),%eax
f040530d:	c1 e8 10             	shr    $0x10,%eax
f0405310:	0f b6 c0             	movzbl %al,%eax
f0405313:	eb 6c                	jmp    f0405381 <kcpuinfo+0x276>
f0405315:	80 7d ef 00          	cmpb   $0x0,-0x11(%ebp)
f0405319:	75 07                	jne    f0405322 <kcpuinfo+0x217>
f040531b:	b8 00 00 00 00       	mov    $0x0,%eax
f0405320:	eb 5f                	jmp    f0405381 <kcpuinfo+0x276>
f0405322:	8b 45 dc             	mov    -0x24(%ebp),%eax
f0405325:	25 00 08 00 00       	and    $0x800,%eax
f040532a:	85 c0                	test   %eax,%eax
f040532c:	75 07                	jne    f0405335 <kcpuinfo+0x22a>
f040532e:	b8 00 00 00 00       	mov    $0x0,%eax
f0405333:	eb 4c                	jmp    f0405381 <kcpuinfo+0x276>
f0405335:	83 7d f0 06          	cmpl   $0x6,-0x10(%ebp)
f0405339:	75 13                	jne    f040534e <kcpuinfo+0x243>
f040533b:	83 7d f4 02          	cmpl   $0x2,-0xc(%ebp)
f040533f:	77 0d                	ja     f040534e <kcpuinfo+0x243>
f0405341:	83 7d e8 02          	cmpl   $0x2,-0x18(%ebp)
f0405345:	77 07                	ja     f040534e <kcpuinfo+0x243>
f0405347:	b8 00 00 00 00       	mov    $0x0,%eax
f040534c:	eb 33                	jmp    f0405381 <kcpuinfo+0x276>
f040534e:	b8 01 00 00 00       	mov    $0x1,%eax
f0405353:	eb 2c                	jmp    f0405381 <kcpuinfo+0x276>
f0405355:	80 7d ee 00          	cmpb   $0x0,-0x12(%ebp)
f0405359:	75 07                	jne    f0405362 <kcpuinfo+0x257>
f040535b:	b8 00 00 00 00       	mov    $0x0,%eax
f0405360:	eb 1f                	jmp    f0405381 <kcpuinfo+0x276>
f0405362:	8b 45 cc             	mov    -0x34(%ebp),%eax
f0405365:	25 00 08 00 00       	and    $0x800,%eax
f040536a:	85 c0                	test   %eax,%eax
f040536c:	75 07                	jne    f0405375 <kcpuinfo+0x26a>
f040536e:	b8 00 00 00 00       	mov    $0x0,%eax
f0405373:	eb 0c                	jmp    f0405381 <kcpuinfo+0x276>
f0405375:	b8 01 00 00 00       	mov    $0x1,%eax
f040537a:	eb 05                	jmp    f0405381 <kcpuinfo+0x276>
f040537c:	b8 00 00 00 00       	mov    $0x0,%eax
f0405381:	c9                   	leave
f0405382:	c3                   	ret
f0405383:	66 90                	xchg   %ax,%ax
f0405385:	66 90                	xchg   %ax,%ax
f0405387:	66 90                	xchg   %ax,%ax
f0405389:	66 90                	xchg   %ax,%ax
f040538b:	66 90                	xchg   %ax,%ax
f040538d:	66 90                	xchg   %ax,%ax
f040538f:	90                   	nop

f0405390 <read_cr0>:
f0405390:	55                   	push   %ebp
f0405391:	89 e5                	mov    %esp,%ebp
f0405393:	0f 20 c0             	mov    %cr0,%eax
f0405396:	89 ec                	mov    %ebp,%esp
f0405398:	5d                   	pop    %ebp
f0405399:	c3                   	ret

f040539a <read_cr3>:
f040539a:	55                   	push   %ebp
f040539b:	89 e5                	mov    %esp,%ebp
f040539d:	0f 20 d8             	mov    %cr3,%eax
f04053a0:	89 ec                	mov    %ebp,%esp
f04053a2:	5d                   	pop    %ebp
f04053a3:	c3                   	ret

f04053a4 <read_cr4>:
f04053a4:	55                   	push   %ebp
f04053a5:	89 e5                	mov    %esp,%ebp
f04053a7:	0f 20 e0             	mov    %cr4,%eax
f04053aa:	89 ec                	mov    %ebp,%esp
f04053ac:	5d                   	pop    %ebp
f04053ad:	c3                   	ret

f04053ae <write_cr0>:
f04053ae:	55                   	push   %ebp
f04053af:	89 e5                	mov    %esp,%ebp
f04053b1:	8b 45 08             	mov    0x8(%ebp),%eax
f04053b4:	0f 22 c0             	mov    %eax,%cr0
f04053b7:	eb 00                	jmp    f04053b9 <write_cr0.done>

f04053b9 <write_cr0.done>:
f04053b9:	89 ec                	mov    %ebp,%esp
f04053bb:	5d                   	pop    %ebp
f04053bc:	c3                   	ret

f04053bd <write_cr3>:
f04053bd:	55                   	push   %ebp
f04053be:	89 e5                	mov    %esp,%ebp
f04053c0:	8b 45 08             	mov    0x8(%ebp),%eax
f04053c3:	0f 22 d8             	mov    %eax,%cr3
f04053c6:	eb 00                	jmp    f04053c8 <write_cr3.done>

f04053c8 <write_cr3.done>:
f04053c8:	89 ec                	mov    %ebp,%esp
f04053ca:	5d                   	pop    %ebp
f04053cb:	c3                   	ret

f04053cc <write_cr4>:
f04053cc:	55                   	push   %ebp
f04053cd:	89 e5                	mov    %esp,%ebp
f04053cf:	8b 45 08             	mov    0x8(%ebp),%eax
f04053d2:	0f 22 e0             	mov    %eax,%cr4
f04053d5:	eb 00                	jmp    f04053d7 <write_cr4.done>

f04053d7 <write_cr4.done>:
f04053d7:	89 ec                	mov    %ebp,%esp
f04053d9:	5d                   	pop    %ebp
f04053da:	c3                   	ret

f04053db <read_cpuid>:
f04053db:	55                   	push   %ebp
f04053dc:	53                   	push   %ebx
f04053dd:	8b 6c 24 0c          	mov    0xc(%esp),%ebp
f04053e1:	8b 45 00             	mov    0x0(%ebp),%eax
f04053e4:	8b 6c 24 10          	mov    0x10(%esp),%ebp
f04053e8:	8b 5d 00             	mov    0x0(%ebp),%ebx
f04053eb:	8b 6c 24 14          	mov    0x14(%esp),%ebp
f04053ef:	8b 4d 00             	mov    0x0(%ebp),%ecx
f04053f2:	8b 6c 24 18          	mov    0x18(%esp),%ebp
f04053f6:	8b 55 00             	mov    0x0(%ebp),%edx
f04053f9:	0f a2                	cpuid
f04053fb:	8b 6c 24 0c          	mov    0xc(%esp),%ebp
f04053ff:	89 45 00             	mov    %eax,0x0(%ebp)
f0405402:	8b 6c 24 10          	mov    0x10(%esp),%ebp
f0405406:	89 5d 00             	mov    %ebx,0x0(%ebp)
f0405409:	8b 6c 24 14          	mov    0x14(%esp),%ebp
f040540d:	89 4d 00             	mov    %ecx,0x0(%ebp)
f0405410:	8b 6c 24 18          	mov    0x18(%esp),%ebp
f0405414:	89 55 00             	mov    %edx,0x0(%ebp)
f0405417:	5b                   	pop    %ebx
f0405418:	5d                   	pop    %ebp
f0405419:	c3                   	ret

f040541a <read_msr>:
f040541a:	55                   	push   %ebp
f040541b:	89 e5                	mov    %esp,%ebp
f040541d:	8b 4d 08             	mov    0x8(%ebp),%ecx
f0405420:	0f 32                	rdmsr
f0405422:	8b 4d 0c             	mov    0xc(%ebp),%ecx
f0405425:	89 11                	mov    %edx,(%ecx)
f0405427:	8b 4d 10             	mov    0x10(%ebp),%ecx
f040542a:	89 01                	mov    %eax,(%ecx)
f040542c:	89 ec                	mov    %ebp,%esp
f040542e:	5d                   	pop    %ebp
f040542f:	c3                   	ret

f0405430 <write_msr>:
f0405430:	55                   	push   %ebp
f0405431:	89 e5                	mov    %esp,%ebp
f0405433:	8b 55 0c             	mov    0xc(%ebp),%edx
f0405436:	8b 45 10             	mov    0x10(%ebp),%eax
f0405439:	8b 4d 08             	mov    0x8(%ebp),%ecx
f040543c:	0f 30                	wrmsr
f040543e:	89 ec                	mov    %ebp,%esp
f0405440:	5d                   	pop    %ebp
f0405441:	c3                   	ret

f0405442 <load_gdt>:
f0405442:	55                   	push   %ebp
f0405443:	89 e5                	mov    %esp,%ebp
f0405445:	8b 45 08             	mov    0x8(%ebp),%eax
f0405448:	0f 01 10             	lgdtl  (%eax)
f040544b:	89 ec                	mov    %ebp,%esp
f040544d:	5d                   	pop    %ebp
f040544e:	c3                   	ret

f040544f <load_idt>:
f040544f:	55                   	push   %ebp
f0405450:	89 e5                	mov    %esp,%ebp
f0405452:	8b 45 08             	mov    0x8(%ebp),%eax
f0405455:	0f 01 18             	lidtl  (%eax)
f0405458:	89 ec                	mov    %ebp,%esp
f040545a:	5d                   	pop    %ebp
f040545b:	c3                   	ret

f040545c <load_ldt>:
f040545c:	55                   	push   %ebp
f040545d:	89 e5                	mov    %esp,%ebp
f040545f:	0f 00 55 08          	lldt   0x8(%ebp)
f0405463:	89 ec                	mov    %ebp,%esp
f0405465:	5d                   	pop    %ebp
f0405466:	c3                   	ret

f0405467 <load_tr>:
f0405467:	55                   	push   %ebp
f0405468:	89 e5                	mov    %esp,%ebp
f040546a:	0f 00 5d 08          	ltr    0x8(%ebp)
f040546e:	89 ec                	mov    %ebp,%esp
f0405470:	5d                   	pop    %ebp
f0405471:	c3                   	ret

f0405472 <store_gdt>:
f0405472:	55                   	push   %ebp
f0405473:	89 e5                	mov    %esp,%ebp
f0405475:	8b 45 08             	mov    0x8(%ebp),%eax
f0405478:	0f 01 00             	sgdtl  (%eax)
f040547b:	89 ec                	mov    %ebp,%esp
f040547d:	5d                   	pop    %ebp
f040547e:	c3                   	ret

f040547f <store_idt>:
f040547f:	55                   	push   %ebp
f0405480:	89 e5                	mov    %esp,%ebp
f0405482:	8b 45 08             	mov    0x8(%ebp),%eax
f0405485:	0f 01 08             	sidtl  (%eax)
f0405488:	89 ec                	mov    %ebp,%esp
f040548a:	5d                   	pop    %ebp
f040548b:	c3                   	ret

f040548c <load_kern_cs>:
f040548c:	55                   	push   %ebp
f040548d:	89 e5                	mov    %esp,%ebp
f040548f:	ea 96 54 40 f0 08 00 	ljmp   $0x8,$0xf0405496

f0405496 <load_kern_cs.newcs>:
f0405496:	5d                   	pop    %ebp
f0405497:	c3                   	ret

f0405498 <load_ds>:
f0405498:	55                   	push   %ebp
f0405499:	89 e5                	mov    %esp,%ebp
f040549b:	8b 45 08             	mov    0x8(%ebp),%eax
f040549e:	66 8c d8             	mov    %ds,%ax
f04054a1:	eb 00                	jmp    f04054a3 <load_ds.retval>

f04054a3 <load_ds.retval>:
f04054a3:	5d                   	pop    %ebp
f04054a4:	c3                   	ret

f04054a5 <load_es>:
f04054a5:	55                   	push   %ebp
f04054a6:	89 e5                	mov    %esp,%ebp
f04054a8:	8b 45 08             	mov    0x8(%ebp),%eax
f04054ab:	66 8c c0             	mov    %es,%ax
f04054ae:	eb 00                	jmp    f04054b0 <load_es.retval>

f04054b0 <load_es.retval>:
f04054b0:	5d                   	pop    %ebp
f04054b1:	c3                   	ret

f04054b2 <load_fs>:
f04054b2:	55                   	push   %ebp
f04054b3:	89 e5                	mov    %esp,%ebp
f04054b5:	8b 45 08             	mov    0x8(%ebp),%eax
f04054b8:	66 8c e0             	mov    %fs,%ax
f04054bb:	eb 00                	jmp    f04054bd <load_fs.retval>

f04054bd <load_fs.retval>:
f04054bd:	5d                   	pop    %ebp
f04054be:	c3                   	ret

f04054bf <load_gs>:
f04054bf:	55                   	push   %ebp
f04054c0:	89 e5                	mov    %esp,%ebp
f04054c2:	8b 45 08             	mov    0x8(%ebp),%eax
f04054c5:	66 8c e8             	mov    %gs,%ax
f04054c8:	eb 00                	jmp    f04054ca <load_gs.retval>

f04054ca <load_gs.retval>:
f04054ca:	5d                   	pop    %ebp
f04054cb:	c3                   	ret

f04054cc <load_ss>:
f04054cc:	55                   	push   %ebp
f04054cd:	89 e5                	mov    %esp,%ebp
f04054cf:	8b 45 08             	mov    0x8(%ebp),%eax
f04054d2:	66 8c d0             	mov    %ss,%ax
f04054d5:	eb 00                	jmp    f04054d7 <load_ss.retval>

f04054d7 <load_ss.retval>:
f04054d7:	5d                   	pop    %ebp
f04054d8:	c3                   	ret

f04054d9 <cpu_hlt>:
f04054d9:	f4                   	hlt
f04054da:	c3                   	ret

f04054db <cpu_cli>:
f04054db:	fa                   	cli
f04054dc:	c3                   	ret

f04054dd <cpu_sti>:
f04054dd:	fb                   	sti
f04054de:	c3                   	ret

f04054df <cpu_stihlt>:
f04054df:	fb                   	sti
f04054e0:	f4                   	hlt
f04054e1:	c3                   	ret

f04054e2 <cpu_in8>:
f04054e2:	55                   	push   %ebp
f04054e3:	89 e5                	mov    %esp,%ebp
f04054e5:	52                   	push   %edx
f04054e6:	8b 55 08             	mov    0x8(%ebp),%edx
f04054e9:	b8 00 00 00 00       	mov    $0x0,%eax
f04054ee:	ec                   	in     (%dx),%al
f04054ef:	5a                   	pop    %edx
f04054f0:	89 ec                	mov    %ebp,%esp
f04054f2:	5d                   	pop    %ebp
f04054f3:	c3                   	ret

f04054f4 <cpu_in16>:
f04054f4:	55                   	push   %ebp
f04054f5:	89 e5                	mov    %esp,%ebp
f04054f7:	52                   	push   %edx
f04054f8:	8b 55 08             	mov    0x8(%ebp),%edx
f04054fb:	b8 00 00 00 00       	mov    $0x0,%eax
f0405500:	66 ed                	in     (%dx),%ax
f0405502:	5a                   	pop    %edx
f0405503:	89 ec                	mov    %ebp,%esp
f0405505:	5d                   	pop    %ebp
f0405506:	c3                   	ret

f0405507 <cpu_in32>:
f0405507:	55                   	push   %ebp
f0405508:	89 e5                	mov    %esp,%ebp
f040550a:	52                   	push   %edx
f040550b:	8b 55 08             	mov    0x8(%ebp),%edx
f040550e:	b8 00 00 00 00       	mov    $0x0,%eax
f0405513:	ed                   	in     (%dx),%eax
f0405514:	5a                   	pop    %edx
f0405515:	89 ec                	mov    %ebp,%esp
f0405517:	5d                   	pop    %ebp
f0405518:	c3                   	ret

f0405519 <cpu_out8>:
f0405519:	55                   	push   %ebp
f040551a:	89 e5                	mov    %esp,%ebp
f040551c:	52                   	push   %edx
f040551d:	8b 55 08             	mov    0x8(%ebp),%edx
f0405520:	8a 45 0c             	mov    0xc(%ebp),%al
f0405523:	ee                   	out    %al,(%dx)
f0405524:	5a                   	pop    %edx
f0405525:	89 ec                	mov    %ebp,%esp
f0405527:	5d                   	pop    %ebp
f0405528:	c3                   	ret

f0405529 <cpu_out16>:
f0405529:	55                   	push   %ebp
f040552a:	89 e5                	mov    %esp,%ebp
f040552c:	52                   	push   %edx
f040552d:	8b 55 08             	mov    0x8(%ebp),%edx
f0405530:	66 8b 45 0c          	mov    0xc(%ebp),%ax
f0405534:	66 ef                	out    %ax,(%dx)
f0405536:	5a                   	pop    %edx
f0405537:	89 ec                	mov    %ebp,%esp
f0405539:	5d                   	pop    %ebp
f040553a:	c3                   	ret

f040553b <cpu_out32>:
f040553b:	55                   	push   %ebp
f040553c:	89 e5                	mov    %esp,%ebp
f040553e:	52                   	push   %edx
f040553f:	8b 55 08             	mov    0x8(%ebp),%edx
f0405542:	8b 45 0c             	mov    0xc(%ebp),%eax
f0405545:	ef                   	out    %eax,(%dx)
f0405546:	5a                   	pop    %edx
f0405547:	89 ec                	mov    %ebp,%esp
f0405549:	5d                   	pop    %ebp
f040554a:	c3                   	ret
f040554b:	66 90                	xchg   %ax,%ax
f040554d:	66 90                	xchg   %ax,%ax
f040554f:	90                   	nop

f0405550 <karch_except_00>:
f0405550:	55                   	push   %ebp
f0405551:	53                   	push   %ebx
f0405552:	50                   	push   %eax
f0405553:	89 e5                	mov    %esp,%ebp
f0405555:	83 7d 10 08          	cmpl   $0x8,0x10(%ebp)
f0405559:	74 1d                	je     f0405578 <karch_except_00.kern>
f040555b:	bb 00 00 00 00       	mov    $0x0,%ebx

f0405560 <karch_except_00.all>:
f0405560:	89 e8                	mov    %ebp,%eax
f0405562:	83 e8 0c             	sub    $0xc,%eax
f0405565:	50                   	push   %eax
f0405566:	53                   	push   %ebx
f0405567:	b8 00 00 00 00       	mov    $0x0,%eax
f040556c:	50                   	push   %eax
f040556d:	e8 03 04 00 00       	call   f0405975 <karch_except>
f0405572:	89 ec                	mov    %ebp,%esp
f0405574:	58                   	pop    %eax
f0405575:	5b                   	pop    %ebx
f0405576:	5d                   	pop    %ebp
f0405577:	cf                   	iret

f0405578 <karch_except_00.kern>:
f0405578:	bb 01 00 00 00       	mov    $0x1,%ebx
f040557d:	eb e1                	jmp    f0405560 <karch_except_00.all>

f040557f <karch_except_01>:
f040557f:	55                   	push   %ebp
f0405580:	53                   	push   %ebx
f0405581:	50                   	push   %eax
f0405582:	89 e5                	mov    %esp,%ebp
f0405584:	83 7d 10 08          	cmpl   $0x8,0x10(%ebp)
f0405588:	74 1d                	je     f04055a7 <karch_except_01.kern>
f040558a:	bb 00 00 00 00       	mov    $0x0,%ebx

f040558f <karch_except_01.all>:
f040558f:	89 e8                	mov    %ebp,%eax
f0405591:	83 e8 0c             	sub    $0xc,%eax
f0405594:	50                   	push   %eax
f0405595:	53                   	push   %ebx
f0405596:	b8 01 00 00 00       	mov    $0x1,%eax
f040559b:	50                   	push   %eax
f040559c:	e8 d4 03 00 00       	call   f0405975 <karch_except>
f04055a1:	89 ec                	mov    %ebp,%esp
f04055a3:	58                   	pop    %eax
f04055a4:	5b                   	pop    %ebx
f04055a5:	5d                   	pop    %ebp
f04055a6:	cf                   	iret

f04055a7 <karch_except_01.kern>:
f04055a7:	bb 01 00 00 00       	mov    $0x1,%ebx
f04055ac:	eb e1                	jmp    f040558f <karch_except_01.all>

f04055ae <karch_except_02>:
f04055ae:	55                   	push   %ebp
f04055af:	53                   	push   %ebx
f04055b0:	50                   	push   %eax
f04055b1:	89 e5                	mov    %esp,%ebp
f04055b3:	83 7d 10 08          	cmpl   $0x8,0x10(%ebp)
f04055b7:	74 1d                	je     f04055d6 <karch_except_02.kern>
f04055b9:	bb 00 00 00 00       	mov    $0x0,%ebx

f04055be <karch_except_02.all>:
f04055be:	89 e8                	mov    %ebp,%eax
f04055c0:	83 e8 0c             	sub    $0xc,%eax
f04055c3:	50                   	push   %eax
f04055c4:	53                   	push   %ebx
f04055c5:	b8 02 00 00 00       	mov    $0x2,%eax
f04055ca:	50                   	push   %eax
f04055cb:	e8 a5 03 00 00       	call   f0405975 <karch_except>
f04055d0:	89 ec                	mov    %ebp,%esp
f04055d2:	58                   	pop    %eax
f04055d3:	5b                   	pop    %ebx
f04055d4:	5d                   	pop    %ebp
f04055d5:	cf                   	iret

f04055d6 <karch_except_02.kern>:
f04055d6:	bb 01 00 00 00       	mov    $0x1,%ebx
f04055db:	eb e1                	jmp    f04055be <karch_except_02.all>

f04055dd <karch_except_03>:
f04055dd:	55                   	push   %ebp
f04055de:	53                   	push   %ebx
f04055df:	50                   	push   %eax
f04055e0:	89 e5                	mov    %esp,%ebp
f04055e2:	83 7d 10 08          	cmpl   $0x8,0x10(%ebp)
f04055e6:	74 1d                	je     f0405605 <karch_except_03.kern>
f04055e8:	bb 00 00 00 00       	mov    $0x0,%ebx

f04055ed <karch_except_03.all>:
f04055ed:	89 e8                	mov    %ebp,%eax
f04055ef:	83 e8 0c             	sub    $0xc,%eax
f04055f2:	50                   	push   %eax
f04055f3:	53                   	push   %ebx
f04055f4:	b8 03 00 00 00       	mov    $0x3,%eax
f04055f9:	50                   	push   %eax
f04055fa:	e8 76 03 00 00       	call   f0405975 <karch_except>
f04055ff:	89 ec                	mov    %ebp,%esp
f0405601:	58                   	pop    %eax
f0405602:	5b                   	pop    %ebx
f0405603:	5d                   	pop    %ebp
f0405604:	cf                   	iret

f0405605 <karch_except_03.kern>:
f0405605:	bb 01 00 00 00       	mov    $0x1,%ebx
f040560a:	eb e1                	jmp    f04055ed <karch_except_03.all>

f040560c <karch_except_04>:
f040560c:	55                   	push   %ebp
f040560d:	53                   	push   %ebx
f040560e:	50                   	push   %eax
f040560f:	89 e5                	mov    %esp,%ebp
f0405611:	83 7d 10 08          	cmpl   $0x8,0x10(%ebp)
f0405615:	74 1d                	je     f0405634 <karch_except_04.kern>
f0405617:	bb 00 00 00 00       	mov    $0x0,%ebx

f040561c <karch_except_04.all>:
f040561c:	89 e8                	mov    %ebp,%eax
f040561e:	83 e8 0c             	sub    $0xc,%eax
f0405621:	50                   	push   %eax
f0405622:	53                   	push   %ebx
f0405623:	b8 04 00 00 00       	mov    $0x4,%eax
f0405628:	50                   	push   %eax
f0405629:	e8 47 03 00 00       	call   f0405975 <karch_except>
f040562e:	89 ec                	mov    %ebp,%esp
f0405630:	58                   	pop    %eax
f0405631:	5b                   	pop    %ebx
f0405632:	5d                   	pop    %ebp
f0405633:	cf                   	iret

f0405634 <karch_except_04.kern>:
f0405634:	bb 01 00 00 00       	mov    $0x1,%ebx
f0405639:	eb e1                	jmp    f040561c <karch_except_04.all>

f040563b <karch_except_05>:
f040563b:	55                   	push   %ebp
f040563c:	53                   	push   %ebx
f040563d:	50                   	push   %eax
f040563e:	89 e5                	mov    %esp,%ebp
f0405640:	83 7d 10 08          	cmpl   $0x8,0x10(%ebp)
f0405644:	74 1d                	je     f0405663 <karch_except_05.kern>
f0405646:	bb 00 00 00 00       	mov    $0x0,%ebx

f040564b <karch_except_05.all>:
f040564b:	89 e8                	mov    %ebp,%eax
f040564d:	83 e8 0c             	sub    $0xc,%eax
f0405650:	50                   	push   %eax
f0405651:	53                   	push   %ebx
f0405652:	b8 05 00 00 00       	mov    $0x5,%eax
f0405657:	50                   	push   %eax
f0405658:	e8 18 03 00 00       	call   f0405975 <karch_except>
f040565d:	89 ec                	mov    %ebp,%esp
f040565f:	58                   	pop    %eax
f0405660:	5b                   	pop    %ebx
f0405661:	5d                   	pop    %ebp
f0405662:	cf                   	iret

f0405663 <karch_except_05.kern>:
f0405663:	bb 01 00 00 00       	mov    $0x1,%ebx
f0405668:	eb e1                	jmp    f040564b <karch_except_05.all>

f040566a <karch_except_06>:
f040566a:	55                   	push   %ebp
f040566b:	53                   	push   %ebx
f040566c:	50                   	push   %eax
f040566d:	89 e5                	mov    %esp,%ebp
f040566f:	83 7d 10 08          	cmpl   $0x8,0x10(%ebp)
f0405673:	74 1d                	je     f0405692 <karch_except_06.kern>
f0405675:	bb 00 00 00 00       	mov    $0x0,%ebx

f040567a <karch_except_06.all>:
f040567a:	89 e8                	mov    %ebp,%eax
f040567c:	83 e8 0c             	sub    $0xc,%eax
f040567f:	50                   	push   %eax
f0405680:	53                   	push   %ebx
f0405681:	b8 06 00 00 00       	mov    $0x6,%eax
f0405686:	50                   	push   %eax
f0405687:	e8 e9 02 00 00       	call   f0405975 <karch_except>
f040568c:	89 ec                	mov    %ebp,%esp
f040568e:	58                   	pop    %eax
f040568f:	5b                   	pop    %ebx
f0405690:	5d                   	pop    %ebp
f0405691:	cf                   	iret

f0405692 <karch_except_06.kern>:
f0405692:	bb 01 00 00 00       	mov    $0x1,%ebx
f0405697:	eb e1                	jmp    f040567a <karch_except_06.all>

f0405699 <karch_except_07>:
f0405699:	55                   	push   %ebp
f040569a:	53                   	push   %ebx
f040569b:	50                   	push   %eax
f040569c:	89 e5                	mov    %esp,%ebp
f040569e:	83 7d 10 08          	cmpl   $0x8,0x10(%ebp)
f04056a2:	74 1d                	je     f04056c1 <karch_except_07.kern>
f04056a4:	bb 00 00 00 00       	mov    $0x0,%ebx

f04056a9 <karch_except_07.all>:
f04056a9:	89 e8                	mov    %ebp,%eax
f04056ab:	83 e8 0c             	sub    $0xc,%eax
f04056ae:	50                   	push   %eax
f04056af:	53                   	push   %ebx
f04056b0:	b8 07 00 00 00       	mov    $0x7,%eax
f04056b5:	50                   	push   %eax
f04056b6:	e8 ba 02 00 00       	call   f0405975 <karch_except>
f04056bb:	89 ec                	mov    %ebp,%esp
f04056bd:	58                   	pop    %eax
f04056be:	5b                   	pop    %ebx
f04056bf:	5d                   	pop    %ebp
f04056c0:	cf                   	iret

f04056c1 <karch_except_07.kern>:
f04056c1:	bb 01 00 00 00       	mov    $0x1,%ebx
f04056c6:	eb e1                	jmp    f04056a9 <karch_except_07.all>

f04056c8 <karch_except_08>:
f04056c8:	55                   	push   %ebp
f04056c9:	53                   	push   %ebx
f04056ca:	50                   	push   %eax
f04056cb:	89 e5                	mov    %esp,%ebp
f04056cd:	83 7d 10 08          	cmpl   $0x8,0x10(%ebp)
f04056d1:	74 1d                	je     f04056f0 <karch_except_08.kern>
f04056d3:	bb 00 00 00 00       	mov    $0x0,%ebx

f04056d8 <karch_except_08.all>:
f04056d8:	89 e8                	mov    %ebp,%eax
f04056da:	83 e8 0c             	sub    $0xc,%eax
f04056dd:	50                   	push   %eax
f04056de:	53                   	push   %ebx
f04056df:	b8 08 00 00 00       	mov    $0x8,%eax
f04056e4:	50                   	push   %eax
f04056e5:	e8 8b 02 00 00       	call   f0405975 <karch_except>
f04056ea:	89 ec                	mov    %ebp,%esp
f04056ec:	58                   	pop    %eax
f04056ed:	5b                   	pop    %ebx
f04056ee:	5d                   	pop    %ebp
f04056ef:	cf                   	iret

f04056f0 <karch_except_08.kern>:
f04056f0:	bb 01 00 00 00       	mov    $0x1,%ebx
f04056f5:	eb e1                	jmp    f04056d8 <karch_except_08.all>

f04056f7 <karch_except_09>:
f04056f7:	55                   	push   %ebp
f04056f8:	53                   	push   %ebx
f04056f9:	50                   	push   %eax
f04056fa:	89 e5                	mov    %esp,%ebp
f04056fc:	83 7d 10 08          	cmpl   $0x8,0x10(%ebp)
f0405700:	74 1d                	je     f040571f <karch_except_09.kern>
f0405702:	bb 00 00 00 00       	mov    $0x0,%ebx

f0405707 <karch_except_09.all>:
f0405707:	89 e8                	mov    %ebp,%eax
f0405709:	83 e8 0c             	sub    $0xc,%eax
f040570c:	50                   	push   %eax
f040570d:	53                   	push   %ebx
f040570e:	b8 09 00 00 00       	mov    $0x9,%eax
f0405713:	50                   	push   %eax
f0405714:	e8 5c 02 00 00       	call   f0405975 <karch_except>
f0405719:	89 ec                	mov    %ebp,%esp
f040571b:	58                   	pop    %eax
f040571c:	5b                   	pop    %ebx
f040571d:	5d                   	pop    %ebp
f040571e:	cf                   	iret

f040571f <karch_except_09.kern>:
f040571f:	bb 01 00 00 00       	mov    $0x1,%ebx
f0405724:	eb e1                	jmp    f0405707 <karch_except_09.all>

f0405726 <karch_except_10>:
f0405726:	55                   	push   %ebp
f0405727:	53                   	push   %ebx
f0405728:	50                   	push   %eax
f0405729:	89 e5                	mov    %esp,%ebp
f040572b:	83 7d 10 08          	cmpl   $0x8,0x10(%ebp)
f040572f:	74 1d                	je     f040574e <karch_except_10.kern>
f0405731:	bb 00 00 00 00       	mov    $0x0,%ebx

f0405736 <karch_except_10.all>:
f0405736:	89 e8                	mov    %ebp,%eax
f0405738:	83 e8 0c             	sub    $0xc,%eax
f040573b:	50                   	push   %eax
f040573c:	53                   	push   %ebx
f040573d:	b8 0a 00 00 00       	mov    $0xa,%eax
f0405742:	50                   	push   %eax
f0405743:	e8 2d 02 00 00       	call   f0405975 <karch_except>
f0405748:	89 ec                	mov    %ebp,%esp
f040574a:	58                   	pop    %eax
f040574b:	5b                   	pop    %ebx
f040574c:	5d                   	pop    %ebp
f040574d:	cf                   	iret

f040574e <karch_except_10.kern>:
f040574e:	bb 01 00 00 00       	mov    $0x1,%ebx
f0405753:	eb e1                	jmp    f0405736 <karch_except_10.all>

f0405755 <karch_except_11>:
f0405755:	55                   	push   %ebp
f0405756:	53                   	push   %ebx
f0405757:	50                   	push   %eax
f0405758:	89 e5                	mov    %esp,%ebp
f040575a:	83 7d 10 08          	cmpl   $0x8,0x10(%ebp)
f040575e:	74 1d                	je     f040577d <karch_except_11.kern>
f0405760:	bb 00 00 00 00       	mov    $0x0,%ebx

f0405765 <karch_except_11.all>:
f0405765:	89 e8                	mov    %ebp,%eax
f0405767:	83 e8 0c             	sub    $0xc,%eax
f040576a:	50                   	push   %eax
f040576b:	53                   	push   %ebx
f040576c:	b8 0b 00 00 00       	mov    $0xb,%eax
f0405771:	50                   	push   %eax
f0405772:	e8 fe 01 00 00       	call   f0405975 <karch_except>
f0405777:	89 ec                	mov    %ebp,%esp
f0405779:	58                   	pop    %eax
f040577a:	5b                   	pop    %ebx
f040577b:	5d                   	pop    %ebp
f040577c:	cf                   	iret

f040577d <karch_except_11.kern>:
f040577d:	bb 01 00 00 00       	mov    $0x1,%ebx
f0405782:	eb e1                	jmp    f0405765 <karch_except_11.all>

f0405784 <karch_except_12>:
f0405784:	55                   	push   %ebp
f0405785:	53                   	push   %ebx
f0405786:	50                   	push   %eax
f0405787:	89 e5                	mov    %esp,%ebp
f0405789:	83 7d 10 08          	cmpl   $0x8,0x10(%ebp)
f040578d:	74 1d                	je     f04057ac <karch_except_12.kern>
f040578f:	bb 00 00 00 00       	mov    $0x0,%ebx

f0405794 <karch_except_12.all>:
f0405794:	89 e8                	mov    %ebp,%eax
f0405796:	83 e8 0c             	sub    $0xc,%eax
f0405799:	50                   	push   %eax
f040579a:	53                   	push   %ebx
f040579b:	b8 0c 00 00 00       	mov    $0xc,%eax
f04057a0:	50                   	push   %eax
f04057a1:	e8 cf 01 00 00       	call   f0405975 <karch_except>
f04057a6:	89 ec                	mov    %ebp,%esp
f04057a8:	58                   	pop    %eax
f04057a9:	5b                   	pop    %ebx
f04057aa:	5d                   	pop    %ebp
f04057ab:	cf                   	iret

f04057ac <karch_except_12.kern>:
f04057ac:	bb 01 00 00 00       	mov    $0x1,%ebx
f04057b1:	eb e1                	jmp    f0405794 <karch_except_12.all>

f04057b3 <karch_except_13>:
f04057b3:	55                   	push   %ebp
f04057b4:	53                   	push   %ebx
f04057b5:	50                   	push   %eax
f04057b6:	89 e5                	mov    %esp,%ebp
f04057b8:	83 7d 10 08          	cmpl   $0x8,0x10(%ebp)
f04057bc:	74 1d                	je     f04057db <karch_except_13.kern>
f04057be:	bb 00 00 00 00       	mov    $0x0,%ebx

f04057c3 <karch_except_13.all>:
f04057c3:	89 e8                	mov    %ebp,%eax
f04057c5:	83 e8 0c             	sub    $0xc,%eax
f04057c8:	50                   	push   %eax
f04057c9:	53                   	push   %ebx
f04057ca:	b8 0d 00 00 00       	mov    $0xd,%eax
f04057cf:	50                   	push   %eax
f04057d0:	e8 a0 01 00 00       	call   f0405975 <karch_except>
f04057d5:	89 ec                	mov    %ebp,%esp
f04057d7:	58                   	pop    %eax
f04057d8:	5b                   	pop    %ebx
f04057d9:	5d                   	pop    %ebp
f04057da:	cf                   	iret

f04057db <karch_except_13.kern>:
f04057db:	bb 01 00 00 00       	mov    $0x1,%ebx
f04057e0:	eb e1                	jmp    f04057c3 <karch_except_13.all>

f04057e2 <karch_except_14>:
f04057e2:	55                   	push   %ebp
f04057e3:	53                   	push   %ebx
f04057e4:	50                   	push   %eax
f04057e5:	89 e5                	mov    %esp,%ebp
f04057e7:	83 7d 10 08          	cmpl   $0x8,0x10(%ebp)
f04057eb:	74 1d                	je     f040580a <karch_except_14.kern>
f04057ed:	bb 00 00 00 00       	mov    $0x0,%ebx

f04057f2 <karch_except_14.all>:
f04057f2:	89 e8                	mov    %ebp,%eax
f04057f4:	83 e8 0c             	sub    $0xc,%eax
f04057f7:	50                   	push   %eax
f04057f8:	53                   	push   %ebx
f04057f9:	b8 0e 00 00 00       	mov    $0xe,%eax
f04057fe:	50                   	push   %eax
f04057ff:	e8 71 01 00 00       	call   f0405975 <karch_except>
f0405804:	89 ec                	mov    %ebp,%esp
f0405806:	58                   	pop    %eax
f0405807:	5b                   	pop    %ebx
f0405808:	5d                   	pop    %ebp
f0405809:	cf                   	iret

f040580a <karch_except_14.kern>:
f040580a:	bb 01 00 00 00       	mov    $0x1,%ebx
f040580f:	eb e1                	jmp    f04057f2 <karch_except_14.all>

f0405811 <karch_except_16>:
f0405811:	55                   	push   %ebp
f0405812:	53                   	push   %ebx
f0405813:	50                   	push   %eax
f0405814:	89 e5                	mov    %esp,%ebp
f0405816:	83 7d 10 08          	cmpl   $0x8,0x10(%ebp)
f040581a:	74 1d                	je     f0405839 <karch_except_16.kern>
f040581c:	bb 00 00 00 00       	mov    $0x0,%ebx

f0405821 <karch_except_16.all>:
f0405821:	89 e8                	mov    %ebp,%eax
f0405823:	83 e8 0c             	sub    $0xc,%eax
f0405826:	50                   	push   %eax
f0405827:	53                   	push   %ebx
f0405828:	b8 10 00 00 00       	mov    $0x10,%eax
f040582d:	50                   	push   %eax
f040582e:	e8 42 01 00 00       	call   f0405975 <karch_except>
f0405833:	89 ec                	mov    %ebp,%esp
f0405835:	58                   	pop    %eax
f0405836:	5b                   	pop    %ebx
f0405837:	5d                   	pop    %ebp
f0405838:	cf                   	iret

f0405839 <karch_except_16.kern>:
f0405839:	bb 01 00 00 00       	mov    $0x1,%ebx
f040583e:	eb e1                	jmp    f0405821 <karch_except_16.all>

f0405840 <karch_except_17>:
f0405840:	55                   	push   %ebp
f0405841:	53                   	push   %ebx
f0405842:	50                   	push   %eax
f0405843:	89 e5                	mov    %esp,%ebp
f0405845:	83 7d 10 08          	cmpl   $0x8,0x10(%ebp)
f0405849:	74 1d                	je     f0405868 <karch_except_17.kern>
f040584b:	bb 00 00 00 00       	mov    $0x0,%ebx

f0405850 <karch_except_17.all>:
f0405850:	89 e8                	mov    %ebp,%eax
f0405852:	83 e8 0c             	sub    $0xc,%eax
f0405855:	50                   	push   %eax
f0405856:	53                   	push   %ebx
f0405857:	b8 11 00 00 00       	mov    $0x11,%eax
f040585c:	50                   	push   %eax
f040585d:	e8 13 01 00 00       	call   f0405975 <karch_except>
f0405862:	89 ec                	mov    %ebp,%esp
f0405864:	58                   	pop    %eax
f0405865:	5b                   	pop    %ebx
f0405866:	5d                   	pop    %ebp
f0405867:	cf                   	iret

f0405868 <karch_except_17.kern>:
f0405868:	bb 01 00 00 00       	mov    $0x1,%ebx
f040586d:	eb e1                	jmp    f0405850 <karch_except_17.all>

f040586f <karch_except_18>:
f040586f:	55                   	push   %ebp
f0405870:	53                   	push   %ebx
f0405871:	50                   	push   %eax
f0405872:	89 e5                	mov    %esp,%ebp
f0405874:	83 7d 10 08          	cmpl   $0x8,0x10(%ebp)
f0405878:	74 1d                	je     f0405897 <karch_except_18.kern>
f040587a:	bb 00 00 00 00       	mov    $0x0,%ebx

f040587f <karch_except_18.all>:
f040587f:	89 e8                	mov    %ebp,%eax
f0405881:	83 e8 0c             	sub    $0xc,%eax
f0405884:	50                   	push   %eax
f0405885:	53                   	push   %ebx
f0405886:	b8 12 00 00 00       	mov    $0x12,%eax
f040588b:	50                   	push   %eax
f040588c:	e8 e4 00 00 00       	call   f0405975 <karch_except>
f0405891:	89 ec                	mov    %ebp,%esp
f0405893:	58                   	pop    %eax
f0405894:	5b                   	pop    %ebx
f0405895:	5d                   	pop    %ebp
f0405896:	cf                   	iret

f0405897 <karch_except_18.kern>:
f0405897:	bb 01 00 00 00       	mov    $0x1,%ebx
f040589c:	eb e1                	jmp    f040587f <karch_except_18.all>

f040589e <karch_init_except>:
f040589e:	55                   	push   %ebp
f040589f:	89 e5                	mov    %esp,%ebp
f04058a1:	83 ec 08             	sub    $0x8,%esp
f04058a4:	83 ec 04             	sub    $0x4,%esp
f04058a7:	6a 4c                	push   $0x4c
f04058a9:	6a 00                	push   $0x0
f04058ab:	68 40 13 41 f0       	push   $0xf0411340
f04058b0:	e8 b1 14 00 00       	call   f0406d66 <kmemset>
f04058b5:	83 c4 10             	add    $0x10,%esp
f04058b8:	83 ec 04             	sub    $0x4,%esp
f04058bb:	6a 4c                	push   $0x4c
f04058bd:	6a 00                	push   $0x0
f04058bf:	68 a0 13 41 f0       	push   $0xf04113a0
f04058c4:	e8 9d 14 00 00       	call   f0406d66 <kmemset>
f04058c9:	83 c4 10             	add    $0x10,%esp
f04058cc:	83 ec 08             	sub    $0x8,%esp
f04058cf:	6a 00                	push   $0x0
f04058d1:	68 60 70 40 f0       	push   $0xf0407060
f04058d6:	e8 18 0a 00 00       	call   f04062f3 <karch_load_idt_gatevec>
f04058db:	83 c4 10             	add    $0x10,%esp
f04058de:	90                   	nop
f04058df:	c9                   	leave
f04058e0:	c3                   	ret

f04058e1 <karch_get_except>:
f04058e1:	55                   	push   %ebp
f04058e2:	89 e5                	mov    %esp,%ebp
f04058e4:	83 ec 04             	sub    $0x4,%esp
f04058e7:	8b 45 08             	mov    0x8(%ebp),%eax
f04058ea:	88 45 fc             	mov    %al,-0x4(%ebp)
f04058ed:	80 7d fc 13          	cmpb   $0x13,-0x4(%ebp)
f04058f1:	77 06                	ja     f04058f9 <karch_get_except+0x18>
f04058f3:	80 7d fc 0f          	cmpb   $0xf,-0x4(%ebp)
f04058f7:	75 07                	jne    f0405900 <karch_get_except+0x1f>
f04058f9:	b8 00 00 00 00       	mov    $0x0,%eax
f04058fe:	eb 31                	jmp    f0405931 <karch_get_except+0x50>
f0405900:	83 7d 0c 00          	cmpl   $0x0,0xc(%ebp)
f0405904:	74 10                	je     f0405916 <karch_get_except+0x35>
f0405906:	0f b6 45 fc          	movzbl -0x4(%ebp),%eax
f040590a:	8b 14 85 40 13 41 f0 	mov    -0xfbeecc0(,%eax,4),%edx
f0405911:	8b 45 0c             	mov    0xc(%ebp),%eax
f0405914:	89 10                	mov    %edx,(%eax)
f0405916:	83 7d 10 00          	cmpl   $0x0,0x10(%ebp)
f040591a:	74 10                	je     f040592c <karch_get_except+0x4b>
f040591c:	0f b6 45 fc          	movzbl -0x4(%ebp),%eax
f0405920:	8b 14 85 a0 13 41 f0 	mov    -0xfbeec60(,%eax,4),%edx
f0405927:	8b 45 10             	mov    0x10(%ebp),%eax
f040592a:	89 10                	mov    %edx,(%eax)
f040592c:	b8 01 00 00 00       	mov    $0x1,%eax
f0405931:	c9                   	leave
f0405932:	c3                   	ret

f0405933 <karch_set_except>:
f0405933:	55                   	push   %ebp
f0405934:	89 e5                	mov    %esp,%ebp
f0405936:	83 ec 04             	sub    $0x4,%esp
f0405939:	8b 45 08             	mov    0x8(%ebp),%eax
f040593c:	88 45 fc             	mov    %al,-0x4(%ebp)
f040593f:	80 7d fc 13          	cmpb   $0x13,-0x4(%ebp)
f0405943:	77 06                	ja     f040594b <karch_set_except+0x18>
f0405945:	80 7d fc 0f          	cmpb   $0xf,-0x4(%ebp)
f0405949:	75 07                	jne    f0405952 <karch_set_except+0x1f>
f040594b:	b8 00 00 00 00       	mov    $0x0,%eax
f0405950:	eb 21                	jmp    f0405973 <karch_set_except+0x40>
f0405952:	0f b6 45 fc          	movzbl -0x4(%ebp),%eax
f0405956:	8b 55 0c             	mov    0xc(%ebp),%edx
f0405959:	89 14 85 40 13 41 f0 	mov    %edx,-0xfbeecc0(,%eax,4)
f0405960:	0f b6 45 fc          	movzbl -0x4(%ebp),%eax
f0405964:	8b 55 10             	mov    0x10(%ebp),%edx
f0405967:	89 14 85 a0 13 41 f0 	mov    %edx,-0xfbeec60(,%eax,4)
f040596e:	b8 01 00 00 00       	mov    $0x1,%eax
f0405973:	c9                   	leave
f0405974:	c3                   	ret

f0405975 <karch_except>:
f0405975:	55                   	push   %ebp
f0405976:	89 e5                	mov    %esp,%ebp
f0405978:	83 ec 18             	sub    $0x18,%esp
f040597b:	8b 45 08             	mov    0x8(%ebp),%eax
f040597e:	8b 04 85 40 13 41 f0 	mov    -0xfbeecc0(,%eax,4),%eax
f0405985:	85 c0                	test   %eax,%eax
f0405987:	74 35                	je     f04059be <karch_except+0x49>
f0405989:	8b 45 08             	mov    0x8(%ebp),%eax
f040598c:	89 45 e8             	mov    %eax,-0x18(%ebp)
f040598f:	8b 45 0c             	mov    0xc(%ebp),%eax
f0405992:	89 45 ec             	mov    %eax,-0x14(%ebp)
f0405995:	8b 45 10             	mov    0x10(%ebp),%eax
f0405998:	89 45 f0             	mov    %eax,-0x10(%ebp)
f040599b:	8b 45 08             	mov    0x8(%ebp),%eax
f040599e:	8b 04 85 a0 13 41 f0 	mov    -0xfbeec60(,%eax,4),%eax
f04059a5:	89 45 f4             	mov    %eax,-0xc(%ebp)
f04059a8:	8b 45 08             	mov    0x8(%ebp),%eax
f04059ab:	8b 04 85 40 13 41 f0 	mov    -0xfbeecc0(,%eax,4),%eax
f04059b2:	83 ec 0c             	sub    $0xc,%esp
f04059b5:	8d 55 e8             	lea    -0x18(%ebp),%edx
f04059b8:	52                   	push   %edx
f04059b9:	ff d0                	call   *%eax
f04059bb:	83 c4 10             	add    $0x10,%esp
f04059be:	90                   	nop
f04059bf:	c9                   	leave
f04059c0:	c3                   	ret

f04059c1 <karch_init_gdt>:
f04059c1:	55                   	push   %ebp
f04059c2:	89 e5                	mov    %esp,%ebp
f04059c4:	83 ec 08             	sub    $0x8,%esp
f04059c7:	83 ec 04             	sub    $0x4,%esp
f04059ca:	68 b0 00 00 00       	push   $0xb0
f04059cf:	6a 00                	push   $0x0
f04059d1:	68 f8 13 41 f0       	push   $0xf04113f8
f04059d6:	e8 8b 13 00 00       	call   f0406d66 <kmemset>
f04059db:	83 c4 10             	add    $0x10,%esp
f04059de:	b8 f8 13 41 f0       	mov    $0xf04113f8,%eax
f04059e3:	a3 f2 13 41 f0       	mov    %eax,0xf04113f2
f04059e8:	66 c7 05 f0 13 41 f0 	movw   $0xaf,0xf04113f0
f04059ef:	af 00 
f04059f1:	6a 00                	push   $0x0
f04059f3:	6a 00                	push   $0x0
f04059f5:	6a 00                	push   $0x0
f04059f7:	68 20 14 41 f0       	push   $0xf0411420
f04059fc:	e8 20 01 00 00       	call   f0405b21 <karch_set_gdt_data>
f0405a01:	83 c4 10             	add    $0x10,%esp
f0405a04:	c6 05 25 14 41 f0 82 	movb   $0x82,0xf0411425
f0405a0b:	6a 00                	push   $0x0
f0405a0d:	6a ff                	push   $0xffffffff
f0405a0f:	6a 00                	push   $0x0
f0405a11:	68 00 14 41 f0       	push   $0xf0411400
f0405a16:	e8 2e 01 00 00       	call   f0405b49 <karch_set_gdt_code>
f0405a1b:	83 c4 10             	add    $0x10,%esp
f0405a1e:	6a 00                	push   $0x0
f0405a20:	6a ff                	push   $0xffffffff
f0405a22:	6a 00                	push   $0x0
f0405a24:	68 08 14 41 f0       	push   $0xf0411408
f0405a29:	e8 f3 00 00 00       	call   f0405b21 <karch_set_gdt_data>
f0405a2e:	83 c4 10             	add    $0x10,%esp
f0405a31:	6a 03                	push   $0x3
f0405a33:	6a ff                	push   $0xffffffff
f0405a35:	6a 00                	push   $0x0
f0405a37:	68 00 14 41 f0       	push   $0xf0411400
f0405a3c:	e8 08 01 00 00       	call   f0405b49 <karch_set_gdt_code>
f0405a41:	83 c4 10             	add    $0x10,%esp
f0405a44:	6a 03                	push   $0x3
f0405a46:	6a ff                	push   $0xffffffff
f0405a48:	6a 00                	push   $0x0
f0405a4a:	68 08 14 41 f0       	push   $0xf0411408
f0405a4f:	e8 cd 00 00 00       	call   f0405b21 <karch_set_gdt_data>
f0405a54:	83 c4 10             	add    $0x10,%esp
f0405a57:	90                   	nop
f0405a58:	c9                   	leave
f0405a59:	c3                   	ret

f0405a5a <karch_flush_gdt>:
f0405a5a:	55                   	push   %ebp
f0405a5b:	89 e5                	mov    %esp,%ebp
f0405a5d:	83 ec 08             	sub    $0x8,%esp
f0405a60:	83 ec 0c             	sub    $0xc,%esp
f0405a63:	68 f0 13 41 f0       	push   $0xf04113f0
f0405a68:	e8 d5 f9 ff ff       	call   f0405442 <load_gdt>
f0405a6d:	83 c4 10             	add    $0x10,%esp
f0405a70:	90                   	nop
f0405a71:	c9                   	leave
f0405a72:	c3                   	ret

f0405a73 <karch_get_gdt>:
f0405a73:	55                   	push   %ebp
f0405a74:	89 e5                	mov    %esp,%ebp
f0405a76:	83 ec 04             	sub    $0x4,%esp
f0405a79:	8b 45 08             	mov    0x8(%ebp),%eax
f0405a7c:	88 45 fc             	mov    %al,-0x4(%ebp)
f0405a7f:	80 7d fc 15          	cmpb   $0x15,-0x4(%ebp)
f0405a83:	76 07                	jbe    f0405a8c <karch_get_gdt+0x19>
f0405a85:	b8 00 00 00 00       	mov    $0x0,%eax
f0405a8a:	eb 0c                	jmp    f0405a98 <karch_get_gdt+0x25>
f0405a8c:	0f b6 45 fc          	movzbl -0x4(%ebp),%eax
f0405a90:	c1 e0 03             	shl    $0x3,%eax
f0405a93:	05 f8 13 41 f0       	add    $0xf04113f8,%eax
f0405a98:	c9                   	leave
f0405a99:	c3                   	ret

f0405a9a <karch_set_gdt>:
f0405a9a:	55                   	push   %ebp
f0405a9b:	89 e5                	mov    %esp,%ebp
f0405a9d:	8b 45 0c             	mov    0xc(%ebp),%eax
f0405aa0:	89 c2                	mov    %eax,%edx
f0405aa2:	8b 45 08             	mov    0x8(%ebp),%eax
f0405aa5:	66 89 50 02          	mov    %dx,0x2(%eax)
f0405aa9:	8b 45 0c             	mov    0xc(%ebp),%eax
f0405aac:	c1 e8 10             	shr    $0x10,%eax
f0405aaf:	89 c2                	mov    %eax,%edx
f0405ab1:	8b 45 08             	mov    0x8(%ebp),%eax
f0405ab4:	88 50 04             	mov    %dl,0x4(%eax)
f0405ab7:	8b 45 0c             	mov    0xc(%ebp),%eax
f0405aba:	c1 e8 18             	shr    $0x18,%eax
f0405abd:	89 c2                	mov    %eax,%edx
f0405abf:	8b 45 08             	mov    0x8(%ebp),%eax
f0405ac2:	88 50 07             	mov    %dl,0x7(%eax)
f0405ac5:	83 6d 10 01          	subl   $0x1,0x10(%ebp)
f0405ac9:	81 7d 10 ff ff 0f 00 	cmpl   $0xfffff,0x10(%ebp)
f0405ad0:	76 21                	jbe    f0405af3 <karch_set_gdt+0x59>
f0405ad2:	8b 45 10             	mov    0x10(%ebp),%eax
f0405ad5:	c1 e8 10             	shr    $0x10,%eax
f0405ad8:	89 c2                	mov    %eax,%edx
f0405ada:	8b 45 08             	mov    0x8(%ebp),%eax
f0405add:	66 89 10             	mov    %dx,(%eax)
f0405ae0:	8b 45 10             	mov    0x10(%ebp),%eax
f0405ae3:	c1 e8 0c             	shr    $0xc,%eax
f0405ae6:	83 c8 80             	or     $0xffffff80,%eax
f0405ae9:	89 c2                	mov    %eax,%edx
f0405aeb:	8b 45 08             	mov    0x8(%ebp),%eax
f0405aee:	88 50 06             	mov    %dl,0x6(%eax)
f0405af1:	eb 19                	jmp    f0405b0c <karch_set_gdt+0x72>
f0405af3:	8b 45 10             	mov    0x10(%ebp),%eax
f0405af6:	89 c2                	mov    %eax,%edx
f0405af8:	8b 45 08             	mov    0x8(%ebp),%eax
f0405afb:	66 89 10             	mov    %dx,(%eax)
f0405afe:	8b 45 10             	mov    0x10(%ebp),%eax
f0405b01:	c1 e8 10             	shr    $0x10,%eax
f0405b04:	89 c2                	mov    %eax,%edx
f0405b06:	8b 45 08             	mov    0x8(%ebp),%eax
f0405b09:	88 50 06             	mov    %dl,0x6(%eax)
f0405b0c:	8b 45 08             	mov    0x8(%ebp),%eax
f0405b0f:	0f b6 40 06          	movzbl 0x6(%eax),%eax
f0405b13:	83 c8 40             	or     $0x40,%eax
f0405b16:	89 c2                	mov    %eax,%edx
f0405b18:	8b 45 08             	mov    0x8(%ebp),%eax
f0405b1b:	88 50 06             	mov    %dl,0x6(%eax)
f0405b1e:	90                   	nop
f0405b1f:	5d                   	pop    %ebp
f0405b20:	c3                   	ret

f0405b21 <karch_set_gdt_data>:
f0405b21:	55                   	push   %ebp
f0405b22:	89 e5                	mov    %esp,%ebp
f0405b24:	ff 75 10             	push   0x10(%ebp)
f0405b27:	ff 75 0c             	push   0xc(%ebp)
f0405b2a:	ff 75 08             	push   0x8(%ebp)
f0405b2d:	e8 68 ff ff ff       	call   f0405a9a <karch_set_gdt>
f0405b32:	83 c4 0c             	add    $0xc,%esp
f0405b35:	8b 45 14             	mov    0x14(%ebp),%eax
f0405b38:	c1 e8 05             	shr    $0x5,%eax
f0405b3b:	83 c8 93             	or     $0xffffff93,%eax
f0405b3e:	89 c2                	mov    %eax,%edx
f0405b40:	8b 45 08             	mov    0x8(%ebp),%eax
f0405b43:	88 50 05             	mov    %dl,0x5(%eax)
f0405b46:	90                   	nop
f0405b47:	c9                   	leave
f0405b48:	c3                   	ret

f0405b49 <karch_set_gdt_code>:
f0405b49:	55                   	push   %ebp
f0405b4a:	89 e5                	mov    %esp,%ebp
f0405b4c:	ff 75 10             	push   0x10(%ebp)
f0405b4f:	ff 75 0c             	push   0xc(%ebp)
f0405b52:	ff 75 08             	push   0x8(%ebp)
f0405b55:	e8 40 ff ff ff       	call   f0405a9a <karch_set_gdt>
f0405b5a:	83 c4 0c             	add    $0xc,%esp
f0405b5d:	8b 45 14             	mov    0x14(%ebp),%eax
f0405b60:	c1 e8 05             	shr    $0x5,%eax
f0405b63:	83 c8 9a             	or     $0xffffff9a,%eax
f0405b66:	89 c2                	mov    %eax,%edx
f0405b68:	8b 45 08             	mov    0x8(%ebp),%eax
f0405b6b:	88 50 05             	mov    %dl,0x5(%eax)
f0405b6e:	90                   	nop
f0405b6f:	c9                   	leave
f0405b70:	c3                   	ret

f0405b71 <karch_init_i8253>:
f0405b71:	55                   	push   %ebp
f0405b72:	89 e5                	mov    %esp,%ebp
f0405b74:	83 ec 08             	sub    $0x8,%esp
f0405b77:	83 ec 08             	sub    $0x8,%esp
f0405b7a:	6a 36                	push   $0x36
f0405b7c:	6a 43                	push   $0x43
f0405b7e:	e8 96 f9 ff ff       	call   f0405519 <cpu_out8>
f0405b83:	83 c4 10             	add    $0x10,%esp
f0405b86:	83 7d 08 00          	cmpl   $0x0,0x8(%ebp)
f0405b8a:	75 20                	jne    f0405bac <karch_init_i8253+0x3b>
f0405b8c:	83 ec 08             	sub    $0x8,%esp
f0405b8f:	6a 00                	push   $0x0
f0405b91:	6a 40                	push   $0x40
f0405b93:	e8 81 f9 ff ff       	call   f0405519 <cpu_out8>
f0405b98:	83 c4 10             	add    $0x10,%esp
f0405b9b:	83 ec 08             	sub    $0x8,%esp
f0405b9e:	6a 00                	push   $0x0
f0405ba0:	6a 40                	push   $0x40
f0405ba2:	e8 72 f9 ff ff       	call   f0405519 <cpu_out8>
f0405ba7:	83 c4 10             	add    $0x10,%esp
f0405baa:	eb 3b                	jmp    f0405be7 <karch_init_i8253+0x76>
f0405bac:	b8 de 34 12 00       	mov    $0x1234de,%eax
f0405bb1:	ba 00 00 00 00       	mov    $0x0,%edx
f0405bb6:	f7 75 08             	divl   0x8(%ebp)
f0405bb9:	89 45 08             	mov    %eax,0x8(%ebp)
f0405bbc:	8b 45 08             	mov    0x8(%ebp),%eax
f0405bbf:	0f b6 c0             	movzbl %al,%eax
f0405bc2:	83 ec 08             	sub    $0x8,%esp
f0405bc5:	50                   	push   %eax
f0405bc6:	6a 40                	push   $0x40
f0405bc8:	e8 4c f9 ff ff       	call   f0405519 <cpu_out8>
f0405bcd:	83 c4 10             	add    $0x10,%esp
f0405bd0:	8b 45 08             	mov    0x8(%ebp),%eax
f0405bd3:	c1 e8 08             	shr    $0x8,%eax
f0405bd6:	0f b6 c0             	movzbl %al,%eax
f0405bd9:	83 ec 08             	sub    $0x8,%esp
f0405bdc:	50                   	push   %eax
f0405bdd:	6a 40                	push   $0x40
f0405bdf:	e8 35 f9 ff ff       	call   f0405519 <cpu_out8>
f0405be4:	83 c4 10             	add    $0x10,%esp
f0405be7:	c9                   	leave
f0405be8:	c3                   	ret

f0405be9 <karch_deinit_i8253>:
f0405be9:	55                   	push   %ebp
f0405bea:	89 e5                	mov    %esp,%ebp
f0405bec:	83 ec 08             	sub    $0x8,%esp
f0405bef:	83 ec 0c             	sub    $0xc,%esp
f0405bf2:	6a 00                	push   $0x0
f0405bf4:	e8 78 ff ff ff       	call   f0405b71 <karch_init_i8253>
f0405bf9:	83 c4 10             	add    $0x10,%esp
f0405bfc:	90                   	nop
f0405bfd:	c9                   	leave
f0405bfe:	c3                   	ret
f0405bff:	90                   	nop

f0405c00 <karch_i8259_hwint_00>:
f0405c00:	55                   	push   %ebp
f0405c01:	53                   	push   %ebx
f0405c02:	50                   	push   %eax
f0405c03:	89 e5                	mov    %esp,%ebp
f0405c05:	83 7d 10 08          	cmpl   $0x8,0x10(%ebp)
f0405c09:	74 1d                	je     f0405c28 <karch_i8259_hwint_00.kern>
f0405c0b:	bb 00 00 00 00       	mov    $0x0,%ebx

f0405c10 <karch_i8259_hwint_00.all>:
f0405c10:	89 e8                	mov    %ebp,%eax
f0405c12:	83 e8 0c             	sub    $0xc,%eax
f0405c15:	50                   	push   %eax
f0405c16:	53                   	push   %ebx
f0405c17:	b8 00 00 00 00       	mov    $0x0,%eax
f0405c1c:	50                   	push   %eax
f0405c1d:	e8 df 05 00 00       	call   f0406201 <karch_i8259_hwint>
f0405c22:	89 ec                	mov    %ebp,%esp
f0405c24:	58                   	pop    %eax
f0405c25:	5b                   	pop    %ebx
f0405c26:	5d                   	pop    %ebp
f0405c27:	cf                   	iret

f0405c28 <karch_i8259_hwint_00.kern>:
f0405c28:	bb 01 00 00 00       	mov    $0x1,%ebx
f0405c2d:	eb e1                	jmp    f0405c10 <karch_i8259_hwint_00.all>

f0405c2f <karch_i8259_hwint_01>:
f0405c2f:	55                   	push   %ebp
f0405c30:	53                   	push   %ebx
f0405c31:	50                   	push   %eax
f0405c32:	89 e5                	mov    %esp,%ebp
f0405c34:	83 7d 10 08          	cmpl   $0x8,0x10(%ebp)
f0405c38:	74 1d                	je     f0405c57 <karch_i8259_hwint_01.kern>
f0405c3a:	bb 00 00 00 00       	mov    $0x0,%ebx

f0405c3f <karch_i8259_hwint_01.all>:
f0405c3f:	89 e8                	mov    %ebp,%eax
f0405c41:	83 e8 0c             	sub    $0xc,%eax
f0405c44:	50                   	push   %eax
f0405c45:	53                   	push   %ebx
f0405c46:	b8 01 00 00 00       	mov    $0x1,%eax
f0405c4b:	50                   	push   %eax
f0405c4c:	e8 b0 05 00 00       	call   f0406201 <karch_i8259_hwint>
f0405c51:	89 ec                	mov    %ebp,%esp
f0405c53:	58                   	pop    %eax
f0405c54:	5b                   	pop    %ebx
f0405c55:	5d                   	pop    %ebp
f0405c56:	cf                   	iret

f0405c57 <karch_i8259_hwint_01.kern>:
f0405c57:	bb 01 00 00 00       	mov    $0x1,%ebx
f0405c5c:	eb e1                	jmp    f0405c3f <karch_i8259_hwint_01.all>

f0405c5e <karch_i8259_hwint_02>:
f0405c5e:	55                   	push   %ebp
f0405c5f:	53                   	push   %ebx
f0405c60:	50                   	push   %eax
f0405c61:	89 e5                	mov    %esp,%ebp
f0405c63:	83 7d 10 08          	cmpl   $0x8,0x10(%ebp)
f0405c67:	74 1d                	je     f0405c86 <karch_i8259_hwint_02.kern>
f0405c69:	bb 00 00 00 00       	mov    $0x0,%ebx

f0405c6e <karch_i8259_hwint_02.all>:
f0405c6e:	89 e8                	mov    %ebp,%eax
f0405c70:	83 e8 0c             	sub    $0xc,%eax
f0405c73:	50                   	push   %eax
f0405c74:	53                   	push   %ebx
f0405c75:	b8 02 00 00 00       	mov    $0x2,%eax
f0405c7a:	50                   	push   %eax
f0405c7b:	e8 81 05 00 00       	call   f0406201 <karch_i8259_hwint>
f0405c80:	89 ec                	mov    %ebp,%esp
f0405c82:	58                   	pop    %eax
f0405c83:	5b                   	pop    %ebx
f0405c84:	5d                   	pop    %ebp
f0405c85:	cf                   	iret

f0405c86 <karch_i8259_hwint_02.kern>:
f0405c86:	bb 01 00 00 00       	mov    $0x1,%ebx
f0405c8b:	eb e1                	jmp    f0405c6e <karch_i8259_hwint_02.all>

f0405c8d <karch_i8259_hwint_03>:
f0405c8d:	55                   	push   %ebp
f0405c8e:	53                   	push   %ebx
f0405c8f:	50                   	push   %eax
f0405c90:	89 e5                	mov    %esp,%ebp
f0405c92:	83 7d 10 08          	cmpl   $0x8,0x10(%ebp)
f0405c96:	74 1d                	je     f0405cb5 <karch_i8259_hwint_03.kern>
f0405c98:	bb 00 00 00 00       	mov    $0x0,%ebx

f0405c9d <karch_i8259_hwint_03.all>:
f0405c9d:	89 e8                	mov    %ebp,%eax
f0405c9f:	83 e8 0c             	sub    $0xc,%eax
f0405ca2:	50                   	push   %eax
f0405ca3:	53                   	push   %ebx
f0405ca4:	b8 03 00 00 00       	mov    $0x3,%eax
f0405ca9:	50                   	push   %eax
f0405caa:	e8 52 05 00 00       	call   f0406201 <karch_i8259_hwint>
f0405caf:	89 ec                	mov    %ebp,%esp
f0405cb1:	58                   	pop    %eax
f0405cb2:	5b                   	pop    %ebx
f0405cb3:	5d                   	pop    %ebp
f0405cb4:	cf                   	iret

f0405cb5 <karch_i8259_hwint_03.kern>:
f0405cb5:	bb 01 00 00 00       	mov    $0x1,%ebx
f0405cba:	eb e1                	jmp    f0405c9d <karch_i8259_hwint_03.all>

f0405cbc <karch_i8259_hwint_04>:
f0405cbc:	55                   	push   %ebp
f0405cbd:	53                   	push   %ebx
f0405cbe:	50                   	push   %eax
f0405cbf:	89 e5                	mov    %esp,%ebp
f0405cc1:	83 7d 10 08          	cmpl   $0x8,0x10(%ebp)
f0405cc5:	74 1d                	je     f0405ce4 <karch_i8259_hwint_04.kern>
f0405cc7:	bb 00 00 00 00       	mov    $0x0,%ebx

f0405ccc <karch_i8259_hwint_04.all>:
f0405ccc:	89 e8                	mov    %ebp,%eax
f0405cce:	83 e8 0c             	sub    $0xc,%eax
f0405cd1:	50                   	push   %eax
f0405cd2:	53                   	push   %ebx
f0405cd3:	b8 04 00 00 00       	mov    $0x4,%eax
f0405cd8:	50                   	push   %eax
f0405cd9:	e8 23 05 00 00       	call   f0406201 <karch_i8259_hwint>
f0405cde:	89 ec                	mov    %ebp,%esp
f0405ce0:	58                   	pop    %eax
f0405ce1:	5b                   	pop    %ebx
f0405ce2:	5d                   	pop    %ebp
f0405ce3:	cf                   	iret

f0405ce4 <karch_i8259_hwint_04.kern>:
f0405ce4:	bb 01 00 00 00       	mov    $0x1,%ebx
f0405ce9:	eb e1                	jmp    f0405ccc <karch_i8259_hwint_04.all>

f0405ceb <karch_i8259_hwint_05>:
f0405ceb:	55                   	push   %ebp
f0405cec:	53                   	push   %ebx
f0405ced:	50                   	push   %eax
f0405cee:	89 e5                	mov    %esp,%ebp
f0405cf0:	83 7d 10 08          	cmpl   $0x8,0x10(%ebp)
f0405cf4:	74 1d                	je     f0405d13 <karch_i8259_hwint_05.kern>
f0405cf6:	bb 00 00 00 00       	mov    $0x0,%ebx

f0405cfb <karch_i8259_hwint_05.all>:
f0405cfb:	89 e8                	mov    %ebp,%eax
f0405cfd:	83 e8 0c             	sub    $0xc,%eax
f0405d00:	50                   	push   %eax
f0405d01:	53                   	push   %ebx
f0405d02:	b8 05 00 00 00       	mov    $0x5,%eax
f0405d07:	50                   	push   %eax
f0405d08:	e8 f4 04 00 00       	call   f0406201 <karch_i8259_hwint>
f0405d0d:	89 ec                	mov    %ebp,%esp
f0405d0f:	58                   	pop    %eax
f0405d10:	5b                   	pop    %ebx
f0405d11:	5d                   	pop    %ebp
f0405d12:	cf                   	iret

f0405d13 <karch_i8259_hwint_05.kern>:
f0405d13:	bb 01 00 00 00       	mov    $0x1,%ebx
f0405d18:	eb e1                	jmp    f0405cfb <karch_i8259_hwint_05.all>

f0405d1a <karch_i8259_hwint_06>:
f0405d1a:	55                   	push   %ebp
f0405d1b:	53                   	push   %ebx
f0405d1c:	50                   	push   %eax
f0405d1d:	89 e5                	mov    %esp,%ebp
f0405d1f:	83 7d 10 08          	cmpl   $0x8,0x10(%ebp)
f0405d23:	74 1d                	je     f0405d42 <karch_i8259_hwint_06.kern>
f0405d25:	bb 00 00 00 00       	mov    $0x0,%ebx

f0405d2a <karch_i8259_hwint_06.all>:
f0405d2a:	89 e8                	mov    %ebp,%eax
f0405d2c:	83 e8 0c             	sub    $0xc,%eax
f0405d2f:	50                   	push   %eax
f0405d30:	53                   	push   %ebx
f0405d31:	b8 06 00 00 00       	mov    $0x6,%eax
f0405d36:	50                   	push   %eax
f0405d37:	e8 c5 04 00 00       	call   f0406201 <karch_i8259_hwint>
f0405d3c:	89 ec                	mov    %ebp,%esp
f0405d3e:	58                   	pop    %eax
f0405d3f:	5b                   	pop    %ebx
f0405d40:	5d                   	pop    %ebp
f0405d41:	cf                   	iret

f0405d42 <karch_i8259_hwint_06.kern>:
f0405d42:	bb 01 00 00 00       	mov    $0x1,%ebx
f0405d47:	eb e1                	jmp    f0405d2a <karch_i8259_hwint_06.all>

f0405d49 <karch_i8259_hwint_07>:
f0405d49:	55                   	push   %ebp
f0405d4a:	53                   	push   %ebx
f0405d4b:	50                   	push   %eax
f0405d4c:	89 e5                	mov    %esp,%ebp
f0405d4e:	83 7d 10 08          	cmpl   $0x8,0x10(%ebp)
f0405d52:	74 1d                	je     f0405d71 <karch_i8259_hwint_07.kern>
f0405d54:	bb 00 00 00 00       	mov    $0x0,%ebx

f0405d59 <karch_i8259_hwint_07.all>:
f0405d59:	89 e8                	mov    %ebp,%eax
f0405d5b:	83 e8 0c             	sub    $0xc,%eax
f0405d5e:	50                   	push   %eax
f0405d5f:	53                   	push   %ebx
f0405d60:	b8 07 00 00 00       	mov    $0x7,%eax
f0405d65:	50                   	push   %eax
f0405d66:	e8 96 04 00 00       	call   f0406201 <karch_i8259_hwint>
f0405d6b:	89 ec                	mov    %ebp,%esp
f0405d6d:	58                   	pop    %eax
f0405d6e:	5b                   	pop    %ebx
f0405d6f:	5d                   	pop    %ebp
f0405d70:	cf                   	iret

f0405d71 <karch_i8259_hwint_07.kern>:
f0405d71:	bb 01 00 00 00       	mov    $0x1,%ebx
f0405d76:	eb e1                	jmp    f0405d59 <karch_i8259_hwint_07.all>

f0405d78 <karch_i8259_hwint_08>:
f0405d78:	55                   	push   %ebp
f0405d79:	53                   	push   %ebx
f0405d7a:	50                   	push   %eax
f0405d7b:	89 e5                	mov    %esp,%ebp
f0405d7d:	83 7d 10 08          	cmpl   $0x8,0x10(%ebp)
f0405d81:	74 1d                	je     f0405da0 <karch_i8259_hwint_08.kern>
f0405d83:	bb 00 00 00 00       	mov    $0x0,%ebx

f0405d88 <karch_i8259_hwint_08.all>:
f0405d88:	89 e8                	mov    %ebp,%eax
f0405d8a:	83 e8 0c             	sub    $0xc,%eax
f0405d8d:	50                   	push   %eax
f0405d8e:	53                   	push   %ebx
f0405d8f:	b8 08 00 00 00       	mov    $0x8,%eax
f0405d94:	50                   	push   %eax
f0405d95:	e8 67 04 00 00       	call   f0406201 <karch_i8259_hwint>
f0405d9a:	89 ec                	mov    %ebp,%esp
f0405d9c:	58                   	pop    %eax
f0405d9d:	5b                   	pop    %ebx
f0405d9e:	5d                   	pop    %ebp
f0405d9f:	cf                   	iret

f0405da0 <karch_i8259_hwint_08.kern>:
f0405da0:	bb 01 00 00 00       	mov    $0x1,%ebx
f0405da5:	eb e1                	jmp    f0405d88 <karch_i8259_hwint_08.all>

f0405da7 <karch_i8259_hwint_09>:
f0405da7:	55                   	push   %ebp
f0405da8:	53                   	push   %ebx
f0405da9:	50                   	push   %eax
f0405daa:	89 e5                	mov    %esp,%ebp
f0405dac:	83 7d 10 08          	cmpl   $0x8,0x10(%ebp)
f0405db0:	74 1d                	je     f0405dcf <karch_i8259_hwint_09.kern>
f0405db2:	bb 00 00 00 00       	mov    $0x0,%ebx

f0405db7 <karch_i8259_hwint_09.all>:
f0405db7:	89 e8                	mov    %ebp,%eax
f0405db9:	83 e8 0c             	sub    $0xc,%eax
f0405dbc:	50                   	push   %eax
f0405dbd:	53                   	push   %ebx
f0405dbe:	b8 09 00 00 00       	mov    $0x9,%eax
f0405dc3:	50                   	push   %eax
f0405dc4:	e8 38 04 00 00       	call   f0406201 <karch_i8259_hwint>
f0405dc9:	89 ec                	mov    %ebp,%esp
f0405dcb:	58                   	pop    %eax
f0405dcc:	5b                   	pop    %ebx
f0405dcd:	5d                   	pop    %ebp
f0405dce:	cf                   	iret

f0405dcf <karch_i8259_hwint_09.kern>:
f0405dcf:	bb 01 00 00 00       	mov    $0x1,%ebx
f0405dd4:	eb e1                	jmp    f0405db7 <karch_i8259_hwint_09.all>

f0405dd6 <karch_i8259_hwint_10>:
f0405dd6:	55                   	push   %ebp
f0405dd7:	53                   	push   %ebx
f0405dd8:	50                   	push   %eax
f0405dd9:	89 e5                	mov    %esp,%ebp
f0405ddb:	83 7d 10 08          	cmpl   $0x8,0x10(%ebp)
f0405ddf:	74 1d                	je     f0405dfe <karch_i8259_hwint_10.kern>
f0405de1:	bb 00 00 00 00       	mov    $0x0,%ebx

f0405de6 <karch_i8259_hwint_10.all>:
f0405de6:	89 e8                	mov    %ebp,%eax
f0405de8:	83 e8 0c             	sub    $0xc,%eax
f0405deb:	50                   	push   %eax
f0405dec:	53                   	push   %ebx
f0405ded:	b8 0a 00 00 00       	mov    $0xa,%eax
f0405df2:	50                   	push   %eax
f0405df3:	e8 09 04 00 00       	call   f0406201 <karch_i8259_hwint>
f0405df8:	89 ec                	mov    %ebp,%esp
f0405dfa:	58                   	pop    %eax
f0405dfb:	5b                   	pop    %ebx
f0405dfc:	5d                   	pop    %ebp
f0405dfd:	cf                   	iret

f0405dfe <karch_i8259_hwint_10.kern>:
f0405dfe:	bb 01 00 00 00       	mov    $0x1,%ebx
f0405e03:	eb e1                	jmp    f0405de6 <karch_i8259_hwint_10.all>

f0405e05 <karch_i8259_hwint_11>:
f0405e05:	55                   	push   %ebp
f0405e06:	53                   	push   %ebx
f0405e07:	50                   	push   %eax
f0405e08:	89 e5                	mov    %esp,%ebp
f0405e0a:	83 7d 10 08          	cmpl   $0x8,0x10(%ebp)
f0405e0e:	74 1d                	je     f0405e2d <karch_i8259_hwint_11.kern>
f0405e10:	bb 00 00 00 00       	mov    $0x0,%ebx

f0405e15 <karch_i8259_hwint_11.all>:
f0405e15:	89 e8                	mov    %ebp,%eax
f0405e17:	83 e8 0c             	sub    $0xc,%eax
f0405e1a:	50                   	push   %eax
f0405e1b:	53                   	push   %ebx
f0405e1c:	b8 0b 00 00 00       	mov    $0xb,%eax
f0405e21:	50                   	push   %eax
f0405e22:	e8 da 03 00 00       	call   f0406201 <karch_i8259_hwint>
f0405e27:	89 ec                	mov    %ebp,%esp
f0405e29:	58                   	pop    %eax
f0405e2a:	5b                   	pop    %ebx
f0405e2b:	5d                   	pop    %ebp
f0405e2c:	cf                   	iret

f0405e2d <karch_i8259_hwint_11.kern>:
f0405e2d:	bb 01 00 00 00       	mov    $0x1,%ebx
f0405e32:	eb e1                	jmp    f0405e15 <karch_i8259_hwint_11.all>

f0405e34 <karch_i8259_hwint_12>:
f0405e34:	55                   	push   %ebp
f0405e35:	53                   	push   %ebx
f0405e36:	50                   	push   %eax
f0405e37:	89 e5                	mov    %esp,%ebp
f0405e39:	83 7d 10 08          	cmpl   $0x8,0x10(%ebp)
f0405e3d:	74 1d                	je     f0405e5c <karch_i8259_hwint_12.kern>
f0405e3f:	bb 00 00 00 00       	mov    $0x0,%ebx

f0405e44 <karch_i8259_hwint_12.all>:
f0405e44:	89 e8                	mov    %ebp,%eax
f0405e46:	83 e8 0c             	sub    $0xc,%eax
f0405e49:	50                   	push   %eax
f0405e4a:	53                   	push   %ebx
f0405e4b:	b8 0c 00 00 00       	mov    $0xc,%eax
f0405e50:	50                   	push   %eax
f0405e51:	e8 ab 03 00 00       	call   f0406201 <karch_i8259_hwint>
f0405e56:	89 ec                	mov    %ebp,%esp
f0405e58:	58                   	pop    %eax
f0405e59:	5b                   	pop    %ebx
f0405e5a:	5d                   	pop    %ebp
f0405e5b:	cf                   	iret

f0405e5c <karch_i8259_hwint_12.kern>:
f0405e5c:	bb 01 00 00 00       	mov    $0x1,%ebx
f0405e61:	eb e1                	jmp    f0405e44 <karch_i8259_hwint_12.all>

f0405e63 <karch_i8259_hwint_13>:
f0405e63:	55                   	push   %ebp
f0405e64:	53                   	push   %ebx
f0405e65:	50                   	push   %eax
f0405e66:	89 e5                	mov    %esp,%ebp
f0405e68:	83 7d 10 08          	cmpl   $0x8,0x10(%ebp)
f0405e6c:	74 1d                	je     f0405e8b <karch_i8259_hwint_13.kern>
f0405e6e:	bb 00 00 00 00       	mov    $0x0,%ebx

f0405e73 <karch_i8259_hwint_13.all>:
f0405e73:	89 e8                	mov    %ebp,%eax
f0405e75:	83 e8 0c             	sub    $0xc,%eax
f0405e78:	50                   	push   %eax
f0405e79:	53                   	push   %ebx
f0405e7a:	b8 0d 00 00 00       	mov    $0xd,%eax
f0405e7f:	50                   	push   %eax
f0405e80:	e8 7c 03 00 00       	call   f0406201 <karch_i8259_hwint>
f0405e85:	89 ec                	mov    %ebp,%esp
f0405e87:	58                   	pop    %eax
f0405e88:	5b                   	pop    %ebx
f0405e89:	5d                   	pop    %ebp
f0405e8a:	cf                   	iret

f0405e8b <karch_i8259_hwint_13.kern>:
f0405e8b:	bb 01 00 00 00       	mov    $0x1,%ebx
f0405e90:	eb e1                	jmp    f0405e73 <karch_i8259_hwint_13.all>

f0405e92 <karch_i8259_hwint_14>:
f0405e92:	55                   	push   %ebp
f0405e93:	53                   	push   %ebx
f0405e94:	50                   	push   %eax
f0405e95:	89 e5                	mov    %esp,%ebp
f0405e97:	83 7d 10 08          	cmpl   $0x8,0x10(%ebp)
f0405e9b:	74 1d                	je     f0405eba <karch_i8259_hwint_14.kern>
f0405e9d:	bb 00 00 00 00       	mov    $0x0,%ebx

f0405ea2 <karch_i8259_hwint_14.all>:
f0405ea2:	89 e8                	mov    %ebp,%eax
f0405ea4:	83 e8 0c             	sub    $0xc,%eax
f0405ea7:	50                   	push   %eax
f0405ea8:	53                   	push   %ebx
f0405ea9:	b8 0e 00 00 00       	mov    $0xe,%eax
f0405eae:	50                   	push   %eax
f0405eaf:	e8 4d 03 00 00       	call   f0406201 <karch_i8259_hwint>
f0405eb4:	89 ec                	mov    %ebp,%esp
f0405eb6:	58                   	pop    %eax
f0405eb7:	5b                   	pop    %ebx
f0405eb8:	5d                   	pop    %ebp
f0405eb9:	cf                   	iret

f0405eba <karch_i8259_hwint_14.kern>:
f0405eba:	bb 01 00 00 00       	mov    $0x1,%ebx
f0405ebf:	eb e1                	jmp    f0405ea2 <karch_i8259_hwint_14.all>

f0405ec1 <karch_i8259_hwint_15>:
f0405ec1:	55                   	push   %ebp
f0405ec2:	53                   	push   %ebx
f0405ec3:	50                   	push   %eax
f0405ec4:	89 e5                	mov    %esp,%ebp
f0405ec6:	83 7d 10 08          	cmpl   $0x8,0x10(%ebp)
f0405eca:	74 1d                	je     f0405ee9 <karch_i8259_hwint_15.kern>
f0405ecc:	bb 00 00 00 00       	mov    $0x0,%ebx

f0405ed1 <karch_i8259_hwint_15.all>:
f0405ed1:	89 e8                	mov    %ebp,%eax
f0405ed3:	83 e8 0c             	sub    $0xc,%eax
f0405ed6:	50                   	push   %eax
f0405ed7:	53                   	push   %ebx
f0405ed8:	b8 0f 00 00 00       	mov    $0xf,%eax
f0405edd:	50                   	push   %eax
f0405ede:	e8 1e 03 00 00       	call   f0406201 <karch_i8259_hwint>
f0405ee3:	89 ec                	mov    %ebp,%esp
f0405ee5:	58                   	pop    %eax
f0405ee6:	5b                   	pop    %ebx
f0405ee7:	5d                   	pop    %ebp
f0405ee8:	cf                   	iret

f0405ee9 <karch_i8259_hwint_15.kern>:
f0405ee9:	bb 01 00 00 00       	mov    $0x1,%ebx
f0405eee:	eb e1                	jmp    f0405ed1 <karch_i8259_hwint_15.all>

f0405ef0 <karch_init_i8259>:
f0405ef0:	55                   	push   %ebp
f0405ef1:	89 e5                	mov    %esp,%ebp
f0405ef3:	83 ec 08             	sub    $0x8,%esp
f0405ef6:	83 ec 04             	sub    $0x4,%esp
f0405ef9:	6a 40                	push   $0x40
f0405efb:	6a 00                	push   $0x0
f0405efd:	68 c0 14 41 f0       	push   $0xf04114c0
f0405f02:	e8 5f 0e 00 00       	call   f0406d66 <kmemset>
f0405f07:	83 c4 10             	add    $0x10,%esp
f0405f0a:	83 ec 04             	sub    $0x4,%esp
f0405f0d:	6a 40                	push   $0x40
f0405f0f:	6a 00                	push   $0x0
f0405f11:	68 00 15 41 f0       	push   $0xf0411500
f0405f16:	e8 4b 0e 00 00       	call   f0406d66 <kmemset>
f0405f1b:	83 c4 10             	add    $0x10,%esp
f0405f1e:	83 ec 08             	sub    $0x8,%esp
f0405f21:	6a 50                	push   $0x50
f0405f23:	68 00 71 40 f0       	push   $0xf0407100
f0405f28:	e8 c6 03 00 00       	call   f04062f3 <karch_load_idt_gatevec>
f0405f2d:	83 c4 10             	add    $0x10,%esp
f0405f30:	83 ec 08             	sub    $0x8,%esp
f0405f33:	6a 70                	push   $0x70
f0405f35:	68 60 71 40 f0       	push   $0xf0407160
f0405f3a:	e8 b4 03 00 00       	call   f04062f3 <karch_load_idt_gatevec>
f0405f3f:	83 c4 10             	add    $0x10,%esp
f0405f42:	e8 03 00 00 00       	call   f0405f4a <karch_program_i8259>
f0405f47:	90                   	nop
f0405f48:	c9                   	leave
f0405f49:	c3                   	ret

f0405f4a <karch_program_i8259>:
f0405f4a:	55                   	push   %ebp
f0405f4b:	89 e5                	mov    %esp,%ebp
f0405f4d:	83 ec 08             	sub    $0x8,%esp
f0405f50:	83 ec 08             	sub    $0x8,%esp
f0405f53:	6a 11                	push   $0x11
f0405f55:	6a 20                	push   $0x20
f0405f57:	e8 bd f5 ff ff       	call   f0405519 <cpu_out8>
f0405f5c:	83 c4 10             	add    $0x10,%esp
f0405f5f:	83 ec 08             	sub    $0x8,%esp
f0405f62:	6a 50                	push   $0x50
f0405f64:	6a 21                	push   $0x21
f0405f66:	e8 ae f5 ff ff       	call   f0405519 <cpu_out8>
f0405f6b:	83 c4 10             	add    $0x10,%esp
f0405f6e:	83 ec 08             	sub    $0x8,%esp
f0405f71:	6a 04                	push   $0x4
f0405f73:	6a 21                	push   $0x21
f0405f75:	e8 9f f5 ff ff       	call   f0405519 <cpu_out8>
f0405f7a:	83 c4 10             	add    $0x10,%esp
f0405f7d:	83 ec 08             	sub    $0x8,%esp
f0405f80:	6a 05                	push   $0x5
f0405f82:	6a 21                	push   $0x21
f0405f84:	e8 90 f5 ff ff       	call   f0405519 <cpu_out8>
f0405f89:	83 c4 10             	add    $0x10,%esp
f0405f8c:	83 ec 08             	sub    $0x8,%esp
f0405f8f:	6a ff                	push   $0xffffffff
f0405f91:	6a 21                	push   $0x21
f0405f93:	e8 81 f5 ff ff       	call   f0405519 <cpu_out8>
f0405f98:	83 c4 10             	add    $0x10,%esp
f0405f9b:	83 ec 08             	sub    $0x8,%esp
f0405f9e:	6a 11                	push   $0x11
f0405fa0:	68 a0 00 00 00       	push   $0xa0
f0405fa5:	e8 6f f5 ff ff       	call   f0405519 <cpu_out8>
f0405faa:	83 c4 10             	add    $0x10,%esp
f0405fad:	83 ec 08             	sub    $0x8,%esp
f0405fb0:	6a 70                	push   $0x70
f0405fb2:	68 a1 00 00 00       	push   $0xa1
f0405fb7:	e8 5d f5 ff ff       	call   f0405519 <cpu_out8>
f0405fbc:	83 c4 10             	add    $0x10,%esp
f0405fbf:	83 ec 08             	sub    $0x8,%esp
f0405fc2:	6a 02                	push   $0x2
f0405fc4:	68 a1 00 00 00       	push   $0xa1
f0405fc9:	e8 4b f5 ff ff       	call   f0405519 <cpu_out8>
f0405fce:	83 c4 10             	add    $0x10,%esp
f0405fd1:	83 ec 08             	sub    $0x8,%esp
f0405fd4:	6a 01                	push   $0x1
f0405fd6:	68 a1 00 00 00       	push   $0xa1
f0405fdb:	e8 39 f5 ff ff       	call   f0405519 <cpu_out8>
f0405fe0:	83 c4 10             	add    $0x10,%esp
f0405fe3:	83 ec 08             	sub    $0x8,%esp
f0405fe6:	6a ff                	push   $0xffffffff
f0405fe8:	68 a1 00 00 00       	push   $0xa1
f0405fed:	e8 27 f5 ff ff       	call   f0405519 <cpu_out8>
f0405ff2:	83 c4 10             	add    $0x10,%esp
f0405ff5:	90                   	nop
f0405ff6:	c9                   	leave
f0405ff7:	c3                   	ret

f0405ff8 <karch_unmask_i8259>:
f0405ff8:	55                   	push   %ebp
f0405ff9:	89 e5                	mov    %esp,%ebp
f0405ffb:	53                   	push   %ebx
f0405ffc:	83 ec 24             	sub    $0x24,%esp
f0405fff:	8b 45 08             	mov    0x8(%ebp),%eax
f0406002:	88 45 e4             	mov    %al,-0x1c(%ebp)
f0406005:	80 7d e4 07          	cmpb   $0x7,-0x1c(%ebp)
f0406009:	77 07                	ja     f0406012 <karch_unmask_i8259+0x1a>
f040600b:	b8 21 00 00 00       	mov    $0x21,%eax
f0406010:	eb 05                	jmp    f0406017 <karch_unmask_i8259+0x1f>
f0406012:	b8 a1 ff ff ff       	mov    $0xffffffa1,%eax
f0406017:	88 45 f7             	mov    %al,-0x9(%ebp)
f040601a:	0f b6 45 f7          	movzbl -0x9(%ebp),%eax
f040601e:	83 ec 0c             	sub    $0xc,%esp
f0406021:	50                   	push   %eax
f0406022:	e8 bb f4 ff ff       	call   f04054e2 <cpu_in8>
f0406027:	83 c4 10             	add    $0x10,%esp
f040602a:	88 45 f6             	mov    %al,-0xa(%ebp)
f040602d:	0f b6 45 f6          	movzbl -0xa(%ebp),%eax
f0406031:	0f b6 55 e4          	movzbl -0x1c(%ebp),%edx
f0406035:	83 e2 07             	and    $0x7,%edx
f0406038:	bb 01 00 00 00       	mov    $0x1,%ebx
f040603d:	89 d1                	mov    %edx,%ecx
f040603f:	d3 e3                	shl    %cl,%ebx
f0406041:	89 da                	mov    %ebx,%edx
f0406043:	f7 d2                	not    %edx
f0406045:	21 d0                	and    %edx,%eax
f0406047:	89 c2                	mov    %eax,%edx
f0406049:	0f b6 45 f7          	movzbl -0x9(%ebp),%eax
f040604d:	83 ec 08             	sub    $0x8,%esp
f0406050:	52                   	push   %edx
f0406051:	50                   	push   %eax
f0406052:	e8 c2 f4 ff ff       	call   f0405519 <cpu_out8>
f0406057:	83 c4 10             	add    $0x10,%esp
f040605a:	80 7d e4 07          	cmpb   $0x7,-0x1c(%ebp)
f040605e:	76 13                	jbe    f0406073 <karch_unmask_i8259+0x7b>
f0406060:	80 7d f6 ff          	cmpb   $0xff,-0xa(%ebp)
f0406064:	75 0d                	jne    f0406073 <karch_unmask_i8259+0x7b>
f0406066:	83 ec 0c             	sub    $0xc,%esp
f0406069:	6a 02                	push   $0x2
f040606b:	e8 88 ff ff ff       	call   f0405ff8 <karch_unmask_i8259>
f0406070:	83 c4 10             	add    $0x10,%esp
f0406073:	90                   	nop
f0406074:	8b 5d fc             	mov    -0x4(%ebp),%ebx
f0406077:	c9                   	leave
f0406078:	c3                   	ret

f0406079 <karch_mask_i8259>:
f0406079:	55                   	push   %ebp
f040607a:	89 e5                	mov    %esp,%ebp
f040607c:	83 ec 28             	sub    $0x28,%esp
f040607f:	8b 45 08             	mov    0x8(%ebp),%eax
f0406082:	88 45 e4             	mov    %al,-0x1c(%ebp)
f0406085:	80 7d e4 07          	cmpb   $0x7,-0x1c(%ebp)
f0406089:	77 07                	ja     f0406092 <karch_mask_i8259+0x19>
f040608b:	b8 21 00 00 00       	mov    $0x21,%eax
f0406090:	eb 05                	jmp    f0406097 <karch_mask_i8259+0x1e>
f0406092:	b8 a1 ff ff ff       	mov    $0xffffffa1,%eax
f0406097:	88 45 f7             	mov    %al,-0x9(%ebp)
f040609a:	0f b6 45 f7          	movzbl -0x9(%ebp),%eax
f040609e:	83 ec 0c             	sub    $0xc,%esp
f04060a1:	50                   	push   %eax
f04060a2:	e8 3b f4 ff ff       	call   f04054e2 <cpu_in8>
f04060a7:	83 c4 10             	add    $0x10,%esp
f04060aa:	88 45 f6             	mov    %al,-0xa(%ebp)
f04060ad:	0f b6 45 e4          	movzbl -0x1c(%ebp),%eax
f04060b1:	83 e0 07             	and    $0x7,%eax
f04060b4:	ba 01 00 00 00       	mov    $0x1,%edx
f04060b9:	89 c1                	mov    %eax,%ecx
f04060bb:	d3 e2                	shl    %cl,%edx
f04060bd:	89 d0                	mov    %edx,%eax
f04060bf:	89 c2                	mov    %eax,%edx
f04060c1:	0f b6 45 f6          	movzbl -0xa(%ebp),%eax
f04060c5:	09 d0                	or     %edx,%eax
f04060c7:	88 45 f5             	mov    %al,-0xb(%ebp)
f04060ca:	0f b6 55 f5          	movzbl -0xb(%ebp),%edx
f04060ce:	0f b6 45 f7          	movzbl -0x9(%ebp),%eax
f04060d2:	83 ec 08             	sub    $0x8,%esp
f04060d5:	52                   	push   %edx
f04060d6:	50                   	push   %eax
f04060d7:	e8 3d f4 ff ff       	call   f0405519 <cpu_out8>
f04060dc:	83 c4 10             	add    $0x10,%esp
f04060df:	80 7d e4 07          	cmpb   $0x7,-0x1c(%ebp)
f04060e3:	76 13                	jbe    f04060f8 <karch_mask_i8259+0x7f>
f04060e5:	80 7d f5 ff          	cmpb   $0xff,-0xb(%ebp)
f04060e9:	75 0d                	jne    f04060f8 <karch_mask_i8259+0x7f>
f04060eb:	83 ec 0c             	sub    $0xc,%esp
f04060ee:	6a 02                	push   $0x2
f04060f0:	e8 84 ff ff ff       	call   f0406079 <karch_mask_i8259>
f04060f5:	83 c4 10             	add    $0x10,%esp
f04060f8:	90                   	nop
f04060f9:	c9                   	leave
f04060fa:	c3                   	ret

f04060fb <karch_disable_i8259>:
f04060fb:	55                   	push   %ebp
f04060fc:	89 e5                	mov    %esp,%ebp
f04060fe:	83 ec 08             	sub    $0x8,%esp
f0406101:	83 ec 08             	sub    $0x8,%esp
f0406104:	68 ff 00 00 00       	push   $0xff
f0406109:	68 a1 00 00 00       	push   $0xa1
f040610e:	e8 06 f4 ff ff       	call   f0405519 <cpu_out8>
f0406113:	83 c4 10             	add    $0x10,%esp
f0406116:	83 ec 08             	sub    $0x8,%esp
f0406119:	68 ff 00 00 00       	push   $0xff
f040611e:	6a 21                	push   $0x21
f0406120:	e8 f4 f3 ff ff       	call   f0405519 <cpu_out8>
f0406125:	83 c4 10             	add    $0x10,%esp
f0406128:	83 ec 0c             	sub    $0xc,%esp
f040612b:	6a 21                	push   $0x21
f040612d:	e8 b0 f3 ff ff       	call   f04054e2 <cpu_in8>
f0406132:	83 c4 10             	add    $0x10,%esp
f0406135:	90                   	nop
f0406136:	c9                   	leave
f0406137:	c3                   	ret

f0406138 <karch_i8259_eoi>:
f0406138:	55                   	push   %ebp
f0406139:	89 e5                	mov    %esp,%ebp
f040613b:	83 ec 08             	sub    $0x8,%esp
f040613e:	83 7d 08 07          	cmpl   $0x7,0x8(%ebp)
f0406142:	77 11                	ja     f0406155 <karch_i8259_eoi+0x1d>
f0406144:	83 ec 08             	sub    $0x8,%esp
f0406147:	6a 20                	push   $0x20
f0406149:	6a 20                	push   $0x20
f040614b:	e8 c9 f3 ff ff       	call   f0405519 <cpu_out8>
f0406150:	83 c4 10             	add    $0x10,%esp
f0406153:	eb 21                	jmp    f0406176 <karch_i8259_eoi+0x3e>
f0406155:	83 ec 08             	sub    $0x8,%esp
f0406158:	6a 20                	push   $0x20
f040615a:	6a 20                	push   $0x20
f040615c:	e8 b8 f3 ff ff       	call   f0405519 <cpu_out8>
f0406161:	83 c4 10             	add    $0x10,%esp
f0406164:	83 ec 08             	sub    $0x8,%esp
f0406167:	6a 20                	push   $0x20
f0406169:	68 a0 00 00 00       	push   $0xa0
f040616e:	e8 a6 f3 ff ff       	call   f0405519 <cpu_out8>
f0406173:	83 c4 10             	add    $0x10,%esp
f0406176:	90                   	nop
f0406177:	c9                   	leave
f0406178:	c3                   	ret

f0406179 <karch_get_hwint_i8259>:
f0406179:	55                   	push   %ebp
f040617a:	89 e5                	mov    %esp,%ebp
f040617c:	83 ec 04             	sub    $0x4,%esp
f040617f:	8b 45 08             	mov    0x8(%ebp),%eax
f0406182:	88 45 fc             	mov    %al,-0x4(%ebp)
f0406185:	80 7d fc 0f          	cmpb   $0xf,-0x4(%ebp)
f0406189:	76 07                	jbe    f0406192 <karch_get_hwint_i8259+0x19>
f040618b:	b8 00 00 00 00       	mov    $0x0,%eax
f0406190:	eb 31                	jmp    f04061c3 <karch_get_hwint_i8259+0x4a>
f0406192:	83 7d 0c 00          	cmpl   $0x0,0xc(%ebp)
f0406196:	74 10                	je     f04061a8 <karch_get_hwint_i8259+0x2f>
f0406198:	0f b6 45 fc          	movzbl -0x4(%ebp),%eax
f040619c:	8b 14 85 c0 14 41 f0 	mov    -0xfbeeb40(,%eax,4),%edx
f04061a3:	8b 45 0c             	mov    0xc(%ebp),%eax
f04061a6:	89 10                	mov    %edx,(%eax)
f04061a8:	83 7d 10 00          	cmpl   $0x0,0x10(%ebp)
f04061ac:	74 10                	je     f04061be <karch_get_hwint_i8259+0x45>
f04061ae:	0f b6 45 fc          	movzbl -0x4(%ebp),%eax
f04061b2:	8b 14 85 00 15 41 f0 	mov    -0xfbeeb00(,%eax,4),%edx
f04061b9:	8b 45 10             	mov    0x10(%ebp),%eax
f04061bc:	89 10                	mov    %edx,(%eax)
f04061be:	b8 01 00 00 00       	mov    $0x1,%eax
f04061c3:	c9                   	leave
f04061c4:	c3                   	ret

f04061c5 <karch_set_hwint_i8259>:
f04061c5:	55                   	push   %ebp
f04061c6:	89 e5                	mov    %esp,%ebp
f04061c8:	83 ec 04             	sub    $0x4,%esp
f04061cb:	8b 45 08             	mov    0x8(%ebp),%eax
f04061ce:	88 45 fc             	mov    %al,-0x4(%ebp)
f04061d1:	80 7d fc 0f          	cmpb   $0xf,-0x4(%ebp)
f04061d5:	76 07                	jbe    f04061de <karch_set_hwint_i8259+0x19>
f04061d7:	b8 00 00 00 00       	mov    $0x0,%eax
f04061dc:	eb 21                	jmp    f04061ff <karch_set_hwint_i8259+0x3a>
f04061de:	0f b6 45 fc          	movzbl -0x4(%ebp),%eax
f04061e2:	8b 55 0c             	mov    0xc(%ebp),%edx
f04061e5:	89 14 85 c0 14 41 f0 	mov    %edx,-0xfbeeb40(,%eax,4)
f04061ec:	0f b6 45 fc          	movzbl -0x4(%ebp),%eax
f04061f0:	8b 55 10             	mov    0x10(%ebp),%edx
f04061f3:	89 14 85 00 15 41 f0 	mov    %edx,-0xfbeeb00(,%eax,4)
f04061fa:	b8 01 00 00 00       	mov    $0x1,%eax
f04061ff:	c9                   	leave
f0406200:	c3                   	ret

f0406201 <karch_i8259_hwint>:
f0406201:	55                   	push   %ebp
f0406202:	89 e5                	mov    %esp,%ebp
f0406204:	83 ec 18             	sub    $0x18,%esp
f0406207:	8b 45 08             	mov    0x8(%ebp),%eax
f040620a:	8b 04 85 c0 14 41 f0 	mov    -0xfbeeb40(,%eax,4),%eax
f0406211:	85 c0                	test   %eax,%eax
f0406213:	74 35                	je     f040624a <karch_i8259_hwint+0x49>
f0406215:	8b 45 08             	mov    0x8(%ebp),%eax
f0406218:	89 45 e8             	mov    %eax,-0x18(%ebp)
f040621b:	8b 45 0c             	mov    0xc(%ebp),%eax
f040621e:	89 45 ec             	mov    %eax,-0x14(%ebp)
f0406221:	8b 45 10             	mov    0x10(%ebp),%eax
f0406224:	89 45 f0             	mov    %eax,-0x10(%ebp)
f0406227:	8b 45 08             	mov    0x8(%ebp),%eax
f040622a:	8b 04 85 00 15 41 f0 	mov    -0xfbeeb00(,%eax,4),%eax
f0406231:	89 45 f4             	mov    %eax,-0xc(%ebp)
f0406234:	8b 45 08             	mov    0x8(%ebp),%eax
f0406237:	8b 04 85 c0 14 41 f0 	mov    -0xfbeeb40(,%eax,4),%eax
f040623e:	83 ec 0c             	sub    $0xc,%esp
f0406241:	8d 55 e8             	lea    -0x18(%ebp),%edx
f0406244:	52                   	push   %edx
f0406245:	ff d0                	call   *%eax
f0406247:	83 c4 10             	add    $0x10,%esp
f040624a:	83 ec 0c             	sub    $0xc,%esp
f040624d:	ff 75 08             	push   0x8(%ebp)
f0406250:	e8 e3 fe ff ff       	call   f0406138 <karch_i8259_eoi>
f0406255:	83 c4 10             	add    $0x10,%esp
f0406258:	90                   	nop
f0406259:	c9                   	leave
f040625a:	c3                   	ret

f040625b <karch_init_idt>:
f040625b:	55                   	push   %ebp
f040625c:	89 e5                	mov    %esp,%ebp
f040625e:	83 ec 08             	sub    $0x8,%esp
f0406261:	83 ec 04             	sub    $0x4,%esp
f0406264:	68 00 08 00 00       	push   $0x800
f0406269:	6a 00                	push   $0x0
f040626b:	68 48 15 41 f0       	push   $0xf0411548
f0406270:	e8 f1 0a 00 00       	call   f0406d66 <kmemset>
f0406275:	83 c4 10             	add    $0x10,%esp
f0406278:	b8 48 15 41 f0       	mov    $0xf0411548,%eax
f040627d:	a3 42 15 41 f0       	mov    %eax,0xf0411542
f0406282:	66 c7 05 40 15 41 f0 	movw   $0x7ff,0xf0411540
f0406289:	ff 07 
f040628b:	90                   	nop
f040628c:	c9                   	leave
f040628d:	c3                   	ret

f040628e <karch_flush_idt>:
f040628e:	55                   	push   %ebp
f040628f:	89 e5                	mov    %esp,%ebp
f0406291:	83 ec 08             	sub    $0x8,%esp
f0406294:	83 ec 0c             	sub    $0xc,%esp
f0406297:	68 40 15 41 f0       	push   $0xf0411540
f040629c:	e8 ae f1 ff ff       	call   f040544f <load_idt>
f04062a1:	83 c4 10             	add    $0x10,%esp
f04062a4:	90                   	nop
f04062a5:	c9                   	leave
f04062a6:	c3                   	ret

f04062a7 <karch_set_idt>:
f04062a7:	55                   	push   %ebp
f04062a8:	89 e5                	mov    %esp,%ebp
f04062aa:	83 ec 14             	sub    $0x14,%esp
f04062ad:	8b 45 08             	mov    0x8(%ebp),%eax
f04062b0:	88 45 ec             	mov    %al,-0x14(%ebp)
f04062b3:	0f b6 45 ec          	movzbl -0x14(%ebp),%eax
f04062b7:	c1 e0 03             	shl    $0x3,%eax
f04062ba:	05 48 15 41 f0       	add    $0xf0411548,%eax
f04062bf:	89 45 fc             	mov    %eax,-0x4(%ebp)
f04062c2:	8b 45 0c             	mov    0xc(%ebp),%eax
f04062c5:	89 c2                	mov    %eax,%edx
f04062c7:	8b 45 fc             	mov    -0x4(%ebp),%eax
f04062ca:	66 89 10             	mov    %dx,(%eax)
f04062cd:	8b 45 0c             	mov    0xc(%ebp),%eax
f04062d0:	c1 e8 10             	shr    $0x10,%eax
f04062d3:	89 c2                	mov    %eax,%edx
f04062d5:	8b 45 fc             	mov    -0x4(%ebp),%eax
f04062d8:	66 89 50 06          	mov    %dx,0x6(%eax)
f04062dc:	8b 45 fc             	mov    -0x4(%ebp),%eax
f04062df:	66 c7 40 02 08 00    	movw   $0x8,0x2(%eax)
f04062e5:	8b 45 10             	mov    0x10(%ebp),%eax
f04062e8:	89 c2                	mov    %eax,%edx
f04062ea:	8b 45 fc             	mov    -0x4(%ebp),%eax
f04062ed:	88 50 05             	mov    %dl,0x5(%eax)
f04062f0:	90                   	nop
f04062f1:	c9                   	leave
f04062f2:	c3                   	ret

f04062f3 <karch_load_idt_gatevec>:
f04062f3:	55                   	push   %ebp
f04062f4:	89 e5                	mov    %esp,%ebp
f04062f6:	53                   	push   %ebx
f04062f7:	83 ec 14             	sub    $0x14,%esp
f04062fa:	8b 45 0c             	mov    0xc(%ebp),%eax
f04062fd:	88 45 e8             	mov    %al,-0x18(%ebp)
f0406300:	eb 3f                	jmp    f0406341 <karch_load_idt_gatevec+0x4e>
f0406302:	8b 45 08             	mov    0x8(%ebp),%eax
f0406305:	8d 50 08             	lea    0x8(%eax),%edx
f0406308:	89 55 08             	mov    %edx,0x8(%ebp)
f040630b:	89 45 f8             	mov    %eax,-0x8(%ebp)
f040630e:	8b 45 f8             	mov    -0x8(%ebp),%eax
f0406311:	0f b6 40 05          	movzbl 0x5(%eax),%eax
f0406315:	0f b6 c0             	movzbl %al,%eax
f0406318:	c1 e0 05             	shl    $0x5,%eax
f040631b:	0c 8e                	or     $0x8e,%al
f040631d:	89 c1                	mov    %eax,%ecx
f040631f:	8b 45 f8             	mov    -0x8(%ebp),%eax
f0406322:	8b 00                	mov    (%eax),%eax
f0406324:	89 c2                	mov    %eax,%edx
f0406326:	8b 45 f8             	mov    -0x8(%ebp),%eax
f0406329:	0f b6 58 04          	movzbl 0x4(%eax),%ebx
f040632d:	0f b6 45 e8          	movzbl -0x18(%ebp),%eax
f0406331:	01 d8                	add    %ebx,%eax
f0406333:	0f b6 c0             	movzbl %al,%eax
f0406336:	51                   	push   %ecx
f0406337:	52                   	push   %edx
f0406338:	50                   	push   %eax
f0406339:	e8 69 ff ff ff       	call   f04062a7 <karch_set_idt>
f040633e:	83 c4 0c             	add    $0xc,%esp
f0406341:	83 7d 08 00          	cmpl   $0x0,0x8(%ebp)
f0406345:	74 09                	je     f0406350 <karch_load_idt_gatevec+0x5d>
f0406347:	8b 45 08             	mov    0x8(%ebp),%eax
f040634a:	8b 00                	mov    (%eax),%eax
f040634c:	85 c0                	test   %eax,%eax
f040634e:	75 b2                	jne    f0406302 <karch_load_idt_gatevec+0xf>
f0406350:	90                   	nop
f0406351:	8b 5d fc             	mov    -0x4(%ebp),%ebx
f0406354:	c9                   	leave
f0406355:	c3                   	ret

f0406356 <karch_init_page>:
f0406356:	55                   	push   %ebp
f0406357:	89 e5                	mov    %esp,%ebp
f0406359:	83 ec 08             	sub    $0x8,%esp
f040635c:	83 ec 0c             	sub    $0xc,%esp
f040635f:	ff 75 08             	push   0x8(%ebp)
f0406362:	e8 29 00 00 00       	call   f0406390 <karch_page_identity>
f0406367:	83 c4 10             	add    $0x10,%esp
f040636a:	83 ec 0c             	sub    $0xc,%esp
f040636d:	ff 75 08             	push   0x8(%ebp)
f0406370:	e8 7f 00 00 00       	call   f04063f4 <karch_page_remap_kernel>
f0406375:	83 c4 10             	add    $0x10,%esp
f0406378:	8b 45 08             	mov    0x8(%ebp),%eax
f040637b:	8b 80 24 03 00 00    	mov    0x324(%eax),%eax
f0406381:	83 ec 0c             	sub    $0xc,%esp
f0406384:	50                   	push   %eax
f0406385:	e8 33 f0 ff ff       	call   f04053bd <write_cr3>
f040638a:	83 c4 10             	add    $0x10,%esp
f040638d:	90                   	nop
f040638e:	c9                   	leave
f040638f:	c3                   	ret

f0406390 <karch_page_identity>:
f0406390:	55                   	push   %ebp
f0406391:	89 e5                	mov    %esp,%ebp
f0406393:	83 ec 10             	sub    $0x10,%esp
f0406396:	c7 45 fc 00 00 00 00 	movl   $0x0,-0x4(%ebp)
f040639d:	eb 48                	jmp    f04063e7 <karch_page_identity+0x57>
f040639f:	c7 45 f8 87 00 00 00 	movl   $0x87,-0x8(%ebp)
f04063a6:	8b 45 fc             	mov    -0x4(%ebp),%eax
f04063a9:	c1 e0 16             	shl    $0x16,%eax
f04063ac:	89 45 f4             	mov    %eax,-0xc(%ebp)
f04063af:	8b 45 08             	mov    0x8(%ebp),%eax
f04063b2:	8b 00                	mov    (%eax),%eax
f04063b4:	25 00 00 c0 ff       	and    $0xffc00000,%eax
f04063b9:	8b 55 f4             	mov    -0xc(%ebp),%edx
f04063bc:	81 e2 00 00 c0 ff    	and    $0xffc00000,%edx
f04063c2:	39 c2                	cmp    %eax,%edx
f04063c4:	72 04                	jb     f04063ca <karch_page_identity+0x3a>
f04063c6:	83 4d f8 18          	orl    $0x18,-0x8(%ebp)
f04063ca:	8b 45 08             	mov    0x8(%ebp),%eax
f04063cd:	8b 80 24 03 00 00    	mov    0x324(%eax),%eax
f04063d3:	8b 55 fc             	mov    -0x4(%ebp),%edx
f04063d6:	c1 e2 02             	shl    $0x2,%edx
f04063d9:	01 c2                	add    %eax,%edx
f04063db:	8b 45 f4             	mov    -0xc(%ebp),%eax
f04063de:	0b 45 f8             	or     -0x8(%ebp),%eax
f04063e1:	89 02                	mov    %eax,(%edx)
f04063e3:	83 45 fc 01          	addl   $0x1,-0x4(%ebp)
f04063e7:	81 7d fc ff 03 00 00 	cmpl   $0x3ff,-0x4(%ebp)
f04063ee:	76 af                	jbe    f040639f <karch_page_identity+0xf>
f04063f0:	90                   	nop
f04063f1:	90                   	nop
f04063f2:	c9                   	leave
f04063f3:	c3                   	ret

f04063f4 <karch_page_remap_kernel>:
f04063f4:	55                   	push   %ebp
f04063f5:	89 e5                	mov    %esp,%ebp
f04063f7:	83 ec 10             	sub    $0x10,%esp
f04063fa:	c7 45 fc 00 00 00 00 	movl   $0x0,-0x4(%ebp)
f0406401:	c7 45 f8 00 00 40 00 	movl   $0x400000,-0x8(%ebp)
f0406408:	b8 00 00 40 f0       	mov    $0xf0400000,%eax
f040640d:	c1 e8 16             	shr    $0x16,%eax
f0406410:	89 45 f4             	mov    %eax,-0xc(%ebp)
f0406413:	eb 2b                	jmp    f0406440 <karch_page_remap_kernel+0x4c>
f0406415:	8b 45 08             	mov    0x8(%ebp),%eax
f0406418:	8b 80 24 03 00 00    	mov    0x324(%eax),%eax
f040641e:	8b 55 f4             	mov    -0xc(%ebp),%edx
f0406421:	c1 e2 02             	shl    $0x2,%edx
f0406424:	01 d0                	add    %edx,%eax
f0406426:	8b 55 f8             	mov    -0x8(%ebp),%edx
f0406429:	80 ca 83             	or     $0x83,%dl
f040642c:	89 10                	mov    %edx,(%eax)
f040642e:	81 45 fc 00 00 40 00 	addl   $0x400000,-0x4(%ebp)
f0406435:	81 45 f8 00 00 40 00 	addl   $0x400000,-0x8(%ebp)
f040643c:	83 45 f4 01          	addl   $0x1,-0xc(%ebp)
f0406440:	b8 5c 24 01 00       	mov    $0x1245c,%eax
f0406445:	39 45 fc             	cmp    %eax,-0x4(%ebp)
f0406448:	72 cb                	jb     f0406415 <karch_page_remap_kernel+0x21>
f040644a:	8b 45 08             	mov    0x8(%ebp),%eax
f040644d:	8b 55 f4             	mov    -0xc(%ebp),%edx
f0406450:	89 90 28 03 00 00    	mov    %edx,0x328(%eax)
f0406456:	90                   	nop
f0406457:	c9                   	leave
f0406458:	c3                   	ret

f0406459 <karch_init_tss>:
f0406459:	55                   	push   %ebp
f040645a:	89 e5                	mov    %esp,%ebp
f040645c:	83 ec 08             	sub    $0x8,%esp
f040645f:	83 ec 04             	sub    $0x4,%esp
f0406462:	68 c0 06 00 00       	push   $0x6c0
f0406467:	6a 00                	push   $0x0
f0406469:	68 48 1d 41 f0       	push   $0xf0411d48
f040646e:	e8 f3 08 00 00       	call   f0406d66 <kmemset>
f0406473:	83 c4 10             	add    $0x10,%esp
f0406476:	83 ec 04             	sub    $0x4,%esp
f0406479:	6a 40                	push   $0x40
f040647b:	6a 00                	push   $0x0
f040647d:	68 08 24 41 f0       	push   $0xf0412408
f0406482:	e8 df 08 00 00       	call   f0406d66 <kmemset>
f0406487:	83 c4 10             	add    $0x10,%esp
f040648a:	c6 05 48 24 41 f0 00 	movb   $0x0,0xf0412448
f0406491:	83 ec 0c             	sub    $0xc,%esp
f0406494:	6a 11                	push   $0x11
f0406496:	e8 70 ec ff ff       	call   f040510b <kcpuinfo>
f040649b:	83 c4 10             	add    $0x10,%esp
f040649e:	85 c0                	test   %eax,%eax
f04064a0:	0f 95 c0             	setne  %al
f04064a3:	0f b6 c0             	movzbl %al,%eax
f04064a6:	89 c2                	mov    %eax,%edx
f04064a8:	0f b6 05 48 24 41 f0 	movzbl 0xf0412448,%eax
f04064af:	09 d0                	or     %edx,%eax
f04064b1:	a2 48 24 41 f0       	mov    %al,0xf0412448
f04064b6:	83 ec 0c             	sub    $0xc,%esp
f04064b9:	6a 12                	push   $0x12
f04064bb:	e8 4b ec ff ff       	call   f040510b <kcpuinfo>
f04064c0:	83 c4 10             	add    $0x10,%esp
f04064c3:	85 c0                	test   %eax,%eax
f04064c5:	74 07                	je     f04064ce <karch_init_tss+0x75>
f04064c7:	b8 02 00 00 00       	mov    $0x2,%eax
f04064cc:	eb 05                	jmp    f04064d3 <karch_init_tss+0x7a>
f04064ce:	b8 00 00 00 00       	mov    $0x0,%eax
f04064d3:	89 c2                	mov    %eax,%edx
f04064d5:	0f b6 05 48 24 41 f0 	movzbl 0xf0412448,%eax
f04064dc:	09 d0                	or     %edx,%eax
f04064de:	a2 48 24 41 f0       	mov    %al,0xf0412448
f04064e3:	83 ec 08             	sub    $0x8,%esp
f04064e6:	68 00 10 41 f0       	push   $0xf0411000
f04064eb:	6a 00                	push   $0x0
f04064ed:	e8 2d 00 00 00       	call   f040651f <karch_setup_tss>
f04064f2:	83 c4 10             	add    $0x10,%esp
f04064f5:	90                   	nop
f04064f6:	c9                   	leave
f04064f7:	c3                   	ret

f04064f8 <karch_get_tss>:
f04064f8:	55                   	push   %ebp
f04064f9:	89 e5                	mov    %esp,%ebp
f04064fb:	83 ec 04             	sub    $0x4,%esp
f04064fe:	8b 45 08             	mov    0x8(%ebp),%eax
f0406501:	88 45 fc             	mov    %al,-0x4(%ebp)
f0406504:	80 7d fc 0f          	cmpb   $0xf,-0x4(%ebp)
f0406508:	76 07                	jbe    f0406511 <karch_get_tss+0x19>
f040650a:	b8 00 00 00 00       	mov    $0x0,%eax
f040650f:	eb 0c                	jmp    f040651d <karch_get_tss+0x25>
f0406511:	0f b6 45 fc          	movzbl -0x4(%ebp),%eax
f0406515:	6b c0 6c             	imul   $0x6c,%eax,%eax
f0406518:	05 48 1d 41 f0       	add    $0xf0411d48,%eax
f040651d:	c9                   	leave
f040651e:	c3                   	ret

f040651f <karch_setup_tss>:
f040651f:	55                   	push   %ebp
f0406520:	89 e5                	mov    %esp,%ebp
f0406522:	83 ec 38             	sub    $0x38,%esp
f0406525:	8b 45 08             	mov    0x8(%ebp),%eax
f0406528:	88 45 d4             	mov    %al,-0x2c(%ebp)
f040652b:	0f b6 45 d4          	movzbl -0x2c(%ebp),%eax
f040652f:	50                   	push   %eax
f0406530:	e8 c3 ff ff ff       	call   f04064f8 <karch_get_tss>
f0406535:	83 c4 04             	add    $0x4,%esp
f0406538:	89 45 f4             	mov    %eax,-0xc(%ebp)
f040653b:	0f b6 45 d4          	movzbl -0x2c(%ebp),%eax
f040653f:	83 c0 06             	add    $0x6,%eax
f0406542:	0f b6 c0             	movzbl %al,%eax
f0406545:	83 ec 0c             	sub    $0xc,%esp
f0406548:	50                   	push   %eax
f0406549:	e8 25 f5 ff ff       	call   f0405a73 <karch_get_gdt>
f040654e:	83 c4 10             	add    $0x10,%esp
f0406551:	89 45 f0             	mov    %eax,-0x10(%ebp)
f0406554:	83 7d f0 00          	cmpl   $0x0,-0x10(%ebp)
f0406558:	74 06                	je     f0406560 <karch_setup_tss+0x41>
f040655a:	83 7d 0c 00          	cmpl   $0x0,0xc(%ebp)
f040655e:	75 0a                	jne    f040656a <karch_setup_tss+0x4b>
f0406560:	b8 00 00 00 00       	mov    $0x0,%eax
f0406565:	e9 66 01 00 00       	jmp    f04066d0 <karch_setup_tss+0x1b1>
f040656a:	8b 45 0c             	mov    0xc(%ebp),%eax
f040656d:	83 e8 08             	sub    $0x8,%eax
f0406570:	89 45 ec             	mov    %eax,-0x14(%ebp)
f0406573:	8b 45 f4             	mov    -0xc(%ebp),%eax
f0406576:	6a 00                	push   $0x0
f0406578:	6a 6c                	push   $0x6c
f040657a:	50                   	push   %eax
f040657b:	ff 75 f0             	push   -0x10(%ebp)
f040657e:	e8 9e f5 ff ff       	call   f0405b21 <karch_set_gdt_data>
f0406583:	83 c4 10             	add    $0x10,%esp
f0406586:	8b 45 f0             	mov    -0x10(%ebp),%eax
f0406589:	c6 40 05 89          	movb   $0x89,0x5(%eax)
f040658d:	83 ec 04             	sub    $0x4,%esp
f0406590:	6a 6c                	push   $0x6c
f0406592:	6a 00                	push   $0x0
f0406594:	ff 75 f4             	push   -0xc(%ebp)
f0406597:	e8 ca 07 00 00       	call   f0406d66 <kmemset>
f040659c:	83 c4 10             	add    $0x10,%esp
f040659f:	8b 45 f4             	mov    -0xc(%ebp),%eax
f04065a2:	c7 40 08 02 00 00 00 	movl   $0x2,0x8(%eax)
f04065a9:	8b 45 f4             	mov    -0xc(%ebp),%eax
f04065ac:	8b 50 08             	mov    0x8(%eax),%edx
f04065af:	8b 45 f4             	mov    -0xc(%ebp),%eax
f04065b2:	89 50 5c             	mov    %edx,0x5c(%eax)
f04065b5:	8b 45 f4             	mov    -0xc(%ebp),%eax
f04065b8:	8b 50 5c             	mov    0x5c(%eax),%edx
f04065bb:	8b 45 f4             	mov    -0xc(%ebp),%eax
f04065be:	89 50 58             	mov    %edx,0x58(%eax)
f04065c1:	8b 45 f4             	mov    -0xc(%ebp),%eax
f04065c4:	8b 50 58             	mov    0x58(%eax),%edx
f04065c7:	8b 45 f4             	mov    -0xc(%ebp),%eax
f04065ca:	89 50 48             	mov    %edx,0x48(%eax)
f04065cd:	8b 45 f4             	mov    -0xc(%ebp),%eax
f04065d0:	8b 50 48             	mov    0x48(%eax),%edx
f04065d3:	8b 45 f4             	mov    -0xc(%ebp),%eax
f04065d6:	89 50 54             	mov    %edx,0x54(%eax)
f04065d9:	8b 45 f4             	mov    -0xc(%ebp),%eax
f04065dc:	c7 40 4c 01 00 00 00 	movl   $0x1,0x4c(%eax)
f04065e3:	8b 45 f4             	mov    -0xc(%ebp),%eax
f04065e6:	c7 40 68 6c 00 00 00 	movl   $0x6c,0x68(%eax)
f04065ed:	0f b6 45 d4          	movzbl -0x2c(%ebp),%eax
f04065f1:	8b 55 ec             	mov    -0x14(%ebp),%edx
f04065f4:	89 14 85 08 24 41 f0 	mov    %edx,-0xfbedbf8(,%eax,4)
f04065fb:	8b 04 85 08 24 41 f0 	mov    -0xfbedbf8(,%eax,4),%eax
f0406602:	89 c2                	mov    %eax,%edx
f0406604:	8b 45 f4             	mov    -0xc(%ebp),%eax
f0406607:	89 50 04             	mov    %edx,0x4(%eax)
f040660a:	0f b6 55 d4          	movzbl -0x2c(%ebp),%edx
f040660e:	8b 45 ec             	mov    -0x14(%ebp),%eax
f0406611:	89 50 04             	mov    %edx,0x4(%eax)
f0406614:	8b 45 ec             	mov    -0x14(%ebp),%eax
f0406617:	c7 00 00 00 00 00    	movl   $0x0,(%eax)
f040661d:	0f b6 05 48 24 41 f0 	movzbl 0xf0412448,%eax
f0406624:	0f b6 c0             	movzbl %al,%eax
f0406627:	83 e0 01             	and    $0x1,%eax
f040662a:	85 c0                	test   %eax,%eax
f040662c:	74 41                	je     f040666f <karch_setup_tss+0x150>
f040662e:	83 ec 04             	sub    $0x4,%esp
f0406631:	6a 08                	push   $0x8
f0406633:	6a 00                	push   $0x0
f0406635:	68 74 01 00 00       	push   $0x174
f040663a:	e8 f1 ed ff ff       	call   f0405430 <write_msr>
f040663f:	83 c4 10             	add    $0x10,%esp
f0406642:	8b 45 f4             	mov    -0xc(%ebp),%eax
f0406645:	8b 40 04             	mov    0x4(%eax),%eax
f0406648:	83 ec 04             	sub    $0x4,%esp
f040664b:	50                   	push   %eax
f040664c:	6a 00                	push   $0x0
f040664e:	68 75 01 00 00       	push   $0x175
f0406653:	e8 d8 ed ff ff       	call   f0405430 <write_msr>
f0406658:	83 c4 10             	add    $0x10,%esp
f040665b:	83 ec 04             	sub    $0x4,%esp
f040665e:	6a 00                	push   $0x0
f0406660:	6a 00                	push   $0x0
f0406662:	68 76 01 00 00       	push   $0x176
f0406667:	e8 c4 ed ff ff       	call   f0405430 <write_msr>
f040666c:	83 c4 10             	add    $0x10,%esp
f040666f:	0f b6 05 48 24 41 f0 	movzbl 0xf0412448,%eax
f0406676:	0f b6 c0             	movzbl %al,%eax
f0406679:	83 e0 02             	and    $0x2,%eax
f040667c:	85 c0                	test   %eax,%eax
f040667e:	74 50                	je     f04066d0 <karch_setup_tss+0x1b1>
f0406680:	83 ec 04             	sub    $0x4,%esp
f0406683:	8d 45 e8             	lea    -0x18(%ebp),%eax
f0406686:	50                   	push   %eax
f0406687:	8d 45 e4             	lea    -0x1c(%ebp),%eax
f040668a:	50                   	push   %eax
f040668b:	68 80 00 00 c0       	push   $0xc0000080
f0406690:	e8 85 ed ff ff       	call   f040541a <read_msr>
f0406695:	83 c4 10             	add    $0x10,%esp
f0406698:	8b 45 e8             	mov    -0x18(%ebp),%eax
f040669b:	83 c8 01             	or     $0x1,%eax
f040669e:	89 45 e8             	mov    %eax,-0x18(%ebp)
f04066a1:	8b 55 e8             	mov    -0x18(%ebp),%edx
f04066a4:	8b 45 e4             	mov    -0x1c(%ebp),%eax
f04066a7:	83 ec 04             	sub    $0x4,%esp
f04066aa:	52                   	push   %edx
f04066ab:	50                   	push   %eax
f04066ac:	68 80 00 00 c0       	push   $0xc0000080
f04066b1:	e8 7a ed ff ff       	call   f0405430 <write_msr>
f04066b6:	83 c4 10             	add    $0x10,%esp
f04066b9:	83 ec 04             	sub    $0x4,%esp
f04066bc:	6a 00                	push   $0x0
f04066be:	68 08 00 1b 00       	push   $0x1b0008
f04066c3:	68 81 00 00 c0       	push   $0xc0000081
f04066c8:	e8 63 ed ff ff       	call   f0405430 <write_msr>
f04066cd:	83 c4 10             	add    $0x10,%esp
f04066d0:	c9                   	leave
f04066d1:	c3                   	ret

f04066d2 <karch_init_acpi>:
f04066d2:	55                   	push   %ebp
f04066d3:	89 e5                	mov    %esp,%ebp
f04066d5:	83 ec 18             	sub    $0x18,%esp
f04066d8:	66 c7 05 58 24 41 f0 	movw   $0x0,0xf0412458
f04066df:	00 00 
f04066e1:	66 c7 05 5a 24 41 f0 	movw   $0x0,0xf041245a
f04066e8:	00 00 
f04066ea:	83 ec 0c             	sub    $0xc,%esp
f04066ed:	8d 45 f3             	lea    -0xd(%ebp),%eax
f04066f0:	50                   	push   %eax
f04066f1:	e8 bf 03 00 00       	call   f0406ab5 <karch_acpi_find_rsdp>
f04066f6:	83 c4 10             	add    $0x10,%esp
f04066f9:	89 45 f4             	mov    %eax,-0xc(%ebp)
f04066fc:	83 7d f4 00          	cmpl   $0x0,-0xc(%ebp)
f0406700:	75 1b                	jne    f040671d <karch_init_acpi+0x4b>
f0406702:	c7 05 4c 24 41 f0 00 	movl   $0x0,0xf041244c
f0406709:	00 00 00 
f040670c:	c7 05 50 24 41 f0 00 	movl   $0x0,0xf0412450
f0406713:	00 00 00 
f0406716:	b8 00 00 00 00       	mov    $0x0,%eax
f040671b:	eb 62                	jmp    f040677f <karch_init_acpi+0xad>
f040671d:	0f b6 45 f3          	movzbl -0xd(%ebp),%eax
f0406721:	84 c0                	test   %al,%al
f0406723:	75 17                	jne    f040673c <karch_init_acpi+0x6a>
f0406725:	8b 45 f4             	mov    -0xc(%ebp),%eax
f0406728:	8b 40 10             	mov    0x10(%eax),%eax
f040672b:	a3 4c 24 41 f0       	mov    %eax,0xf041244c
f0406730:	c7 05 50 24 41 f0 04 	movl   $0x4,0xf0412450
f0406737:	00 00 00 
f040673a:	eb 15                	jmp    f0406751 <karch_init_acpi+0x7f>
f040673c:	8b 45 f4             	mov    -0xc(%ebp),%eax
f040673f:	8b 40 10             	mov    0x10(%eax),%eax
f0406742:	a3 4c 24 41 f0       	mov    %eax,0xf041244c
f0406747:	c7 05 50 24 41 f0 08 	movl   $0x8,0xf0412450
f040674e:	00 00 00 
f0406751:	e8 e9 03 00 00       	call   f0406b3f <karch_acpi_check_rsdt>
f0406756:	84 c0                	test   %al,%al
f0406758:	75 1b                	jne    f0406775 <karch_init_acpi+0xa3>
f040675a:	c7 05 4c 24 41 f0 00 	movl   $0x0,0xf041244c
f0406761:	00 00 00 
f0406764:	c7 05 50 24 41 f0 00 	movl   $0x0,0xf0412450
f040676b:	00 00 00 
f040676e:	b8 00 00 00 00       	mov    $0x0,%eax
f0406773:	eb 0a                	jmp    f040677f <karch_init_acpi+0xad>
f0406775:	e8 07 00 00 00       	call   f0406781 <karch_acpi_prepare_poweroff>
f040677a:	b8 01 00 00 00       	mov    $0x1,%eax
f040677f:	c9                   	leave
f0406780:	c3                   	ret

f0406781 <karch_acpi_prepare_poweroff>:
f0406781:	55                   	push   %ebp
f0406782:	89 e5                	mov    %esp,%ebp
f0406784:	83 ec 28             	sub    $0x28,%esp
f0406787:	e8 f5 04 00 00       	call   f0406c81 <karch_acpi_find_fadt>
f040678c:	89 45 f0             	mov    %eax,-0x10(%ebp)
f040678f:	83 7d f0 00          	cmpl   $0x0,-0x10(%ebp)
f0406793:	0f 84 48 01 00 00    	je     f04068e1 <karch_acpi_prepare_poweroff+0x160>
f0406799:	8b 45 f0             	mov    -0x10(%ebp),%eax
f040679c:	8b 40 28             	mov    0x28(%eax),%eax
f040679f:	89 45 ec             	mov    %eax,-0x14(%ebp)
f04067a2:	83 7d ec 00          	cmpl   $0x0,-0x14(%ebp)
f04067a6:	0f 84 38 01 00 00    	je     f04068e4 <karch_acpi_prepare_poweroff+0x163>
f04067ac:	8b 45 ec             	mov    -0x14(%ebp),%eax
f04067af:	83 c0 24             	add    $0x24,%eax
f04067b2:	89 45 f4             	mov    %eax,-0xc(%ebp)
f04067b5:	8b 45 ec             	mov    -0x14(%ebp),%eax
f04067b8:	8b 40 04             	mov    0x4(%eax),%eax
f04067bb:	8d 50 fc             	lea    -0x4(%eax),%edx
f04067be:	8b 45 f4             	mov    -0xc(%ebp),%eax
f04067c1:	01 d0                	add    %edx,%eax
f04067c3:	89 45 e8             	mov    %eax,-0x18(%ebp)
f04067c6:	8b 45 f4             	mov    -0xc(%ebp),%eax
f04067c9:	89 45 e4             	mov    %eax,-0x1c(%ebp)
f04067cc:	eb 04                	jmp    f04067d2 <karch_acpi_prepare_poweroff+0x51>
f04067ce:	83 45 f4 01          	addl   $0x1,-0xc(%ebp)
f04067d2:	8b 45 f4             	mov    -0xc(%ebp),%eax
f04067d5:	3b 45 e8             	cmp    -0x18(%ebp),%eax
f04067d8:	73 19                	jae    f04067f3 <karch_acpi_prepare_poweroff+0x72>
f04067da:	83 ec 04             	sub    $0x4,%esp
f04067dd:	6a 04                	push   $0x4
f04067df:	68 a8 71 40 f0       	push   $0xf04071a8
f04067e4:	ff 75 f4             	push   -0xc(%ebp)
f04067e7:	e8 f4 06 00 00       	call   f0406ee0 <kmemcmp>
f04067ec:	83 c4 10             	add    $0x10,%esp
f04067ef:	85 c0                	test   %eax,%eax
f04067f1:	75 db                	jne    f04067ce <karch_acpi_prepare_poweroff+0x4d>
f04067f3:	8b 45 f4             	mov    -0xc(%ebp),%eax
f04067f6:	3b 45 e8             	cmp    -0x18(%ebp),%eax
f04067f9:	0f 83 e8 00 00 00    	jae    f04068e7 <karch_acpi_prepare_poweroff+0x166>
f04067ff:	8b 45 f4             	mov    -0xc(%ebp),%eax
f0406802:	3b 45 e4             	cmp    -0x1c(%ebp),%eax
f0406805:	0f 84 dc 00 00 00    	je     f04068e7 <karch_acpi_prepare_poweroff+0x166>
f040680b:	8b 45 f4             	mov    -0xc(%ebp),%eax
f040680e:	83 c0 04             	add    $0x4,%eax
f0406811:	0f b6 00             	movzbl (%eax),%eax
f0406814:	3c 12                	cmp    $0x12,%al
f0406816:	0f 85 ce 00 00 00    	jne    f04068ea <karch_acpi_prepare_poweroff+0x169>
f040681c:	8b 45 e4             	mov    -0x1c(%ebp),%eax
f040681f:	83 c0 02             	add    $0x2,%eax
f0406822:	85 c0                	test   %eax,%eax
f0406824:	75 1a                	jne    f0406840 <karch_acpi_prepare_poweroff+0xbf>
f0406826:	8b 45 f4             	mov    -0xc(%ebp),%eax
f0406829:	83 e8 02             	sub    $0x2,%eax
f040682c:	0f b6 00             	movzbl (%eax),%eax
f040682f:	3c 08                	cmp    $0x8,%al
f0406831:	75 0d                	jne    f0406840 <karch_acpi_prepare_poweroff+0xbf>
f0406833:	8b 45 f4             	mov    -0xc(%ebp),%eax
f0406836:	83 e8 01             	sub    $0x1,%eax
f0406839:	0f b6 00             	movzbl (%eax),%eax
f040683c:	3c 5c                	cmp    $0x5c,%al
f040683e:	74 11                	je     f0406851 <karch_acpi_prepare_poweroff+0xd0>
f0406840:	8b 45 f4             	mov    -0xc(%ebp),%eax
f0406843:	83 e8 01             	sub    $0x1,%eax
f0406846:	0f b6 00             	movzbl (%eax),%eax
f0406849:	3c 08                	cmp    $0x8,%al
f040684b:	0f 85 9c 00 00 00    	jne    f04068ed <karch_acpi_prepare_poweroff+0x16c>
f0406851:	83 45 f4 05          	addl   $0x5,-0xc(%ebp)
f0406855:	8b 45 f4             	mov    -0xc(%ebp),%eax
f0406858:	3b 45 e8             	cmp    -0x18(%ebp),%eax
f040685b:	0f 83 8f 00 00 00    	jae    f04068f0 <karch_acpi_prepare_poweroff+0x16f>
f0406861:	8b 45 f4             	mov    -0xc(%ebp),%eax
f0406864:	0f b6 00             	movzbl (%eax),%eax
f0406867:	c0 e8 06             	shr    $0x6,%al
f040686a:	0f b6 c0             	movzbl %al,%eax
f040686d:	83 c0 02             	add    $0x2,%eax
f0406870:	01 45 f4             	add    %eax,-0xc(%ebp)
f0406873:	8b 45 f4             	mov    -0xc(%ebp),%eax
f0406876:	3b 45 e8             	cmp    -0x18(%ebp),%eax
f0406879:	73 78                	jae    f04068f3 <karch_acpi_prepare_poweroff+0x172>
f040687b:	8b 45 f4             	mov    -0xc(%ebp),%eax
f040687e:	0f b6 00             	movzbl (%eax),%eax
f0406881:	3c 0a                	cmp    $0xa,%al
f0406883:	75 04                	jne    f0406889 <karch_acpi_prepare_poweroff+0x108>
f0406885:	83 45 f4 01          	addl   $0x1,-0xc(%ebp)
f0406889:	8b 45 f4             	mov    -0xc(%ebp),%eax
f040688c:	8d 50 01             	lea    0x1(%eax),%edx
f040688f:	89 55 f4             	mov    %edx,-0xc(%ebp)
f0406892:	0f b6 00             	movzbl (%eax),%eax
f0406895:	0f b6 c0             	movzbl %al,%eax
f0406898:	c1 e0 0a             	shl    $0xa,%eax
f040689b:	66 a3 54 24 41 f0    	mov    %ax,0xf0412454
f04068a1:	8b 45 f4             	mov    -0xc(%ebp),%eax
f04068a4:	0f b6 00             	movzbl (%eax),%eax
f04068a7:	3c 0a                	cmp    $0xa,%al
f04068a9:	75 04                	jne    f04068af <karch_acpi_prepare_poweroff+0x12e>
f04068ab:	83 45 f4 01          	addl   $0x1,-0xc(%ebp)
f04068af:	8b 45 f4             	mov    -0xc(%ebp),%eax
f04068b2:	8d 50 01             	lea    0x1(%eax),%edx
f04068b5:	89 55 f4             	mov    %edx,-0xc(%ebp)
f04068b8:	0f b6 00             	movzbl (%eax),%eax
f04068bb:	0f b6 c0             	movzbl %al,%eax
f04068be:	c1 e0 0a             	shl    $0xa,%eax
f04068c1:	66 a3 56 24 41 f0    	mov    %ax,0xf0412456
f04068c7:	8b 45 f0             	mov    -0x10(%ebp),%eax
f04068ca:	8b 40 40             	mov    0x40(%eax),%eax
f04068cd:	66 a3 58 24 41 f0    	mov    %ax,0xf0412458
f04068d3:	8b 45 f0             	mov    -0x10(%ebp),%eax
f04068d6:	8b 40 44             	mov    0x44(%eax),%eax
f04068d9:	66 a3 5a 24 41 f0    	mov    %ax,0xf041245a
f04068df:	eb 13                	jmp    f04068f4 <karch_acpi_prepare_poweroff+0x173>
f04068e1:	90                   	nop
f04068e2:	eb 10                	jmp    f04068f4 <karch_acpi_prepare_poweroff+0x173>
f04068e4:	90                   	nop
f04068e5:	eb 0d                	jmp    f04068f4 <karch_acpi_prepare_poweroff+0x173>
f04068e7:	90                   	nop
f04068e8:	eb 0a                	jmp    f04068f4 <karch_acpi_prepare_poweroff+0x173>
f04068ea:	90                   	nop
f04068eb:	eb 07                	jmp    f04068f4 <karch_acpi_prepare_poweroff+0x173>
f04068ed:	90                   	nop
f04068ee:	eb 04                	jmp    f04068f4 <karch_acpi_prepare_poweroff+0x173>
f04068f0:	90                   	nop
f04068f1:	eb 01                	jmp    f04068f4 <karch_acpi_prepare_poweroff+0x173>
f04068f3:	90                   	nop
f04068f4:	c9                   	leave
f04068f5:	c3                   	ret

f04068f6 <karch_acpi_supported>:
f04068f6:	55                   	push   %ebp
f04068f7:	89 e5                	mov    %esp,%ebp
f04068f9:	a1 4c 24 41 f0       	mov    0xf041244c,%eax
f04068fe:	85 c0                	test   %eax,%eax
f0406900:	74 10                	je     f0406912 <karch_acpi_supported+0x1c>
f0406902:	a1 50 24 41 f0       	mov    0xf0412450,%eax
f0406907:	85 c0                	test   %eax,%eax
f0406909:	74 07                	je     f0406912 <karch_acpi_supported+0x1c>
f040690b:	b8 01 00 00 00       	mov    $0x1,%eax
f0406910:	eb 05                	jmp    f0406917 <karch_acpi_supported+0x21>
f0406912:	b8 00 00 00 00       	mov    $0x0,%eax
f0406917:	5d                   	pop    %ebp
f0406918:	c3                   	ret

f0406919 <karch_acpi_poweroff>:
f0406919:	55                   	push   %ebp
f040691a:	89 e5                	mov    %esp,%ebp
f040691c:	83 ec 08             	sub    $0x8,%esp
f040691f:	0f b7 05 58 24 41 f0 	movzwl 0xf0412458,%eax
f0406926:	66 85 c0             	test   %ax,%ax
f0406929:	75 07                	jne    f0406932 <karch_acpi_poweroff+0x19>
f040692b:	b8 00 00 00 00       	mov    $0x0,%eax
f0406930:	eb 59                	jmp    f040698b <karch_acpi_poweroff+0x72>
f0406932:	0f b7 05 54 24 41 f0 	movzwl 0xf0412454,%eax
f0406939:	80 cc 20             	or     $0x20,%ah
f040693c:	0f b7 d0             	movzwl %ax,%edx
f040693f:	0f b7 05 58 24 41 f0 	movzwl 0xf0412458,%eax
f0406946:	0f b7 c0             	movzwl %ax,%eax
f0406949:	83 ec 08             	sub    $0x8,%esp
f040694c:	52                   	push   %edx
f040694d:	50                   	push   %eax
f040694e:	e8 d6 eb ff ff       	call   f0405529 <cpu_out16>
f0406953:	83 c4 10             	add    $0x10,%esp
f0406956:	0f b7 05 5a 24 41 f0 	movzwl 0xf041245a,%eax
f040695d:	66 85 c0             	test   %ax,%ax
f0406960:	74 24                	je     f0406986 <karch_acpi_poweroff+0x6d>
f0406962:	0f b7 05 56 24 41 f0 	movzwl 0xf0412456,%eax
f0406969:	80 cc 20             	or     $0x20,%ah
f040696c:	0f b7 d0             	movzwl %ax,%edx
f040696f:	0f b7 05 5a 24 41 f0 	movzwl 0xf041245a,%eax
f0406976:	0f b7 c0             	movzwl %ax,%eax
f0406979:	83 ec 08             	sub    $0x8,%esp
f040697c:	52                   	push   %edx
f040697d:	50                   	push   %eax
f040697e:	e8 a6 eb ff ff       	call   f0405529 <cpu_out16>
f0406983:	83 c4 10             	add    $0x10,%esp
f0406986:	b8 01 00 00 00       	mov    $0x1,%eax
f040698b:	c9                   	leave
f040698c:	c3                   	ret

f040698d <karch_acpi_checksum>:
f040698d:	55                   	push   %ebp
f040698e:	89 e5                	mov    %esp,%ebp
f0406990:	83 ec 10             	sub    $0x10,%esp
f0406993:	c6 45 ff 00          	movb   $0x0,-0x1(%ebp)
f0406997:	8b 45 08             	mov    0x8(%ebp),%eax
f040699a:	89 45 f8             	mov    %eax,-0x8(%ebp)
f040699d:	eb 0f                	jmp    f04069ae <karch_acpi_checksum+0x21>
f040699f:	8b 45 f8             	mov    -0x8(%ebp),%eax
f04069a2:	8d 50 01             	lea    0x1(%eax),%edx
f04069a5:	89 55 f8             	mov    %edx,-0x8(%ebp)
f04069a8:	0f b6 00             	movzbl (%eax),%eax
f04069ab:	00 45 ff             	add    %al,-0x1(%ebp)
f04069ae:	8b 45 0c             	mov    0xc(%ebp),%eax
f04069b1:	8d 50 ff             	lea    -0x1(%eax),%edx
f04069b4:	89 55 0c             	mov    %edx,0xc(%ebp)
f04069b7:	85 c0                	test   %eax,%eax
f04069b9:	75 e4                	jne    f040699f <karch_acpi_checksum+0x12>
f04069bb:	0f b6 45 ff          	movzbl -0x1(%ebp),%eax
f04069bf:	c9                   	leave
f04069c0:	c3                   	ret

f04069c1 <karch_acpi_test>:
f04069c1:	55                   	push   %ebp
f04069c2:	89 e5                	mov    %esp,%ebp
f04069c4:	83 ec 08             	sub    $0x8,%esp
f04069c7:	83 7d 08 00          	cmpl   $0x0,0x8(%ebp)
f04069cb:	74 1a                	je     f04069e7 <karch_acpi_test+0x26>
f04069cd:	8b 45 08             	mov    0x8(%ebp),%eax
f04069d0:	83 ec 04             	sub    $0x4,%esp
f04069d3:	6a 08                	push   $0x8
f04069d5:	68 ad 71 40 f0       	push   $0xf04071ad
f04069da:	50                   	push   %eax
f04069db:	e8 00 05 00 00       	call   f0406ee0 <kmemcmp>
f04069e0:	83 c4 10             	add    $0x10,%esp
f04069e3:	85 c0                	test   %eax,%eax
f04069e5:	74 07                	je     f04069ee <karch_acpi_test+0x2d>
f04069e7:	b8 00 00 00 00       	mov    $0x0,%eax
f04069ec:	eb 4b                	jmp    f0406a39 <karch_acpi_test+0x78>
f04069ee:	83 ec 08             	sub    $0x8,%esp
f04069f1:	6a 14                	push   $0x14
f04069f3:	ff 75 08             	push   0x8(%ebp)
f04069f6:	e8 92 ff ff ff       	call   f040698d <karch_acpi_checksum>
f04069fb:	83 c4 10             	add    $0x10,%esp
f04069fe:	84 c0                	test   %al,%al
f0406a00:	74 07                	je     f0406a09 <karch_acpi_test+0x48>
f0406a02:	b8 00 00 00 00       	mov    $0x0,%eax
f0406a07:	eb 30                	jmp    f0406a39 <karch_acpi_test+0x78>
f0406a09:	8b 45 08             	mov    0x8(%ebp),%eax
f0406a0c:	0f b6 40 0f          	movzbl 0xf(%eax),%eax
f0406a10:	3c 01                	cmp    $0x1,%al
f0406a12:	76 20                	jbe    f0406a34 <karch_acpi_test+0x73>
f0406a14:	8b 45 08             	mov    0x8(%ebp),%eax
f0406a17:	8b 40 14             	mov    0x14(%eax),%eax
f0406a1a:	83 ec 08             	sub    $0x8,%esp
f0406a1d:	50                   	push   %eax
f0406a1e:	ff 75 08             	push   0x8(%ebp)
f0406a21:	e8 67 ff ff ff       	call   f040698d <karch_acpi_checksum>
f0406a26:	83 c4 10             	add    $0x10,%esp
f0406a29:	84 c0                	test   %al,%al
f0406a2b:	74 07                	je     f0406a34 <karch_acpi_test+0x73>
f0406a2d:	b8 00 00 00 00       	mov    $0x0,%eax
f0406a32:	eb 05                	jmp    f0406a39 <karch_acpi_test+0x78>
f0406a34:	b8 01 00 00 00       	mov    $0x1,%eax
f0406a39:	c9                   	leave
f0406a3a:	c3                   	ret

f0406a3b <karch_acpi_find_rsdp_r>:
f0406a3b:	55                   	push   %ebp
f0406a3c:	89 e5                	mov    %esp,%ebp
f0406a3e:	83 ec 18             	sub    $0x18,%esp
f0406a41:	8b 45 0c             	mov    0xc(%ebp),%eax
f0406a44:	39 45 10             	cmp    %eax,0x10(%ebp)
f0406a47:	72 0b                	jb     f0406a54 <karch_acpi_find_rsdp_r+0x19>
f0406a49:	8b 45 10             	mov    0x10(%ebp),%eax
f0406a4c:	2b 45 0c             	sub    0xc(%ebp),%eax
f0406a4f:	83 f8 07             	cmp    $0x7,%eax
f0406a52:	77 07                	ja     f0406a5b <karch_acpi_find_rsdp_r+0x20>
f0406a54:	b8 00 00 00 00       	mov    $0x0,%eax
f0406a59:	eb 58                	jmp    f0406ab3 <karch_acpi_find_rsdp_r+0x78>
f0406a5b:	8b 45 10             	mov    0x10(%ebp),%eax
f0406a5e:	83 e8 08             	sub    $0x8,%eax
f0406a61:	89 45 f0             	mov    %eax,-0x10(%ebp)
f0406a64:	8b 45 0c             	mov    0xc(%ebp),%eax
f0406a67:	89 45 f4             	mov    %eax,-0xc(%ebp)
f0406a6a:	eb 3a                	jmp    f0406aa6 <karch_acpi_find_rsdp_r+0x6b>
f0406a6c:	8b 45 f4             	mov    -0xc(%ebp),%eax
f0406a6f:	89 45 ec             	mov    %eax,-0x14(%ebp)
f0406a72:	83 ec 0c             	sub    $0xc,%esp
f0406a75:	ff 75 ec             	push   -0x14(%ebp)
f0406a78:	e8 44 ff ff ff       	call   f04069c1 <karch_acpi_test>
f0406a7d:	83 c4 10             	add    $0x10,%esp
f0406a80:	84 c0                	test   %al,%al
f0406a82:	74 1e                	je     f0406aa2 <karch_acpi_find_rsdp_r+0x67>
f0406a84:	83 7d 08 00          	cmpl   $0x0,0x8(%ebp)
f0406a88:	74 13                	je     f0406a9d <karch_acpi_find_rsdp_r+0x62>
f0406a8a:	8b 45 ec             	mov    -0x14(%ebp),%eax
f0406a8d:	0f b6 40 0f          	movzbl 0xf(%eax),%eax
f0406a91:	84 c0                	test   %al,%al
f0406a93:	0f 95 c0             	setne  %al
f0406a96:	89 c2                	mov    %eax,%edx
f0406a98:	8b 45 08             	mov    0x8(%ebp),%eax
f0406a9b:	88 10                	mov    %dl,(%eax)
f0406a9d:	8b 45 ec             	mov    -0x14(%ebp),%eax
f0406aa0:	eb 11                	jmp    f0406ab3 <karch_acpi_find_rsdp_r+0x78>
f0406aa2:	83 45 f4 01          	addl   $0x1,-0xc(%ebp)
f0406aa6:	8b 45 f4             	mov    -0xc(%ebp),%eax
f0406aa9:	39 45 f0             	cmp    %eax,-0x10(%ebp)
f0406aac:	73 be                	jae    f0406a6c <karch_acpi_find_rsdp_r+0x31>
f0406aae:	b8 00 00 00 00       	mov    $0x0,%eax
f0406ab3:	c9                   	leave
f0406ab4:	c3                   	ret

f0406ab5 <karch_acpi_find_rsdp>:
f0406ab5:	55                   	push   %ebp
f0406ab6:	89 e5                	mov    %esp,%ebp
f0406ab8:	83 ec 18             	sub    $0x18,%esp
f0406abb:	66 c7 45 f2 00 00    	movw   $0x0,-0xe(%ebp)
f0406ac1:	c7 45 f4 00 00 00 00 	movl   $0x0,-0xc(%ebp)
f0406ac8:	83 ec 04             	sub    $0x4,%esp
f0406acb:	6a 02                	push   $0x2
f0406acd:	8d 45 f2             	lea    -0xe(%ebp),%eax
f0406ad0:	50                   	push   %eax
f0406ad1:	68 0e 04 00 00       	push   $0x40e
f0406ad6:	e8 13 03 00 00       	call   f0406dee <kmemcpy>
f0406adb:	83 c4 10             	add    $0x10,%esp
f0406ade:	0f b7 45 f2          	movzwl -0xe(%ebp),%eax
f0406ae2:	66 85 c0             	test   %ax,%ax
f0406ae5:	74 3e                	je     f0406b25 <karch_acpi_find_rsdp+0x70>
f0406ae7:	0f b7 45 f2          	movzwl -0xe(%ebp),%eax
f0406aeb:	c1 e0 04             	shl    $0x4,%eax
f0406aee:	66 89 45 f2          	mov    %ax,-0xe(%ebp)
f0406af2:	0f b7 45 f2          	movzwl -0xe(%ebp),%eax
f0406af6:	0f b7 c0             	movzwl %ax,%eax
f0406af9:	05 00 04 00 00       	add    $0x400,%eax
f0406afe:	89 c2                	mov    %eax,%edx
f0406b00:	0f b7 45 f2          	movzwl -0xe(%ebp),%eax
f0406b04:	0f b7 c0             	movzwl %ax,%eax
f0406b07:	83 ec 04             	sub    $0x4,%esp
f0406b0a:	52                   	push   %edx
f0406b0b:	50                   	push   %eax
f0406b0c:	ff 75 08             	push   0x8(%ebp)
f0406b0f:	e8 27 ff ff ff       	call   f0406a3b <karch_acpi_find_rsdp_r>
f0406b14:	83 c4 10             	add    $0x10,%esp
f0406b17:	89 45 f4             	mov    %eax,-0xc(%ebp)
f0406b1a:	83 7d f4 00          	cmpl   $0x0,-0xc(%ebp)
f0406b1e:	74 05                	je     f0406b25 <karch_acpi_find_rsdp+0x70>
f0406b20:	8b 45 f4             	mov    -0xc(%ebp),%eax
f0406b23:	eb 18                	jmp    f0406b3d <karch_acpi_find_rsdp+0x88>
f0406b25:	83 ec 04             	sub    $0x4,%esp
f0406b28:	68 ff ff 0f 00       	push   $0xfffff
f0406b2d:	68 00 00 0e 00       	push   $0xe0000
f0406b32:	ff 75 08             	push   0x8(%ebp)
f0406b35:	e8 01 ff ff ff       	call   f0406a3b <karch_acpi_find_rsdp_r>
f0406b3a:	83 c4 10             	add    $0x10,%esp
f0406b3d:	c9                   	leave
f0406b3e:	c3                   	ret

f0406b3f <karch_acpi_check_rsdt>:
f0406b3f:	55                   	push   %ebp
f0406b40:	89 e5                	mov    %esp,%ebp
f0406b42:	83 ec 18             	sub    $0x18,%esp
f0406b45:	a1 4c 24 41 f0       	mov    0xf041244c,%eax
f0406b4a:	89 45 f4             	mov    %eax,-0xc(%ebp)
f0406b4d:	a1 50 24 41 f0       	mov    0xf0412450,%eax
f0406b52:	83 f8 04             	cmp    $0x4,%eax
f0406b55:	75 1a                	jne    f0406b71 <karch_acpi_check_rsdt+0x32>
f0406b57:	8b 45 f4             	mov    -0xc(%ebp),%eax
f0406b5a:	83 ec 04             	sub    $0x4,%esp
f0406b5d:	6a 04                	push   $0x4
f0406b5f:	68 b6 71 40 f0       	push   $0xf04071b6
f0406b64:	50                   	push   %eax
f0406b65:	e8 76 03 00 00       	call   f0406ee0 <kmemcmp>
f0406b6a:	83 c4 10             	add    $0x10,%esp
f0406b6d:	85 c0                	test   %eax,%eax
f0406b6f:	74 24                	je     f0406b95 <karch_acpi_check_rsdt+0x56>
f0406b71:	a1 50 24 41 f0       	mov    0xf0412450,%eax
f0406b76:	83 f8 08             	cmp    $0x8,%eax
f0406b79:	75 21                	jne    f0406b9c <karch_acpi_check_rsdt+0x5d>
f0406b7b:	8b 45 f4             	mov    -0xc(%ebp),%eax
f0406b7e:	83 ec 04             	sub    $0x4,%esp
f0406b81:	6a 04                	push   $0x4
f0406b83:	68 bb 71 40 f0       	push   $0xf04071bb
f0406b88:	50                   	push   %eax
f0406b89:	e8 52 03 00 00       	call   f0406ee0 <kmemcmp>
f0406b8e:	83 c4 10             	add    $0x10,%esp
f0406b91:	85 c0                	test   %eax,%eax
f0406b93:	75 07                	jne    f0406b9c <karch_acpi_check_rsdt+0x5d>
f0406b95:	b8 01 00 00 00       	mov    $0x1,%eax
f0406b9a:	eb 05                	jmp    f0406ba1 <karch_acpi_check_rsdt+0x62>
f0406b9c:	b8 00 00 00 00       	mov    $0x0,%eax
f0406ba1:	c9                   	leave
f0406ba2:	c3                   	ret

f0406ba3 <karch_acpi_find_entry_r>:
f0406ba3:	55                   	push   %ebp
f0406ba4:	89 e5                	mov    %esp,%ebp
f0406ba6:	83 ec 28             	sub    $0x28,%esp
f0406ba9:	8b 45 08             	mov    0x8(%ebp),%eax
f0406bac:	83 c0 24             	add    $0x24,%eax
f0406baf:	89 45 ec             	mov    %eax,-0x14(%ebp)
f0406bb2:	8b 45 08             	mov    0x8(%ebp),%eax
f0406bb5:	8b 40 04             	mov    0x4(%eax),%eax
f0406bb8:	83 e8 24             	sub    $0x24,%eax
f0406bbb:	8b 0d 50 24 41 f0    	mov    0xf0412450,%ecx
f0406bc1:	ba 00 00 00 00       	mov    $0x0,%edx
f0406bc6:	f7 f1                	div    %ecx
f0406bc8:	89 45 e8             	mov    %eax,-0x18(%ebp)
f0406bcb:	c7 45 f4 00 00 00 00 	movl   $0x0,-0xc(%ebp)
f0406bd2:	eb 5a                	jmp    f0406c2e <karch_acpi_find_entry_r+0x8b>
f0406bd4:	a1 50 24 41 f0       	mov    0xf0412450,%eax
f0406bd9:	0f af 45 f4          	imul   -0xc(%ebp),%eax
f0406bdd:	89 c2                	mov    %eax,%edx
f0406bdf:	8b 45 ec             	mov    -0x14(%ebp),%eax
f0406be2:	01 d0                	add    %edx,%eax
f0406be4:	89 45 e4             	mov    %eax,-0x1c(%ebp)
f0406be7:	c7 45 f0 00 00 00 00 	movl   $0x0,-0x10(%ebp)
f0406bee:	a1 50 24 41 f0       	mov    0xf0412450,%eax
f0406bf3:	83 f8 04             	cmp    $0x4,%eax
f0406bf6:	75 0a                	jne    f0406c02 <karch_acpi_find_entry_r+0x5f>
f0406bf8:	8b 45 e4             	mov    -0x1c(%ebp),%eax
f0406bfb:	8b 00                	mov    (%eax),%eax
f0406bfd:	89 45 f0             	mov    %eax,-0x10(%ebp)
f0406c00:	eb 0b                	jmp    f0406c0d <karch_acpi_find_entry_r+0x6a>
f0406c02:	8b 45 e4             	mov    -0x1c(%ebp),%eax
f0406c05:	8b 50 04             	mov    0x4(%eax),%edx
f0406c08:	8b 00                	mov    (%eax),%eax
f0406c0a:	89 45 f0             	mov    %eax,-0x10(%ebp)
f0406c0d:	8b 45 f0             	mov    -0x10(%ebp),%eax
f0406c10:	83 ec 04             	sub    $0x4,%esp
f0406c13:	6a 04                	push   $0x4
f0406c15:	ff 75 0c             	push   0xc(%ebp)
f0406c18:	50                   	push   %eax
f0406c19:	e8 c2 02 00 00       	call   f0406ee0 <kmemcmp>
f0406c1e:	83 c4 10             	add    $0x10,%esp
f0406c21:	85 c0                	test   %eax,%eax
f0406c23:	75 05                	jne    f0406c2a <karch_acpi_find_entry_r+0x87>
f0406c25:	8b 45 f0             	mov    -0x10(%ebp),%eax
f0406c28:	eb 11                	jmp    f0406c3b <karch_acpi_find_entry_r+0x98>
f0406c2a:	83 45 f4 01          	addl   $0x1,-0xc(%ebp)
f0406c2e:	8b 45 f4             	mov    -0xc(%ebp),%eax
f0406c31:	3b 45 e8             	cmp    -0x18(%ebp),%eax
f0406c34:	72 9e                	jb     f0406bd4 <karch_acpi_find_entry_r+0x31>
f0406c36:	b8 00 00 00 00       	mov    $0x0,%eax
f0406c3b:	c9                   	leave
f0406c3c:	c3                   	ret

f0406c3d <karch_acpi_find_entry>:
f0406c3d:	55                   	push   %ebp
f0406c3e:	89 e5                	mov    %esp,%ebp
f0406c40:	83 ec 08             	sub    $0x8,%esp
f0406c43:	a1 4c 24 41 f0       	mov    0xf041244c,%eax
f0406c48:	85 c0                	test   %eax,%eax
f0406c4a:	75 07                	jne    f0406c53 <karch_acpi_find_entry+0x16>
f0406c4c:	b8 00 00 00 00       	mov    $0x0,%eax
f0406c51:	eb 14                	jmp    f0406c67 <karch_acpi_find_entry+0x2a>
f0406c53:	a1 4c 24 41 f0       	mov    0xf041244c,%eax
f0406c58:	83 ec 08             	sub    $0x8,%esp
f0406c5b:	ff 75 08             	push   0x8(%ebp)
f0406c5e:	50                   	push   %eax
f0406c5f:	e8 3f ff ff ff       	call   f0406ba3 <karch_acpi_find_entry_r>
f0406c64:	83 c4 10             	add    $0x10,%esp
f0406c67:	c9                   	leave
f0406c68:	c3                   	ret

f0406c69 <karch_acpi_find_madt>:
f0406c69:	55                   	push   %ebp
f0406c6a:	89 e5                	mov    %esp,%ebp
f0406c6c:	83 ec 08             	sub    $0x8,%esp
f0406c6f:	83 ec 0c             	sub    $0xc,%esp
f0406c72:	68 c0 71 40 f0       	push   $0xf04071c0
f0406c77:	e8 c1 ff ff ff       	call   f0406c3d <karch_acpi_find_entry>
f0406c7c:	83 c4 10             	add    $0x10,%esp
f0406c7f:	c9                   	leave
f0406c80:	c3                   	ret

f0406c81 <karch_acpi_find_fadt>:
f0406c81:	55                   	push   %ebp
f0406c82:	89 e5                	mov    %esp,%ebp
f0406c84:	83 ec 08             	sub    $0x8,%esp
f0406c87:	83 ec 0c             	sub    $0xc,%esp
f0406c8a:	68 c5 71 40 f0       	push   $0xf04071c5
f0406c8f:	e8 a9 ff ff ff       	call   f0406c3d <karch_acpi_find_entry>
f0406c94:	83 c4 10             	add    $0x10,%esp
f0406c97:	c9                   	leave
f0406c98:	c3                   	ret

f0406c99 <karch_acpi_madt_iterate>:
f0406c99:	55                   	push   %ebp
f0406c9a:	89 e5                	mov    %esp,%ebp
f0406c9c:	83 ec 08             	sub    $0x8,%esp
f0406c9f:	8b 45 08             	mov    0x8(%ebp),%eax
f0406ca2:	8b 55 0c             	mov    0xc(%ebp),%edx
f0406ca5:	89 10                	mov    %edx,(%eax)
f0406ca7:	8b 45 08             	mov    0x8(%ebp),%eax
f0406caa:	8b 00                	mov    (%eax),%eax
f0406cac:	85 c0                	test   %eax,%eax
f0406cae:	75 10                	jne    f0406cc0 <karch_acpi_madt_iterate+0x27>
f0406cb0:	e8 b4 ff ff ff       	call   f0406c69 <karch_acpi_find_madt>
f0406cb5:	89 45 0c             	mov    %eax,0xc(%ebp)
f0406cb8:	8b 45 08             	mov    0x8(%ebp),%eax
f0406cbb:	8b 55 0c             	mov    0xc(%ebp),%edx
f0406cbe:	89 10                	mov    %edx,(%eax)
f0406cc0:	83 7d 0c 00          	cmpl   $0x0,0xc(%ebp)
f0406cc4:	75 0c                	jne    f0406cd2 <karch_acpi_madt_iterate+0x39>
f0406cc6:	8b 45 08             	mov    0x8(%ebp),%eax
f0406cc9:	c7 40 04 00 00 00 00 	movl   $0x0,0x4(%eax)
f0406cd0:	eb 0c                	jmp    f0406cde <karch_acpi_madt_iterate+0x45>
f0406cd2:	8b 45 0c             	mov    0xc(%ebp),%eax
f0406cd5:	8d 50 2c             	lea    0x2c(%eax),%edx
f0406cd8:	8b 45 08             	mov    0x8(%ebp),%eax
f0406cdb:	89 50 04             	mov    %edx,0x4(%eax)
f0406cde:	c9                   	leave
f0406cdf:	c3                   	ret

f0406ce0 <karch_acpi_madt_next>:
f0406ce0:	55                   	push   %ebp
f0406ce1:	89 e5                	mov    %esp,%ebp
f0406ce3:	83 ec 10             	sub    $0x10,%esp
f0406ce6:	83 7d 08 00          	cmpl   $0x0,0x8(%ebp)
f0406cea:	74 09                	je     f0406cf5 <karch_acpi_madt_next+0x15>
f0406cec:	8b 45 08             	mov    0x8(%ebp),%eax
f0406cef:	8b 00                	mov    (%eax),%eax
f0406cf1:	85 c0                	test   %eax,%eax
f0406cf3:	75 07                	jne    f0406cfc <karch_acpi_madt_next+0x1c>
f0406cf5:	b8 00 00 00 00       	mov    $0x0,%eax
f0406cfa:	eb 68                	jmp    f0406d64 <karch_acpi_madt_next+0x84>
f0406cfc:	8b 45 08             	mov    0x8(%ebp),%eax
f0406cff:	8b 00                	mov    (%eax),%eax
f0406d01:	89 45 fc             	mov    %eax,-0x4(%ebp)
f0406d04:	8b 45 fc             	mov    -0x4(%ebp),%eax
f0406d07:	8b 40 04             	mov    0x4(%eax),%eax
f0406d0a:	83 e8 2c             	sub    $0x2c,%eax
f0406d0d:	89 45 f8             	mov    %eax,-0x8(%ebp)
f0406d10:	8b 45 f8             	mov    -0x8(%ebp),%eax
f0406d13:	8d 50 2c             	lea    0x2c(%eax),%edx
f0406d16:	8b 45 fc             	mov    -0x4(%ebp),%eax
f0406d19:	01 d0                	add    %edx,%eax
f0406d1b:	89 45 f4             	mov    %eax,-0xc(%ebp)
f0406d1e:	8b 45 08             	mov    0x8(%ebp),%eax
f0406d21:	8b 40 04             	mov    0x4(%eax),%eax
f0406d24:	3b 45 f4             	cmp    -0xc(%ebp),%eax
f0406d27:	72 07                	jb     f0406d30 <karch_acpi_madt_next+0x50>
f0406d29:	b8 00 00 00 00       	mov    $0x0,%eax
f0406d2e:	eb 34                	jmp    f0406d64 <karch_acpi_madt_next+0x84>
f0406d30:	8b 45 08             	mov    0x8(%ebp),%eax
f0406d33:	8b 40 04             	mov    0x4(%eax),%eax
f0406d36:	89 45 f0             	mov    %eax,-0x10(%ebp)
f0406d39:	83 7d 0c 00          	cmpl   $0x0,0xc(%ebp)
f0406d3d:	74 08                	je     f0406d47 <karch_acpi_madt_next+0x67>
f0406d3f:	8b 45 0c             	mov    0xc(%ebp),%eax
f0406d42:	8b 55 f0             	mov    -0x10(%ebp),%edx
f0406d45:	89 10                	mov    %edx,(%eax)
f0406d47:	8b 45 08             	mov    0x8(%ebp),%eax
f0406d4a:	8b 50 04             	mov    0x4(%eax),%edx
f0406d4d:	8b 45 f0             	mov    -0x10(%ebp),%eax
f0406d50:	0f b6 40 01          	movzbl 0x1(%eax),%eax
f0406d54:	0f b6 c0             	movzbl %al,%eax
f0406d57:	01 c2                	add    %eax,%edx
f0406d59:	8b 45 08             	mov    0x8(%ebp),%eax
f0406d5c:	89 50 04             	mov    %edx,0x4(%eax)
f0406d5f:	b8 01 00 00 00       	mov    $0x1,%eax
f0406d64:	c9                   	leave
f0406d65:	c3                   	ret

f0406d66 <kmemset>:
f0406d66:	55                   	push   %ebp
f0406d67:	89 e5                	mov    %esp,%ebp
f0406d69:	83 ec 14             	sub    $0x14,%esp
f0406d6c:	8b 45 0c             	mov    0xc(%ebp),%eax
f0406d6f:	88 45 ec             	mov    %al,-0x14(%ebp)
f0406d72:	c7 45 f4 00 00 00 00 	movl   $0x0,-0xc(%ebp)
f0406d79:	8d 45 f4             	lea    -0xc(%ebp),%eax
f0406d7c:	0f b6 55 ec          	movzbl -0x14(%ebp),%edx
f0406d80:	88 10                	mov    %dl,(%eax)
f0406d82:	8d 45 f4             	lea    -0xc(%ebp),%eax
f0406d85:	83 c0 01             	add    $0x1,%eax
f0406d88:	0f b6 55 ec          	movzbl -0x14(%ebp),%edx
f0406d8c:	88 10                	mov    %dl,(%eax)
f0406d8e:	8d 45 f4             	lea    -0xc(%ebp),%eax
f0406d91:	83 c0 02             	add    $0x2,%eax
f0406d94:	0f b6 55 ec          	movzbl -0x14(%ebp),%edx
f0406d98:	88 10                	mov    %dl,(%eax)
f0406d9a:	8d 45 f4             	lea    -0xc(%ebp),%eax
f0406d9d:	83 c0 03             	add    $0x3,%eax
f0406da0:	0f b6 55 ec          	movzbl -0x14(%ebp),%edx
f0406da4:	88 10                	mov    %dl,(%eax)
f0406da6:	8b 45 08             	mov    0x8(%ebp),%eax
f0406da9:	89 45 f8             	mov    %eax,-0x8(%ebp)
f0406dac:	c7 45 fc 00 00 00 00 	movl   $0x0,-0x4(%ebp)
f0406db3:	eb 11                	jmp    f0406dc6 <kmemset+0x60>
f0406db5:	8b 55 f8             	mov    -0x8(%ebp),%edx
f0406db8:	8b 45 fc             	mov    -0x4(%ebp),%eax
f0406dbb:	01 c2                	add    %eax,%edx
f0406dbd:	8b 45 f4             	mov    -0xc(%ebp),%eax
f0406dc0:	89 02                	mov    %eax,(%edx)
f0406dc2:	83 45 fc 04          	addl   $0x4,-0x4(%ebp)
f0406dc6:	8b 45 fc             	mov    -0x4(%ebp),%eax
f0406dc9:	3b 45 10             	cmp    0x10(%ebp),%eax
f0406dcc:	72 e7                	jb     f0406db5 <kmemset+0x4f>
f0406dce:	eb 12                	jmp    f0406de2 <kmemset+0x7c>
f0406dd0:	8b 55 f8             	mov    -0x8(%ebp),%edx
f0406dd3:	8b 45 fc             	mov    -0x4(%ebp),%eax
f0406dd6:	01 c2                	add    %eax,%edx
f0406dd8:	0f b6 45 ec          	movzbl -0x14(%ebp),%eax
f0406ddc:	88 02                	mov    %al,(%edx)
f0406dde:	83 45 fc 01          	addl   $0x1,-0x4(%ebp)
f0406de2:	8b 45 fc             	mov    -0x4(%ebp),%eax
f0406de5:	3b 45 10             	cmp    0x10(%ebp),%eax
f0406de8:	72 e6                	jb     f0406dd0 <kmemset+0x6a>
f0406dea:	90                   	nop
f0406deb:	90                   	nop
f0406dec:	c9                   	leave
f0406ded:	c3                   	ret

f0406dee <kmemcpy>:
f0406dee:	55                   	push   %ebp
f0406def:	89 e5                	mov    %esp,%ebp
f0406df1:	83 ec 10             	sub    $0x10,%esp
f0406df4:	8b 45 08             	mov    0x8(%ebp),%eax
f0406df7:	89 45 fc             	mov    %eax,-0x4(%ebp)
f0406dfa:	8b 45 0c             	mov    0xc(%ebp),%eax
f0406dfd:	89 45 f8             	mov    %eax,-0x8(%ebp)
f0406e00:	eb 1a                	jmp    f0406e1c <kmemcpy+0x2e>
f0406e02:	8b 55 f8             	mov    -0x8(%ebp),%edx
f0406e05:	8d 42 04             	lea    0x4(%edx),%eax
f0406e08:	89 45 f8             	mov    %eax,-0x8(%ebp)
f0406e0b:	8b 45 fc             	mov    -0x4(%ebp),%eax
f0406e0e:	8d 48 04             	lea    0x4(%eax),%ecx
f0406e11:	89 4d fc             	mov    %ecx,-0x4(%ebp)
f0406e14:	8b 12                	mov    (%edx),%edx
f0406e16:	89 10                	mov    %edx,(%eax)
f0406e18:	83 6d 10 04          	subl   $0x4,0x10(%ebp)
f0406e1c:	83 7d 10 03          	cmpl   $0x3,0x10(%ebp)
f0406e20:	77 e0                	ja     f0406e02 <kmemcpy+0x14>
f0406e22:	8b 45 fc             	mov    -0x4(%ebp),%eax
f0406e25:	89 45 f4             	mov    %eax,-0xc(%ebp)
f0406e28:	8b 45 f8             	mov    -0x8(%ebp),%eax
f0406e2b:	89 45 f0             	mov    %eax,-0x10(%ebp)
f0406e2e:	eb 1b                	jmp    f0406e4b <kmemcpy+0x5d>
f0406e30:	8b 55 f0             	mov    -0x10(%ebp),%edx
f0406e33:	8d 42 01             	lea    0x1(%edx),%eax
f0406e36:	89 45 f0             	mov    %eax,-0x10(%ebp)
f0406e39:	8b 45 f4             	mov    -0xc(%ebp),%eax
f0406e3c:	8d 48 01             	lea    0x1(%eax),%ecx
f0406e3f:	89 4d f4             	mov    %ecx,-0xc(%ebp)
f0406e42:	0f b6 12             	movzbl (%edx),%edx
f0406e45:	88 10                	mov    %dl,(%eax)
f0406e47:	83 6d 10 01          	subl   $0x1,0x10(%ebp)
f0406e4b:	83 7d 10 00          	cmpl   $0x0,0x10(%ebp)
f0406e4f:	75 df                	jne    f0406e30 <kmemcpy+0x42>
f0406e51:	90                   	nop
f0406e52:	90                   	nop
f0406e53:	c9                   	leave
f0406e54:	c3                   	ret

f0406e55 <kmemmove>:
f0406e55:	55                   	push   %ebp
f0406e56:	89 e5                	mov    %esp,%ebp
f0406e58:	83 ec 10             	sub    $0x10,%esp
f0406e5b:	83 7d 10 00          	cmpl   $0x0,0x10(%ebp)
f0406e5f:	74 7c                	je     f0406edd <kmemmove+0x88>
f0406e61:	8b 45 08             	mov    0x8(%ebp),%eax
f0406e64:	3b 45 0c             	cmp    0xc(%ebp),%eax
f0406e67:	73 13                	jae    f0406e7c <kmemmove+0x27>
f0406e69:	ff 75 10             	push   0x10(%ebp)
f0406e6c:	ff 75 0c             	push   0xc(%ebp)
f0406e6f:	ff 75 08             	push   0x8(%ebp)
f0406e72:	e8 77 ff ff ff       	call   f0406dee <kmemcpy>
f0406e77:	83 c4 0c             	add    $0xc,%esp
f0406e7a:	eb 62                	jmp    f0406ede <kmemmove+0x89>
f0406e7c:	8b 55 08             	mov    0x8(%ebp),%edx
f0406e7f:	8b 45 10             	mov    0x10(%ebp),%eax
f0406e82:	01 d0                	add    %edx,%eax
f0406e84:	89 45 fc             	mov    %eax,-0x4(%ebp)
f0406e87:	8b 55 0c             	mov    0xc(%ebp),%edx
f0406e8a:	8b 45 10             	mov    0x10(%ebp),%eax
f0406e8d:	01 d0                	add    %edx,%eax
f0406e8f:	89 45 f8             	mov    %eax,-0x8(%ebp)
f0406e92:	eb 16                	jmp    f0406eaa <kmemmove+0x55>
f0406e94:	83 6d f8 04          	subl   $0x4,-0x8(%ebp)
f0406e98:	83 6d fc 04          	subl   $0x4,-0x4(%ebp)
f0406e9c:	8b 45 f8             	mov    -0x8(%ebp),%eax
f0406e9f:	8b 10                	mov    (%eax),%edx
f0406ea1:	8b 45 fc             	mov    -0x4(%ebp),%eax
f0406ea4:	89 10                	mov    %edx,(%eax)
f0406ea6:	83 6d 10 04          	subl   $0x4,0x10(%ebp)
f0406eaa:	83 7d 10 03          	cmpl   $0x3,0x10(%ebp)
f0406eae:	77 e4                	ja     f0406e94 <kmemmove+0x3f>
f0406eb0:	8b 45 fc             	mov    -0x4(%ebp),%eax
f0406eb3:	89 45 f4             	mov    %eax,-0xc(%ebp)
f0406eb6:	8b 45 f8             	mov    -0x8(%ebp),%eax
f0406eb9:	89 45 f0             	mov    %eax,-0x10(%ebp)
f0406ebc:	eb 17                	jmp    f0406ed5 <kmemmove+0x80>
f0406ebe:	83 6d f0 01          	subl   $0x1,-0x10(%ebp)
f0406ec2:	83 6d f4 01          	subl   $0x1,-0xc(%ebp)
f0406ec6:	8b 45 f0             	mov    -0x10(%ebp),%eax
f0406ec9:	0f b6 10             	movzbl (%eax),%edx
f0406ecc:	8b 45 f4             	mov    -0xc(%ebp),%eax
f0406ecf:	88 10                	mov    %dl,(%eax)
f0406ed1:	83 6d 10 01          	subl   $0x1,0x10(%ebp)
f0406ed5:	83 7d 10 00          	cmpl   $0x0,0x10(%ebp)
f0406ed9:	75 e3                	jne    f0406ebe <kmemmove+0x69>
f0406edb:	eb 01                	jmp    f0406ede <kmemmove+0x89>
f0406edd:	90                   	nop
f0406ede:	c9                   	leave
f0406edf:	c3                   	ret

f0406ee0 <kmemcmp>:
f0406ee0:	55                   	push   %ebp
f0406ee1:	89 e5                	mov    %esp,%ebp
f0406ee3:	83 ec 30             	sub    $0x30,%esp
f0406ee6:	8b 45 08             	mov    0x8(%ebp),%eax
f0406ee9:	89 45 fc             	mov    %eax,-0x4(%ebp)
f0406eec:	8b 45 0c             	mov    0xc(%ebp),%eax
f0406eef:	89 45 f8             	mov    %eax,-0x8(%ebp)
f0406ef2:	c7 45 ec 00 00 00 00 	movl   $0x0,-0x14(%ebp)
f0406ef9:	eb 2f                	jmp    f0406f2a <kmemcmp+0x4a>
f0406efb:	8b 45 fc             	mov    -0x4(%ebp),%eax
f0406efe:	8d 50 04             	lea    0x4(%eax),%edx
f0406f01:	89 55 fc             	mov    %edx,-0x4(%ebp)
f0406f04:	8b 00                	mov    (%eax),%eax
f0406f06:	89 45 e8             	mov    %eax,-0x18(%ebp)
f0406f09:	8b 45 f8             	mov    -0x8(%ebp),%eax
f0406f0c:	8d 50 04             	lea    0x4(%eax),%edx
f0406f0f:	89 55 f8             	mov    %edx,-0x8(%ebp)
f0406f12:	8b 00                	mov    (%eax),%eax
f0406f14:	89 45 e4             	mov    %eax,-0x1c(%ebp)
f0406f17:	8b 45 e8             	mov    -0x18(%ebp),%eax
f0406f1a:	2b 45 e4             	sub    -0x1c(%ebp),%eax
f0406f1d:	89 45 ec             	mov    %eax,-0x14(%ebp)
f0406f20:	83 7d ec 00          	cmpl   $0x0,-0x14(%ebp)
f0406f24:	75 0c                	jne    f0406f32 <kmemcmp+0x52>
f0406f26:	83 6d 10 04          	subl   $0x4,0x10(%ebp)
f0406f2a:	83 7d 10 03          	cmpl   $0x3,0x10(%ebp)
f0406f2e:	77 cb                	ja     f0406efb <kmemcmp+0x1b>
f0406f30:	eb 01                	jmp    f0406f33 <kmemcmp+0x53>
f0406f32:	90                   	nop
f0406f33:	8b 45 fc             	mov    -0x4(%ebp),%eax
f0406f36:	89 45 f4             	mov    %eax,-0xc(%ebp)
f0406f39:	8b 45 f8             	mov    -0x8(%ebp),%eax
f0406f3c:	89 45 f0             	mov    %eax,-0x10(%ebp)
f0406f3f:	eb 3c                	jmp    f0406f7d <kmemcmp+0x9d>
f0406f41:	8b 45 f4             	mov    -0xc(%ebp),%eax
f0406f44:	8d 50 01             	lea    0x1(%eax),%edx
f0406f47:	89 55 f4             	mov    %edx,-0xc(%ebp)
f0406f4a:	0f b6 00             	movzbl (%eax),%eax
f0406f4d:	0f b6 c0             	movzbl %al,%eax
f0406f50:	89 45 e0             	mov    %eax,-0x20(%ebp)
f0406f53:	8b 45 f0             	mov    -0x10(%ebp),%eax
f0406f56:	8d 50 01             	lea    0x1(%eax),%edx
f0406f59:	89 55 f0             	mov    %edx,-0x10(%ebp)
f0406f5c:	0f b6 00             	movzbl (%eax),%eax
f0406f5f:	0f b6 c0             	movzbl %al,%eax
f0406f62:	89 45 dc             	mov    %eax,-0x24(%ebp)
f0406f65:	8b 45 e0             	mov    -0x20(%ebp),%eax
f0406f68:	2b 45 dc             	sub    -0x24(%ebp),%eax
f0406f6b:	89 45 ec             	mov    %eax,-0x14(%ebp)
f0406f6e:	83 7d ec 00          	cmpl   $0x0,-0x14(%ebp)
f0406f72:	74 05                	je     f0406f79 <kmemcmp+0x99>
f0406f74:	8b 45 ec             	mov    -0x14(%ebp),%eax
f0406f77:	eb 0f                	jmp    f0406f88 <kmemcmp+0xa8>
f0406f79:	83 6d 10 01          	subl   $0x1,0x10(%ebp)
f0406f7d:	83 7d 10 00          	cmpl   $0x0,0x10(%ebp)
f0406f81:	75 be                	jne    f0406f41 <kmemcmp+0x61>
f0406f83:	b8 00 00 00 00       	mov    $0x0,%eax
f0406f88:	c9                   	leave
f0406f89:	c3                   	ret

f0406f8a <kmain>:
f0406f8a:	55                   	push   %ebp
f0406f8b:	89 e5                	mov    %esp,%ebp
f0406f8d:	83 ec 10             	sub    $0x10,%esp
f0406f90:	c7 45 fc 00 80 0b 00 	movl   $0xb8000,-0x4(%ebp)
f0406f97:	8b 45 fc             	mov    -0x4(%ebp),%eax
f0406f9a:	66 c7 00 61 0f       	movw   $0xf61,(%eax)
f0406f9f:	90                   	nop
f0406fa0:	c9                   	leave
f0406fa1:	c3                   	ret

Disassembly of section .rodata:

f0407000 <gv_except-0x60>:
f0407000:	6e                   	outsb  %ds:(%esi),(%dx)
f0407001:	74 65                	je     f0407068 <gv_except+0x8>
f0407003:	6c                   	insb   (%dx),%es:(%edi)
f0407004:	00 63 41             	add    %ah,0x41(%ebx)
f0407007:	4d                   	dec    %ebp
f0407008:	44                   	inc    %esp
f0407009:	00 00                	add    %al,(%eax)
f040700b:	00 7c 53 40          	add    %bh,0x40(%ebx,%edx,2)
f040700f:	f0 3c 52             	lock cmp $0x52,%al
f0407012:	40                   	inc    %eax
f0407013:	f0 47                	lock inc %edi
f0407015:	52                   	push   %edx
f0407016:	40                   	inc    %eax
f0407017:	f0 7c 53             	lock jl f040706d <gv_except+0xd>
f040701a:	40                   	inc    %eax
f040701b:	f0 52                	lock push %edx
f040701d:	52                   	push   %edx
f040701e:	40                   	inc    %eax
f040701f:	f0 5f                	lock pop %edi
f0407021:	52                   	push   %edx
f0407022:	40                   	inc    %eax
f0407023:	f0 6a 52             	lock push $0x52
f0407026:	40                   	inc    %eax
f0407027:	f0 75 52             	lock jne f040707c <gv_except+0x1c>
f040702a:	40                   	inc    %eax
f040702b:	f0 a7                	lock cmpsl %es:(%edi),%ds:(%esi)
f040702d:	52                   	push   %edx
f040702e:	40                   	inc    %eax
f040702f:	f0 b4 52             	lock mov $0x52,%ah
f0407032:	40                   	inc    %eax
f0407033:	f0 c1 52 40 f0       	lock rcll $0xf0,0x40(%edx)
f0407038:	ce                   	into
f0407039:	52                   	push   %edx
f040703a:	40                   	inc    %eax
f040703b:	f0 d9 52 40          	lock fsts 0x40(%edx)
f040703f:	f0 e6 52             	lock out %al,$0x52
f0407042:	40                   	inc    %eax
f0407043:	f0 f3 52             	lock repz push %edx
f0407046:	40                   	inc    %eax
f0407047:	f0 00 53 40          	lock add %dl,0x40(%ebx)
f040704b:	f0 0a 53 40          	lock or 0x40(%ebx),%dl
f040704f:	f0 15 53 40 f0 55    	lock adc $0x55f04053,%eax
f0407055:	53                   	push   %ebx
f0407056:	40                   	inc    %eax
f0407057:	f0 00 00             	lock add %al,(%eax)
f040705a:	00 00                	add    %al,(%eax)
f040705c:	00 00                	add    %al,(%eax)
	...

f0407060 <gv_except>:
f0407060:	50                   	push   %eax
f0407061:	55                   	push   %ebp
f0407062:	40                   	inc    %eax
f0407063:	f0 00 00             	lock add %al,(%eax)
f0407066:	00 00                	add    %al,(%eax)
f0407068:	7f 55                	jg     f04070bf <gv_except+0x5f>
f040706a:	40                   	inc    %eax
f040706b:	f0 01 00             	lock add %eax,(%eax)
f040706e:	00 00                	add    %al,(%eax)
f0407070:	ae                   	scas   %es:(%edi),%al
f0407071:	55                   	push   %ebp
f0407072:	40                   	inc    %eax
f0407073:	f0 02 00             	lock add (%eax),%al
f0407076:	00 00                	add    %al,(%eax)
f0407078:	dd 55 40             	fstl   0x40(%ebp)
f040707b:	f0 03 03             	lock add (%ebx),%eax
f040707e:	00 00                	add    %al,(%eax)
f0407080:	0c 56                	or     $0x56,%al
f0407082:	40                   	inc    %eax
f0407083:	f0 04 03             	lock add $0x3,%al
f0407086:	00 00                	add    %al,(%eax)
f0407088:	3b 56 40             	cmp    0x40(%esi),%edx
f040708b:	f0 05 00 00 00 6a    	lock add $0x6a000000,%eax
f0407091:	56                   	push   %esi
f0407092:	40                   	inc    %eax
f0407093:	f0 06                	lock push %es
f0407095:	00 00                	add    %al,(%eax)
f0407097:	00 99 56 40 f0 07    	add    %bl,0x7f04056(%ecx)
f040709d:	00 00                	add    %al,(%eax)
f040709f:	00 c8                	add    %cl,%al
f04070a1:	56                   	push   %esi
f04070a2:	40                   	inc    %eax
f04070a3:	f0 08 00             	lock or %al,(%eax)
f04070a6:	00 00                	add    %al,(%eax)
f04070a8:	f7 56 40             	notl   0x40(%esi)
f04070ab:	f0 09 00             	lock or %eax,(%eax)
f04070ae:	00 00                	add    %al,(%eax)
f04070b0:	26 57                	es push %edi
f04070b2:	40                   	inc    %eax
f04070b3:	f0 0a 00             	lock or (%eax),%al
f04070b6:	00 00                	add    %al,(%eax)
f04070b8:	55                   	push   %ebp
f04070b9:	57                   	push   %edi
f04070ba:	40                   	inc    %eax
f04070bb:	f0 0b 00             	lock or (%eax),%eax
f04070be:	00 00                	add    %al,(%eax)
f04070c0:	84 57 40             	test   %dl,0x40(%edi)
f04070c3:	f0 0c 00             	lock or $0x0,%al
f04070c6:	00 00                	add    %al,(%eax)
f04070c8:	b3 57                	mov    $0x57,%bl
f04070ca:	40                   	inc    %eax
f04070cb:	f0 0d 00 00 00 e2    	lock or $0xe2000000,%eax
f04070d1:	57                   	push   %edi
f04070d2:	40                   	inc    %eax
f04070d3:	f0 0e                	lock push %cs
f04070d5:	00 00                	add    %al,(%eax)
f04070d7:	00 11                	add    %dl,(%ecx)
f04070d9:	58                   	pop    %eax
f04070da:	40                   	inc    %eax
f04070db:	f0 10 00             	lock adc %al,(%eax)
f04070de:	00 00                	add    %al,(%eax)
f04070e0:	40                   	inc    %eax
f04070e1:	58                   	pop    %eax
f04070e2:	40                   	inc    %eax
f04070e3:	f0 11 00             	lock adc %eax,(%eax)
f04070e6:	00 00                	add    %al,(%eax)
f04070e8:	6f                   	outsl  %ds:(%esi),(%dx)
f04070e9:	58                   	pop    %eax
f04070ea:	40                   	inc    %eax
f04070eb:	f0 12 00             	lock adc (%eax),%al
	...

f0407100 <gv_i8259_master>:
f0407100:	00 5c 40 f0          	add    %bl,-0x10(%eax,%eax,2)
f0407104:	00 00                	add    %al,(%eax)
f0407106:	00 00                	add    %al,(%eax)
f0407108:	2f                   	das
f0407109:	5c                   	pop    %esp
f040710a:	40                   	inc    %eax
f040710b:	f0 01 00             	lock add %eax,(%eax)
f040710e:	00 00                	add    %al,(%eax)
f0407110:	5e                   	pop    %esi
f0407111:	5c                   	pop    %esp
f0407112:	40                   	inc    %eax
f0407113:	f0 02 00             	lock add (%eax),%al
f0407116:	00 00                	add    %al,(%eax)
f0407118:	8d 5c 40 f0          	lea    -0x10(%eax,%eax,2),%ebx
f040711c:	03 00                	add    (%eax),%eax
f040711e:	00 00                	add    %al,(%eax)
f0407120:	bc 5c 40 f0 04       	mov    $0x4f0405c,%esp
f0407125:	00 00                	add    %al,(%eax)
f0407127:	00 eb                	add    %ch,%bl
f0407129:	5c                   	pop    %esp
f040712a:	40                   	inc    %eax
f040712b:	f0 05 00 00 00 1a    	lock add $0x1a000000,%eax
f0407131:	5d                   	pop    %ebp
f0407132:	40                   	inc    %eax
f0407133:	f0 06                	lock push %es
f0407135:	00 00                	add    %al,(%eax)
f0407137:	00 49 5d             	add    %cl,0x5d(%ecx)
f040713a:	40                   	inc    %eax
f040713b:	f0 07                	lock pop %es
	...

f0407160 <gv_i8259_slave>:
f0407160:	78 5d                	js     f04071bf <gv_i8259_slave+0x5f>
f0407162:	40                   	inc    %eax
f0407163:	f0 00 00             	lock add %al,(%eax)
f0407166:	00 00                	add    %al,(%eax)
f0407168:	a7                   	cmpsl  %es:(%edi),%ds:(%esi)
f0407169:	5d                   	pop    %ebp
f040716a:	40                   	inc    %eax
f040716b:	f0 01 00             	lock add %eax,(%eax)
f040716e:	00 00                	add    %al,(%eax)
f0407170:	d6                   	(bad)
f0407171:	5d                   	pop    %ebp
f0407172:	40                   	inc    %eax
f0407173:	f0 02 00             	lock add (%eax),%al
f0407176:	00 00                	add    %al,(%eax)
f0407178:	05 5e 40 f0 03       	add    $0x3f0405e,%eax
f040717d:	00 00                	add    %al,(%eax)
f040717f:	00 34 5e             	add    %dh,(%esi,%ebx,2)
f0407182:	40                   	inc    %eax
f0407183:	f0 04 00             	lock add $0x0,%al
f0407186:	00 00                	add    %al,(%eax)
f0407188:	63 5e 40             	arpl   %ebx,0x40(%esi)
f040718b:	f0 05 00 00 00 92    	lock add $0x92000000,%eax
f0407191:	5e                   	pop    %esi
f0407192:	40                   	inc    %eax
f0407193:	f0 06                	lock push %es
f0407195:	00 00                	add    %al,(%eax)
f0407197:	00 c1                	add    %al,%cl
f0407199:	5e                   	pop    %esi
f040719a:	40                   	inc    %eax
f040719b:	f0 07                	lock pop %es
	...
f04071a5:	00 00                	add    %al,(%eax)
f04071a7:	00 5f 53             	add    %bl,0x53(%edi)
f04071aa:	35 5f 00 52 53       	xor    $0x5352005f,%eax
f04071af:	44                   	inc    %esp
f04071b0:	20 50 54             	and    %dl,0x54(%eax)
f04071b3:	52                   	push   %edx
f04071b4:	20 00                	and    %al,(%eax)
f04071b6:	52                   	push   %edx
f04071b7:	53                   	push   %ebx
f04071b8:	44                   	inc    %esp
f04071b9:	54                   	push   %esp
f04071ba:	00 58 53             	add    %bl,0x53(%eax)
f04071bd:	44                   	inc    %esp
f04071be:	54                   	push   %esp
f04071bf:	00 41 50             	add    %al,0x50(%ecx)
f04071c2:	49                   	dec    %ecx
f04071c3:	43                   	inc    %ebx
f04071c4:	00 46 41             	add    %al,0x41(%esi)
f04071c7:	43                   	inc    %ebx
f04071c8:	50                   	push   %eax
	...

Disassembly of section .unpaged.rodata:

f04071cc <.unpaged.rodata>:
f04071cc:	70 61                	jo     f040722f <gv_i8259_slave+0xcf>
f04071ce:	6e                   	outsb  %ds:(%esi),(%dx)
f04071cf:	69 63 3a 20 6d 75 6c 	imul   $0x6c756d20,0x3a(%ebx),%esp
f04071d6:	74 69                	je     f0407241 <gv_i8259_slave+0xe1>
f04071d8:	62 6f 6f             	bound  %ebp,0x6f(%edi)
f04071db:	74 20                	je     f04071fd <gv_i8259_slave+0x9d>
f04071dd:	6d                   	insl   (%dx),%es:(%edi)
f04071de:	61                   	popa
f04071df:	67 69 63 20 6d 69 73 	imul   $0x6d73696d,0x20(%bp,%di),%esp
f04071e6:	6d 
f04071e7:	61                   	popa
f04071e8:	74 63                	je     f040724d <gv_i8259_slave+0xed>
f04071ea:	68 2e 0a 00 00       	push   $0xa2e
f04071ef:	00 70 61             	add    %dh,0x61(%eax)
f04071f2:	6e                   	outsb  %ds:(%esi),(%dx)
f04071f3:	69 63 3a 20 6e 6f 20 	imul   $0x206f6e20,0x3a(%ebx),%esp
f04071fa:	6d                   	insl   (%dx),%es:(%edi)
f04071fb:	6d                   	insl   (%dx),%es:(%edi)
f04071fc:	61                   	popa
f04071fd:	70 20                	jo     f040721f <gv_i8259_slave+0xbf>
f04071ff:	73 6c                	jae    f040726d <gv_i8259_slave+0x10d>
f0407201:	6f                   	outsl  %ds:(%esi),(%dx)
f0407202:	74 20                	je     f0407224 <gv_i8259_slave+0xc4>
f0407204:	61                   	popa
f0407205:	76 61                	jbe    f0407268 <gv_i8259_slave+0x108>
f0407207:	69 6c 61 62 6c 65 2e 	imul   $0xa2e656c,0x62(%ecx,%eiz,2),%ebp
f040720e:	0a 
	...

Disassembly of section .data:

f0408000 <__vendor_intel>:
f0408000:	00 70 40             	add    %dh,0x40(%eax)
f0408003:	f0                   	lock

f0408004 <__vendor_amd>:
f0408004:	05                   	.byte 0x5
f0408005:	70 40                	jo     f0408047 <__vendor_amd+0x43>
f0408007:	f0                   	lock

Disassembly of section .bss:

f0409000 <_kinit_head>:
	...

f040d000 <_karch_stack_tail>:
	...

f0411000 <kinfo>:
	...

f0411340 <except_cb>:
	...

f04113a0 <except_cb_data>:
	...

f04113f0 <desc_gdt>:
	...

f04113f8 <gdt>:
	...

f04114c0 <i8259_cb>:
	...

f0411500 <i8259_cb_data>:
	...

f0411540 <desc_idt>:
	...

f0411548 <idt>:
	...

f0411d48 <tss>:
	...

f0412408 <stackmark>:
	...

f0412448 <syscall_impl>:
f0412448:	00 00                	add    %al,(%eax)
	...

f041244c <acpi_rxsdt>:
f041244c:	00 00                	add    %al,(%eax)
	...

f0412450 <acpi_scale>:
f0412450:	00 00                	add    %al,(%eax)
	...

f0412454 <acpi_poff_typa>:
	...

f0412456 <acpi_poff_typb>:
	...

f0412458 <acpi_pm1a_cnt_blk>:
	...

f041245a <acpi_pm1b_cnt_blk>:
	...

Disassembly of section .comment:

00000000 <.comment>:
   0:	47                   	inc    %edi
   1:	43                   	inc    %ebx
   2:	43                   	inc    %ebx
   3:	3a 20                	cmp    (%eax),%ah
   5:	28 47 4e             	sub    %al,0x4e(%edi)
   8:	55                   	push   %ebp
   9:	29 20                	sub    %esp,(%eax)
   b:	31 33                	xor    %esi,(%ebx)
   d:	2e 32 2e             	xor    %cs:(%esi),%ch
  10:	30 00                	xor    %al,(%eax)

Disassembly of section .unpaged.debug_info:

00000000 <.unpaged.debug_info>:
   0:	66 09 00             	or     %ax,(%eax)
   3:	00 05 00 01 04 00    	add    %al,0x40100
   9:	00 00                	add    %al,(%eax)
   b:	00 1d da 03 00 00    	add    %bl,0x3da
  11:	0c 00                	or     $0x0,%al
  13:	00 00                	add    %al,(%eax)
  15:	00 0b                	add    %cl,(%ebx)
  17:	00 00                	add    %al,(%eax)
  19:	00 00                	add    %al,(%eax)
  1b:	10 40 00             	adc    %al,0x0(%eax)
  1e:	b6 05                	mov    $0x5,%dh
  20:	00 00                	add    %al,(%eax)
  22:	00 00                	add    %al,(%eax)
  24:	00 00                	add    %al,(%eax)
  26:	06                   	push   %es
  27:	01 06                	add    %eax,(%esi)
  29:	1b 03                	sbb    (%ebx),%eax
  2b:	00 00                	add    %al,(%eax)
  2d:	1e                   	push   %ds
  2e:	26 00 00             	add    %al,%es:(%eax)
  31:	00 06                	add    %al,(%esi)
  33:	02 05 68 00 00 00    	add    0x68,%al
  39:	1f                   	pop    %ds
  3a:	04 05                	add    $0x5,%al
  3c:	69 6e 74 00 06 08 05 	imul   $0x5080600,0x74(%esi),%ebp
  43:	0d 02 00 00 06       	or     $0x6000002,%eax
  48:	01 08                	add    %ecx,(%eax)
  4a:	12 03                	adc    (%ebx),%al
  4c:	00 00                	add    %al,(%eax)
  4e:	03 d0                	add    %eax,%edx
  50:	01 00                	add    %eax,(%eax)
  52:	00 02                	add    %al,(%edx)
  54:	14 1d                	adc    $0x1d,%al
  56:	5a                   	pop    %edx
  57:	00 00                	add    %al,(%eax)
  59:	00 06                	add    %al,(%esi)
  5b:	02 07                	add    (%edi),%al
  5d:	ad                   	lods   %ds:(%esi),%eax
  5e:	03 00                	add    (%eax),%eax
  60:	00 03                	add    %al,(%ebx)
  62:	90                   	nop
  63:	01 00                	add    %eax,(%eax)
  65:	00 02                	add    %al,(%edx)
  67:	15 1d 6d 00 00       	adc    $0x6d1d,%eax
  6c:	00 06                	add    %al,(%esi)
  6e:	04 07                	add    $0x7,%al
  70:	6d                   	insl   (%dx),%es:(%edi)
  71:	03 00                	add    (%eax),%eax
  73:	00 03                	add    %al,(%ebx)
  75:	ce                   	into
  76:	04 00                	add    $0x0,%al
  78:	00 02                	add    %al,(%edx)
  7a:	16                   	push   %ss
  7b:	1d 80 00 00 00       	sbb    $0x80,%eax
  80:	06                   	push   %es
  81:	08 07                	or     %al,(%edi)
  83:	63 03                	arpl   %eax,(%ebx)
  85:	00 00                	add    %al,(%eax)
  87:	08 08                	or     %cl,(%eax)
  89:	03 09                	add    (%ecx),%ecx
  8b:	aa                   	stos   %al,%es:(%edi)
  8c:	00 00                	add    %al,(%eax)
  8e:	00 01                	add    %al,(%ecx)
  90:	9c                   	pushf
  91:	04 00                	add    $0x0,%al
  93:	00 03                	add    %al,(%ebx)
  95:	0a 0e                	or     (%esi),%cl
  97:	61                   	popa
  98:	00 00                	add    %al,(%eax)
  9a:	00 00                	add    %al,(%eax)
  9c:	0d 6c 65 6e 00       	or     $0x6e656c,%eax
  a1:	03 0b                	add    (%ebx),%ecx
  a3:	0e                   	push   %cs
  a4:	61                   	popa
  a5:	00 00                	add    %al,(%eax)
  a7:	00 04 00             	add    %al,(%eax,%eax,1)
  aa:	03 be 02 00 00 03    	add    0x3000002(%esi),%edi
  b0:	0c 03                	or     $0x3,%al
  b2:	87 00                	xchg   %eax,(%eax)
  b4:	00 00                	add    %al,(%eax)
  b6:	0f 6d                	(bad)
  b8:	00 00                	add    %al,(%eax)
  ba:	00 03                	add    %al,(%ebx)
  bc:	11 0e                	adc    %ecx,(%esi)
  be:	cf                   	iret
  bf:	00 00                	add    %al,(%eax)
  c1:	00 02                	add    %al,(%edx)
  c3:	ee                   	out    %al,(%dx)
  c4:	04 00                	add    $0x0,%al
  c6:	00 00                	add    %al,(%eax)
  c8:	02 d7                	add    %bh,%dl
  ca:	00 00                	add    %al,(%eax)
  cc:	00 01                	add    %al,(%ecx)
  ce:	00 08                	add    %cl,(%eax)
  d0:	18 03                	sbb    %al,(%ebx)
  d2:	19 0c 01             	sbb    %ecx,(%ecx,%eax,1)
  d5:	00 00                	add    %al,(%eax)
  d7:	01 61 04             	add    %esp,0x4(%ecx)
  da:	00 00                	add    %al,(%eax)
  dc:	03 1a                	add    (%edx),%ebx
  de:	0e                   	push   %cs
  df:	61                   	popa
  e0:	00 00                	add    %al,(%eax)
  e2:	00 00                	add    %al,(%eax)
  e4:	01 9c 04 00 00 03 1b 	add    %ebx,0x1b030000(%esp,%eax,1)
  eb:	0e                   	push   %cs
  ec:	74 00                	je     ee <SEG_KERN_CS+0xe6>
  ee:	00 00                	add    %al,(%eax)
  f0:	04 0d                	add    $0xd,%al
  f2:	6c                   	insb   (%dx),%es:(%edi)
  f3:	65 6e                	outsb  %gs:(%esi),(%dx)
  f5:	00 03                	add    %al,(%ebx)
  f7:	1c 0e                	sbb    $0xe,%al
  f9:	74 00                	je     fb <SEG_KERN_CS+0xf3>
  fb:	00 00                	add    %al,(%eax)
  fd:	0c 01                	or     $0x1,%al
  ff:	b9 02 00 00 03       	mov    $0x3000002,%ecx
 104:	1d 0e 61 00 00       	sbb    $0x610e,%eax
 109:	00 14 00             	add    %dl,(%eax,%eax,1)
 10c:	03 43 03             	add    0x3(%ebx),%eax
 10f:	00 00                	add    %al,(%eax)
 111:	03 1e                	add    (%esi),%ebx
 113:	03 cf                	add    %edi,%ecx
 115:	00 00                	add    %al,(%eax)
 117:	00 20                	add    %ah,(%eax)
 119:	2c 03                	sub    $0x3,%al
 11b:	03 26                	add    (%esi),%esp
 11d:	09 a5 01 00 00 01    	or     %esp,0x1000001(%ebp)
 123:	3e 02 00             	add    %ds:(%eax),%al
 126:	00 03                	add    %al,(%ebx)
 128:	27                   	daa
 129:	0e                   	push   %cs
 12a:	61                   	popa
 12b:	00 00                	add    %al,(%eax)
 12d:	00 00                	add    %al,(%eax)
 12f:	01 04 05 00 00 03 2a 	add    %eax,0x2a030000(,%eax,1)
 136:	0e                   	push   %cs
 137:	61                   	popa
 138:	00 00                	add    %al,(%eax)
 13a:	00 04 01             	add    %al,(%ecx,%eax,1)
 13d:	a2 02 00 00 03       	mov    %al,0x3000002
 142:	2b 10                	sub    (%eax),%edx
 144:	aa                   	stos   %al,%es:(%edi)
 145:	00 00                	add    %al,(%eax)
 147:	00 08                	add    %cl,(%eax)
 149:	01 83 01 00 00 03    	add    %eax,0x3000001(%ebx)
 14f:	2e 10 aa 00 00 00 10 	adc    %ch,%cs:0x10000000(%edx)
 156:	01 54 00 00          	add    %edx,0x0(%eax,%eax,1)
 15a:	00 03                	add    %al,(%ebx)
 15c:	31 0e                	xor    %ecx,(%esi)
 15e:	61                   	popa
 15f:	00 00                	add    %al,(%eax)
 161:	00 18                	add    %bl,(%eax)
 163:	01 fe                	add    %edi,%esi
 165:	01 00                	add    %eax,(%eax)
 167:	00 03                	add    %al,(%ebx)
 169:	32 0e                	xor    (%esi),%cl
 16b:	61                   	popa
 16c:	00 00                	add    %al,(%eax)
 16e:	00 1c 01             	add    %bl,(%ecx,%eax,1)
 171:	da 02                	fiaddl (%edx)
 173:	00 00                	add    %al,(%eax)
 175:	03 35 16 a5 01 00    	add    0x1a516,%esi
 17b:	00 20                	add    %ah,(%eax)
 17d:	11 79 02             	adc    %edi,0x2(%ecx)
 180:	00 00                	add    %al,(%eax)
 182:	36 0e                	ss push %cs
 184:	61                   	popa
 185:	00 00                	add    %al,(%eax)
 187:	00 20                	add    %ah,(%eax)
 189:	03 11                	add    (%ecx),%edx
 18b:	ed                   	in     (%dx),%eax
 18c:	01 00                	add    %eax,(%eax)
 18e:	00 39                	add    %bh,(%ecx)
 190:	0f bc 01             	bsf    (%ecx),%eax
 193:	00 00                	add    %al,(%eax)
 195:	24 03                	and    $0x3,%al
 197:	11 e5                	adc    %esp,%ebp
 199:	01 00                	add    %eax,(%eax)
 19b:	00 3a                	add    %bh,(%edx)
 19d:	0e                   	push   %cs
 19e:	61                   	popa
 19f:	00 00                	add    %al,(%eax)
 1a1:	00 28                	add    %ch,(%eax)
 1a3:	03 00                	add    (%eax),%eax
 1a5:	14 0c                	adc    $0xc,%al
 1a7:	01 00                	add    %eax,(%eax)
 1a9:	00 b5 01 00 00 21    	add    %dh,0x21000001(%ebp)
 1af:	b5 01                	mov    $0x1,%ch
 1b1:	00 00                	add    %al,(%eax)
 1b3:	1f                   	pop    %ds
 1b4:	00 06                	add    %al,(%esi)
 1b6:	04 07                	add    $0x7,%al
 1b8:	68 03 00 00 0b       	push   $0xb000003
 1bd:	61                   	popa
 1be:	00 00                	add    %al,(%eax)
 1c0:	00 03                	add    %al,(%ebx)
 1c2:	00 00                	add    %al,(%eax)
 1c4:	00 00                	add    %al,(%eax)
 1c6:	03 3b                	add    (%ebx),%edi
 1c8:	03 18                	add    (%eax),%ebx
 1ca:	01 00                	add    %eax,(%eax)
 1cc:	00 03                	add    %al,(%ebx)
 1ce:	2e 05 00 00 04 07    	cs add $0x7040000,%eax
 1d4:	1d 47 00 00 00       	sbb    $0x47,%eax
 1d9:	03 cd                	add    %ebp,%ecx
 1db:	01 00                	add    %eax,(%eax)
 1dd:	00 04 08             	add    %al,(%eax,%ecx,1)
 1e0:	1d 5a 00 00 00       	sbb    $0x5a,%eax
 1e5:	03 8d 01 00 00 04    	add    0x4000001(%ebp),%ecx
 1eb:	09 1d 6d 00 00 00    	or     %ebx,0x6d
 1f1:	03 cb                	add    %ebx,%ecx
 1f3:	04 00                	add    $0x0,%al
 1f5:	00 04 0a             	add    %al,(%edx,%ecx,1)
 1f8:	1d 80 00 00 00       	sbb    $0x80,%eax
 1fd:	08 10                	or     %dl,(%eax)
 1ff:	04 33                	add    $0x33,%al
 201:	3a 02                	cmp    (%edx),%al
 203:	00 00                	add    %al,(%eax)
 205:	01 a1 04 00 00 04    	add    %esp,0x4000004(%ecx)
 20b:	34 11                	xor    $0x11,%al
 20d:	e5 01                	in     $0x1,%eax
 20f:	00 00                	add    %al,(%eax)
 211:	00 01                	add    %al,(%ecx)
 213:	21 01                	and    %eax,(%ecx)
 215:	00 00                	add    %al,(%eax)
 217:	04 35                	add    $0x35,%al
 219:	11 e5                	adc    %esp,%ebp
 21b:	01 00                	add    %eax,(%eax)
 21d:	00 04 01             	add    %al,(%ecx,%eax,1)
 220:	9c                   	pushf
 221:	04 00                	add    $0x0,%al
 223:	00 04 36             	add    %al,(%esi,%esi,1)
 226:	11 e5                	adc    %esp,%ebp
 228:	01 00                	add    %eax,(%eax)
 22a:	00 08                	add    %cl,(%eax)
 22c:	0d 72 73 76 00       	or     $0x767372,%eax
 231:	04 37                	add    $0x37,%al
 233:	11 e5                	adc    %esp,%ebp
 235:	01 00                	add    %eax,(%eax)
 237:	00 0c 00             	add    %cl,(%eax,%eax,1)
 23a:	03 bc 01 00 00 04 38 	add    0x38040000(%ecx,%eax,1),%edi
 241:	03 fd                	add    %ebp,%edi
 243:	01 00                	add    %eax,(%eax)
 245:	00 08                	add    %cl,(%eax)
 247:	10 04 3d 83 02 00 00 	adc    %al,0x283(,%edi,1)
 24e:	0d 6e 75 6d 00       	or     $0x6d756e,%eax
 253:	04 3e                	add    $0x3e,%al
 255:	11 e5                	adc    %esp,%ebp
 257:	01 00                	add    %eax,(%eax)
 259:	00 00                	add    %al,(%eax)
 25b:	01 61 04             	add    %esp,0x4(%ecx)
 25e:	00 00                	add    %al,(%eax)
 260:	04 3f                	add    $0x3f,%al
 262:	11 e5                	adc    %esp,%ebp
 264:	01 00                	add    %eax,(%eax)
 266:	00 04 01             	add    %al,(%ecx,%eax,1)
 269:	9c                   	pushf
 26a:	04 00                	add    $0x0,%al
 26c:	00 04 40             	add    %al,(%eax,%eax,2)
 26f:	11 e5                	adc    %esp,%ebp
 271:	01 00                	add    %eax,(%eax)
 273:	00 08                	add    %cl,(%eax)
 275:	01 d1                	add    %edx,%ecx
 277:	00 00                	add    %al,(%eax)
 279:	00 04 41             	add    %al,(%ecx,%eax,2)
 27c:	11 e5                	adc    %esp,%ebp
 27e:	01 00                	add    %eax,(%eax)
 280:	00 0c 00             	add    %cl,(%eax,%eax,1)
 283:	03 2c 04             	add    (%esp,%eax,1),%ebp
 286:	00 00                	add    %al,(%eax)
 288:	04 42                	add    $0x42,%al
 28a:	03 46 02             	add    0x2(%esi),%eax
 28d:	00 00                	add    %al,(%eax)
 28f:	0f 6d                	(bad)
 291:	00 00                	add    %al,(%eax)
 293:	00 04 47             	add    %al,(%edi,%eax,2)
 296:	0e                   	push   %cs
 297:	ef                   	out    %eax,(%dx)
 298:	02 00                	add    (%eax),%al
 29a:	00 02                	add    %al,(%edx)
 29c:	9a 00 00 00 01 02 12 	lcall  $0x1202,$0x1000000
 2a3:	01 00                	add    %eax,(%eax)
 2a5:	00 02                	add    %al,(%edx)
 2a7:	02 98 03 00 00 04    	add    0x4000003(%eax),%bl
 2ad:	02 b2 00 00 00 08    	add    0x8000000(%edx),%dh
 2b3:	02 ef                	add    %bh,%ch
 2b5:	02 00                	add    (%eax),%al
 2b7:	00 10                	add    %dl,(%eax)
 2b9:	02 a9 04 00 00 20    	add    0x20000004(%ecx),%ch
 2bf:	02 a5 01 00 00 40    	add    0x40000001(%ebp),%ah
 2c5:	02 66 05             	add    0x5(%esi),%ah
 2c8:	00 00                	add    %al,(%eax)
 2ca:	80 0e 44             	orb    $0x44,(%esi)
 2cd:	00 00                	add    %al,(%eax)
 2cf:	00 00                	add    %al,(%eax)
 2d1:	01 0e                	add    %ecx,(%esi)
 2d3:	58                   	pop    %eax
 2d4:	05 00 00 00 02       	add    $0x2000000,%eax
 2d9:	0e                   	push   %cs
 2da:	c0 03 00             	rolb   $0x0,(%ebx)
 2dd:	00 00                	add    %al,(%eax)
 2df:	04 0e                	add    $0xe,%al
 2e1:	df 02                	filds  (%edx)
 2e3:	00 00                	add    %al,(%eax)
 2e5:	00 08                	add    %cl,(%eax)
 2e7:	0e                   	push   %cs
 2e8:	c1 00 00             	roll   $0x0,(%eax)
 2eb:	00 00                	add    %al,(%eax)
 2ed:	10 00                	adc    %al,(%eax)
 2ef:	15 10 6c 0d 03       	adc    $0x30d6c10,%eax
 2f4:	00 00                	add    %al,(%eax)
 2f6:	16                   	push   %ss
 2f7:	27                   	daa
 2f8:	04 00                	add    $0x0,%al
 2fa:	00 6d 1a             	add    %ch,0x1a(%ebp)
 2fd:	3a 02                	cmp    (%edx),%al
 2ff:	00 00                	add    %al,(%eax)
 301:	16                   	push   %ss
 302:	3f                   	aas
 303:	00 00                	add    %al,(%eax)
 305:	00 6e 17             	add    %ch,0x17(%esi)
 308:	83 02 00             	addl   $0x0,(%edx)
 30b:	00 00                	add    %al,(%eax)
 30d:	08 08                	or     %cl,(%eax)
 30f:	04 93                	add    $0x93,%al
 311:	30 03                	xor    %al,(%ebx)
 313:	00 00                	add    %al,(%eax)
 315:	01 cf                	add    %ecx,%edi
 317:	03 00                	add    (%eax),%eax
 319:	00 04 94             	add    %al,(%esp,%edx,4)
 31c:	19 e5                	sbb    %esp,%ebp
 31e:	01 00                	add    %eax,(%eax)
 320:	00 00                	add    %al,(%eax)
 322:	01 0c 00             	add    %ecx,(%eax,%eax,1)
 325:	00 00                	add    %al,(%eax)
 327:	04 95                	add    $0x95,%al
 329:	19 d9                	sbb    %ebx,%ecx
 32b:	01 00                	add    %eax,(%eax)
 32d:	00 04 00             	add    %al,(%eax,%eax,1)
 330:	08 06                	or     %al,(%esi)
 332:	04 98                	add    $0x98,%al
 334:	87 03                	xchg   %eax,(%ebx)
 336:	00 00                	add    %al,(%eax)
 338:	01 09                	add    %ecx,(%ecx)
 33a:	03 00                	add    (%eax),%eax
 33c:	00 04 99             	add    %al,(%ecx,%ebx,4)
 33f:	19 cd                	sbb    %ecx,%ebp
 341:	01 00                	add    %eax,(%eax)
 343:	00 00                	add    %al,(%eax)
 345:	01 35 02 00 00 04    	add    %esi,0x4000002
 34b:	9a 19 cd 01 00 00 01 	lcall  $0x100,$0x1cd19
 352:	01 72 04             	add    %esi,0x4(%edx)
 355:	00 00                	add    %al,(%eax)
 357:	04 9b                	add    $0x9b,%al
 359:	19 cd                	sbb    %ecx,%ebp
 35b:	01 00                	add    %eax,(%eax)
 35d:	00 02                	add    %al,(%edx)
 35f:	01 85 03 00 00 04    	add    %eax,0x4000003(%ebp)
 365:	9c                   	pushf
 366:	19 cd                	sbb    %ecx,%ebp
 368:	01 00                	add    %eax,(%eax)
 36a:	00 03                	add    %al,(%ebx)
 36c:	01 f5                	add    %esi,%ebp
 36e:	01 00                	add    %eax,(%eax)
 370:	00 04 9d 19 cd 01 00 	add    %al,0x1cd19(,%ebx,4)
 377:	00 04 01             	add    %al,(%ecx,%eax,1)
 37a:	09 01                	or     %eax,(%ecx)
 37c:	00 00                	add    %al,(%eax)
 37e:	04 9e                	add    $0x9e,%al
 380:	19 cd                	sbb    %ecx,%ebp
 382:	01 00                	add    %eax,(%eax)
 384:	00 05 00 15 08 92    	add    %al,0x92081500
 38a:	99                   	cltd
 38b:	03 00                	add    (%eax),%eax
 38d:	00 17                	add    %dl,(%edi)
 38f:	0d 03 00 00 17       	or     $0x17000003,%eax
 394:	30 03                	xor    %al,(%ebx)
 396:	00 00                	add    %al,(%eax)
 398:	00 08                	add    %cl,(%eax)
 39a:	78 04                	js     3a0 <SEG_KERN_CS+0x398>
 39c:	5a                   	pop    %edx
 39d:	00 05 00 00 01 5d    	add    %al,0x5d010000
 3a3:	03 00                	add    (%eax),%eax
 3a5:	00 04 5b             	add    %al,(%ebx,%ebx,2)
 3a8:	11 e5                	adc    %esp,%ebp
 3aa:	01 00                	add    %eax,(%eax)
 3ac:	00 00                	add    %al,(%eax)
 3ae:	01 ac 02 00 00 04 5e 	add    %ebp,0x5e040000(%edx,%eax,1)
 3b5:	11 e5                	adc    %esp,%ebp
 3b7:	01 00                	add    %eax,(%eax)
 3b9:	00 04 01             	add    %al,(%ecx,%eax,1)
 3bc:	29 01                	sub    %eax,(%ecx)
 3be:	00 00                	add    %al,(%eax)
 3c0:	04 5f                	add    $0x5f,%al
 3c2:	11 e5                	adc    %esp,%ebp
 3c4:	01 00                	add    %eax,(%eax)
 3c6:	00 08                	add    %cl,(%eax)
 3c8:	01 b4 01 00 00 04 62 	add    %esi,0x62040000(%ecx,%eax,1)
 3cf:	11 e5                	adc    %esp,%ebp
 3d1:	01 00                	add    %eax,(%eax)
 3d3:	00 0c 01             	add    %cl,(%ecx,%eax,1)
 3d6:	39 05 00 00 04 65    	cmp    %eax,0x65040000
 3dc:	11 e5                	adc    %esp,%ebp
 3de:	01 00                	add    %eax,(%eax)
 3e0:	00 10                	add    %dl,(%eax)
 3e2:	01 20                	add    %esp,(%eax)
 3e4:	03 00                	add    (%eax),%eax
 3e6:	00 04 68             	add    %al,(%eax,%ebp,2)
 3e9:	11 e5                	adc    %esp,%ebp
 3eb:	01 00                	add    %eax,(%eax)
 3ed:	00 14 01             	add    %dl,(%ecx,%eax,1)
 3f0:	eb 00                	jmp    3f2 <SEG_KERN_CS+0x3ea>
 3f2:	00 00                	add    %al,(%eax)
 3f4:	04 69                	add    $0x69,%al
 3f6:	11 e5                	adc    %esp,%ebp
 3f8:	01 00                	add    %eax,(%eax)
 3fa:	00 18                	add    %bl,(%eax)
 3fc:	18 ef                	sbb    %ch,%bh
 3fe:	02 00                	add    (%eax),%al
 400:	00 1c 01             	add    %bl,(%ecx,%eax,1)
 403:	41                   	inc    %ecx
 404:	05 00 00 04 72       	add    $0x72040000,%eax
 409:	11 e5                	adc    %esp,%ebp
 40b:	01 00                	add    %eax,(%eax)
 40d:	00 2c 01             	add    %ch,(%ecx,%eax,1)
 410:	ff 02                	incl   (%edx)
 412:	00 00                	add    %al,(%eax)
 414:	04 73                	add    $0x73,%al
 416:	11 e5                	adc    %esp,%ebp
 418:	01 00                	add    %eax,(%eax)
 41a:	00 30                	add    %dh,(%eax)
 41c:	01 29                	add    %ebp,(%ecx)
 41e:	03 00                	add    (%eax),%eax
 420:	00 04 76             	add    %al,(%esi,%esi,2)
 423:	11 e5                	adc    %esp,%ebp
 425:	01 00                	add    %eax,(%eax)
 427:	00 34 01             	add    %dh,(%ecx,%eax,1)
 42a:	54                   	push   %esp
 42b:	01 00                	add    %eax,(%eax)
 42d:	00 04 77             	add    %al,(%edi,%esi,2)
 430:	11 e5                	adc    %esp,%ebp
 432:	01 00                	add    %eax,(%eax)
 434:	00 38                	add    %bh,(%eax)
 436:	01 60 01             	add    %esp,0x1(%eax)
 439:	00 00                	add    %al,(%eax)
 43b:	04 7a                	add    $0x7a,%al
 43d:	11 e5                	adc    %esp,%ebp
 43f:	01 00                	add    %eax,(%eax)
 441:	00 3c 01             	add    %bh,(%ecx,%eax,1)
 444:	99                   	cltd
 445:	01 00                	add    %eax,(%eax)
 447:	00 04 7d 11 e5 01 00 	add    %al,0x1e511(,%edi,2)
 44e:	00 40 01             	add    %al,0x1(%eax)
 451:	82 02 00             	addb   $0x0,(%edx)
 454:	00 04 80             	add    %al,(%eax,%eax,4)
 457:	11 e5                	adc    %esp,%ebp
 459:	01 00                	add    %eax,(%eax)
 45b:	00 44 01 28          	add    %al,0x28(%ecx,%eax,1)
 45f:	02 00                	add    (%eax),%al
 461:	00 04 83             	add    %al,(%ebx,%eax,4)
 464:	11 e5                	adc    %esp,%ebp
 466:	01 00                	add    %eax,(%eax)
 468:	00 48 01             	add    %cl,0x1(%eax)
 46b:	89 04 00             	mov    %eax,(%eax,%eax,1)
 46e:	00 04 84             	add    %al,(%esp,%eax,4)
 471:	11 e5                	adc    %esp,%ebp
 473:	01 00                	add    %eax,(%eax)
 475:	00 4c 01 54          	add    %cl,0x54(%ecx,%eax,1)
 479:	03 00                	add    (%eax),%eax
 47b:	00 04 85 11 d9 01 00 	add    %al,0x1d911(,%eax,4)
 482:	00 50 01             	add    %dl,0x1(%eax)
 485:	59                   	pop    %ecx
 486:	02 00                	add    (%eax),%al
 488:	00 04 86             	add    %al,(%esi,%eax,4)
 48b:	11 d9                	adc    %ebx,%ecx
 48d:	01 00                	add    %eax,(%eax)
 48f:	00 52 01             	add    %dl,0x1(%edx)
 492:	69 01 00 00 04 87    	imul   $0x87040000,(%ecx),%eax
 498:	11 d9                	adc    %ebx,%ecx
 49a:	01 00                	add    %eax,(%eax)
 49c:	00 54 01 1b          	add    %dl,0x1b(%ecx,%eax,1)
 4a0:	02 00                	add    (%eax),%al
 4a2:	00 04 88             	add    %al,(%eax,%ecx,4)
 4a5:	11 d9                	adc    %ebx,%ecx
 4a7:	01 00                	add    %eax,(%eax)
 4a9:	00 56 01             	add    %dl,0x1(%esi)
 4ac:	97                   	xchg   %eax,%edi
 4ad:	04 00                	add    $0x0,%al
 4af:	00 04 8b             	add    %al,(%ebx,%ecx,4)
 4b2:	11 f1                	adc    %esi,%ecx
 4b4:	01 00                	add    %eax,(%eax)
 4b6:	00 58 01             	add    %bl,0x1(%eax)
 4b9:	7a 03                	jp     4be <SEG_KERN_CS+0x4b6>
 4bb:	00 00                	add    %al,(%eax)
 4bd:	04 8c                	add    $0x8c,%al
 4bf:	11 e5                	adc    %esp,%ebp
 4c1:	01 00                	add    %eax,(%eax)
 4c3:	00 60 01             	add    %ah,0x1(%eax)
 4c6:	6e                   	outsb  %ds:(%esi),(%dx)
 4c7:	02 00                	add    (%eax),%al
 4c9:	00 04 8d 11 e5 01 00 	add    %al,0x1e511(,%ecx,4)
 4d0:	00 64 01 3a          	add    %ah,0x3a(%ecx,%eax,1)
 4d4:	04 00                	add    $0x0,%al
 4d6:	00 04 8e             	add    %al,(%esi,%ecx,4)
 4d9:	11 e5                	adc    %esp,%ebp
 4db:	01 00                	add    %eax,(%eax)
 4dd:	00 68 01             	add    %ch,0x1(%eax)
 4e0:	ab                   	stos   %eax,%es:(%edi)
 4e1:	05 00 00 04 8f       	add    $0x8f040000,%eax
 4e6:	11 cd                	adc    %ecx,%ebp
 4e8:	01 00                	add    %eax,(%eax)
 4ea:	00 6c 01 b4          	add    %ch,-0x4c(%ecx,%eax,1)
 4ee:	02 00                	add    (%eax),%al
 4f0:	00 04 90             	add    %al,(%eax,%edx,4)
 4f3:	11 cd                	adc    %ecx,%ebp
 4f5:	01 00                	add    %eax,(%eax)
 4f7:	00 6d 18             	add    %ch,0x18(%ebp)
 4fa:	87 03                	xchg   %eax,(%ebx)
 4fc:	00 00                	add    %al,(%eax)
 4fe:	70 00                	jo     500 <SEG_KERN_CS+0x4f8>
 500:	03 5f 00             	add    0x0(%edi),%ebx
 503:	00 00                	add    %al,(%eax)
 505:	04 a1                	add    $0xa1,%al
 507:	03 99 03 00 00 0f    	add    0xf000003(%ecx),%ebx
 50d:	6d                   	insl   (%dx),%es:(%edi)
 50e:	00 00                	add    %al,(%eax)
 510:	00 04 b8             	add    %al,(%eax,%edi,4)
 513:	0e                   	push   %cs
 514:	37                   	aaa
 515:	05 00 00 02 f5       	add    $0xf5020000,%eax
 51a:	00 00                	add    %al,(%eax)
 51c:	00 01                	add    %al,(%ecx)
 51e:	02 b4 05 00 00 02 02 	add    0x2020000(%ebp,%eax,1),%dh
 525:	66 04 00             	data16 add $0x0,%al
 528:	00 03                	add    %al,(%ebx)
 52a:	02 52 04             	add    0x4(%edx),%dl
 52d:	00 00                	add    %al,(%eax)
 52f:	04 02                	add    $0x2,%al
 531:	82 05 00 00 05 00 22 	addb   $0x22,0x50000
 538:	d9 01                	flds   (%ecx)
 53a:	00 00                	add    %al,(%eax)
 53c:	18 04 c3             	sbb    %al,(%ebx,%eax,8)
 53f:	08 79 05             	or     %bh,0x5(%ecx)
 542:	00 00                	add    %al,(%eax)
 544:	01 61 04             	add    %esp,0x4(%ecx)
 547:	00 00                	add    %al,(%eax)
 549:	04 c4                	add    $0xc4,%al
 54b:	11 e5                	adc    %esp,%ebp
 54d:	01 00                	add    %eax,(%eax)
 54f:	00 00                	add    %al,(%eax)
 551:	01 9c 04 00 00 04 c5 	add    %ebx,-0x3afc0000(%esp,%eax,1)
 558:	11 f1                	adc    %esi,%ecx
 55a:	01 00                	add    %eax,(%eax)
 55c:	00 04 0d 6c 65 6e 00 	add    %al,0x6e656c(,%ecx,1)
 563:	04 c6                	add    $0xc6,%al
 565:	11 f1                	adc    %esi,%ecx
 567:	01 00                	add    %eax,(%eax)
 569:	00 0c 01             	add    %cl,(%ecx,%eax,1)
 56c:	b9 02 00 00 04       	mov    $0x4000002,%ecx
 571:	c7                   	(bad)
 572:	11 e5                	adc    %esp,%ebp
 574:	01 00                	add    %eax,(%eax)
 576:	00 14 00             	add    %dl,(%eax,%eax,1)
 579:	03 db                	add    %ebx,%ebx
 57b:	01 00                	add    %eax,(%eax)
 57d:	00 04 c9             	add    %al,(%ecx,%ecx,8)
 580:	1c 37                	sbb    $0x37,%al
 582:	05 00 00 09 8c       	add    $0x8c090000,%eax
 587:	00 00                	add    %al,(%eax)
 589:	00 0a                	add    %cl,(%edx)
 58b:	8f 05 00 00 23 04    	pop    0x4230000
 591:	09 4a 05             	or     %ecx,0x5(%edx)
 594:	00 00                	add    %al,(%eax)
 596:	0b 8f 05 00 00 09    	or     0x9000005(%edi),%ecx
 59c:	b9 04 00 00 0d       	mov    $0xd000004,%ecx
 5a1:	8f 05 00 00 09 32    	pop    0x32090000
 5a7:	01 00                	add    %eax,(%eax)
 5a9:	00 0e                	add    %cl,(%esi)
 5ab:	8f 05 00 00 09 8e    	pop    0x8e090000
 5b1:	03 00                	add    (%eax),%eax
 5b3:	00 0f                	add    %cl,(%edi)
 5b5:	8f 05 00 00 09 66    	pop    0x66090000
 5bb:	02 00                	add    (%eax),%al
 5bd:	00 10                	add    %dl,(%eax)
 5bf:	8f 05 00 00 09 5d    	pop    0x5d090000
 5c5:	04 00                	add    $0x0,%al
 5c7:	00 11                	add    %dl,(%ecx)
 5c9:	8f 05 00 00 14 61    	pop    0x61140000
 5cf:	00 00                	add    %al,(%eax)
 5d1:	00 de                	add    %bl,%dh
 5d3:	05 00 00 24 b5       	add    $0xb5240000,%eax
 5d8:	01 00                	add    %eax,(%eax)
 5da:	00 ff                	add    %bh,%bh
 5dc:	03 00                	add    (%eax),%eax
 5de:	25 ed 01 00 00       	and    $0x1ed,%eax
 5e3:	01 09                	add    %ecx,(%ecx)
 5e5:	11 cd                	adc    %ecx,%ebp
 5e7:	05 00 00 00 10       	add    $0x10000000,%eax
 5ec:	05 03 00 40 40       	add    $0x40400003,%eax
 5f1:	00 26                	add    %ah,(%esi)
 5f3:	7b 04                	jnp    5f9 <SEG_KERN_CS+0x5f1>
 5f5:	00 00                	add    %al,(%eax)
 5f7:	01 0a                	add    %ecx,(%edx)
 5f9:	0d c1 01 00 00       	or     $0x1c1,%eax
 5fe:	05 03 00 30 40       	add    $0x40300003,%eax
 603:	00 0f                	add    %cl,(%edi)
 605:	6d                   	insl   (%dx),%es:(%edi)
 606:	00 00                	add    %al,(%eax)
 608:	00 01                	add    %al,(%ecx)
 60a:	18 06                	sbb    %al,(%esi)
 60c:	1d 06 00 00 02       	sbb    $0x2000006,%eax
 611:	76 01                	jbe    614 <SEG_KERN_CS+0x60c>
 613:	00 00                	add    %al,(%eax)
 615:	01 02                	add    %eax,(%edx)
 617:	90                   	nop
 618:	05 00 00 02 00       	add    $0x20000,%eax
 61d:	10 9d 05 00 00 0b    	adc    %bl,0xb000005(%ebp)
 623:	2d 06 00 00 0a       	sub    $0xa000006,%eax
 628:	61                   	popa
 629:	00 00                	add    %al,(%eax)
 62b:	00 00                	add    %al,(%eax)
 62d:	10 74 05 00          	adc    %dh,0x0(%ebp,%eax,1)
 631:	00 09                	add    %cl,(%ecx)
 633:	3d 06 00 00 0a       	cmp    $0xa000006,%eax
 638:	61                   	popa
 639:	00 00                	add    %al,(%eax)
 63b:	00 00                	add    %al,(%eax)
 63d:	19 4c 02 00          	sbb    %ecx,0x0(%edx,%eax,1)
 641:	00 07                	add    %al,(%edi)
 643:	61                   	popa
 644:	00 00                	add    %al,(%eax)
 646:	00 4d 06             	add    %cl,0x6(%ebp)
 649:	00 00                	add    %al,(%eax)
 64b:	1a 00                	sbb    (%eax),%al
 64d:	19 21                	sbb    %esp,(%ecx)
 64f:	05 00 00 06 61       	add    $0x61060000,%eax
 654:	00 00                	add    %al,(%eax)
 656:	00 5d 06             	add    %bl,0x6(%ebp)
 659:	00 00                	add    %al,(%eax)
 65b:	1a 00                	sbb    (%eax),%al
 65d:	10 a8 00 00 00 0d    	adc    %ch,0xd000000(%eax)
 663:	7c 06                	jl     66b <SEG_KERN_CS+0x663>
 665:	00 00                	add    %al,(%eax)
 667:	0a bc 01 00 00 0a bc 	or     -0x43f60000(%ecx,%eax,1),%bh
 66e:	01 00                	add    %eax,(%eax)
 670:	00 0a                	add    %cl,(%edx)
 672:	bc 01 00 00 0a       	mov    $0xa000001,%esp
 677:	bc 01 00 00 00       	mov    $0x1,%esp
 67c:	10 13                	adc    %dl,(%ebx)
 67e:	05 00 00 0a 8c       	add    $0x8c0a0000,%eax
 683:	06                   	push   %es
 684:	00 00                	add    %al,(%eax)
 686:	0a 61 00             	or     0x0(%ecx),%ah
 689:	00 00                	add    %al,(%eax)
 68b:	00 27                	add    %ah,(%edi)
 68d:	8a 02                	mov    (%edx),%al
 68f:	00 00                	add    %al,(%eax)
 691:	01 d3                	add    %edx,%ebx
 693:	06                   	push   %es
 694:	05 15 40 00 b1       	add    $0xb1004015,%eax
 699:	00 00                	add    %al,(%eax)
 69b:	00 01                	add    %al,(%ecx)
 69d:	9c                   	pushf
 69e:	cd 06                	int    $0x6
 6a0:	00 00                	add    %al,(%eax)
 6a2:	05 3a 00 00 00       	add    $0x3a,%eax
 6a7:	d4 0e                	aam    $0xe
 6a9:	61                   	popa
 6aa:	00 00                	add    %al,(%eax)
 6ac:	00 02                	add    %al,(%edx)
 6ae:	91                   	xchg   %eax,%ecx
 6af:	68 04 63 72 30       	push   $0x30726304
 6b4:	00 d5                	add    %dl,%ch
 6b6:	0e                   	push   %cs
 6b7:	61                   	popa
 6b8:	00 00                	add    %al,(%eax)
 6ba:	00 02                	add    %al,(%edx)
 6bc:	91                   	xchg   %eax,%ecx
 6bd:	64 04 63             	fs add $0x63,%al
 6c0:	72 34                	jb     6f6 <SEG_KERN_CS+0x6ee>
 6c2:	00 d5                	add    %dl,%ch
 6c4:	13 61 00             	adc    0x0(%ecx),%esp
 6c7:	00 00                	add    %al,(%eax)
 6c9:	02 91 6c 00 28 2a    	add    0x2a28006c(%ecx),%dl
 6cf:	00 00                	add    %al,(%eax)
 6d1:	00 01                	add    %al,(%ecx)
 6d3:	b9 0a 61 00 00       	mov    $0x610a,%ecx
 6d8:	00 89 14 40 00 7c    	add    %cl,0x7c004014(%ecx)
 6de:	00 00                	add    %al,(%eax)
 6e0:	00 01                	add    %al,(%ecx)
 6e2:	9c                   	pushf
 6e3:	2e 07                	cs pop %es
 6e5:	00 00                	add    %al,(%eax)
 6e7:	04 65                	add    $0x65,%al
 6e9:	61                   	popa
 6ea:	78 00                	js     6ec <SEG_KERN_CS+0x6e4>
 6ec:	ba 0e 61 00 00       	mov    $0x610e,%edx
 6f1:	00 02                	add    %al,(%edx)
 6f3:	91                   	xchg   %eax,%ecx
 6f4:	68 04 65 62 78       	push   $0x78626504
 6f9:	00 ba 17 61 00 00    	add    %bh,0x6117(%edx)
 6ff:	00 02                	add    %al,(%edx)
 701:	91                   	xchg   %eax,%ecx
 702:	64 04 65             	fs add $0x65,%al
 705:	64 78 00             	fs js  708 <SEG_KERN_CS+0x700>
 708:	ba 1c 61 00 00       	mov    $0x611c,%edx
 70d:	00 02                	add    %al,(%edx)
 70f:	91                   	xchg   %eax,%ecx
 710:	60                   	pusha
 711:	04 65                	add    $0x65,%al
 713:	63 78 00             	arpl   %edi,0x0(%eax)
 716:	ba 21 61 00 00       	mov    $0x6121,%edx
 71b:	00 02                	add    %al,(%edx)
 71d:	91                   	xchg   %eax,%ecx
 71e:	5c                   	pop    %esp
 71f:	05 02 01 00 00       	add    $0x102,%eax
 724:	c5 0e                	lds    (%esi),%ecx
 726:	61                   	popa
 727:	00 00                	add    %al,(%eax)
 729:	00 02                	add    %al,(%edx)
 72b:	91                   	xchg   %eax,%ecx
 72c:	6c                   	insb   (%dx),%es:(%edi)
 72d:	00 12                	add    %dl,(%edx)
 72f:	77 00                	ja     731 <SEG_KERN_CS+0x729>
 731:	00 00                	add    %al,(%eax)
 733:	a7                   	cmpsl  %es:(%edi),%ds:(%esi)
 734:	24 14                	and    $0x14,%al
 736:	40                   	inc    %eax
 737:	00 65 00             	add    %ah,0x0(%ebp)
 73a:	00 00                	add    %al,(%eax)
 73c:	01 9c 7b 07 00 00 07 	add    %ebx,0x7000007(%ebx,%edi,2)
 743:	92                   	xchg   %eax,%edx
 744:	04 00                	add    $0x0,%al
 746:	00 a7 28 7b 07 00    	add    %ah,0x77b28(%edi)
 74c:	00 02                	add    %al,(%edx)
 74e:	91                   	xchg   %eax,%ecx
 74f:	00 05 c9 02 00 00    	add    %al,0x2c9
 755:	a8 0e                	test   $0xe,%al
 757:	61                   	popa
 758:	00 00                	add    %al,(%eax)
 75a:	00 02                	add    %al,(%edx)
 75c:	91                   	xchg   %eax,%ecx
 75d:	74 05                	je     764 <SEG_KERN_CS+0x75c>
 75f:	47                   	inc    %edi
 760:	02 00                	add    (%eax),%al
 762:	00 a8 1a 61 00 00    	add    %ch,0x611a(%eax)
 768:	00 02                	add    %al,(%edx)
 76a:	91                   	xchg   %eax,%ecx
 76b:	70 04                	jo     771 <SEG_KERN_CS+0x769>
 76d:	70 64                	jo     7d3 <SEG_KERN_CS+0x7cb>
 76f:	65 00 a9 0e 61 00 00 	add    %ch,%gs:0x610e(%ecx)
 776:	00 02                	add    %al,(%edx)
 778:	91                   	xchg   %eax,%ecx
 779:	6c                   	insb   (%dx),%es:(%edi)
 77a:	00 0b                	add    %cl,(%ebx)
 77c:	c1 01 00             	roll   $0x0,(%ecx)
 77f:	00 12                	add    %dl,(%edx)
 781:	17                   	pop    %ss
 782:	00 00                	add    %al,(%eax)
 784:	00 95 c0 13 40 00    	add    %dl,0x4013c0(%ebp)
 78a:	64 00 00             	add    %al,%fs:(%eax)
 78d:	00 01                	add    %al,(%ecx)
 78f:	9c                   	pushf
 790:	df 07                	filds  (%edi)
 792:	00 00                	add    %al,(%eax)
 794:	07                   	pop    %es
 795:	92                   	xchg   %eax,%edx
 796:	04 00                	add    $0x0,%al
 798:	00 95 26 7b 07 00    	add    %dl,0x77b26(%ebp)
 79e:	00 02                	add    %al,(%edx)
 7a0:	91                   	xchg   %eax,%ecx
 7a1:	00 13                	add    %dl,(%ebx)
 7a3:	c6                   	(bad)
 7a4:	13 40 00             	adc    0x0(%eax),%eax
 7a7:	5a                   	pop    %edx
 7a8:	00 00                	add    %al,(%eax)
 7aa:	00 04 69             	add    %al,(%ecx,%ebp,2)
 7ad:	00 97 12 61 00 00    	add    %dl,0x6112(%edi)
 7b3:	00 02                	add    %al,(%edx)
 7b5:	91                   	xchg   %eax,%ecx
 7b6:	74 13                	je     7cb <SEG_KERN_CS+0x7c3>
 7b8:	cf                   	iret
 7b9:	13 40 00             	adc    0x0(%eax),%eax
 7bc:	44                   	inc    %esp
 7bd:	00 00                	add    %al,(%eax)
 7bf:	00 05 5d 03 00 00    	add    %al,0x35d
 7c5:	98                   	cwtl
 7c6:	12 61 00             	adc    0x0(%ecx),%ah
 7c9:	00 00                	add    %al,(%eax)
 7cb:	02 91 70 05 47 02    	add    0x2470570(%ecx),%dl
 7d1:	00 00                	add    %al,(%eax)
 7d3:	9d                   	popf
 7d4:	12 61 00             	adc    0x0(%ecx),%ah
 7d7:	00 00                	add    %al,(%eax)
 7d9:	02 91 6c 00 00 00    	add    0x6c(%ecx),%dl
 7df:	1b d0                	sbb    %eax,%edx
 7e1:	02 00                	add    (%eax),%al
 7e3:	00 75 54             	add    %dh,0x54(%ebp)
 7e6:	12 40 00             	adc    0x0(%eax),%al
 7e9:	6c                   	insb   (%dx),%es:(%edi)
 7ea:	01 00                	add    %eax,(%eax)
 7ec:	00 01                	add    %al,(%ecx)
 7ee:	9c                   	pushf
 7ef:	38 08                	cmp    %cl,(%eax)
 7f1:	00 00                	add    %al,(%eax)
 7f3:	07                   	pop    %es
 7f4:	e9 04 00 00 75       	jmp    750007fd <MAGIC+0x595257fb>
 7f9:	22 7b 07             	and    0x7(%ebx),%bh
 7fc:	00 00                	add    %al,(%eax)
 7fe:	02 91 00 07 9c 04    	add    0x49c0700(%ecx),%dl
 804:	00 00                	add    %al,(%eax)
 806:	75 31                	jne    839 <SEG_KERN_CS+0x831>
 808:	74 00                	je     80a <SEG_KERN_CS+0x802>
 80a:	00 00                	add    %al,(%eax)
 80c:	02 91 58 0c 6c 65    	add    0x656c0c58(%ecx),%dl
 812:	6e                   	outsb  %ds:(%esi),(%dx)
 813:	00 75 40             	add    %dh,0x40(%ebp)
 816:	74 00                	je     818 <SEG_KERN_CS+0x810>
 818:	00 00                	add    %al,(%eax)
 81a:	02 91 50 04 6e 00    	add    0x6e0450(%ecx),%dl
 820:	86 0e                	xchg   %cl,(%esi)
 822:	61                   	popa
 823:	00 00                	add    %al,(%eax)
 825:	00 02                	add    %al,(%edx)
 827:	91                   	xchg   %eax,%ecx
 828:	6c                   	insb   (%dx),%es:(%edi)
 829:	05 30 02 00 00       	add    $0x230,%eax
 82e:	8f                   	(bad)
 82f:	0e                   	push   %cs
 830:	61                   	popa
 831:	00 00                	add    %al,(%eax)
 833:	00 02                	add    %al,(%edx)
 835:	91                   	xchg   %eax,%ecx
 836:	68 00 1c d7 04       	push   $0x4d71c00
 83b:	00 00                	add    %al,(%eax)
 83d:	71 61                	jno    8a0 <SEG_KERN_CS+0x898>
 83f:	00 00                	add    %al,(%eax)
 841:	00 40 12             	add    %al,0x12(%eax)
 844:	40                   	inc    %eax
 845:	00 14 00             	add    %dl,(%eax,%eax,1)
 848:	00 00                	add    %al,(%eax)
 84a:	01 9c 69 08 00 00 0c 	add    %ebx,0xc000008(%ecx,%ebp,2)
 851:	6e                   	outsb  %ds:(%esi),(%dx)
 852:	00 71 24             	add    %dh,0x24(%ecx)
 855:	61                   	popa
 856:	00 00                	add    %al,(%eax)
 858:	00 02                	add    %al,(%edx)
 85a:	91                   	xchg   %eax,%ecx
 85b:	00 0c 76             	add    %cl,(%esi,%esi,2)
 85e:	00 71 30             	add    %dh,0x30(%ecx)
 861:	61                   	popa
 862:	00 00                	add    %al,(%eax)
 864:	00 02                	add    %al,(%edx)
 866:	91                   	xchg   %eax,%ecx
 867:	04 00                	add    $0x0,%al
 869:	1c 34                	sbb    $0x34,%al
 86b:	03 00                	add    (%eax),%eax
 86d:	00 69 61             	add    %ch,0x61(%ecx)
 870:	00 00                	add    %al,(%eax)
 872:	00 13                	add    %dl,(%ebx)
 874:	12 40 00             	adc    0x0(%eax),%al
 877:	2d 00 00 00 01       	sub    $0x1000000,%eax
 87c:	9c                   	pushf
 87d:	9a 08 00 00 0c 6e 00 	lcall  $0x6e,$0xc000008
 884:	69 22 61 00 00 00    	imul   $0x61,(%edx),%esp
 88a:	02 91 00 0c 76 00    	add    0x760c00(%ecx),%dl
 890:	69 2e 61 00 00 00    	imul   $0x61,(%esi),%ebp
 896:	02 91 04 00 1b 42    	add    0x421b0004(%ecx),%dl
 89c:	01 00                	add    %eax,(%eax)
 89e:	00 3d b5 10 40 00    	add    %bh,0x4010b5
 8a4:	5e                   	pop    %esi
 8a5:	01 00                	add    %eax,(%eax)
 8a7:	00 01                	add    %al,(%ecx)
 8a9:	9c                   	pushf
 8aa:	e3 08                	jecxz  8b4 <SEG_KERN_CS+0x8ac>
 8ac:	00 00                	add    %al,(%eax)
 8ae:	07                   	pop    %es
 8af:	e9 04 00 00 3d       	jmp    3d0008b8 <MAGIC+0x215258b6>
 8b4:	25 7b 07 00 00       	and    $0x77b,%eax
 8b9:	02 91 00 07 92 04    	add    0x4920700(%ecx),%dl
 8bf:	00 00                	add    %al,(%eax)
 8c1:	3d 35 e3 08 00       	cmp    $0x8e335,%eax
 8c6:	00 02                	add    %al,(%edx)
 8c8:	91                   	xchg   %eax,%ecx
 8c9:	04 13                	add    $0x13,%al
 8cb:	53                   	push   %ebx
 8cc:	11 40 00             	adc    %eax,0x0(%eax)
 8cf:	71 00                	jno    8d1 <SEG_KERN_CS+0x8c9>
 8d1:	00 00                	add    %al,(%eax)
 8d3:	05 da 02 00 00       	add    $0x2da,%eax
 8d8:	54                   	push   %esp
 8d9:	14 e8                	adc    $0xe8,%al
 8db:	08 00                	or     %al,(%eax)
 8dd:	00 02                	add    %al,(%edx)
 8df:	91                   	xchg   %eax,%ecx
 8e0:	6c                   	insb   (%dx),%es:(%edi)
 8e1:	00 00                	add    %al,(%eax)
 8e3:	0b 00                	or     (%eax),%eax
 8e5:	05 00 00 0b 79       	add    $0x790b0000,%eax
 8ea:	05 00 00 12 46       	add    $0x46120000,%eax
 8ef:	04 00                	add    $0x0,%al
 8f1:	00 32                	add    %dh,(%edx)
 8f3:	73 10                	jae    905 <SEG_KERN_CS+0x8fd>
 8f5:	40                   	inc    %eax
 8f6:	00 42 00             	add    %al,0x0(%edx)
 8f9:	00 00                	add    %al,(%eax)
 8fb:	01 9c 1e 09 00 00 07 	add    %ebx,0x7000009(%esi,%ebx,1)
 902:	72 00                	jb     904 <SEG_KERN_CS+0x8fc>
 904:	00 00                	add    %al,(%eax)
 906:	32 1e                	xor    (%esi),%bl
 908:	1e                   	push   %ds
 909:	09 00                	or     %eax,(%eax)
 90b:	00 02                	add    %al,(%edx)
 90d:	91                   	xchg   %eax,%ecx
 90e:	00 04 76             	add    %al,(%esi,%esi,2)
 911:	67 61                	addr16 popa
 913:	00 33                	add    %dh,(%ebx)
 915:	0f 23 09             	mov    %ecx,%db1
 918:	00 00                	add    %al,(%eax)
 91a:	02 91 74 00 0b 2d    	add    0x2d0b0074(%ecx),%dl
 920:	00 00                	add    %al,(%eax)
 922:	00 0b                	add    %cl,(%ebx)
 924:	4e                   	dec    %esi
 925:	00 00                	add    %al,(%eax)
 927:	00 29                	add    %ch,(%ecx)
 929:	e8 04 00 00 01       	call   1000932 <_mb_unpaged_end+0xbfb932>
 92e:	21 0e                	and    %ecx,(%esi)
 930:	7b 07                	jnp    939 <SEG_KERN_CS+0x931>
 932:	00 00                	add    %al,(%eax)
 934:	00 10                	add    %dl,(%eax)
 936:	40                   	inc    %eax
 937:	00 73 00             	add    %dh,0x0(%ebx)
 93a:	00 00                	add    %al,(%eax)
 93c:	01 9c 07 a7 03 00 00 	add    %ebx,0x3a7(%edi,%eax,1)
 943:	21 1d 61 00 00 00    	and    %ebx,0x61
 949:	02 91 00 0c 65 62    	add    0x62650c00(%ecx),%dl
 94f:	78 00                	js     951 <SEG_KERN_CS+0x949>
 951:	21 2d 61 00 00 00    	and    %ebp,0x61
 957:	02 91 04 05 e9 04    	add    0x4e90504(%ecx),%dl
 95d:	00 00                	add    %al,(%eax)
 95f:	26 12 7b 07          	adc    %es:0x7(%ebx),%bh
 963:	00 00                	add    %al,(%eax)
 965:	02                   	.byte 0x2
 966:	91                   	xchg   %eax,%ecx
 967:	6c                   	insb   (%dx),%es:(%edi)
	...

Disassembly of section .unpaged.debug_abbrev:

00000000 <.unpaged.debug_abbrev>:
   0:	01 0d 00 03 0e 3a    	add    %ecx,0x3a0e0300
   6:	0b 3b                	or     (%ebx),%edi
   8:	0b 39                	or     (%ecx),%edi
   a:	0b 49 13             	or     0x13(%ecx),%ecx
   d:	38 0b                	cmp    %cl,(%ebx)
   f:	00 00                	add    %al,(%eax)
  11:	02 28                	add    (%eax),%ch
  13:	00 03                	add    %al,(%ebx)
  15:	0e                   	push   %cs
  16:	1c 0b                	sbb    $0xb,%al
  18:	00 00                	add    %al,(%eax)
  1a:	03 16                	add    (%esi),%edx
  1c:	00 03                	add    %al,(%ebx)
  1e:	0e                   	push   %cs
  1f:	3a 0b                	cmp    (%ebx),%cl
  21:	3b 0b                	cmp    (%ebx),%ecx
  23:	39 0b                	cmp    %ecx,(%ebx)
  25:	49                   	dec    %ecx
  26:	13 00                	adc    (%eax),%eax
  28:	00 04 34             	add    %al,(%esp,%esi,1)
  2b:	00 03                	add    %al,(%ebx)
  2d:	08 3a                	or     %bh,(%edx)
  2f:	21 01                	and    %eax,(%ecx)
  31:	3b 0b                	cmp    (%ebx),%ecx
  33:	39 0b                	cmp    %ecx,(%ebx)
  35:	49                   	dec    %ecx
  36:	13 02                	adc    (%edx),%eax
  38:	18 00                	sbb    %al,(%eax)
  3a:	00 05 34 00 03 0e    	add    %al,0xe030034
  40:	3a 21                	cmp    (%ecx),%ah
  42:	01 3b                	add    %edi,(%ebx)
  44:	0b 39                	or     (%ecx),%edi
  46:	0b 49 13             	or     0x13(%ecx),%ecx
  49:	02 18                	add    (%eax),%bl
  4b:	00 00                	add    %al,(%eax)
  4d:	06                   	push   %es
  4e:	24 00                	and    $0x0,%al
  50:	0b 0b                	or     (%ebx),%ecx
  52:	3e 0b 03             	or     %ds:(%ebx),%eax
  55:	0e                   	push   %cs
  56:	00 00                	add    %al,(%eax)
  58:	07                   	pop    %es
  59:	05 00 03 0e 3a       	add    $0x3a0e0300,%eax
  5e:	21 01                	and    %eax,(%ecx)
  60:	3b 0b                	cmp    (%ebx),%ecx
  62:	39 0b                	cmp    %ecx,(%ebx)
  64:	49                   	dec    %ecx
  65:	13 02                	adc    (%edx),%eax
  67:	18 00                	sbb    %al,(%eax)
  69:	00 08                	add    %cl,(%eax)
  6b:	13 01                	adc    (%ecx),%eax
  6d:	0b 0b                	or     (%ebx),%ecx
  6f:	3a 0b                	cmp    (%ebx),%cl
  71:	3b 0b                	cmp    (%ebx),%ecx
  73:	39 21                	cmp    %esp,(%ecx)
  75:	09 01                	or     %eax,(%ecx)
  77:	13 00                	adc    (%eax),%eax
  79:	00 09                	add    %cl,(%ecx)
  7b:	34 00                	xor    $0x0,%al
  7d:	03 0e                	add    (%esi),%ecx
  7f:	3a 21                	cmp    (%ecx),%ah
  81:	05 3b 0b 39 21       	add    $0x21390b3b,%eax
  86:	0e                   	push   %cs
  87:	49                   	dec    %ecx
  88:	13 3f                	adc    (%edi),%edi
  8a:	19 3c 19             	sbb    %edi,(%ecx,%ebx,1)
  8d:	00 00                	add    %al,(%eax)
  8f:	0a 05 00 49 13 00    	or     0x134900,%al
  95:	00 0b                	add    %cl,(%ebx)
  97:	0f 00 0b             	str    (%ebx)
  9a:	21 04 49             	and    %eax,(%ecx,%ecx,2)
  9d:	13 00                	adc    (%eax),%eax
  9f:	00 0c 05 00 03 08 3a 	add    %cl,0x3a080300(,%eax,1)
  a6:	21 01                	and    %eax,(%ecx)
  a8:	3b 0b                	cmp    (%ebx),%ecx
  aa:	39 0b                	cmp    %ecx,(%ebx)
  ac:	49                   	dec    %ecx
  ad:	13 02                	adc    (%edx),%eax
  af:	18 00                	sbb    %al,(%eax)
  b1:	00 0d 0d 00 03 08    	add    %cl,0x803000d
  b7:	3a 0b                	cmp    (%ebx),%cl
  b9:	3b 0b                	cmp    (%ebx),%ecx
  bb:	39 0b                	cmp    %ecx,(%ebx)
  bd:	49                   	dec    %ecx
  be:	13 38                	adc    (%eax),%edi
  c0:	0b 00                	or     (%eax),%eax
  c2:	00 0e                	add    %cl,(%esi)
  c4:	28 00                	sub    %al,(%eax)
  c6:	03 0e                	add    (%esi),%ecx
  c8:	1c 05                	sbb    $0x5,%al
  ca:	00 00                	add    %al,(%eax)
  cc:	0f 04                	(bad)
  ce:	01 3e                	add    %edi,(%esi)
  d0:	21 07                	and    %eax,(%edi)
  d2:	0b 21                	or     (%ecx),%esp
  d4:	04 49                	add    $0x49,%al
  d6:	13 3a                	adc    (%edx),%edi
  d8:	0b 3b                	or     (%ebx),%edi
  da:	0b 39                	or     (%ecx),%edi
  dc:	0b 01                	or     (%ecx),%eax
  de:	13 00                	adc    (%eax),%eax
  e0:	00 10                	add    %dl,(%eax)
  e2:	2e 01 3f             	add    %edi,%cs:(%edi)
  e5:	19 03                	sbb    %eax,(%ebx)
  e7:	0e                   	push   %cs
  e8:	3a 21                	cmp    (%ecx),%ah
  ea:	06                   	push   %es
  eb:	3b 0b                	cmp    (%ebx),%ecx
  ed:	39 21                	cmp    %esp,(%ecx)
  ef:	0d 27 19 3c 19       	or     $0x193c1927,%eax
  f4:	01 13                	add    %edx,(%ebx)
  f6:	00 00                	add    %al,(%eax)
  f8:	11 0d 00 03 0e 3a    	adc    %ecx,0x3a0e0300
  fe:	21 03                	and    %eax,(%ebx)
 100:	3b 0b                	cmp    (%ebx),%ecx
 102:	39 0b                	cmp    %ecx,(%ebx)
 104:	49                   	dec    %ecx
 105:	13 38                	adc    (%eax),%edi
 107:	05 00 00 12 2e       	add    $0x2e120000,%eax
 10c:	01 3f                	add    %edi,(%edi)
 10e:	19 03                	sbb    %eax,(%ebx)
 110:	0e                   	push   %cs
 111:	3a 21                	cmp    (%ecx),%ah
 113:	01 3b                	add    %edi,(%ebx)
 115:	0b 39                	or     (%ecx),%edi
 117:	21 06                	and    %eax,(%esi)
 119:	27                   	daa
 11a:	19 11                	sbb    %edx,(%ecx)
 11c:	01 12                	add    %edx,(%edx)
 11e:	06                   	push   %es
 11f:	40                   	inc    %eax
 120:	18 7a 19             	sbb    %bh,0x19(%edx)
 123:	01 13                	add    %edx,(%ebx)
 125:	00 00                	add    %al,(%eax)
 127:	13 0b                	adc    (%ebx),%ecx
 129:	01 11                	add    %edx,(%ecx)
 12b:	01 12                	add    %edx,(%edx)
 12d:	06                   	push   %es
 12e:	00 00                	add    %al,(%eax)
 130:	14 01                	adc    $0x1,%al
 132:	01 49 13             	add    %ecx,0x13(%ecx)
 135:	01 13                	add    %edx,(%ebx)
 137:	00 00                	add    %al,(%eax)
 139:	15 17 01 0b 0b       	adc    $0xb0b0117,%eax
 13e:	3a 21                	cmp    (%ecx),%ah
 140:	04 3b                	add    $0x3b,%al
 142:	0b 39                	or     (%ecx),%edi
 144:	21 05 01 13 00 00    	and    %eax,0x1301
 14a:	16                   	push   %ss
 14b:	0d 00 03 0e 3a       	or     $0x3a0e0300,%eax
 150:	21 04 3b             	and    %eax,(%ebx,%edi,1)
 153:	0b 39                	or     (%ecx),%edi
 155:	0b 49 13             	or     0x13(%ecx),%ecx
 158:	00 00                	add    %al,(%eax)
 15a:	17                   	pop    %ss
 15b:	0d 00 49 13 00       	or     $0x134900,%eax
 160:	00 18                	add    %bl,(%eax)
 162:	0d 00 49 13 38       	or     $0x38134900,%eax
 167:	0b 00                	or     (%eax),%eax
 169:	00 19                	add    %bl,(%ecx)
 16b:	2e 01 3f             	add    %edi,%cs:(%edi)
 16e:	19 03                	sbb    %eax,(%ebx)
 170:	0e                   	push   %cs
 171:	3a 21                	cmp    (%ecx),%ah
 173:	06                   	push   %es
 174:	3b 0b                	cmp    (%ebx),%ecx
 176:	39 21                	cmp    %esp,(%ecx)
 178:	11 49 13             	adc    %ecx,0x13(%ecx)
 17b:	3c 19                	cmp    $0x19,%al
 17d:	01 13                	add    %edx,(%ebx)
 17f:	00 00                	add    %al,(%eax)
 181:	1a 18                	sbb    (%eax),%bl
 183:	00 00                	add    %al,(%eax)
 185:	00 1b                	add    %bl,(%ebx)
 187:	2e 01 3f             	add    %edi,%cs:(%edi)
 18a:	19 03                	sbb    %eax,(%ebx)
 18c:	0e                   	push   %cs
 18d:	3a 21                	cmp    (%ecx),%ah
 18f:	01 3b                	add    %edi,(%ebx)
 191:	0b 39                	or     (%ecx),%edi
 193:	21 06                	and    %eax,(%esi)
 195:	27                   	daa
 196:	19 11                	sbb    %edx,(%ecx)
 198:	01 12                	add    %edx,(%edx)
 19a:	06                   	push   %es
 19b:	40                   	inc    %eax
 19c:	18 7c 19 01          	sbb    %bh,0x1(%ecx,%ebx,1)
 1a0:	13 00                	adc    (%eax),%eax
 1a2:	00 1c 2e             	add    %bl,(%esi,%ebp,1)
 1a5:	01 3f                	add    %edi,(%edi)
 1a7:	19 03                	sbb    %eax,(%ebx)
 1a9:	0e                   	push   %cs
 1aa:	3a 21                	cmp    (%ecx),%ah
 1ac:	01 3b                	add    %edi,(%ebx)
 1ae:	0b 39                	or     (%ecx),%edi
 1b0:	21 0a                	and    %ecx,(%edx)
 1b2:	27                   	daa
 1b3:	19 49 13             	sbb    %ecx,0x13(%ecx)
 1b6:	11 01                	adc    %eax,(%ecx)
 1b8:	12 06                	adc    (%esi),%al
 1ba:	40                   	inc    %eax
 1bb:	18 7a 19             	sbb    %bh,0x19(%edx)
 1be:	01 13                	add    %edx,(%ebx)
 1c0:	00 00                	add    %al,(%eax)
 1c2:	1d 11 01 25 0e       	sbb    $0xe250111,%eax
 1c7:	13 0b                	adc    (%ebx),%ecx
 1c9:	03 1f                	add    (%edi),%ebx
 1cb:	1b 1f                	sbb    (%edi),%ebx
 1cd:	11 01                	adc    %eax,(%ecx)
 1cf:	12 06                	adc    (%esi),%al
 1d1:	10 17                	adc    %dl,(%edi)
 1d3:	00 00                	add    %al,(%eax)
 1d5:	1e                   	push   %ds
 1d6:	26 00 49 13          	add    %cl,%es:0x13(%ecx)
 1da:	00 00                	add    %al,(%eax)
 1dc:	1f                   	pop    %ds
 1dd:	24 00                	and    $0x0,%al
 1df:	0b 0b                	or     (%ebx),%ecx
 1e1:	3e 0b 03             	or     %ds:(%ebx),%eax
 1e4:	08 00                	or     %al,(%eax)
 1e6:	00 20                	add    %ah,(%eax)
 1e8:	13 01                	adc    (%ecx),%eax
 1ea:	0b 05 3a 0b 3b 0b    	or     0xb3b0b3a,%eax
 1f0:	39 0b                	cmp    %ecx,(%ebx)
 1f2:	01 13                	add    %edx,(%ebx)
 1f4:	00 00                	add    %al,(%eax)
 1f6:	21 21                	and    %esp,(%ecx)
 1f8:	00 49 13             	add    %cl,0x13(%ecx)
 1fb:	2f                   	das
 1fc:	0b 00                	or     (%eax),%eax
 1fe:	00 22                	add    %ah,(%edx)
 200:	13 01                	adc    (%ecx),%eax
 202:	03 0e                	add    (%esi),%ecx
 204:	0b 0b                	or     (%ebx),%ecx
 206:	3a 0b                	cmp    (%ebx),%cl
 208:	3b 0b                	cmp    (%ebx),%ecx
 20a:	39 0b                	cmp    %ecx,(%ebx)
 20c:	01 13                	add    %edx,(%ebx)
 20e:	00 00                	add    %al,(%eax)
 210:	23 0f                	and    (%edi),%ecx
 212:	00 0b                	add    %cl,(%ebx)
 214:	0b 00                	or     (%eax),%eax
 216:	00 24 21             	add    %ah,(%ecx,%eiz,1)
 219:	00 49 13             	add    %cl,0x13(%ecx)
 21c:	2f                   	das
 21d:	05 00 00 25 34       	add    $0x34250000,%eax
 222:	00 03                	add    %al,(%ebx)
 224:	0e                   	push   %cs
 225:	3a 0b                	cmp    (%ebx),%cl
 227:	3b 0b                	cmp    (%ebx),%ecx
 229:	39 0b                	cmp    %ecx,(%ebx)
 22b:	49                   	dec    %ecx
 22c:	13 88 01 05 02 18    	adc    0x18020501(%eax),%ecx
 232:	00 00                	add    %al,(%eax)
 234:	26 34 00             	es xor $0x0,%al
 237:	03 0e                	add    (%esi),%ecx
 239:	3a 0b                	cmp    (%ebx),%cl
 23b:	3b 0b                	cmp    (%ebx),%ecx
 23d:	39 0b                	cmp    %ecx,(%ebx)
 23f:	49                   	dec    %ecx
 240:	13 3f                	adc    (%edi),%edi
 242:	19 02                	sbb    %eax,(%edx)
 244:	18 00                	sbb    %al,(%eax)
 246:	00 27                	add    %ah,(%edi)
 248:	2e 01 3f             	add    %edi,%cs:(%edi)
 24b:	19 03                	sbb    %eax,(%ebx)
 24d:	0e                   	push   %cs
 24e:	3a 0b                	cmp    (%ebx),%cl
 250:	3b 0b                	cmp    (%ebx),%ecx
 252:	39 0b                	cmp    %ecx,(%ebx)
 254:	11 01                	adc    %eax,(%ecx)
 256:	12 06                	adc    (%esi),%al
 258:	40                   	inc    %eax
 259:	18 7c 19 01          	sbb    %bh,0x1(%ecx,%ebx,1)
 25d:	13 00                	adc    (%eax),%eax
 25f:	00 28                	add    %ch,(%eax)
 261:	2e 01 3f             	add    %edi,%cs:(%edi)
 264:	19 03                	sbb    %eax,(%ebx)
 266:	0e                   	push   %cs
 267:	3a 0b                	cmp    (%ebx),%cl
 269:	3b 0b                	cmp    (%ebx),%ecx
 26b:	39 0b                	cmp    %ecx,(%ebx)
 26d:	49                   	dec    %ecx
 26e:	13 11                	adc    (%ecx),%edx
 270:	01 12                	add    %edx,(%edx)
 272:	06                   	push   %es
 273:	40                   	inc    %eax
 274:	18 7c 19 01          	sbb    %bh,0x1(%ecx,%ebx,1)
 278:	13 00                	adc    (%eax),%eax
 27a:	00 29                	add    %ch,(%ecx)
 27c:	2e 01 3f             	add    %edi,%cs:(%edi)
 27f:	19 03                	sbb    %eax,(%ebx)
 281:	0e                   	push   %cs
 282:	3a 0b                	cmp    (%ebx),%cl
 284:	3b 0b                	cmp    (%ebx),%ecx
 286:	39 0b                	cmp    %ecx,(%ebx)
 288:	27                   	daa
 289:	19 49 13             	sbb    %ecx,0x13(%ecx)
 28c:	11 01                	adc    %eax,(%ecx)
 28e:	12 06                	adc    (%esi),%al
 290:	40                   	inc    %eax
 291:	18 7c 19 00          	sbb    %bh,0x0(%ecx,%ebx,1)
	...

Disassembly of section .unpaged.debug_aranges:

00000000 <.unpaged.debug_aranges>:
   0:	1c 00                	sbb    $0x0,%al
   2:	00 00                	add    %al,(%eax)
   4:	02 00                	add    (%eax),%al
   6:	00 00                	add    %al,(%eax)
   8:	00 00                	add    %al,(%eax)
   a:	04 00                	add    $0x0,%al
   c:	00 00                	add    %al,(%eax)
   e:	00 00                	add    %al,(%eax)
  10:	00 10                	add    %dl,(%eax)
  12:	40                   	inc    %eax
  13:	00 b6 05 00 00 00    	add    %dh,0x5(%esi)
  19:	00 00                	add    %al,(%eax)
  1b:	00 00                	add    %al,(%eax)
  1d:	00 00                	add    %al,(%eax)
	...

Disassembly of section .unpaged.debug_line:

00000000 <.unpaged.debug_line>:
   0:	bd 02 00 00 05       	mov    $0x5000002,%ebp
   5:	00 04 00             	add    %al,(%eax,%eax,1)
   8:	4f                   	dec    %edi
   9:	00 00                	add    %al,(%eax)
   b:	00 01                	add    %al,(%ecx)
   d:	01 01                	add    %eax,(%ecx)
   f:	fb                   	sti
  10:	0e                   	push   %cs
  11:	0d 00 01 01 01       	or     $0x1010100,%eax
  16:	01 00                	add    %eax,(%eax)
  18:	00 00                	add    %al,(%eax)
  1a:	01 00                	add    %eax,(%eax)
  1c:	00 01                	add    %al,(%ecx)
  1e:	01 01                	add    %eax,(%ecx)
  20:	1f                   	pop    %ds
  21:	04 0b                	add    $0xb,%al
  23:	00 00                	add    %al,(%eax)
  25:	00 2f                	add    %ch,(%edi)
  27:	00 00                	add    %al,(%eax)
  29:	00 33                	add    %dh,(%ebx)
  2b:	00 00                	add    %al,(%eax)
  2d:	00 68 00             	add    %ch,0x0(%eax)
  30:	00 00                	add    %al,(%eax)
  32:	02 01                	add    (%ecx),%al
  34:	1f                   	pop    %ds
  35:	02 0f                	add    (%edi),%cl
  37:	07                   	pop    %es
  38:	04 00                	add    $0x0,%al
  3a:	00 00                	add    %al,(%eax)
  3c:	01 04 00             	add    %eax,(%eax,%eax,1)
  3f:	00 00                	add    %al,(%eax)
  41:	01 a6 00 00 00 02    	add    %esp,0x2000000(%esi)
  47:	b3 00                	mov    $0x0,%bl
  49:	00 00                	add    %al,(%eax)
  4b:	02 ae 00 00 00 03    	add    0x3000000(%esi),%ch
  51:	ba 00 00 00 03       	mov    $0x3000000,%edx
  56:	c4 00                	les    (%eax),%eax
  58:	00 00                	add    %al,(%eax)
  5a:	01 05 32 00 05 02    	add    %eax,0x2050032
  60:	00 10                	add    %dl,(%eax)
  62:	40                   	inc    %eax
  63:	00 03                	add    %al,(%ebx)
  65:	20 01                	and    %al,(%ecx)
  67:	05 08 67 05 09       	add    $0x9056708,%eax
  6c:	91                   	xchg   %eax,%ecx
  6d:	05 12 f5 05 05       	add    $0x505f512,%eax
  72:	76 08                	jbe    7c <SEG_KERN_CS+0x74>
  74:	21 d8                	and    %ebx,%eax
  76:	05 22 d7 05 05       	add    $0x505d722,%eax
  7b:	90                   	nop
  7c:	bc 05 0c 59 05       	mov    $0x5590c05,%esp
  81:	01 3d 05 24 30 05    	add    %edi,0x5302405
  87:	0f 67 05 0b 75 05 12 	packuswb 0x1205750b,%mm0
  8e:	2f                   	das
  8f:	05 18 82 05 0d       	add    $0xd058218,%eax
  94:	58                   	pop    %eax
  95:	05 18 90 05 10       	add    $0x10059018,%eax
  9a:	2e 05 0d 3d 05 11    	cs add $0x11053d0d,%eax
  a0:	48                   	dec    %eax
  a1:	05 14 00 02 04       	add    $0x4020014,%eax
  a6:	01 66 05             	add    %esp,0x5(%esi)
  a9:	11 00                	adc    %eax,(%eax)
  ab:	02 04 01             	add    (%ecx,%eax,1),%al
  ae:	66 05 0a 6c          	add    $0x6c0a,%ax
  b2:	05 3b 31 05 19       	add    $0x1905313b,%eax
  b7:	75 05                	jne    be <SEG_KERN_CS+0xb6>
  b9:	13 91 c9 05 1c ca    	adc    -0x35e3fa37(%ecx),%edx
  bf:	05 1a 58 05 1c       	add    $0x1c05581a,%eax
  c4:	67 05 1a 58 05 1b    	addr16 add $0x1b05581a,%eax
  ca:	67 05 19 58 05 1c    	addr16 add $0x1c055819,%eax
  d0:	68 05 1a 58 05       	push   $0x5581a05
  d5:	1b 67 05             	sbb    0x5(%edi),%esp
  d8:	2c 58                	sub    $0x58,%al
  da:	05 2a 58 05 19       	add    $0x1905582a,%eax
  df:	2e 05 18 6d 05 31    	cs add $0x31056d18,%eax
  e5:	58                   	pop    %eax
  e6:	05 20 66 05 16       	add    $0x16056620,%eax
  eb:	2e 05 1a 67 05 14    	cs add $0x1405671a,%eax
  f1:	9f                   	lahf
  f2:	05 0e cb 05 16       	add    $0x1605cb0e,%eax
  f7:	58                   	pop    %eax
  f8:	05 08 3c 05 2c       	add    $0x2c053c08,%eax
  fd:	4b                   	dec    %ebx
  fe:	05 14 66 05 0e       	add    $0xe056614,%eax
 103:	3d 05 15 2f 05       	cmp    $0x52f1505,%eax
 108:	10 66 05             	adc    %ah,0x5(%esi)
 10b:	3a 59 05             	cmp    0x5(%ecx),%bl
 10e:	25 58 05 34 3c       	and    $0x3c340558,%eax
 113:	05 41 2e 05 16       	add    $0x16052e41,%eax
 118:	3c 05                	cmp    $0x5,%al
 11a:	11 3d 05 0d 31 05    	adc    %edi,0x5310d05
 120:	36 02 24 13          	add    %ss:(%ebx,%edx,1),%ah
 124:	05 21 58 05 30       	add    $0x30055821,%eax
 129:	3c 05                	cmp    $0x5,%al
 12b:	3d 2e 05 12 3c       	cmp    $0x3c12052e,%eax
 130:	05 24 03 79 3c       	add    $0x3c790324,%eax
 135:	05 36 66 05 30       	add    $0x30056636,%eax
 13a:	66 05 1e 2e          	add    $0x2e1e,%ax
 13e:	05 01 03 12 74       	add    $0x74120301,%eax
 143:	05 25 03 7a 2e       	add    $0x2e7a0325,%eax
 148:	05 2f 66 05 09       	add    $0x905662f,%eax
 14d:	3c 05                	cmp    $0x5,%al
 14f:	2c 08                	sub    $0x8,%al
 151:	85 05 37 66 05 09    	test   %eax,0x9056637
 157:	3c 05                	cmp    $0x5,%al
 159:	01 08                	add    %ecx,(%eax)
 15b:	af                   	scas   %es:(%edi),%eax
 15c:	05 31 68 05 0c       	add    $0xc056831,%eax
 161:	3d 05 08 c8 05       	cmp    $0x5c80805,%eax
 166:	13 4b 05             	adc    0x5(%ebx),%ecx
 169:	17                   	pop    %ss
 16a:	ac                   	lods   %ds:(%esi),%al
 16b:	05 1c 3c 05 0c       	add    $0xc053c1c,%eax
 170:	69 05 01 3d 05 33 30 	imul   $0x3d0f0530,0x33053d01,%eax
 177:	05 0f 3d 
 17a:	05 14 ac 05 01       	add    $0x105ac14,%eax
 17f:	4b                   	dec    %ebx
 180:	05 45 30 05 08       	add    $0x8053045,%eax
 185:	08 d8                	or     %bl,%al
 187:	05 0e 08 5c 05       	add    $0x55c080e,%eax
 18c:	08 f2                	or     %dh,%dl
 18e:	05 16 f3 05 0d       	add    $0xd05f316,%eax
 193:	f2 05 08 08 77 05    	repnz add $0x5770808,%eax
 199:	0c be                	or     $0xbe,%al
 19b:	05 0a 00 02 04       	add    $0x402000a,%eax
 1a0:	01 08                	add    %ecx,(%eax)
 1a2:	12 05 0b 9f 05 09    	adc    0x9059f0b,%al
 1a8:	00 02                	add    %al,(%edx)
 1aa:	04 01                	add    $0x1,%al
 1ac:	08 12                	or     %dl,(%edx)
 1ae:	05 16 a0 05 20       	add    $0x2005a016,%eax
 1b3:	90                   	nop
 1b4:	05 0e ba 05 08       	add    $0x805ba0e,%eax
 1b9:	3d 05 09 67 05       	cmp    $0x5670905,%eax
 1be:	18 cb                	sbb    %cl,%bl
 1c0:	05 17 08 e5 05       	add    $0x5e50817,%eax
 1c5:	18 08                	sbb    %cl,(%eax)
 1c7:	e5 05                	in     $0x5,%eax
 1c9:	1a 08                	sbb    (%eax),%cl
 1cb:	92                   	xchg   %eax,%edx
 1cc:	05 0e 66 05 14       	add    $0x1405660e,%eax
 1d1:	59                   	pop    %ecx
 1d2:	05 08 58 05 1d       	add    $0x1d055808,%eax
 1d7:	59                   	pop    %ecx
 1d8:	05 09 03 67 9e       	add    $0x9e670309,%eax
 1dd:	44                   	inc    %esp
 1de:	05 01 03 13 20       	add    $0x20130301,%eax
 1e3:	05 2c 5a 05 12       	add    $0x12055a2c,%eax
 1e8:	68 05 05 74 05       	push   $0x5740505
 1ed:	12 2f                	adc    (%edi),%ch
 1ef:	79 05                	jns    1f6 <SEG_KERN_CS+0x1ee>
 1f1:	0d 92 05 33 9e       	or     $0x9e330592,%eax
 1f6:	05 0c 90 05 13       	add    $0x1305900c,%eax
 1fb:	4b                   	dec    %ebx
 1fc:	05 0d 4d 05 16       	add    $0x16054d0d,%eax
 201:	90                   	nop
 202:	05 21 82 05 1a       	add    $0x1a058221,%eax
 207:	66 05 32 00          	add    $0x32,%ax
 20b:	02 04 02             	add    (%edx,%eax,1),%al
 20e:	03 74 2e 05          	add    0x5(%esi,%ebp,1),%esi
 212:	1b 00                	sbb    (%eax),%eax
 214:	02 04 01             	add    (%ecx,%eax,1),%al
 217:	4a                   	dec    %edx
 218:	05 01 03 0e 90       	add    $0x900e0301,%eax
 21d:	05 2e 4c 05 0e       	add    $0xe054c2e,%eax
 222:	67 05 1a 74 05 14    	addr16 add $0x1405741a,%eax
 228:	75 05                	jne    22f <SEG_KERN_CS+0x227>
 22a:	0e                   	push   %cs
 22b:	58                   	pop    %eax
 22c:	05 0b 68 05 0d       	add    $0xd05680b,%eax
 231:	2f                   	das
 232:	05 16 90 05 1f       	add    $0x1f059016,%eax
 237:	84 05 0d 65 05 10    	test   %al,0x1005650d
 23d:	32 05 0e 75 05 0c    	xor    0xc05750e,%al
 243:	75 05                	jne    24a <SEG_KERN_CS+0x242>
 245:	15 03 78 4a 05       	adc    $0x54a7803,%eax
 24a:	13 58 03             	adc    0x3(%eax),%ebx
 24d:	0b 58 05             	or     0x5(%eax),%ebx
 250:	01 bb 05 21 3e 05    	add    %edi,0x53e2105(%ebx)
 256:	0e                   	push   %cs
 257:	67 05 05 75 05 0d    	addr16 add $0xd057505,%eax
 25d:	08 76 05             	or     %dh,0x5(%esi)
 260:	08 3c 05 10 4b 05 09 	or     %bh,0x9054b10(,%eax,1)
 267:	77 05                	ja     26e <SEG_KERN_CS+0x266>
 269:	05 75 05 0e 08       	add    $0x80e0575,%eax
 26e:	77 75                	ja     2e5 <SEG_KERN_CS+0x2dd>
 270:	05 08 82 05 10       	add    $0x10058208,%eax
 275:	4c                   	dec    %esp
 276:	05 0e 4d 05 08       	add    $0x8054d0e,%eax
 27b:	66 05 10 4c          	add    $0x4c10,%ax
 27f:	05 0c 4d 05 01       	add    $0x1054d0c,%eax
 284:	3d 05 20 30 05       	cmp    $0x5302005,%eax
 289:	15 67 05 0b 85       	adc    $0x850b0567,%eax
 28e:	83 05 05 03 09 82 08 	addl   $0x8,0x82090305
 295:	3d 05 0b 08 14       	cmp    $0x14080b05,%eax
 29a:	83 05 09 84 05 05 4b 	addl   $0x4b,0x5058409
 2a1:	05 09 d8 05 05       	add    $0x505d809,%eax
 2a6:	75 05                	jne    2ad <SEG_KERN_CS+0x2a5>
 2a8:	09 d8                	or     %ebx,%eax
 2aa:	05 05 75 05 0e       	add    $0xe057505,%eax
 2af:	d8 05 08 66 05 0d    	fadds  0xd056608
 2b5:	4b                   	dec    %ebx
 2b6:	05 05 77 05 01       	add    $0x1057705,%eax
 2bb:	d7                   	xlat   %ds:(%ebx)
 2bc:	02 03                	add    (%ebx),%al
 2be:	00 01                	add    %al,(%ecx)
 2c0:	01                   	.byte 0x1

Disassembly of section .unpaged.debug_str:

00000000 <.unpaged.debug_str>:
   0:	6b 62 6f 6f          	imul   $0x6f,0x6f(%edx),%esp
   4:	74 69                	je     6f <SEG_KERN_CS+0x67>
   6:	6e                   	outsb  %ds:(%esi),(%dx)
   7:	66 6f                	outsw  %ds:(%esi),(%dx)
   9:	5f                   	pop    %edi
   a:	74 00                	je     c <SEG_KERN_CS+0x4>
   c:	66 62 75 66          	bound  %si,0x66(%ebp)
  10:	5f                   	pop    %edi
  11:	70 6e                	jo     81 <SEG_KERN_CS+0x79>
  13:	63 6f 6c             	arpl   %ebp,0x6c(%edi)
  16:	00 6b 62             	add    %ch,0x62(%ebx)
  19:	6f                   	outsl  %ds:(%esi),(%dx)
  1a:	6f                   	outsl  %ds:(%esi),(%dx)
  1b:	74 5f                	je     7c <SEG_KERN_CS+0x74>
  1d:	74 70                	je     8f <SEG_KERN_CS+0x87>
  1f:	67 5f                	addr16 pop %edi
  21:	69 64 65 6e 74 69 74 	imul   $0x79746974,0x6e(%ebp,%eiz,2),%esp
  28:	79 
  29:	00 6b 62             	add    %ch,0x62(%ebx)
  2c:	6f                   	outsl  %ds:(%esi),(%dx)
  2d:	6f                   	outsl  %ds:(%esi),(%dx)
  2e:	74 5f                	je     8f <SEG_KERN_CS+0x87>
  30:	74 70                	je     a2 <SEG_KERN_CS+0x9a>
  32:	67 5f                	addr16 pop %edi
  34:	63 68 65             	arpl   %ebp,0x65(%eax)
  37:	63 6b 5f             	arpl   %ebp,0x5f(%ebx)
  3a:	63 70 75             	arpl   %esi,0x75(%eax)
  3d:	66 00 65 6c          	data16 add %ah,0x6c(%ebp)
  41:	66 73 00             	data16 jae 44 <SEG_KERN_CS+0x3c>
  44:	4d                   	dec    %ebp
  45:	42                   	inc    %edx
  46:	49                   	dec    %ecx
  47:	4e                   	dec    %esi
  48:	46                   	inc    %esi
  49:	4f                   	dec    %edi
  4a:	5f                   	pop    %edi
  4b:	43                   	inc    %ebx
  4c:	4f                   	dec    %edi
  4d:	4e                   	dec    %esi
  4e:	46                   	inc    %esi
  4f:	5f                   	pop    %edi
  50:	54                   	push   %esp
  51:	42                   	inc    %edx
  52:	4c                   	dec    %esp
  53:	00 6b 65             	add    %ch,0x65(%ebx)
  56:	72 6e                	jb     c6 <SEG_KERN_CS+0xbe>
  58:	5f                   	pop    %edi
  59:	61                   	popa
  5a:	6c                   	insb   (%dx),%es:(%edi)
  5b:	6c                   	insb   (%dx),%es:(%edi)
  5c:	6f                   	outsl  %ds:(%esi),(%dx)
  5d:	63 00                	arpl   %eax,(%eax)
  5f:	6d                   	insl   (%dx),%es:(%edi)
  60:	62 69 6e             	bound  %ebp,0x6e(%ecx)
  63:	66 6f                	outsw  %ds:(%esi),(%dx)
  65:	5f                   	pop    %edi
  66:	74 00                	je     68 <SEG_KERN_CS+0x60>
  68:	73 68                	jae    d2 <SEG_KERN_CS+0xca>
  6a:	6f                   	outsl  %ds:(%esi),(%dx)
  6b:	72 74                	jb     e1 <SEG_KERN_CS+0xd9>
  6d:	20 69 6e             	and    %ch,0x6e(%ecx)
  70:	74 00                	je     72 <SEG_KERN_CS+0x6a>
  72:	74 65                	je     d9 <SEG_KERN_CS+0xd1>
  74:	78 74                	js     ea <SEG_KERN_CS+0xe2>
  76:	00 6b 62             	add    %ch,0x62(%ebx)
  79:	6f                   	outsl  %ds:(%esi),(%dx)
  7a:	6f                   	outsl  %ds:(%esi),(%dx)
  7b:	74 5f                	je     dc <SEG_KERN_CS+0xd4>
  7d:	74 70                	je     ef <SEG_KERN_CS+0xe7>
  7f:	67 5f                	addr16 pop %edi
  81:	6d                   	insl   (%dx),%es:(%edi)
  82:	61                   	popa
  83:	70 5f                	jo     e4 <SEG_KERN_CS+0xdc>
  85:	6b 65 72 6e          	imul   $0x6e,0x72(%ebp),%esp
  89:	65 6c                	gs insb (%dx),%es:(%edi)
  8b:	00 5f 6d             	add    %bl,0x6d(%edi)
  8e:	62 5f 70             	bound  %ebx,0x70(%edi)
  91:	68 79 73 5f 62       	push   $0x625f7379
  96:	61                   	popa
  97:	73 65                	jae    fe <SEG_KERN_CS+0xf6>
  99:	00 4d 42             	add    %cl,0x42(%ebp)
  9c:	49                   	dec    %ecx
  9d:	4e                   	dec    %esi
  9e:	46                   	inc    %esi
  9f:	4f                   	dec    %edi
  a0:	5f                   	pop    %edi
  a1:	4d                   	dec    %ebp
  a2:	45                   	inc    %ebp
  a3:	4d                   	dec    %ebp
  a4:	4f                   	dec    %edi
  a5:	52                   	push   %edx
  a6:	59                   	pop    %ecx
  a7:	00 74 70 67          	add    %dh,0x67(%eax,%esi,2)
  ab:	5f                   	pop    %edi
  ac:	63 70 75             	arpl   %esi,0x75(%eax)
  af:	69 64 00 4d 42 49 4e 	imul   $0x464e4942,0x4d(%eax,%eax,1),%esp
  b6:	46 
  b7:	4f                   	dec    %edi
  b8:	5f                   	pop    %edi
  b9:	4d                   	dec    %ebp
  ba:	4f                   	dec    %edi
  bb:	44                   	inc    %esp
  bc:	55                   	push   %ebp
  bd:	4c                   	dec    %esp
  be:	45                   	inc    %ebp
  bf:	53                   	push   %ebx
  c0:	00 4d 42             	add    %cl,0x42(%ebp)
  c3:	49                   	dec    %ecx
  c4:	4e                   	dec    %esi
  c5:	46                   	inc    %esi
  c6:	4f                   	dec    %edi
  c7:	5f                   	pop    %edi
  c8:	46                   	inc    %esi
  c9:	52                   	push   %edx
  ca:	41                   	inc    %ecx
  cb:	4d                   	dec    %ebp
  cc:	45                   	inc    %ebp
  cd:	42                   	inc    %edx
  ce:	55                   	push   %ebp
  cf:	46                   	inc    %esi
  d0:	00 73 68             	add    %dh,0x68(%ebx)
  d3:	6e                   	outsb  %ds:(%esi),(%dx)
  d4:	64 78 00             	fs js  d7 <SEG_KERN_CS+0xcf>
  d7:	4b                   	dec    %ebx
  d8:	42                   	inc    %edx
  d9:	4f                   	dec    %edi
  da:	4f                   	dec    %edi
  db:	54                   	push   %esp
  dc:	4d                   	dec    %ebp
  dd:	4d                   	dec    %ebp
  de:	41                   	inc    %ecx
  df:	50                   	push   %eax
  e0:	5f                   	pop    %edi
  e1:	41                   	inc    %ecx
  e2:	56                   	push   %esi
  e3:	41                   	inc    %ecx
  e4:	49                   	dec    %ecx
  e5:	4c                   	dec    %esp
  e6:	41                   	inc    %ecx
  e7:	42                   	inc    %edx
  e8:	4c                   	dec    %esp
  e9:	45                   	inc    %ebp
  ea:	00 6d 6f             	add    %ch,0x6f(%ebp)
  ed:	64 73 5f             	fs jae 14f <SEG_KERN_CS+0x147>
  f0:	61                   	popa
  f1:	64 64 72 00          	fs fs jb f5 <SEG_KERN_CS+0xed>
  f5:	4d                   	dec    %ebp
  f6:	42                   	inc    %edx
  f7:	4d                   	dec    %ebp
  f8:	4d                   	dec    %ebp
  f9:	41                   	inc    %ecx
  fa:	50                   	push   %eax
  fb:	5f                   	pop    %edi
  fc:	41                   	inc    %ecx
  fd:	56                   	push   %esi
  fe:	41                   	inc    %ecx
  ff:	49                   	dec    %ecx
 100:	4c                   	dec    %esp
 101:	00 72 65             	add    %dh,0x65(%edx)
 104:	74 76                	je     17c <SEG_KERN_CS+0x174>
 106:	61                   	popa
 107:	6c                   	insb   (%dx),%es:(%edi)
 108:	00 66 62             	add    %ah,0x62(%esi)
 10b:	75 66                	jne    173 <SEG_KERN_CS+0x16b>
 10d:	5f                   	pop    %edi
 10e:	62 6d 73             	bound  %ebp,0x73(%ebp)
 111:	00 4d 42             	add    %cl,0x42(%ebp)
 114:	49                   	dec    %ecx
 115:	4e                   	dec    %esi
 116:	46                   	inc    %esi
 117:	4f                   	dec    %edi
 118:	5f                   	pop    %edi
 119:	42                   	inc    %edx
 11a:	4f                   	dec    %edi
 11b:	4f                   	dec    %edi
 11c:	54                   	push   %esp
 11d:	44                   	inc    %esp
 11e:	45                   	inc    %ebp
 11f:	56                   	push   %esi
 120:	00 73 74             	add    %dh,0x74(%ebx)
 123:	72 73                	jb     198 <SEG_KERN_CS+0x190>
 125:	69 7a 65 00 6d 65 6d 	imul   $0x6d656d00,0x65(%edx),%edi
 12c:	5f                   	pop    %edi
 12d:	68 69 67 68 00       	push   $0x686769
 132:	5f                   	pop    %edi
 133:	6d                   	insl   (%dx),%es:(%edi)
 134:	62 5f 75             	bound  %ebx,0x75(%edi)
 137:	6e                   	outsb  %ds:(%esi),(%dx)
 138:	70 61                	jo     19b <SEG_KERN_CS+0x193>
 13a:	67 65 64 5f          	addr16 gs fs pop %edi
 13e:	65 6e                	outsb  %gs:(%esi),(%dx)
 140:	64 00 6b 62          	add    %ch,%fs:0x62(%ebx)
 144:	6f                   	outsl  %ds:(%esi),(%dx)
 145:	6f                   	outsl  %ds:(%esi),(%dx)
 146:	74 5f                	je     1a7 <SEG_KERN_CS+0x19f>
 148:	72 65                	jb     1af <SEG_KERN_CS+0x1a7>
 14a:	61                   	popa
 14b:	64 5f                	fs pop %edi
 14d:	6d                   	insl   (%dx),%es:(%edi)
 14e:	62 69 6e             	bound  %ebp,0x6e(%ecx)
 151:	66 6f                	outsw  %ds:(%esi),(%dx)
 153:	00 64 72 69          	add    %ah,0x69(%edx,%esi,2)
 157:	76 65                	jbe    1be <SEG_KERN_CS+0x1b6>
 159:	73 5f                	jae    1ba <SEG_KERN_CS+0x1b2>
 15b:	61                   	popa
 15c:	64 64 72 00          	fs fs jb 160 <SEG_KERN_CS+0x158>
 160:	63 6f 6e             	arpl   %ebp,0x6e(%edi)
 163:	66 5f                	pop    %di
 165:	74 62                	je     1c9 <SEG_KERN_CS+0x1c1>
 167:	6c                   	insb   (%dx),%es:(%edi)
 168:	00 76 62             	add    %dh,0x62(%esi)
 16b:	65 5f                	gs pop %edi
 16d:	69 6e 74 66 5f 6f 66 	imul   $0x666f5f66,0x74(%esi),%ebp
 174:	66 00 54 50 47       	data16 add %dl,0x47(%eax,%edx,2)
 179:	5f                   	pop    %edi
 17a:	43                   	inc    %ebx
 17b:	50                   	push   %eax
 17c:	55                   	push   %ebp
 17d:	46                   	inc    %esi
 17e:	5f                   	pop    %edi
 17f:	50                   	push   %eax
 180:	41                   	inc    %ecx
 181:	45                   	inc    %ebp
 182:	00 62 6f             	add    %ah,0x6f(%edx)
 185:	6f                   	outsl  %ds:(%esi),(%dx)
 186:	74 73                	je     1fb <SEG_KERN_CS+0x1f3>
 188:	74 72                	je     1fc <SEG_KERN_CS+0x1f4>
 18a:	61                   	popa
 18b:	70 00                	jo     18d <SEG_KERN_CS+0x185>
 18d:	6d                   	insl   (%dx),%es:(%edi)
 18e:	62 5f 75             	bound  %ebx,0x75(%edi)
 191:	69 6e 74 33 32 5f 74 	imul   $0x745f3233,0x74(%esi),%ebp
 198:	00 6c 6f 61          	add    %ch,0x61(%edi,%ebp,2)
 19c:	64 65 72 5f          	fs gs jb 1ff <SEG_KERN_CS+0x1f7>
 1a0:	6e                   	outsb  %ds:(%esi),(%dx)
 1a1:	61                   	popa
 1a2:	6d                   	insl   (%dx),%es:(%edi)
 1a3:	65 00 4d 42          	add    %cl,%gs:0x42(%ebp)
 1a7:	49                   	dec    %ecx
 1a8:	4e                   	dec    %esi
 1a9:	46                   	inc    %esi
 1aa:	4f                   	dec    %edi
 1ab:	5f                   	pop    %edi
 1ac:	4d                   	dec    %ebp
 1ad:	45                   	inc    %ebp
 1ae:	4d                   	dec    %ebp
 1af:	5f                   	pop    %edi
 1b0:	4d                   	dec    %ebp
 1b1:	41                   	inc    %ecx
 1b2:	50                   	push   %eax
 1b3:	00 62 6f             	add    %ah,0x6f(%edx)
 1b6:	6f                   	outsl  %ds:(%esi),(%dx)
 1b7:	74 64                	je     21d <SEG_KERN_CS+0x215>
 1b9:	65 76 00             	gs jbe 1bc <SEG_KERN_CS+0x1b4>
 1bc:	6d                   	insl   (%dx),%es:(%edi)
 1bd:	62 5f 61             	bound  %ebx,0x61(%edi)
 1c0:	6f                   	outsl  %ds:(%esi),(%dx)
 1c1:	75 74                	jne    237 <SEG_KERN_CS+0x22f>
 1c3:	5f                   	pop    %edi
 1c4:	73 79                	jae    23f <SEG_KERN_CS+0x237>
 1c6:	6d                   	insl   (%dx),%es:(%edi)
 1c7:	74 62                	je     22b <SEG_KERN_CS+0x223>
 1c9:	6c                   	insb   (%dx),%es:(%edi)
 1ca:	5f                   	pop    %edi
 1cb:	74 00                	je     1cd <SEG_KERN_CS+0x1c5>
 1cd:	6d                   	insl   (%dx),%es:(%edi)
 1ce:	62 5f 75             	bound  %ebx,0x75(%edi)
 1d1:	69 6e 74 31 36 5f 74 	imul   $0x745f3631,0x74(%esi),%ebp
 1d8:	00 5f 5f             	add    %bl,0x5f(%edi)
 1db:	6d                   	insl   (%dx),%es:(%edi)
 1dc:	62 5f 6d             	bound  %ebx,0x6d(%edi)
 1df:	6d                   	insl   (%dx),%es:(%edi)
 1e0:	61                   	popa
 1e1:	70 5f                	jo     242 <SEG_KERN_CS+0x23a>
 1e3:	74 00                	je     1e5 <SEG_KERN_CS+0x1dd>
 1e5:	66 72 65             	data16 jb 24d <SEG_KERN_CS+0x245>
 1e8:	65 70 64             	gs jo  24f <SEG_KERN_CS+0x247>
 1eb:	65 00 70 61          	add    %dh,%gs:0x61(%eax)
 1ef:	67 65 64 69 72 00 66 	gs imul $0x66756266,%fs:0x0(%bp,%si),%esi
 1f6:	62 75 66 
 1f9:	5f                   	pop    %edi
 1fa:	62 66 70             	bound  %esp,0x70(%esi)
 1fd:	00 6b 65             	add    %ch,0x65(%ebx)
 200:	72 6e                	jb     270 <SEG_KERN_CS+0x268>
 202:	5f                   	pop    %edi
 203:	61                   	popa
 204:	6c                   	insb   (%dx),%es:(%edi)
 205:	6c                   	insb   (%dx),%es:(%edi)
 206:	6f                   	outsl  %ds:(%esi),(%dx)
 207:	63 5f 64             	arpl   %ebx,0x64(%edi)
 20a:	79 6e                	jns    27a <SEG_KERN_CS+0x272>
 20c:	00 6c 6f 6e          	add    %ch,0x6e(%edi,%ebp,2)
 210:	67 20 6c 6f          	and    %ch,0x6f(%si)
 214:	6e                   	outsb  %ds:(%esi),(%dx)
 215:	67 20 69 6e          	and    %ch,0x6e(%bx,%di)
 219:	74 00                	je     21b <SEG_KERN_CS+0x213>
 21b:	76 62                	jbe    27f <SEG_KERN_CS+0x277>
 21d:	65 5f                	gs pop %edi
 21f:	69 6e 74 66 5f 6c 65 	imul   $0x656c5f66,0x74(%esi),%ebp
 226:	6e                   	outsb  %ds:(%esi),(%dx)
 227:	00 76 62             	add    %dh,0x62(%esi)
 22a:	65 5f                	gs pop %edi
 22c:	63 74 6c 00          	arpl   %esi,0x0(%esp,%ebp,2)
 230:	6d                   	insl   (%dx),%es:(%edi)
 231:	61                   	popa
 232:	72 6b                	jb     29f <SEG_KERN_CS+0x297>
 234:	00 66 62             	add    %ah,0x62(%esi)
 237:	75 66                	jne    29f <SEG_KERN_CS+0x297>
 239:	5f                   	pop    %edi
 23a:	72 6d                	jb     2a9 <SEG_KERN_CS+0x2a1>
 23c:	73 00                	jae    23e <SEG_KERN_CS+0x236>
 23e:	6d                   	insl   (%dx),%es:(%edi)
 23f:	65 6d                	gs insl (%dx),%es:(%edi)
 241:	5f                   	pop    %edi
 242:	68 69 67 68 5f       	push   $0x5f686769
 247:	70 68                	jo     2b1 <SEG_KERN_CS+0x2a9>
 249:	79 73                	jns    2be <SEG_KERN_CS+0x2b6>
 24b:	00 74 70 67          	add    %dh,0x67(%eax,%esi,2)
 24f:	5f                   	pop    %edi
 250:	72 65                	jb     2b7 <SEG_KERN_CS+0x2af>
 252:	61                   	popa
 253:	64 5f                	fs pop %edi
 255:	63 72 34             	arpl   %esi,0x34(%edx)
 258:	00 76 62             	add    %dh,0x62(%esi)
 25b:	65 5f                	gs pop %edi
 25d:	69 6e 74 66 5f 73 65 	imul   $0x65735f66,0x74(%esi),%ebp
 264:	67 00 5f 6d          	add    %bl,0x6d(%bx)
 268:	62 5f 65             	bound  %ebx,0x65(%edi)
 26b:	6e                   	outsb  %ds:(%esi),(%dx)
 26c:	64 00 66 62          	add    %ah,%fs:0x62(%esi)
 270:	75 66                	jne    2d8 <SEG_KERN_CS+0x2d0>
 272:	5f                   	pop    %edi
 273:	77 69                	ja     2de <SEG_KERN_CS+0x2d6>
 275:	64 74 68             	fs je  2e0 <SEG_KERN_CS+0x2d8>
 278:	00 6d 6d             	add    %ch,0x6d(%ebp)
 27b:	61                   	popa
 27c:	70 5f                	jo     2dd <SEG_KERN_CS+0x2d5>
 27e:	63 6e 74             	arpl   %ebp,0x74(%esi)
 281:	00 61 70             	add    %ah,0x70(%ecx)
 284:	6d                   	insl   (%dx),%es:(%edi)
 285:	5f                   	pop    %edi
 286:	74 62                	je     2ea <SEG_KERN_CS+0x2e2>
 288:	6c                   	insb   (%dx),%es:(%edi)
 289:	00 6b 62             	add    %ch,0x62(%ebx)
 28c:	6f                   	outsl  %ds:(%esi),(%dx)
 28d:	6f                   	outsl  %ds:(%esi),(%dx)
 28e:	74 5f                	je     2ef <SEG_KERN_CS+0x2e7>
 290:	74 70                	je     302 <SEG_KERN_CS+0x2fa>
 292:	67 5f                	addr16 pop %edi
 294:	65 6e                	outsb  %gs:(%esi),(%dx)
 296:	61                   	popa
 297:	62 6c 65 5f          	bound  %ebp,0x5f(%ebp,%eiz,2)
 29b:	70 61                	jo     2fe <SEG_KERN_CS+0x2f6>
 29d:	67 69 6e 67 00 6b 65 	imul   $0x72656b00,0x67(%bp),%ebp
 2a4:	72 
 2a5:	6e                   	outsb  %ds:(%esi),(%dx)
 2a6:	5f                   	pop    %edi
 2a7:	76 69                	jbe    312 <SEG_KERN_CS+0x30a>
 2a9:	72 74                	jb     31f <SEG_KERN_CS+0x317>
 2ab:	00 6d 65             	add    %ch,0x65(%ebp)
 2ae:	6d                   	insl   (%dx),%es:(%edi)
 2af:	5f                   	pop    %edi
 2b0:	6c                   	insb   (%dx),%es:(%edi)
 2b1:	6f                   	outsl  %ds:(%esi),(%dx)
 2b2:	77 00                	ja     2b4 <SEG_KERN_CS+0x2ac>
 2b4:	66 62 75 66          	bound  %si,0x66(%ebp)
 2b8:	5f                   	pop    %edi
 2b9:	74 79                	je     334 <SEG_KERN_CS+0x32c>
 2bb:	70 65                	jo     322 <SEG_KERN_CS+0x31a>
 2bd:	00 6b 62             	add    %ch,0x62(%ebx)
 2c0:	6f                   	outsl  %ds:(%esi),(%dx)
 2c1:	6f                   	outsl  %ds:(%esi),(%dx)
 2c2:	74 6d                	je     331 <SEG_KERN_CS+0x329>
 2c4:	65 6d                	gs insl (%dx),%es:(%edi)
 2c6:	5f                   	pop    %edi
 2c7:	74 00                	je     2c9 <SEG_KERN_CS+0x2c1>
 2c9:	6d                   	insl   (%dx),%es:(%edi)
 2ca:	61                   	popa
 2cb:	70 70                	jo     33d <SEG_KERN_CS+0x335>
 2cd:	65 64 00 6b 62       	gs add %ch,%fs:0x62(%ebx)
 2d2:	6f                   	outsl  %ds:(%esi),(%dx)
 2d3:	6f                   	outsl  %ds:(%esi),(%dx)
 2d4:	74 5f                	je     335 <SEG_KERN_CS+0x32d>
 2d6:	61                   	popa
 2d7:	64 64 5f             	fs fs pop %edi
 2da:	6d                   	insl   (%dx),%es:(%edi)
 2db:	6d                   	insl   (%dx),%es:(%edi)
 2dc:	61                   	popa
 2dd:	70 00                	jo     2df <SEG_KERN_CS+0x2d7>
 2df:	4d                   	dec    %ebp
 2e0:	42                   	inc    %edx
 2e1:	49                   	dec    %ecx
 2e2:	4e                   	dec    %esi
 2e3:	46                   	inc    %esi
 2e4:	4f                   	dec    %edi
 2e5:	5f                   	pop    %edi
 2e6:	56                   	push   %esi
 2e7:	42                   	inc    %edx
 2e8:	45                   	inc    %ebp
 2e9:	5f                   	pop    %edi
 2ea:	49                   	dec    %ecx
 2eb:	4e                   	dec    %esi
 2ec:	46                   	inc    %esi
 2ed:	4f                   	dec    %edi
 2ee:	00 4d 42             	add    %cl,0x42(%ebp)
 2f1:	49                   	dec    %ecx
 2f2:	4e                   	dec    %esi
 2f3:	46                   	inc    %esi
 2f4:	4f                   	dec    %edi
 2f5:	5f                   	pop    %edi
 2f6:	41                   	inc    %ecx
 2f7:	4d                   	dec    %ebp
 2f8:	4f                   	dec    %edi
 2f9:	55                   	push   %ebp
 2fa:	54                   	push   %esp
 2fb:	53                   	push   %ebx
 2fc:	59                   	pop    %ecx
 2fd:	4d                   	dec    %ebp
 2fe:	00 6d 6d             	add    %ch,0x6d(%ebp)
 301:	61                   	popa
 302:	70 5f                	jo     363 <SEG_KERN_CS+0x35b>
 304:	61                   	popa
 305:	64 64 72 00          	fs fs jb 309 <SEG_KERN_CS+0x301>
 309:	66 62 75 66          	bound  %si,0x66(%ebp)
 30d:	5f                   	pop    %edi
 30e:	72 66                	jb     376 <SEG_KERN_CS+0x36e>
 310:	70 00                	jo     312 <SEG_KERN_CS+0x30a>
 312:	75 6e                	jne    382 <SEG_KERN_CS+0x37a>
 314:	73 69                	jae    37f <SEG_KERN_CS+0x377>
 316:	67 6e                	outsb  %ds:(%si),(%dx)
 318:	65 64 20 63 68       	gs and %ah,%fs:0x68(%ebx)
 31d:	61                   	popa
 31e:	72 00                	jb     320 <SEG_KERN_CS+0x318>
 320:	6d                   	insl   (%dx),%es:(%edi)
 321:	6f                   	outsl  %ds:(%esi),(%dx)
 322:	64 73 5f             	fs jae 384 <SEG_KERN_CS+0x37c>
 325:	63 6e 74             	arpl   %ebp,0x74(%esi)
 328:	00 64 72 69          	add    %ah,0x69(%edx,%esi,2)
 32c:	76 65                	jbe    393 <SEG_KERN_CS+0x38b>
 32e:	73 5f                	jae    38f <SEG_KERN_CS+0x387>
 330:	6c                   	insb   (%dx),%es:(%edi)
 331:	65 6e                	outsb  %gs:(%esi),(%dx)
 333:	00 6b 62             	add    %ch,0x62(%ebx)
 336:	6f                   	outsl  %ds:(%esi),(%dx)
 337:	6f                   	outsl  %ds:(%esi),(%dx)
 338:	74 5f                	je     399 <SEG_KERN_CS+0x391>
 33a:	72 6f                	jb     3ab <SEG_KERN_CS+0x3a3>
 33c:	75 6e                	jne    3ac <SEG_KERN_CS+0x3a4>
 33e:	64 5f                	fs pop %edi
 340:	75 70                	jne    3b2 <SEG_KERN_CS+0x3aa>
 342:	00 6b 62             	add    %ch,0x62(%ebx)
 345:	6f                   	outsl  %ds:(%esi),(%dx)
 346:	6f                   	outsl  %ds:(%esi),(%dx)
 347:	74 69                	je     3b2 <SEG_KERN_CS+0x3aa>
 349:	6e                   	outsb  %ds:(%esi),(%dx)
 34a:	66 6f                	outsw  %ds:(%esi),(%dx)
 34c:	5f                   	pop    %edi
 34d:	6d                   	insl   (%dx),%es:(%edi)
 34e:	6d                   	insl   (%dx),%es:(%edi)
 34f:	61                   	popa
 350:	70 5f                	jo     3b1 <SEG_KERN_CS+0x3a9>
 352:	74 00                	je     354 <SEG_KERN_CS+0x34c>
 354:	76 62                	jbe    3b8 <SEG_KERN_CS+0x3b0>
 356:	65 5f                	gs pop %edi
 358:	6d                   	insl   (%dx),%es:(%edi)
 359:	6f                   	outsl  %ds:(%esi),(%dx)
 35a:	64 65 00 66 6c       	fs add %ah,%gs:0x6c(%esi)
 35f:	61                   	popa
 360:	67 73 00             	addr16 jae 363 <SEG_KERN_CS+0x35b>
 363:	6c                   	insb   (%dx),%es:(%edi)
 364:	6f                   	outsl  %ds:(%esi),(%dx)
 365:	6e                   	outsb  %ds:(%esi),(%dx)
 366:	67 20 6c 6f          	and    %ch,0x6f(%si)
 36a:	6e                   	outsb  %ds:(%esi),(%dx)
 36b:	67 20 75 6e          	and    %dh,0x6e(%di)
 36f:	73 69                	jae    3da <SEG_KERN_CS+0x3d2>
 371:	67 6e                	outsb  %ds:(%si),(%dx)
 373:	65 64 20 69 6e       	gs and %ch,%fs:0x6e(%ecx)
 378:	74 00                	je     37a <SEG_KERN_CS+0x372>
 37a:	66 62 75 66          	bound  %si,0x66(%ebp)
 37e:	5f                   	pop    %edi
 37f:	70 69                	jo     3ea <SEG_KERN_CS+0x3e2>
 381:	74 63                	je     3e6 <SEG_KERN_CS+0x3de>
 383:	68 00 66 62 75       	push   $0x75626600
 388:	66 5f                	pop    %di
 38a:	67 6d                	insl   (%dx),%es:(%di)
 38c:	73 00                	jae    38e <SEG_KERN_CS+0x386>
 38e:	5f                   	pop    %edi
 38f:	6d                   	insl   (%dx),%es:(%edi)
 390:	62 5f 73             	bound  %ebx,0x73(%edi)
 393:	74 61                	je     3f6 <SEG_KERN_CS+0x3ee>
 395:	72 74                	jb     40b <SEG_KERN_CS+0x403>
 397:	00 4d 42             	add    %cl,0x42(%ebp)
 39a:	49                   	dec    %ecx
 39b:	4e                   	dec    %esi
 39c:	46                   	inc    %esi
 39d:	4f                   	dec    %edi
 39e:	5f                   	pop    %edi
 39f:	43                   	inc    %ebx
 3a0:	4d                   	dec    %ebp
 3a1:	44                   	inc    %esp
 3a2:	4c                   	dec    %esp
 3a3:	49                   	dec    %ecx
 3a4:	4e                   	dec    %esi
 3a5:	45                   	inc    %ebp
 3a6:	00 6d 61             	add    %ch,0x61(%ebp)
 3a9:	67 69 63 00 73 68 6f 	imul   $0x726f6873,0x0(%bp,%di),%esp
 3b0:	72 
 3b1:	74 20                	je     3d3 <SEG_KERN_CS+0x3cb>
 3b3:	75 6e                	jne    423 <SEG_KERN_CS+0x41b>
 3b5:	73 69                	jae    420 <SEG_KERN_CS+0x418>
 3b7:	67 6e                	outsb  %ds:(%si),(%dx)
 3b9:	65 64 20 69 6e       	gs and %ch,%fs:0x6e(%ecx)
 3be:	74 00                	je     3c0 <SEG_KERN_CS+0x3b8>
 3c0:	4d                   	dec    %ebp
 3c1:	42                   	inc    %edx
 3c2:	49                   	dec    %ecx
 3c3:	4e                   	dec    %esi
 3c4:	46                   	inc    %esi
 3c5:	4f                   	dec    %edi
 3c6:	5f                   	pop    %edi
 3c7:	41                   	inc    %ecx
 3c8:	50                   	push   %eax
 3c9:	4d                   	dec    %ebp
 3ca:	5f                   	pop    %edi
 3cb:	54                   	push   %esp
 3cc:	42                   	inc    %edx
 3cd:	4c                   	dec    %esp
 3ce:	00 66 62             	add    %ah,0x62(%esi)
 3d1:	75 66                	jne    439 <SEG_KERN_CS+0x431>
 3d3:	5f                   	pop    %edi
 3d4:	70 61                	jo     437 <SEG_KERN_CS+0x42f>
 3d6:	64 64 72 00          	fs fs jb 3da <SEG_KERN_CS+0x3d2>
 3da:	47                   	inc    %edi
 3db:	4e                   	dec    %esi
 3dc:	55                   	push   %ebp
 3dd:	20 43 39             	and    %al,0x39(%ebx)
 3e0:	39 20                	cmp    %esp,(%eax)
 3e2:	31 33                	xor    %esi,(%ebx)
 3e4:	2e 32 2e             	xor    %cs:(%esi),%ch
 3e7:	30 20                	xor    %ah,(%eax)
 3e9:	2d 6d 74 75 6e       	sub    $0x6e75746d,%eax
 3ee:	65 3d 67 65 6e 65    	gs cmp $0x656e6567,%eax
 3f4:	72 69                	jb     45f <SEG_KERN_CS+0x457>
 3f6:	63 20                	arpl   %esp,(%eax)
 3f8:	2d 6d 61 72 63       	sub    $0x6372616d,%eax
 3fd:	68 3d 70 65 6e       	push   $0x6e65703d
 402:	74 69                	je     46d <SEG_KERN_CS+0x465>
 404:	75 6d                	jne    473 <SEG_KERN_CS+0x46b>
 406:	70 72                	jo     47a <SEG_KERN_CS+0x472>
 408:	6f                   	outsl  %ds:(%esi),(%dx)
 409:	20 2d 67 20 2d 73    	and    %ch,0x732d2067
 40f:	74 64                	je     475 <SEG_KERN_CS+0x46d>
 411:	3d 67 6e 75 39       	cmp    $0x39756e67,%eax
 416:	39 20                	cmp    %esp,(%eax)
 418:	2d 66 66 72 65       	sub    $0x65726666,%eax
 41d:	65 73 74             	gs jae 494 <SEG_KERN_CS+0x48c>
 420:	61                   	popa
 421:	6e                   	outsb  %ds:(%esi),(%dx)
 422:	64 69 6e 67 00 61 6f 	imul   $0x756f6100,%fs:0x67(%esi),%ebp
 429:	75 
 42a:	74 00                	je     42c <SEG_KERN_CS+0x424>
 42c:	6d                   	insl   (%dx),%es:(%edi)
 42d:	62 5f 65             	bound  %ebx,0x65(%edi)
 430:	6c                   	insb   (%dx),%es:(%edi)
 431:	66 5f                	pop    %di
 433:	73 68                	jae    49d <SEG_KERN_CS+0x495>
 435:	64 72 5f             	fs jb  497 <SEG_KERN_CS+0x48f>
 438:	74 00                	je     43a <SEG_KERN_CS+0x432>
 43a:	66 62 75 66          	bound  %si,0x66(%ebp)
 43e:	5f                   	pop    %edi
 43f:	68 65 69 67 68       	push   $0x68676965
 444:	74 00                	je     446 <SEG_KERN_CS+0x43e>
 446:	6b 62 6f 6f          	imul   $0x6f,0x6f(%edx),%esp
 44a:	74 5f                	je     4ab <SEG_KERN_CS+0x4a3>
 44c:	70 61                	jo     4af <SEG_KERN_CS+0x4a7>
 44e:	6e                   	outsb  %ds:(%esi),(%dx)
 44f:	69 63 00 4d 42 4d 4d 	imul   $0x4d4d424d,0x0(%ebx),%esp
 456:	41                   	inc    %ecx
 457:	50                   	push   %eax
 458:	5f                   	pop    %edi
 459:	4e                   	dec    %esi
 45a:	56                   	push   %esi
 45b:	53                   	push   %ebx
 45c:	00 5f 6d             	add    %bl,0x6d(%edi)
 45f:	62 5f 73             	bound  %ebx,0x73(%edi)
 462:	69 7a 65 00 4d 42 4d 	imul   $0x4d424d00,0x65(%edx),%edi
 469:	4d                   	dec    %ebp
 46a:	41                   	inc    %ecx
 46b:	50                   	push   %eax
 46c:	5f                   	pop    %edi
 46d:	41                   	inc    %ecx
 46e:	43                   	inc    %ebx
 46f:	50                   	push   %eax
 470:	49                   	dec    %ecx
 471:	00 66 62             	add    %ah,0x62(%esi)
 474:	75 66                	jne    4dc <SEG_KERN_CS+0x4d4>
 476:	5f                   	pop    %edi
 477:	67 66 70 00          	addr16 data16 jo 47b <SEG_KERN_CS+0x473>
 47b:	74 65                	je     4e2 <SEG_KERN_CS+0x4da>
 47d:	6d                   	insl   (%dx),%es:(%edi)
 47e:	70 5f                	jo     4df <SEG_KERN_CS+0x4d7>
 480:	62 6f 6f             	bound  %ebp,0x6f(%edi)
 483:	74 69                	je     4ee <SEG_KERN_CS+0x4e6>
 485:	6e                   	outsb  %ds:(%esi),(%dx)
 486:	66 6f                	outsw  %ds:(%esi),(%dx)
 488:	00 76 62             	add    %dh,0x62(%esi)
 48b:	65 5f                	gs pop %edi
 48d:	6d                   	insl   (%dx),%es:(%edi)
 48e:	6f                   	outsl  %ds:(%esi),(%dx)
 48f:	64 65 5f             	fs gs pop %edi
 492:	69 6e 66 6f 00 66 62 	imul   $0x6266006f,0x66(%esi),%ebp
 499:	75 66                	jne    501 <SEG_KERN_CS+0x4f9>
 49b:	5f                   	pop    %edi
 49c:	61                   	popa
 49d:	64 64 72 00          	fs fs jb 4a1 <SEG_KERN_CS+0x499>
 4a1:	74 61                	je     504 <SEG_KERN_CS+0x4fc>
 4a3:	62 73 69             	bound  %esi,0x69(%ebx)
 4a6:	7a 65                	jp     50d <SEG_KERN_CS+0x505>
 4a8:	00 4d 42             	add    %cl,0x42(%ebp)
 4ab:	49                   	dec    %ecx
 4ac:	4e                   	dec    %esi
 4ad:	46                   	inc    %esi
 4ae:	4f                   	dec    %edi
 4af:	5f                   	pop    %edi
 4b0:	45                   	inc    %ebp
 4b1:	4c                   	dec    %esp
 4b2:	46                   	inc    %esi
 4b3:	5f                   	pop    %edi
 4b4:	53                   	push   %ebx
 4b5:	48                   	dec    %eax
 4b6:	44                   	inc    %esp
 4b7:	52                   	push   %edx
 4b8:	00 5f 6d             	add    %bl,0x6d(%edi)
 4bb:	62 5f 75             	bound  %ebx,0x75(%edi)
 4be:	6e                   	outsb  %ds:(%esi),(%dx)
 4bf:	70 61                	jo     522 <SEG_KERN_CS+0x51a>
 4c1:	67 65 64 5f          	addr16 gs fs pop %edi
 4c5:	73 74                	jae    53b <SEG_KERN_CS+0x533>
 4c7:	61                   	popa
 4c8:	72 74                	jb     53e <SEG_KERN_CS+0x536>
 4ca:	00 6d 62             	add    %ch,0x62(%ebp)
 4cd:	5f                   	pop    %edi
 4ce:	75 69                	jne    539 <SEG_KERN_CS+0x531>
 4d0:	6e                   	outsb  %ds:(%esi),(%dx)
 4d1:	74 36                	je     509 <SEG_KERN_CS+0x501>
 4d3:	34 5f                	xor    $0x5f,%al
 4d5:	74 00                	je     4d7 <SEG_KERN_CS+0x4cf>
 4d7:	6b 62 6f 6f          	imul   $0x6f,0x6f(%edx),%esp
 4db:	74 5f                	je     53c <SEG_KERN_CS+0x534>
 4dd:	72 6f                	jb     54e <SEG_KERN_CS+0x546>
 4df:	75 6e                	jne    54f <SEG_KERN_CS+0x547>
 4e1:	64 5f                	fs pop %edi
 4e3:	64 6f                	outsl  %fs:(%esi),(%dx)
 4e5:	77 6e                	ja     555 <SEG_KERN_CS+0x54d>
 4e7:	00 6b 62             	add    %ch,0x62(%ebx)
 4ea:	6f                   	outsl  %ds:(%esi),(%dx)
 4eb:	6f                   	outsl  %ds:(%esi),(%dx)
 4ec:	74 00                	je     4ee <SEG_KERN_CS+0x4e6>
 4ee:	4b                   	dec    %ebx
 4ef:	42                   	inc    %edx
 4f0:	4f                   	dec    %edi
 4f1:	4f                   	dec    %edi
 4f2:	54                   	push   %esp
 4f3:	4d                   	dec    %ebp
 4f4:	4d                   	dec    %ebp
 4f5:	41                   	inc    %ecx
 4f6:	50                   	push   %eax
 4f7:	5f                   	pop    %edi
 4f8:	55                   	push   %ebp
 4f9:	4e                   	dec    %esi
 4fa:	41                   	inc    %ecx
 4fb:	56                   	push   %esi
 4fc:	41                   	inc    %ecx
 4fd:	49                   	dec    %ecx
 4fe:	4c                   	dec    %esp
 4ff:	41                   	inc    %ecx
 500:	42                   	inc    %edx
 501:	4c                   	dec    %esp
 502:	45                   	inc    %ebp
 503:	00 6b 65             	add    %ch,0x65(%ebx)
 506:	72 6e                	jb     576 <SEG_KERN_CS+0x56e>
 508:	5f                   	pop    %edi
 509:	76 69                	jbe    574 <SEG_KERN_CS+0x56c>
 50b:	72 74                	jb     581 <SEG_KERN_CS+0x579>
 50d:	5f                   	pop    %edi
 50e:	62 61 73             	bound  %esp,0x73(%ecx)
 511:	65 00 74 70 67       	add    %dh,%gs:0x67(%eax,%esi,2)
 516:	5f                   	pop    %edi
 517:	77 72                	ja     58b <SEG_KERN_CS+0x583>
 519:	69 74 65 5f 63 72 33 	imul   $0x337263,0x5f(%ebp,%eiz,2),%esi
 520:	00 
 521:	74 70                	je     593 <SEG_KERN_CS+0x58b>
 523:	67 5f                	addr16 pop %edi
 525:	72 65                	jb     58c <SEG_KERN_CS+0x584>
 527:	61                   	popa
 528:	64 5f                	fs pop %edi
 52a:	63 72 30             	arpl   %esi,0x30(%edx)
 52d:	00 6d 62             	add    %ch,0x62(%ebp)
 530:	5f                   	pop    %edi
 531:	75 69                	jne    59c <SEG_KERN_CS+0x594>
 533:	6e                   	outsb  %ds:(%esi),(%dx)
 534:	74 38                	je     56e <SEG_KERN_CS+0x566>
 536:	5f                   	pop    %edi
 537:	74 00                	je     539 <SEG_KERN_CS+0x531>
 539:	63 6d 64             	arpl   %ebp,0x64(%ebp)
 53c:	6c                   	insb   (%dx),%es:(%edi)
 53d:	69 6e 65 00 6d 6d 61 	imul   $0x616d6d00,0x65(%esi),%ebp
 544:	70 5f                	jo     5a5 <SEG_KERN_CS+0x59d>
 546:	6c                   	insb   (%dx),%es:(%edi)
 547:	65 6e                	outsb  %gs:(%esi),(%dx)
 549:	00 5f 6d             	add    %bl,0x6d(%edi)
 54c:	62 5f 76             	bound  %ebx,0x76(%edi)
 54f:	69 72 74 5f 62 61 73 	imul   $0x7361625f,0x74(%edx),%esi
 556:	65 00 4d 42          	add    %cl,%gs:0x42(%ebp)
 55a:	49                   	dec    %ecx
 55b:	4e                   	dec    %esi
 55c:	46                   	inc    %esi
 55d:	4f                   	dec    %edi
 55e:	5f                   	pop    %edi
 55f:	4c                   	dec    %esp
 560:	4f                   	dec    %edi
 561:	41                   	inc    %ecx
 562:	44                   	inc    %esp
 563:	45                   	inc    %ebp
 564:	52                   	push   %edx
 565:	00 4d 42             	add    %cl,0x42(%ebp)
 568:	49                   	dec    %ecx
 569:	4e                   	dec    %esi
 56a:	46                   	inc    %esi
 56b:	4f                   	dec    %edi
 56c:	5f                   	pop    %edi
 56d:	44                   	inc    %esp
 56e:	52                   	push   %edx
 56f:	49                   	dec    %ecx
 570:	56                   	push   %esi
 571:	45                   	inc    %ebp
 572:	53                   	push   %ebx
 573:	00 74 70 67          	add    %dh,0x67(%eax,%esi,2)
 577:	5f                   	pop    %edi
 578:	77 72                	ja     5ec <SEG_KERN_CS+0x5e4>
 57a:	69 74 65 5f 63 72 30 	imul   $0x307263,0x5f(%ebp,%eiz,2),%esi
 581:	00 
 582:	4d                   	dec    %ebp
 583:	42                   	inc    %edx
 584:	4d                   	dec    %ebp
 585:	4d                   	dec    %ebp
 586:	41                   	inc    %ecx
 587:	50                   	push   %eax
 588:	5f                   	pop    %edi
 589:	42                   	inc    %edx
 58a:	41                   	inc    %ecx
 58b:	44                   	inc    %esp
 58c:	52                   	push   %edx
 58d:	41                   	inc    %ecx
 58e:	4d                   	dec    %ebp
 58f:	00 54 50 47          	add    %dl,0x47(%eax,%edx,2)
 593:	5f                   	pop    %edi
 594:	43                   	inc    %ebx
 595:	50                   	push   %eax
 596:	55                   	push   %ebp
 597:	46                   	inc    %esi
 598:	5f                   	pop    %edi
 599:	50                   	push   %eax
 59a:	47                   	inc    %edi
 59b:	45                   	inc    %ebp
 59c:	00 74 70 67          	add    %dh,0x67(%eax,%esi,2)
 5a0:	5f                   	pop    %edi
 5a1:	77 72                	ja     615 <SEG_KERN_CS+0x60d>
 5a3:	69 74 65 5f 63 72 34 	imul   $0x347263,0x5f(%ebp,%eiz,2),%esi
 5aa:	00 
 5ab:	66 62 75 66          	bound  %si,0x66(%ebp)
 5af:	5f                   	pop    %edi
 5b0:	62 70 70             	bound  %esi,0x70(%eax)
 5b3:	00 4d 42             	add    %cl,0x42(%ebp)
 5b6:	4d                   	dec    %ebp
 5b7:	4d                   	dec    %ebp
 5b8:	41                   	inc    %ecx
 5b9:	50                   	push   %eax
 5ba:	5f                   	pop    %edi
 5bb:	52                   	push   %edx
 5bc:	45                   	inc    %ebp
 5bd:	53                   	push   %ebx
 5be:	45                   	inc    %ebp
 5bf:	52                   	push   %edx
 5c0:	56                   	push   %esi
 5c1:	45                   	inc    %ebp
 5c2:	44                   	inc    %esp
	...

Disassembly of section .unpaged.debug_line_str:

00000000 <.unpaged.debug_line_str>:
   0:	73 72                	jae    74 <SEG_KERN_CS+0x6c>
   2:	63 2f                	arpl   %ebp,(%edi)
   4:	62 6f 6f             	bound  %ebp,0x6f(%edi)
   7:	74 2e                	je     37 <SEG_KERN_CS+0x2f>
   9:	63 00                	arpl   %eax,(%eax)
   b:	2f                   	das
   c:	6f                   	outsl  %ds:(%esi),(%dx)
   d:	73 64                	jae    73 <SEG_KERN_CS+0x6b>
   f:	65 76 2f             	gs jbe 41 <SEG_KERN_CS+0x39>
  12:	7a 65                	jp     79 <SEG_KERN_CS+0x71>
  14:	72 6f                	jb     85 <SEG_KERN_CS+0x7d>
  16:	6e                   	outsb  %ds:(%esi),(%dx)
  17:	69 78 2f 6b 65 72 6e 	imul   $0x6e72656b,0x2f(%eax),%edi
  1e:	65 6c                	gs insb (%dx),%es:(%edi)
  20:	2f                   	das
  21:	61                   	popa
  22:	72 63                	jb     87 <SEG_KERN_CS+0x7f>
  24:	68 2f 78 38 36       	push   $0x3638782f
  29:	2f                   	das
  2a:	62 6f 6f             	bound  %ebp,0x6f(%edi)
  2d:	74 00                	je     2f <SEG_KERN_CS+0x27>
  2f:	73 72                	jae    a3 <SEG_KERN_CS+0x9b>
  31:	63 00                	arpl   %eax,(%eax)
  33:	2f                   	das
  34:	6f                   	outsl  %ds:(%esi),(%dx)
  35:	73 64                	jae    9b <SEG_KERN_CS+0x93>
  37:	65 76 2f             	gs jbe 69 <SEG_KERN_CS+0x61>
  3a:	7a 65                	jp     a1 <SEG_KERN_CS+0x99>
  3c:	72 6f                	jb     ad <SEG_KERN_CS+0xa5>
  3e:	6e                   	outsb  %ds:(%esi),(%dx)
  3f:	69 78 2f 6b 65 72 6e 	imul   $0x6e72656b,0x2f(%eax),%edi
  46:	65 6c                	gs insb (%dx),%es:(%edi)
  48:	2f                   	das
  49:	61                   	popa
  4a:	72 63                	jb     af <SEG_KERN_CS+0xa7>
  4c:	68 2f 78 38 36       	push   $0x3638782f
  51:	2f                   	das
  52:	2e 2e 2f             	cs cs das
  55:	2e 2e 2f             	cs cs das
  58:	69 6e 63 6c 75 64 65 	imul   $0x6564756c,0x63(%esi),%ebp
  5f:	2f                   	das
  60:	7a 65                	jp     c7 <SEG_KERN_CS+0xbf>
  62:	72 6f                	jb     d3 <SEG_KERN_CS+0xcb>
  64:	6e                   	outsb  %ds:(%esi),(%dx)
  65:	69 78 00 2f 6f 73 64 	imul   $0x64736f2f,0x0(%eax),%edi
  6c:	65 76 2f             	gs jbe 9e <SEG_KERN_CS+0x96>
  6f:	7a 65                	jp     d6 <SEG_KERN_CS+0xce>
  71:	72 6f                	jb     e2 <SEG_KERN_CS+0xda>
  73:	6e                   	outsb  %ds:(%esi),(%dx)
  74:	69 78 2f 6b 65 72 6e 	imul   $0x6e72656b,0x2f(%eax),%edi
  7b:	65 6c                	gs insb (%dx),%es:(%edi)
  7d:	2f                   	das
  7e:	61                   	popa
  7f:	72 63                	jb     e4 <SEG_KERN_CS+0xdc>
  81:	68 2f 78 38 36       	push   $0x3638782f
  86:	2f                   	das
  87:	2e 2e 2f             	cs cs das
  8a:	2e 2e 2f             	cs cs das
  8d:	69 6e 63 6c 75 64 65 	imul   $0x6564756c,0x63(%esi),%ebp
  94:	2f                   	das
  95:	7a 65                	jp     fc <SEG_KERN_CS+0xf4>
  97:	72 6f                	jb     108 <SEG_KERN_CS+0x100>
  99:	6e                   	outsb  %ds:(%esi),(%dx)
  9a:	69 78 2f 61 72 63 68 	imul   $0x68637261,0x2f(%eax),%edi
  a1:	2f                   	das
  a2:	78 38                	js     dc <SEG_KERN_CS+0xd4>
  a4:	36 00 74 79 70       	add    %dh,%ss:0x70(%ecx,%edi,2)
  a9:	65 73 2e             	gs jae da <SEG_KERN_CS+0xd2>
  ac:	68 00 6d 75 6c       	push   $0x6c756d00
  b1:	74 69                	je     11c <SEG_KERN_CS+0x114>
  b3:	62 6f 6f             	bound  %ebp,0x6f(%edi)
  b6:	74 2e                	je     e6 <SEG_KERN_CS+0xde>
  b8:	68 00 62 6f 6f       	push   $0x6f6f6200
  bd:	74 65                	je     124 <SEG_KERN_CS+0x11c>
  bf:	6e                   	outsb  %ds:(%esi),(%dx)
  c0:	76 2e                	jbe    f0 <SEG_KERN_CS+0xe8>
  c2:	68 00 74 70 67       	push   $0x67707400
  c7:	2e                   	cs
  c8:	68                   	.byte 0x68
	...

Disassembly of section .unpaged.comment:

00000000 <.unpaged.comment>:
   0:	47                   	inc    %edi
   1:	43                   	inc    %ebx
   2:	43                   	inc    %ebx
   3:	3a 20                	cmp    (%eax),%ah
   5:	28 47 4e             	sub    %al,0x4e(%edi)
   8:	55                   	push   %ebp
   9:	29 20                	sub    %esp,(%eax)
   b:	31 33                	xor    %esi,(%ebx)
   d:	2e 32 2e             	xor    %cs:(%esi),%ch
  10:	30 00                	xor    %al,(%eax)

Disassembly of section .unpaged.debug_frame:

00000000 <.unpaged.debug_frame>:
   0:	10 00                	adc    %al,(%eax)
   2:	00 00                	add    %al,(%eax)
   4:	ff                   	(bad)
   5:	ff                   	(bad)
   6:	ff                   	(bad)
   7:	ff 01                	incl   (%ecx)
   9:	00 01                	add    %al,(%ecx)
   b:	7c 08                	jl     15 <SEG_KERN_CS+0xd>
   d:	0c 04                	or     $0x4,%al
   f:	04 88                	add    $0x88,%al
  11:	01 00                	add    %eax,(%eax)
  13:	00 1c 00             	add    %bl,(%eax,%eax,1)
  16:	00 00                	add    %al,(%eax)
  18:	00 00                	add    %al,(%eax)
  1a:	00 00                	add    %al,(%eax)
  1c:	00 10                	add    %dl,(%eax)
  1e:	40                   	inc    %eax
  1f:	00 73 00             	add    %dh,0x0(%ebx)
  22:	00 00                	add    %al,(%eax)
  24:	41                   	inc    %ecx
  25:	0e                   	push   %cs
  26:	08 85 02 42 0d 05    	or     %al,0x50d4202(%ebp)
  2c:	02 6f c5             	add    -0x3b(%edi),%ch
  2f:	0c 04                	or     $0x4,%al
  31:	04 00                	add    $0x0,%al
  33:	00 14 00             	add    %dl,(%eax,%eax,1)
  36:	00 00                	add    %al,(%eax)
  38:	00 00                	add    %al,(%eax)
  3a:	00 00                	add    %al,(%eax)
  3c:	73 10                	jae    4e <SEG_KERN_CS+0x46>
  3e:	40                   	inc    %eax
  3f:	00 42 00             	add    %al,0x0(%edx)
  42:	00 00                	add    %al,(%eax)
  44:	41                   	inc    %ecx
  45:	0e                   	push   %cs
  46:	08 85 02 42 0d 05    	or     %al,0x50d4202(%ebp)
  4c:	20 00                	and    %al,(%eax)
  4e:	00 00                	add    %al,(%eax)
  50:	00 00                	add    %al,(%eax)
  52:	00 00                	add    %al,(%eax)
  54:	b5 10                	mov    $0x10,%ch
  56:	40                   	inc    %eax
  57:	00 5e 01             	add    %bl,0x1(%esi)
  5a:	00 00                	add    %al,(%eax)
  5c:	41                   	inc    %ecx
  5d:	0e                   	push   %cs
  5e:	08 85 02 42 0d 05    	or     %al,0x50d4202(%ebp)
  64:	44                   	inc    %esp
  65:	83 03 03             	addl   $0x3,(%ebx)
  68:	56                   	push   %esi
  69:	01 c5                	add    %eax,%ebp
  6b:	c3                   	ret
  6c:	0c 04                	or     $0x4,%al
  6e:	04 00                	add    $0x0,%al
  70:	1c 00                	sbb    $0x0,%al
  72:	00 00                	add    %al,(%eax)
  74:	00 00                	add    %al,(%eax)
  76:	00 00                	add    %al,(%eax)
  78:	13 12                	adc    (%edx),%edx
  7a:	40                   	inc    %eax
  7b:	00 2d 00 00 00 41    	add    %ch,0x41000000
  81:	0e                   	push   %cs
  82:	08 85 02 42 0d 05    	or     %al,0x50d4202(%ebp)
  88:	69 c5 0c 04 04 00    	imul   $0x4040c,%ebp,%eax
  8e:	00 00                	add    %al,(%eax)
  90:	1c 00                	sbb    $0x0,%al
  92:	00 00                	add    %al,(%eax)
  94:	00 00                	add    %al,(%eax)
  96:	00 00                	add    %al,(%eax)
  98:	40                   	inc    %eax
  99:	12 40 00             	adc    0x0(%eax),%al
  9c:	14 00                	adc    $0x0,%al
  9e:	00 00                	add    %al,(%eax)
  a0:	41                   	inc    %ecx
  a1:	0e                   	push   %cs
  a2:	08 85 02 42 0d 05    	or     %al,0x50d4202(%ebp)
  a8:	50                   	push   %eax
  a9:	c5 0c 04             	lds    (%esp,%eax,1),%ecx
  ac:	04 00                	add    $0x0,%al
  ae:	00 00                	add    %al,(%eax)
  b0:	20 00                	and    %al,(%eax)
  b2:	00 00                	add    %al,(%eax)
  b4:	00 00                	add    %al,(%eax)
  b6:	00 00                	add    %al,(%eax)
  b8:	54                   	push   %esp
  b9:	12 40 00             	adc    0x0(%eax),%al
  bc:	6c                   	insb   (%dx),%es:(%edi)
  bd:	01 00                	add    %eax,(%eax)
  bf:	00 41 0e             	add    %al,0xe(%ecx)
  c2:	08 85 02 42 0d 05    	or     %al,0x50d4202(%ebp)
  c8:	44                   	inc    %esp
  c9:	83 03 03             	addl   $0x3,(%ebx)
  cc:	64 01 c5             	fs add %eax,%ebp
  cf:	c3                   	ret
  d0:	0c 04                	or     $0x4,%al
  d2:	04 00                	add    $0x0,%al
  d4:	1c 00                	sbb    $0x0,%al
  d6:	00 00                	add    %al,(%eax)
  d8:	00 00                	add    %al,(%eax)
  da:	00 00                	add    %al,(%eax)
  dc:	c0 13 40             	rclb   $0x40,(%ebx)
  df:	00 64 00 00          	add    %ah,0x0(%eax,%eax,1)
  e3:	00 41 0e             	add    %al,0xe(%ecx)
  e6:	08 85 02 42 0d 05    	or     %al,0x50d4202(%ebp)
  ec:	02 60 c5             	add    -0x3b(%eax),%ah
  ef:	0c 04                	or     $0x4,%al
  f1:	04 00                	add    $0x0,%al
  f3:	00 1c 00             	add    %bl,(%eax,%eax,1)
  f6:	00 00                	add    %al,(%eax)
  f8:	00 00                	add    %al,(%eax)
  fa:	00 00                	add    %al,(%eax)
  fc:	24 14                	and    $0x14,%al
  fe:	40                   	inc    %eax
  ff:	00 65 00             	add    %ah,0x0(%ebp)
 102:	00 00                	add    %al,(%eax)
 104:	41                   	inc    %ecx
 105:	0e                   	push   %cs
 106:	08 85 02 42 0d 05    	or     %al,0x50d4202(%ebp)
 10c:	02 61 c5             	add    -0x3b(%ecx),%ah
 10f:	0c 04                	or     $0x4,%al
 111:	04 00                	add    $0x0,%al
 113:	00 1c 00             	add    %bl,(%eax,%eax,1)
 116:	00 00                	add    %al,(%eax)
 118:	00 00                	add    %al,(%eax)
 11a:	00 00                	add    %al,(%eax)
 11c:	89 14 40             	mov    %edx,(%eax,%eax,2)
 11f:	00 7c 00 00          	add    %bh,0x0(%eax,%eax,1)
 123:	00 41 0e             	add    %al,0xe(%ecx)
 126:	08 85 02 42 0d 05    	or     %al,0x50d4202(%ebp)
 12c:	02 78 c5             	add    -0x3b(%eax),%bh
 12f:	0c 04                	or     $0x4,%al
 131:	04 00                	add    $0x0,%al
 133:	00 1c 00             	add    %bl,(%eax,%eax,1)
 136:	00 00                	add    %al,(%eax)
 138:	00 00                	add    %al,(%eax)
 13a:	00 00                	add    %al,(%eax)
 13c:	05 15 40 00 b1       	add    $0xb1004015,%eax
 141:	00 00                	add    %al,(%eax)
 143:	00 41 0e             	add    %al,0xe(%ecx)
 146:	08 85 02 42 0d 05    	or     %al,0x50d4202(%ebp)
 14c:	02 ad c5 0c 04 04    	add    0x4040cc5(%ebp),%ch
	...

Disassembly of section .debug_aranges:

00000000 <.debug_aranges>:
   0:	1c 00                	sbb    $0x0,%al
   2:	00 00                	add    %al,(%eax)
   4:	02 00                	add    (%eax),%al
   6:	00 00                	add    %al,(%eax)
   8:	00 00                	add    %al,(%eax)
   a:	04 00                	add    $0x0,%al
   c:	00 00                	add    %al,(%eax)
   e:	00 00                	add    %al,(%eax)
  10:	00 50 40             	add    %dl,0x40(%eax)
  13:	f0 d2 00             	lock rolb %cl,(%eax)
	...
  1e:	00 00                	add    %al,(%eax)
  20:	1c 00                	sbb    $0x0,%al
  22:	00 00                	add    %al,(%eax)
  24:	02 00                	add    (%eax),%al
  26:	79 03                	jns    2b <SEG_KERN_CS+0x23>
  28:	00 00                	add    %al,(%eax)
  2a:	04 00                	add    $0x0,%al
  2c:	00 00                	add    %al,(%eax)
  2e:	00 00                	add    %al,(%eax)
  30:	0b 51 40             	or     0x40(%ecx),%edx
  33:	f0 78 02             	lock js 38 <SEG_KERN_CS+0x30>
	...
  3e:	00 00                	add    %al,(%eax)
  40:	1c 00                	sbb    $0x0,%al
  42:	00 00                	add    %al,(%eax)
  44:	02 00                	add    (%eax),%al
  46:	a3 05 00 00 04       	mov    %eax,0x4000005
  4b:	00 00                	add    %al,(%eax)
  4d:	00 00                	add    %al,(%eax)
  4f:	00 9e 58 40 f0 23    	add    %bl,0x23f04058(%esi)
  55:	01 00                	add    %eax,(%eax)
	...
  5f:	00 1c 00             	add    %bl,(%eax,%eax,1)
  62:	00 00                	add    %al,(%eax)
  64:	02 00                	add    (%eax),%al
  66:	b2 09                	mov    $0x9,%dl
  68:	00 00                	add    %al,(%eax)
  6a:	04 00                	add    $0x0,%al
  6c:	00 00                	add    %al,(%eax)
  6e:	00 00                	add    %al,(%eax)
  70:	c1 59 40 f0          	rcrl   $0xf0,0x40(%ecx)
  74:	b0 01                	mov    $0x1,%al
	...
  7e:	00 00                	add    %al,(%eax)
  80:	1c 00                	sbb    $0x0,%al
  82:	00 00                	add    %al,(%eax)
  84:	02 00                	add    (%eax),%al
  86:	a4                   	movsb  %ds:(%esi),%es:(%edi)
  87:	0c 00                	or     $0x0,%al
  89:	00 04 00             	add    %al,(%eax,%eax,1)
  8c:	00 00                	add    %al,(%eax)
  8e:	00 00                	add    %al,(%eax)
  90:	71 5b                	jno    ed <SEG_KERN_CS+0xe5>
  92:	40                   	inc    %eax
  93:	f0 8e 00             	lock mov (%eax),%es
	...
  9e:	00 00                	add    %al,(%eax)
  a0:	1c 00                	sbb    $0x0,%al
  a2:	00 00                	add    %al,(%eax)
  a4:	02 00                	add    (%eax),%al
  a6:	5a                   	pop    %edx
  a7:	0d 00 00 04 00       	or     $0x40000,%eax
  ac:	00 00                	add    %al,(%eax)
  ae:	00 00                	add    %al,(%eax)
  b0:	f0 5e                	lock pop %esi
  b2:	40                   	inc    %eax
  b3:	f0 6b 03 00          	lock imul $0x0,(%ebx),%eax
	...
  bf:	00 1c 00             	add    %bl,(%eax,%eax,1)
  c2:	00 00                	add    %al,(%eax)
  c4:	02 00                	add    (%eax),%al
  c6:	54                   	push   %esp
  c7:	12 00                	adc    (%eax),%al
  c9:	00 04 00             	add    %al,(%eax,%eax,1)
  cc:	00 00                	add    %al,(%eax)
  ce:	00 00                	add    %al,(%eax)
  d0:	5b                   	pop    %ebx
  d1:	62 40 f0             	bound  %eax,-0x10(%eax)
  d4:	fb                   	sti
	...
  dd:	00 00                	add    %al,(%eax)
  df:	00 1c 00             	add    %bl,(%eax,%eax,1)
  e2:	00 00                	add    %al,(%eax)
  e4:	02 00                	add    (%eax),%al
  e6:	1e                   	push   %ds
  e7:	15 00 00 04 00       	adc    $0x40000,%eax
  ec:	00 00                	add    %al,(%eax)
  ee:	00 00                	add    %al,(%eax)
  f0:	56                   	push   %esi
  f1:	63 40 f0             	arpl   %eax,-0x10(%eax)
  f4:	03 01                	add    (%ecx),%eax
	...
  fe:	00 00                	add    %al,(%eax)
 100:	1c 00                	sbb    $0x0,%al
 102:	00 00                	add    %al,(%eax)
 104:	02 00                	add    (%eax),%al
 106:	b5 17                	mov    $0x17,%ch
 108:	00 00                	add    %al,(%eax)
 10a:	04 00                	add    $0x0,%al
 10c:	00 00                	add    %al,(%eax)
 10e:	00 00                	add    %al,(%eax)
 110:	59                   	pop    %ecx
 111:	64 40                	fs inc %eax
 113:	f0 79 02             	lock jns 118 <SEG_KERN_CS+0x110>
	...
 11e:	00 00                	add    %al,(%eax)
 120:	1c 00                	sbb    $0x0,%al
 122:	00 00                	add    %al,(%eax)
 124:	02 00                	add    (%eax),%al
 126:	f3 1c 00             	repz sbb $0x0,%al
 129:	00 04 00             	add    %al,(%eax,%eax,1)
 12c:	00 00                	add    %al,(%eax)
 12e:	00 00                	add    %al,(%eax)
 130:	d2 66 40             	shlb   %cl,0x40(%esi)
 133:	f0 94                	lock xchg %eax,%esp
 135:	06                   	push   %es
	...
 13e:	00 00                	add    %al,(%eax)
 140:	1c 00                	sbb    $0x0,%al
 142:	00 00                	add    %al,(%eax)
 144:	02 00                	add    (%eax),%al
 146:	1d 27 00 00 04       	sbb    $0x4000027,%eax
 14b:	00 00                	add    %al,(%eax)
 14d:	00 00                	add    %al,(%eax)
 14f:	00 66 6d             	add    %ah,0x6d(%esi)
 152:	40                   	inc    %eax
 153:	f0 24 02             	lock and $0x2,%al
	...
 15e:	00 00                	add    %al,(%eax)
 160:	1c 00                	sbb    $0x0,%al
 162:	00 00                	add    %al,(%eax)
 164:	02 00                	add    (%eax),%al
 166:	e4 29                	in     $0x29,%al
 168:	00 00                	add    %al,(%eax)
 16a:	04 00                	add    $0x0,%al
 16c:	00 00                	add    %al,(%eax)
 16e:	00 00                	add    %al,(%eax)
 170:	8a 6f 40             	mov    0x40(%edi),%ch
 173:	f0 18 00             	lock sbb %al,(%eax)
	...

Disassembly of section .debug_info:

00000000 <.debug_info>:
       0:	75 03                	jne    5 <FLAGS+0x2>
       2:	00 00                	add    %al,(%eax)
       4:	05 00 01 04 00       	add    $0x40100,%eax
       9:	00 00                	add    %al,(%eax)
       b:	00 0e                	add    %cl,(%esi)
       d:	9a 01 00 00 0c 00 00 	lcall  $0x0,$0xc000001
      14:	00 00                	add    %al,(%eax)
      16:	0b 00                	or     (%eax),%eax
      18:	00 00                	add    %al,(%eax)
      1a:	00 50 40             	add    %dl,0x40(%eax)
      1d:	f0 d2 00             	lock rolb %cl,(%eax)
      20:	00 00                	add    %al,(%eax)
      22:	00 00                	add    %al,(%eax)
      24:	00 00                	add    %al,(%eax)
      26:	05 01 06 5b 01       	add    $0x15b0601,%eax
      2b:	00 00                	add    %al,(%eax)
      2d:	05 02 05 50 02       	add    $0x2500502,%eax
      32:	00 00                	add    %al,(%eax)
      34:	0f 04                	(bad)
      36:	05 69 6e 74 00       	add    $0x746e69,%eax
      3b:	05 08 05 14 02       	add    $0x2140508,%eax
      40:	00 00                	add    %al,(%eax)
      42:	08 88 01 00 00 02    	or     %cl,0x2000001(%eax)
      48:	13 1d 4e 00 00 00    	adc    0x4e,%ebx
      4e:	05 01 08 52 01       	add    $0x1520801,%eax
      53:	00 00                	add    %al,(%eax)
      55:	05 02 07 3d 00       	add    $0x3d0702,%eax
      5a:	00 00                	add    %al,(%eax)
      5c:	08 7c 02 00          	or     %bh,0x0(%edx,%eax,1)
      60:	00 02                	add    %al,(%edx)
      62:	15 1d 68 00 00       	adc    $0x681d,%eax
      67:	00 05 04 07 7b 01    	add    %al,0x17b0704
      6d:	00 00                	add    %al,(%eax)
      6f:	08 5d 00             	or     %bl,0x0(%ebp)
      72:	00 00                	add    %al,(%eax)
      74:	02 16                	add    (%esi),%dl
      76:	1d 7b 00 00 00       	sbb    $0x7b,%eax
      7b:	05 08 07 71 01       	add    $0x1710708,%eax
      80:	00 00                	add    %al,(%eax)
      82:	08 ce                	or     %cl,%dh
      84:	00 00                	add    %al,(%eax)
      86:	00 02                	add    %al,(%edx)
      88:	1b 1d 5c 00 00 00    	sbb    0x5c,%ebx
      8e:	0b 08                	or     (%eax),%ecx
      90:	09 ad 00 00 00 01    	or     %ebp,0x1000000(%ebp)
      96:	b5 0b                	mov    $0xb,%ch
      98:	00 00                	add    %al,(%eax)
      9a:	0a 0e                	or     (%esi),%cl
      9c:	5c                   	pop    %esp
      9d:	00 00                	add    %al,(%eax)
      9f:	00 00                	add    %al,(%eax)
      a1:	0c 6c                	or     $0x6c,%al
      a3:	65 6e                	outsb  %gs:(%esi),(%dx)
      a5:	00 0b                	add    %cl,(%ebx)
      a7:	5c                   	pop    %esp
      a8:	00 00                	add    %al,(%eax)
      aa:	00 04 00             	add    %al,(%eax,%eax,1)
      ad:	08 5a 02             	or     %bl,0x2(%edx)
      b0:	00 00                	add    %al,(%eax)
      b2:	03 0c 03             	add    (%ebx,%eax,1),%ecx
      b5:	8e 00                	mov    (%eax),%es
      b7:	00 00                	add    %al,(%eax)
      b9:	0b 18                	or     (%eax),%ebx
      bb:	19 f0                	sbb    %esi,%eax
      bd:	00 00                	add    %al,(%eax)
      bf:	00 01                	add    %al,(%ecx)
      c1:	1d 0a 00 00 1a       	sbb    $0x1a00000a,%eax
      c6:	0e                   	push   %cs
      c7:	5c                   	pop    %esp
      c8:	00 00                	add    %al,(%eax)
      ca:	00 00                	add    %al,(%eax)
      cc:	01 b5 0b 00 00 1b    	add    %esi,0x1b00000b(%ebp)
      d2:	0e                   	push   %cs
      d3:	6f                   	outsl  %ds:(%esi),(%dx)
      d4:	00 00                	add    %al,(%eax)
      d6:	00 04 0c             	add    %al,(%esp,%ecx,1)
      d9:	6c                   	insb   (%dx),%es:(%edi)
      da:	65 6e                	outsb  %gs:(%esi),(%dx)
      dc:	00 1c 6f             	add    %bl,(%edi,%ebp,2)
      df:	00 00                	add    %al,(%eax)
      e1:	00 0c 01             	add    %cl,(%ecx,%eax,1)
      e4:	cf                   	iret
      e5:	09 00                	or     %eax,(%eax)
      e7:	00 1d 0e 5c 00 00    	add    %bl,0x5c0e
      ed:	00 14 00             	add    %dl,(%eax,%eax,1)
      f0:	08 1c 01             	or     %bl,(%ecx,%eax,1)
      f3:	00 00                	add    %al,(%eax)
      f5:	03 1e                	add    (%esi),%ebx
      f7:	03 b9 00 00 00 10    	add    0x10000000(%ecx),%edi
      fd:	2c 03                	sub    $0x3,%al
      ff:	03 26                	add    (%esi),%esp
     101:	09 82 01 00 00 01    	or     %eax,0x1000001(%edx)
     107:	e7 01                	out    %eax,$0x1
     109:	00 00                	add    %al,(%eax)
     10b:	27                   	daa
     10c:	0e                   	push   %cs
     10d:	5c                   	pop    %esp
     10e:	00 00                	add    %al,(%eax)
     110:	00 00                	add    %al,(%eax)
     112:	01 65 02             	add    %esp,0x2(%ebp)
     115:	00 00                	add    %al,(%eax)
     117:	2a 0e                	sub    (%esi),%cl
     119:	5c                   	pop    %esp
     11a:	00 00                	add    %al,(%eax)
     11c:	00 04 01             	add    %al,(%ecx,%eax,1)
     11f:	90                   	nop
     120:	01 00                	add    %eax,(%eax)
     122:	00 2b                	add    %ch,(%ebx)
     124:	10 ad 00 00 00 08    	adc    %ch,0x8000000(%ebp)
     12a:	01 fe                	add    %edi,%esi
     12c:	00 00                	add    %al,(%eax)
     12e:	00 2e                	add    %ch,(%esi)
     130:	10 ad 00 00 00 10    	adc    %ch,0x10000000(%ebp)
     136:	01 ab 00 00 00 31    	add    %ebp,0x31000000(%ebx)
     13c:	0e                   	push   %cs
     13d:	5c                   	pop    %esp
     13e:	00 00                	add    %al,(%eax)
     140:	00 18                	add    %bl,(%eax)
     142:	01 22                	add    %esp,(%edx)
     144:	02 00                	add    (%eax),%al
     146:	00 32                	add    %dh,(%edx)
     148:	0e                   	push   %cs
     149:	5c                   	pop    %esp
     14a:	00 00                	add    %al,(%eax)
     14c:	00 1c 01             	add    %bl,(%ecx,%eax,1)
     14f:	50                   	push   %eax
     150:	00 00                	add    %al,(%eax)
     152:	00 35 16 82 01 00    	add    %dh,0x18216
     158:	00 20                	add    %ah,(%eax)
     15a:	09 9f 02 00 00 36    	or     %ebx,0x36000002(%edi)
     160:	0e                   	push   %cs
     161:	5c                   	pop    %esp
     162:	00 00                	add    %al,(%eax)
     164:	00 20                	add    %ah,(%eax)
     166:	03 09                	add    (%ecx),%ecx
     168:	93                   	xchg   %eax,%ebx
     169:	00 00                	add    %al,(%eax)
     16b:	00 39                	add    %bh,(%ecx)
     16d:	0f 99 01             	setns  (%ecx)
     170:	00 00                	add    %al,(%eax)
     172:	24 03                	and    $0x3,%al
     174:	09 f5                	or     %esi,%ebp
     176:	01 00                	add    %eax,(%eax)
     178:	00 3a                	add    %bh,(%edx)
     17a:	0e                   	push   %cs
     17b:	5c                   	pop    %esp
     17c:	00 00                	add    %al,(%eax)
     17e:	00 28                	add    %ch,(%eax)
     180:	03 00                	add    (%eax),%eax
     182:	11 f0                	adc    %esi,%eax
     184:	00 00                	add    %al,(%eax)
     186:	00 92 01 00 00 12    	add    %dl,0x12000001(%edx)
     18c:	92                   	xchg   %eax,%edx
     18d:	01 00                	add    %eax,(%eax)
     18f:	00 1f                	add    %bl,(%edi)
     191:	00 05 04 07 76 01    	add    %al,0x1760704
     197:	00 00                	add    %al,(%eax)
     199:	0a 5c 00 00          	or     0x0(%eax,%eax,1),%bl
     19d:	00 08                	add    %cl,(%eax)
     19f:	31 00                	xor    %eax,(%eax)
     1a1:	00 00                	add    %al,(%eax)
     1a3:	03 3b                	add    (%ebx),%edi
     1a5:	03 fc                	add    %esp,%edi
     1a7:	00 00                	add    %al,(%eax)
     1a9:	00 13                	add    %dl,(%ebx)
     1ab:	07                   	pop    %es
     1ac:	04 68                	add    $0x68,%al
     1ae:	00 00                	add    %al,(%eax)
     1b0:	00 0d 11 06 e9 01    	add    %cl,0x1e90611
     1b6:	00 00                	add    %al,(%eax)
     1b8:	06                   	push   %es
     1b9:	49                   	dec    %ecx
     1ba:	01 00                	add    %eax,(%eax)
     1bc:	00 00                	add    %al,(%eax)
     1be:	06                   	push   %es
     1bf:	2d 01 00 00 01       	sub    $0x1000001,%eax
     1c4:	06                   	push   %es
     1c5:	10 00                	adc    %al,(%eax)
     1c7:	00 00                	add    %al,(%eax)
     1c9:	02 06                	add    (%esi),%al
     1cb:	87 00                	xchg   %eax,(%eax)
     1cd:	00 00                	add    %al,(%eax)
     1cf:	03 06                	add    (%esi),%eax
     1d1:	a8 02                	test   $0x2,%al
     1d3:	00 00                	add    %al,(%eax)
     1d5:	04 06                	add    $0x6,%al
     1d7:	41                   	inc    %ecx
     1d8:	01 00                	add    %eax,(%eax)
     1da:	00 05 06 66 00 00    	add    %al,0x6606
     1e0:	00 06                	add    %al,(%esi)
     1e2:	06                   	push   %es
     1e3:	b6 00                	mov    $0x0,%dh
     1e5:	00 00                	add    %al,(%eax)
     1e7:	16                   	push   %ss
     1e8:	00 14 04             	add    %dl,(%esp,%eax,1)
     1eb:	15 1c 00 00 00       	adc    $0x1c,%eax
     1f0:	01 12                	add    %edx,(%edx)
     1f2:	0d 9e 01 00 00       	or     $0x19e,%eax
     1f7:	05 03 00 10 41       	add    $0x41100003,%eax
     1fc:	f0 04 e5             	lock add $0xe5,%al
     1ff:	00 00                	add    %al,(%eax)
     201:	00 04 0a             	add    %al,(%edx,%ecx,1)
     204:	06                   	push   %es
     205:	0f 02 00             	lar    (%eax),%eax
     208:	00 02                	add    %al,(%edx)
     20a:	0f 02 00             	lar    (%eax),%eax
     20d:	00 00                	add    %al,(%eax)
     20f:	0a 9e 01 00 00 04    	or     0x4000001(%esi),%bl
     215:	7f 00                	jg     217 <SEG_KERN_CS+0x20f>
     217:	00 00                	add    %al,(%eax)
     219:	05 22 0d 26 02       	add    $0x2260d22,%eax
     21e:	00 00                	add    %al,(%eax)
     220:	02 5c 00 00          	add    0x0(%eax,%eax,1),%bl
     224:	00 00                	add    %al,(%eax)
     226:	04 39                	add    $0x39,%al
     228:	01 00                	add    %eax,(%eax)
     22a:	00 05 21 0d 38 02    	add    %al,0x2380d21
     230:	00 00                	add    %al,(%eax)
     232:	02 5c 00 00          	add    0x0(%eax,%eax,1),%bl
     236:	00 00                	add    %al,(%eax)
     238:	04 fd                	add    $0xfd,%al
     23a:	01 00                	add    %eax,(%eax)
     23c:	00 05 20 0d 4a 02    	add    %al,0x24a0d20
     242:	00 00                	add    %al,(%eax)
     244:	02 5c 00 00          	add    0x0(%eax,%eax,1),%bl
     248:	00 00                	add    %al,(%eax)
     24a:	04 74                	add    $0x74,%al
     24c:	02 00                	add    (%eax),%al
     24e:	00 05 1f 0d 5c 02    	add    %al,0x25c0d1f
     254:	00 00                	add    %al,(%eax)
     256:	02 5c 00 00          	add    0x0(%eax,%eax,1),%bl
     25a:	00 00                	add    %al,(%eax)
     25c:	04 00                	add    $0x0,%al
     25e:	00 00                	add    %al,(%eax)
     260:	00 05 1e 0d 6e 02    	add    %al,0x26e0d1e
     266:	00 00                	add    %al,(%eax)
     268:	02 5c 00 00          	add    0x0(%eax,%eax,1),%bl
     26c:	00 00                	add    %al,(%eax)
     26e:	07                   	pop    %es
     26f:	43                   	inc    %ebx
     270:	02 00                	add    (%eax),%al
     272:	00 05 1d 0d 7c 02    	add    %al,0x27c0d1d
     278:	00 00                	add    %al,(%eax)
     27a:	03 00                	add    (%eax),%eax
     27c:	04 08                	add    $0x8,%al
     27e:	00 00                	add    %al,(%eax)
     280:	00 05 19 0d 8e 02    	add    %al,0x28e0d19
     286:	00 00                	add    %al,(%eax)
     288:	02 5c 00 00          	add    0x0(%eax,%eax,1),%bl
     28c:	00 00                	add    %al,(%eax)
     28e:	04 f5                	add    $0xf5,%al
     290:	00 00                	add    %al,(%eax)
     292:	00 05 18 0d a0 02    	add    %al,0x2a00d18
     298:	00 00                	add    %al,(%eax)
     29a:	02 5c 00 00          	add    0x0(%eax,%eax,1),%bl
     29e:	00 00                	add    %al,(%eax)
     2a0:	07                   	pop    %es
     2a1:	9b                   	fwait
     2a2:	00 00                	add    %al,(%eax)
     2a4:	00 06                	add    %al,(%esi)
     2a6:	1e                   	push   %ds
     2a7:	06                   	push   %es
     2a8:	ae                   	scas   %es:(%edi),%al
     2a9:	02 00                	add    (%eax),%al
     2ab:	00 03                	add    %al,(%ebx)
     2ad:	00 07                	add    %al,(%edi)
     2af:	31 02                	xor    %eax,(%edx)
     2b1:	00 00                	add    %al,(%eax)
     2b3:	07                   	pop    %es
     2b4:	37                   	aaa
     2b5:	06                   	push   %es
     2b6:	bc 02 00 00 03       	mov    $0x3000002,%esp
     2bb:	00 07                	add    %al,(%edi)
     2bd:	6e                   	outsb  %ds:(%esi),(%dx)
     2be:	00 00                	add    %al,(%eax)
     2c0:	00 08                	add    %cl,(%eax)
     2c2:	3e 06                	ds push %es
     2c4:	ca 02 00             	lret   $0x2
     2c7:	00 03                	add    %al,(%ebx)
     2c9:	00 07                	add    %al,(%edi)
     2cb:	22 00                	and    (%eax),%al
     2cd:	00 00                	add    %al,(%eax)
     2cf:	06                   	push   %es
     2d0:	19 06                	sbb    %eax,(%esi)
     2d2:	d8 02                	fadds  (%edx)
     2d4:	00 00                	add    %al,(%eax)
     2d6:	03 00                	add    (%eax),%eax
     2d8:	07                   	pop    %es
     2d9:	be 00 00 00 09       	mov    $0x9000000,%esi
     2de:	0f 06                	clts
     2e0:	e6 02                	out    %al,$0x2
     2e2:	00 00                	add    %al,(%eax)
     2e4:	03 00                	add    (%eax),%eax
     2e6:	07                   	pop    %es
     2e7:	05 02 00 00 0a       	add    $0xa000002,%eax
     2ec:	0a 06                	or     (%esi),%al
     2ee:	f4                   	hlt
     2ef:	02 00                	add    (%eax),%al
     2f1:	00 03                	add    %al,(%ebx)
     2f3:	00 07                	add    %al,(%edi)
     2f5:	90                   	nop
     2f6:	02 00                	add    (%eax),%al
     2f8:	00 09                	add    %cl,(%ecx)
     2fa:	0a 06                	or     (%esi),%al
     2fc:	02 03                	add    (%ebx),%al
     2fe:	00 00                	add    %al,(%eax)
     300:	03 00                	add    (%eax),%eax
     302:	0d 08 01 00 00       	or     $0x108,%eax
     307:	16                   	push   %ss
     308:	42                   	inc    %edx
     309:	00 00                	add    %al,(%eax)
     30b:	00 12                	add    %dl,(%edx)
     30d:	03 00                	add    (%eax),%eax
     30f:	00 03                	add    %al,(%ebx)
     311:	00 0d d5 00 00 00    	add    %cl,0xd5
     317:	0a 42 00             	or     0x0(%edx),%al
     31a:	00 00                	add    %al,(%eax)
     31c:	22 03                	and    (%ebx),%al
     31e:	00 00                	add    %al,(%eax)
     320:	03 00                	add    (%eax),%eax
     322:	04 55                	add    $0x55,%al
     324:	00 00                	add    %al,(%eax)
     326:	00 0c 0a             	add    %cl,(%edx,%ecx,1)
     329:	06                   	push   %es
     32a:	3e 03 00             	add    %ds:(%eax),%eax
     32d:	00 02                	add    %al,(%edx)
     32f:	e9 01 00 00 02       	jmp    2000335 <_mb_unpaged_end+0x1bfb335>
     334:	3e 03 00             	add    %ds:(%eax),%eax
     337:	00 02                	add    %al,(%edx)
     339:	82 00 00             	addb   $0x0,(%eax)
     33c:	00 00                	add    %al,(%eax)
     33e:	0a 43 03             	or     0x3(%ebx),%al
     341:	00 00                	add    %al,(%eax)
     343:	16                   	push   %ss
     344:	17                   	pop    %ss
     345:	60                   	pusha
     346:	01 00                	add    %eax,(%eax)
     348:	00 01                	add    %al,(%ecx)
     34a:	2b 06                	sub    (%esi),%eax
     34c:	36 50                	ss push %eax
     34e:	40                   	inc    %eax
     34f:	f0 9c                	lock pushf
     351:	00 00                	add    %al,(%eax)
     353:	00 01                	add    %al,(%ecx)
     355:	9c                   	pushf
     356:	18 85 02 00 00 01    	sbb    %al,0x1000002(%ebp)
     35c:	1c 06                	sbb    $0x6,%al
     35e:	00 50 40             	add    %dl,0x40(%eax)
     361:	f0 36 00 00          	lock add %al,%ss:(%eax)
     365:	00 01                	add    %al,(%ecx)
     367:	9c                   	pushf
     368:	19 1d 00 00 00 01    	sbb    %ebx,0x1000000
     36e:	1c 1e                	sbb    $0x1e,%al
     370:	0f 02 00             	lar    (%eax),%eax
     373:	00 02                	add    %al,(%edx)
     375:	91                   	xchg   %eax,%ecx
     376:	00 00                	add    %al,(%eax)
     378:	00 26                	add    %ah,(%esi)
     37a:	02 00                	add    (%eax),%al
     37c:	00 05 00 01 04 73    	add    %al,0x73040100
     382:	01 00                	add    %eax,(%eax)
     384:	00 09                	add    %cl,(%ecx)
     386:	9a 01 00 00 0c 43 01 	lcall  $0x143,$0xc000001
     38d:	00 00                	add    %al,(%eax)
     38f:	0b 00                	or     (%eax),%eax
     391:	00 00                	add    %al,(%eax)
     393:	0b 51 40             	or     0x40(%ecx),%edx
     396:	f0 78 02             	lock js 39b <SEG_KERN_CS+0x393>
     399:	00 00                	add    %al,(%eax)
     39b:	cb                   	lret
     39c:	00 00                	add    %al,(%eax)
     39e:	00 03                	add    %al,(%ebx)
     3a0:	01 06                	add    %eax,(%esi)
     3a2:	5b                   	pop    %ebx
     3a3:	01 00                	add    %eax,(%eax)
     3a5:	00 0a                	add    %cl,(%edx)
     3a7:	26 00 00             	add    %al,%es:(%eax)
     3aa:	00 03                	add    %al,(%ebx)
     3ac:	02 05 50 02 00 00    	add    0x250,%al
     3b2:	0b 04 05 69 6e 74 00 	or     0x746e69(,%eax,1),%eax
     3b9:	03 08                	add    (%eax),%ecx
     3bb:	05 14 02 00 00       	add    $0x214,%eax
     3c0:	06                   	push   %es
     3c1:	88 01                	mov    %al,(%ecx)
     3c3:	00 00                	add    %al,(%eax)
     3c5:	02 13                	add    (%ebx),%dl
     3c7:	1d 53 00 00 00       	sbb    $0x53,%eax
     3cc:	03 01                	add    (%ecx),%eax
     3ce:	08 52 01             	or     %dl,0x1(%edx)
     3d1:	00 00                	add    %al,(%eax)
     3d3:	03 02                	add    (%edx),%eax
     3d5:	07                   	pop    %es
     3d6:	3d 00 00 00 06       	cmp    $0x6000000,%eax
     3db:	7c 02                	jl     3df <SEG_KERN_CS+0x3d7>
     3dd:	00 00                	add    %al,(%eax)
     3df:	02 15 1d 6d 00 00    	add    0x6d1d,%dl
     3e5:	00 03                	add    %al,(%ebx)
     3e7:	04 07                	add    $0x7,%al
     3e9:	7b 01                	jnp    3ec <SEG_KERN_CS+0x3e4>
     3eb:	00 00                	add    %al,(%eax)
     3ed:	03 08                	add    (%eax),%ecx
     3ef:	07                   	pop    %es
     3f0:	71 01                	jno    3f3 <SEG_KERN_CS+0x3eb>
     3f2:	00 00                	add    %al,(%eax)
     3f4:	0c 07                	or     $0x7,%al
     3f6:	04 6d                	add    $0x6d,%al
     3f8:	00 00                	add    %al,(%eax)
     3fa:	00 03                	add    %al,(%ebx)
     3fc:	11 0e                	adc    %ecx,(%esi)
     3fe:	f6 00 00             	testb  $0x0,(%eax)
     401:	00 01                	add    %al,(%ecx)
     403:	3e 03 00             	add    %ds:(%eax),%eax
     406:	00 01                	add    %al,(%ecx)
     408:	01 ff                	add    %edi,%edi
     40a:	03 00                	add    (%eax),%eax
     40c:	00 02                	add    %al,(%edx)
     40e:	01 de                	add    %ebx,%esi
     410:	02 00                	add    (%eax),%al
     412:	00 03                	add    %al,(%ebx)
     414:	01 cb                	add    %ecx,%ebx
     416:	02 00                	add    (%eax),%al
     418:	00 04 01             	add    %al,(%ecx,%eax,1)
     41b:	a4                   	movsb  %ds:(%esi),%es:(%edi)
     41c:	03 00                	add    (%eax),%eax
     41e:	00 05 01 5a 03 00    	add    %al,0x35a01
     424:	00 06                	add    %al,(%esi)
     426:	01 f0                	add    %esi,%eax
     428:	03 00                	add    (%eax),%eax
     42a:	00 07                	add    %al,(%edi)
     42c:	01 4f 03             	add    %ecx,0x3(%edi)
     42f:	00 00                	add    %al,(%eax)
     431:	08 01                	or     %al,(%ecx)
     433:	b6 03                	mov    $0x3,%dh
     435:	00 00                	add    %al,(%eax)
     437:	09 01                	or     %eax,(%ecx)
     439:	c1 03 00             	roll   $0x0,(%ebx)
     43c:	00 0a                	add    %cl,(%edx)
     43e:	01 cc                	add    %ecx,%esp
     440:	03 00                	add    (%eax),%eax
     442:	00 0b                	add    %cl,(%ebx)
     444:	01 32                	add    %esi,(%edx)
     446:	03 00                	add    (%eax),%eax
     448:	00 0c 01             	add    %cl,(%ecx,%eax,1)
     44b:	18 03                	sbb    %al,(%ebx)
     44d:	00 00                	add    %al,(%eax)
     44f:	0d 01 25 03 00       	or     $0x32501,%eax
     454:	00 0e                	add    %cl,(%esi)
     456:	01 ff                	add    %edi,%edi
     458:	02 00                	add    (%eax),%al
     45a:	00 0f                	add    %cl,(%edi)
     45c:	01 bd 02 00 00 10    	add    %edi,0x10000002(%ebp)
     462:	01 95 03 00 00 11    	add    %edx,0x11000003(%ebp)
     468:	01 e2                	add    %esp,%edx
     46a:	03 00                	add    (%eax),%eax
     46c:	00 12                	add    %dl,(%edx)
     46e:	00 06                	add    %al,(%esi)
     470:	71 03                	jno    475 <SEG_KERN_CS+0x46d>
     472:	00 00                	add    %al,(%eax)
     474:	03 24 03             	add    (%ebx,%eax,1),%esp
     477:	7b 00                	jnp    479 <SEG_KERN_CS+0x471>
     479:	00 00                	add    %al,(%eax)
     47b:	07                   	pop    %es
     47c:	09 03                	or     %eax,(%ebx)
     47e:	00 00                	add    %al,(%eax)
     480:	06                   	push   %es
     481:	12 01                	adc    (%ecx),%al
     483:	00 00                	add    %al,(%eax)
     485:	05 03 00 80 40       	add    $0x40800003,%eax
     48a:	f0 08 2d 00 00 00 07 	lock or %ch,0x7000000
     491:	64 03 00             	add    %fs:(%eax),%eax
     494:	00 09                	add    %cl,(%ecx)
     496:	12 01                	adc    (%ecx),%al
     498:	00 00                	add    %al,(%eax)
     49a:	05 03 04 80 40       	add    $0x40800403,%eax
     49f:	f0 0d d7 03 00 00    	lock or $0x3d7,%eax
     4a5:	04 11                	add    $0x11,%al
     4a7:	0d 48 01 00 00       	or     $0x148,%eax
     4ac:	05 48 01 00 00       	add    $0x148,%eax
     4b1:	05 48 01 00 00       	add    $0x148,%eax
     4b6:	05 48 01 00 00       	add    $0x148,%eax
     4bb:	05 48 01 00 00       	add    $0x148,%eax
     4c0:	00 08                	add    %cl,(%eax)
     4c2:	61                   	popa
     4c3:	00 00                	add    %al,(%eax)
     4c5:	00 0e                	add    %cl,(%esi)
     4c7:	b4 02                	mov    $0x2,%ah
     4c9:	00 00                	add    %al,(%eax)
     4cb:	01 0b                	add    %ecx,(%ebx)
     4cd:	0a 61 00             	or     0x0(%ecx),%ah
     4d0:	00 00                	add    %al,(%eax)
     4d2:	0b 51 40             	or     0x40(%ecx),%edx
     4d5:	f0 78 02             	lock js 4da <SEG_KERN_CS+0x4d2>
     4d8:	00 00                	add    %al,(%eax)
     4da:	01 9c 0f ae 03 00 00 	add    %ebx,0x3ae(%edi,%ecx,1)
     4e1:	01 0b                	add    %ecx,(%ebx)
     4e3:	23 f6                	and    %esi,%esi
     4e5:	00 00                	add    %al,(%eax)
     4e7:	00 02                	add    %al,(%edx)
     4e9:	91                   	xchg   %eax,%ecx
     4ea:	00 04 65 61 78 00 10 	add    %al,0x10007861(,%eiz,2)
     4f1:	0e                   	push   %cs
     4f2:	61                   	popa
     4f3:	00 00                	add    %al,(%eax)
     4f5:	00 02                	add    %al,(%edx)
     4f7:	91                   	xchg   %eax,%ecx
     4f8:	5c                   	pop    %esp
     4f9:	04 65                	add    $0x65,%al
     4fb:	62 78 00             	bound  %edi,0x0(%eax)
     4fe:	10 17                	adc    %dl,(%edi)
     500:	61                   	popa
     501:	00 00                	add    %al,(%eax)
     503:	00 02                	add    %al,(%edx)
     505:	91                   	xchg   %eax,%ecx
     506:	58                   	pop    %eax
     507:	04 65                	add    $0x65,%al
     509:	64 78 00             	fs js  50c <SEG_KERN_CS+0x504>
     50c:	10 1c 61             	adc    %bl,(%ecx,%eiz,2)
     50f:	00 00                	add    %al,(%eax)
     511:	00 02                	add    %al,(%edx)
     513:	91                   	xchg   %eax,%ecx
     514:	54                   	push   %esp
     515:	04 65                	add    $0x65,%al
     517:	63 78 00             	arpl   %edi,0x0(%eax)
     51a:	10 21                	adc    %ah,(%ecx)
     51c:	61                   	popa
     51d:	00 00                	add    %al,(%eax)
     51f:	00 02                	add    %al,(%edx)
     521:	91                   	xchg   %eax,%ecx
     522:	50                   	push   %eax
     523:	02 e8                	add    %al,%ch
     525:	02 00                	add    (%eax),%al
     527:	00 11                	add    %dl,(%ecx)
     529:	0e                   	push   %cs
     52a:	61                   	popa
     52b:	00 00                	add    %al,(%eax)
     52d:	00 02                	add    %al,(%edx)
     52f:	91                   	xchg   %eax,%ecx
     530:	4c                   	dec    %esp
     531:	02 81 03 00 00 11    	add    0x11000003(%ecx),%al
     537:	1a 61 00             	sbb    0x0(%ecx),%ah
     53a:	00 00                	add    %al,(%eax)
     53c:	02 91 48 02 8e 03    	add    0x38e0248(%ecx),%dl
     542:	00 00                	add    %al,(%eax)
     544:	11 26                	adc    %esp,(%esi)
     546:	61                   	popa
     547:	00 00                	add    %al,(%eax)
     549:	00 02                	add    %al,(%edx)
     54b:	91                   	xchg   %eax,%ecx
     54c:	44                   	inc    %esp
     54d:	02 ef                	add    %bh,%ch
     54f:	02 00                	add    (%eax),%al
     551:	00 11                	add    %dl,(%ecx)
     553:	32 61 00             	xor    0x0(%ecx),%ah
     556:	00 00                	add    %al,(%eax)
     558:	02 91 40 02 12 03    	add    0x3120240(%ecx),%dl
     55e:	00 00                	add    %al,(%eax)
     560:	19 0d 47 00 00 00    	sbb    %ecx,0x47
     566:	02 91 67 04 61 6d    	add    0x6d610467(%ecx),%dl
     56c:	64 00 1a             	add    %bl,%fs:(%edx)
     56f:	0d 47 00 00 00       	or     $0x47,%eax
     574:	02 91 66 02 f6 02    	add    0x2f60266(%ecx),%dl
     57a:	00 00                	add    %al,(%eax)
     57c:	20 0e                	and    %cl,(%esi)
     57e:	61                   	popa
     57f:	00 00                	add    %al,(%eax)
     581:	00 02                	add    %al,(%edx)
     583:	91                   	xchg   %eax,%ecx
     584:	60                   	pusha
     585:	02 88 03 00 00 21    	add    0x21000003(%eax),%cl
     58b:	0e                   	push   %cs
     58c:	61                   	popa
     58d:	00 00                	add    %al,(%eax)
     58f:	00 02                	add    %al,(%edx)
     591:	91                   	xchg   %eax,%ecx
     592:	6c                   	insb   (%dx),%es:(%edi)
     593:	02 48 03             	add    0x3(%eax),%cl
     596:	00 00                	add    %al,(%eax)
     598:	27                   	daa
     599:	0e                   	push   %cs
     59a:	61                   	popa
     59b:	00 00                	add    %al,(%eax)
     59d:	00 02                	add    %al,(%edx)
     59f:	91                   	xchg   %eax,%ecx
     5a0:	68 00 00 0b 04       	push   $0x40b0000
     5a5:	00 00                	add    %al,(%eax)
     5a7:	05 00 01 04 5a       	add    $0x5a040100,%eax
     5ac:	02 00                	add    (%eax),%al
     5ae:	00 12                	add    %dl,(%edx)
     5b0:	9a 01 00 00 0c 6f 01 	lcall  $0x16f,$0xc000001
     5b7:	00 00                	add    %al,(%eax)
     5b9:	0b 00                	or     (%eax),%eax
     5bb:	00 00                	add    %al,(%eax)
     5bd:	9e                   	sahf
     5be:	58                   	pop    %eax
     5bf:	40                   	inc    %eax
     5c0:	f0 23 01             	lock and (%ecx),%eax
     5c3:	00 00                	add    %al,(%eax)
     5c5:	43                   	inc    %ebx
     5c6:	02 00                	add    (%eax),%al
     5c8:	00 03                	add    %al,(%ebx)
     5ca:	01 06                	add    %eax,(%esi)
     5cc:	5b                   	pop    %ebx
     5cd:	01 00                	add    %eax,(%eax)
     5cf:	00 03                	add    %al,(%ebx)
     5d1:	02 05 50 02 00 00    	add    0x250,%al
     5d7:	13 04 05 69 6e 74 00 	adc    0x746e69(,%eax,1),%eax
     5de:	03 08                	add    (%eax),%ecx
     5e0:	05 14 02 00 00       	add    $0x214,%eax
     5e5:	05 88 01 00 00       	add    $0x188,%eax
     5ea:	02 13                	add    (%ebx),%dl
     5ec:	1d 4e 00 00 00       	sbb    $0x4e,%eax
     5f1:	03 01                	add    (%ecx),%eax
     5f3:	08 52 01             	or     %dl,0x1(%edx)
     5f6:	00 00                	add    %al,(%eax)
     5f8:	03 02                	add    (%edx),%eax
     5fa:	07                   	pop    %es
     5fb:	3d 00 00 00 05       	cmp    $0x5000000,%eax
     600:	7c 02                	jl     604 <SEG_KERN_CS+0x5fc>
     602:	00 00                	add    %al,(%eax)
     604:	02 15 1d 68 00 00    	add    0x681d,%dl
     60a:	00 03                	add    %al,(%ebx)
     60c:	04 07                	add    $0x7,%al
     60e:	7b 01                	jnp    611 <SEG_KERN_CS+0x609>
     610:	00 00                	add    %al,(%eax)
     612:	03 08                	add    (%eax),%ecx
     614:	07                   	pop    %es
     615:	71 01                	jno    618 <SEG_KERN_CS+0x610>
     617:	00 00                	add    %al,(%eax)
     619:	05 ce 00 00 00       	add    $0xce,%eax
     61e:	02 1b                	add    (%ebx),%bl
     620:	1d 5c 00 00 00       	sbb    $0x5c,%eax
     625:	05 53 04 00 00       	add    $0x453,%eax
     62a:	03 2f                	add    (%edi),%ebp
     62c:	12 5c 00 00          	adc    0x0(%eax,%eax,1),%bl
     630:	00 0e                	add    %cl,(%esi)
     632:	ac                   	lods   %ds:(%esi),%al
     633:	04 00                	add    $0x0,%al
     635:	00 18                	add    %bl,(%eax)
     637:	03 73 e5             	add    -0x1b(%ebx),%esi
     63a:	00 00                	add    %al,(%eax)
     63c:	00 04 65 72 72 00 03 	add    %al,0x3007272(,%eiz,2)
     643:	74 13                	je     658 <SEG_KERN_CS+0x650>
     645:	82 00 00             	addb   $0x0,(%eax)
     648:	00 00                	add    %al,(%eax)
     64a:	04 69                	add    $0x69,%al
     64c:	70 00                	jo     64e <SEG_KERN_CS+0x646>
     64e:	03 77 13             	add    0x13(%edi),%esi
     651:	82 00 00             	addb   $0x0,(%eax)
     654:	00 04 04             	add    %al,(%esp,%eax,1)
     657:	63 73 00             	arpl   %esi,0x0(%ebx)
     65a:	03 78 13             	add    0x13(%eax),%edi
     65d:	82 00 00             	addb   $0x0,(%eax)
     660:	00 08                	add    %cl,(%eax)
     662:	09 a6 04 00 00 03    	or     %esp,0x3000004(%esi)
     668:	79 13                	jns    67d <SEG_KERN_CS+0x675>
     66a:	82 00 00             	addb   $0x0,(%eax)
     66d:	00 0c 04             	add    %cl,(%esp,%eax,1)
     670:	73 70                	jae    6e2 <SEG_KERN_CS+0x6da>
     672:	00 03                	add    %al,(%ebx)
     674:	7c 13                	jl     689 <SEG_KERN_CS+0x681>
     676:	82 00 00             	addb   $0x0,(%eax)
     679:	00 10                	add    %dl,(%eax)
     67b:	04 73                	add    $0x73,%al
     67d:	73 00                	jae    67f <SEG_KERN_CS+0x677>
     67f:	03 7d 13             	add    0x13(%ebp),%edi
     682:	82 00 00             	addb   $0x0,(%eax)
     685:	00 14 00             	add    %dl,(%eax,%eax,1)
     688:	05 79 04 00 00       	add    $0x479,%eax
     68d:	03 82 29 8e 00 00    	add    0x8e29(%edx),%eax
     693:	00 14 10             	add    %dl,(%eax,%edx,1)
     696:	04 28                	add    $0x28,%al
     698:	09 2b                	or     %ebp,(%ebx)
     69a:	01 00                	add    %eax,(%eax)
     69c:	00 04 6e             	add    %al,(%esi,%ebp,2)
     69f:	00 04 29             	add    %al,(%ecx,%ebp,1)
     6a2:	0e                   	push   %cs
     6a3:	5c                   	pop    %esp
     6a4:	00 00                	add    %al,(%eax)
     6a6:	00 00                	add    %al,(%eax)
     6a8:	04 6b                	add    $0x6b,%al
     6aa:	00 04 2a             	add    %al,(%edx,%ebp,1)
     6ad:	0e                   	push   %cs
     6ae:	5c                   	pop    %esp
     6af:	00 00                	add    %al,(%eax)
     6b1:	00 04 09             	add    %al,(%ecx,%ecx,1)
     6b4:	8e 04 00             	mov    (%eax,%eax,1),%es
     6b7:	00 04 2b             	add    %al,(%ebx,%ebp,1)
     6ba:	1b 2b                	sbb    (%ebx),%ebp
     6bc:	01 00                	add    %eax,(%eax)
     6be:	00 08                	add    %cl,(%eax)
     6c0:	09 12                	or     %edx,(%edx)
     6c2:	09 00                	or     %eax,(%eax)
     6c4:	00 04 2c             	add    %al,(%esp,%ebp,1)
     6c7:	0b 30                	or     (%eax),%esi
     6c9:	01 00                	add    %eax,(%eax)
     6cb:	00 0c 00             	add    %cl,(%eax,%eax,1)
     6ce:	06                   	push   %es
     6cf:	e5 00                	in     $0x0,%eax
     6d1:	00 00                	add    %al,(%eax)
     6d3:	15 04 05 4a 04       	adc    $0x44a0504,%eax
     6d8:	00 00                	add    %al,(%eax)
     6da:	04 2d                	add    $0x2d,%al
     6dc:	03 f1                	add    %ecx,%esi
     6de:	00 00                	add    %al,(%eax)
     6e0:	00 0a                	add    %cl,(%edx)
     6e2:	32 01                	xor    (%ecx),%al
     6e4:	00 00                	add    %al,(%eax)
     6e6:	05 64 05 00 00       	add    $0x564,%eax
     6eb:	04 32                	add    $0x32,%al
     6ed:	10 4f 01             	adc    %cl,0x1(%edi)
     6f0:	00 00                	add    %al,(%eax)
     6f2:	06                   	push   %es
     6f3:	54                   	push   %esp
     6f4:	01 00                	add    %eax,(%eax)
     6f6:	00 16                	add    %dl,(%esi)
     6f8:	5f                   	pop    %edi
     6f9:	01 00                	add    %eax,(%eax)
     6fb:	00 07                	add    %al,(%edi)
     6fd:	5f                   	pop    %edi
     6fe:	01 00                	add    %eax,(%eax)
     700:	00 00                	add    %al,(%eax)
     702:	06                   	push   %es
     703:	3e 01 00             	add    %eax,%ds:(%eax)
     706:	00 0e                	add    %cl,(%esi)
     708:	42                   	inc    %edx
     709:	04 00                	add    $0x0,%al
     70b:	00 08                	add    %cl,(%eax)
     70d:	05 0a 98 01 00       	add    $0x1980a,%eax
     712:	00 09                	add    %cl,(%ecx)
     714:	a1 04 00 00 05       	mov    0x5000004,%eax
     719:	0b 0b                	or     (%ebx),%ecx
     71b:	9e                   	sahf
     71c:	01 00                	add    %eax,(%eax)
     71e:	00 00                	add    %al,(%eax)
     720:	04 76                	add    $0x76,%al
     722:	65 63 00             	arpl   %eax,%gs:(%eax)
     725:	05 0c 0d 42 00       	add    $0x420d0c,%eax
     72a:	00 00                	add    %al,(%eax)
     72c:	04 09                	add    $0x9,%al
     72e:	09 04 00             	or     %eax,(%eax,%eax,1)
     731:	00 05 0d 0d 42 00    	add    %al,0x420d0d
     737:	00 00                	add    %al,(%eax)
     739:	05 00 0a 64 01       	add    $0x1640a00,%eax
     73e:	00 00                	add    %al,(%eax)
     740:	17                   	pop    %ss
     741:	06                   	push   %es
     742:	9d                   	popf
     743:	01 00                	add    %eax,(%eax)
     745:	00 0b                	add    %cl,(%ebx)
     747:	98                   	cwtl
     748:	01 00                	add    %eax,(%eax)
     74a:	00 b2 01 00 00 0c    	add    %dh,0xc000001(%edx)
     750:	b7 01                	mov    $0x1,%bh
     752:	00 00                	add    %al,(%eax)
     754:	00 0a                	add    %cl,(%edx)
     756:	a3 01 00 00 03       	mov    %eax,0x3000001
     75b:	04 07                	add    $0x7,%al
     75d:	76 01                	jbe    760 <SEG_KERN_CS+0x758>
     75f:	00 00                	add    %al,(%eax)
     761:	18 29                	sbb    %ch,(%ecx)
     763:	04 00                	add    $0x0,%al
     765:	00 01                	add    %al,(%ecx)
     767:	1f                   	pop    %ds
     768:	1d b2 01 00 00       	sbb    $0x1b2,%eax
     76d:	05 03 60 70 40       	add    $0x40706003,%eax
     772:	f0 0b 43 01          	lock or 0x1(%ebx),%eax
     776:	00 00                	add    %al,(%eax)
     778:	df 01                	filds  (%ecx)
     77a:	00 00                	add    %al,(%eax)
     77c:	0c b7                	or     $0xb7,%al
     77e:	01 00                	add    %eax,(%eax)
     780:	00 00                	add    %al,(%eax)
     782:	0f 0e                	femms
     784:	04 00                	add    $0x0,%al
     786:	00 38                	add    %bh,(%eax)
     788:	13 d0                	adc    %eax,%edx
     78a:	01 00                	add    %eax,(%eax)
     78c:	00 05 03 40 13 41    	add    %al,0x41134003
     792:	f0 0b 30             	lock or (%eax),%esi
     795:	01 00                	add    %eax,(%eax)
     797:	00 ff                	add    %bh,%bh
     799:	01 00                	add    %eax,(%eax)
     79b:	00 0c b7             	add    %cl,(%edi,%esi,4)
     79e:	01 00                	add    %eax,(%eax)
     7a0:	00 00                	add    %al,(%eax)
     7a2:	0f 55 05 00 00 39 07 	andnps 0x7390000,%xmm0
     7a9:	f0 01 00             	lock add %eax,(%eax)
     7ac:	00 05 03 a0 13 41    	add    %al,0x4113a003
     7b2:	f0 10 33             	lock adc %dh,(%ebx)
     7b5:	04 00                	add    $0x0,%al
     7b7:	00 05 29 26 02 00    	add    %al,0x22629
     7bd:	00 07                	add    %al,(%edi)
     7bf:	26 02 00             	add    %es:(%eax),%al
     7c2:	00 07                	add    %al,(%edi)
     7c4:	42                   	inc    %edx
     7c5:	00 00                	add    %al,(%eax)
     7c7:	00 00                	add    %al,(%eax)
     7c9:	06                   	push   %es
     7ca:	98                   	cwtl
     7cb:	01 00                	add    %eax,(%eax)
     7cd:	00 10                	add    %dl,(%eax)
     7cf:	71 04                	jno    7d5 <SEG_KERN_CS+0x7cd>
     7d1:	00 00                	add    %al,(%eax)
     7d3:	06                   	push   %es
     7d4:	09 46 02             	or     %eax,0x2(%esi)
     7d7:	00 00                	add    %al,(%eax)
     7d9:	07                   	pop    %es
     7da:	30 01                	xor    %al,(%ecx)
     7dc:	00 00                	add    %al,(%eax)
     7de:	07                   	pop    %es
     7df:	42                   	inc    %edx
     7e0:	00 00                	add    %al,(%eax)
     7e2:	00 07                	add    %al,(%edi)
     7e4:	76 00                	jbe    7e6 <SEG_KERN_CS+0x7de>
     7e6:	00 00                	add    %al,(%eax)
     7e8:	00 01                	add    %al,(%ecx)
     7ea:	f7 05 00 00 1a 52 02 	testl  $0x2000002,0x521a0000
     7f1:	00 00 02 
     7f4:	00 01                	add    %al,(%ecx)
     7f6:	e7 05                	out    %eax,$0x5
     7f8:	00 00                	add    %al,(%eax)
     7fa:	19 5e 02             	sbb    %ebx,0x2(%esi)
     7fd:	00 00                	add    %al,(%eax)
     7ff:	02 00                	add    (%eax),%al
     801:	01 d7                	add    %edx,%edi
     803:	05 00 00 18 6a       	add    $0x6a180000,%eax
     808:	02 00                	add    (%eax),%al
     80a:	00 02                	add    %al,(%edx)
     80c:	00 01                	add    %al,(%ecx)
     80e:	c7 05 00 00 17 76 02 	movl   $0x2000002,0x76170000
     815:	00 00 02 
     818:	00 01                	add    %al,(%ecx)
     81a:	b7 05                	mov    $0x5,%bh
     81c:	00 00                	add    %al,(%eax)
     81e:	16                   	push   %ss
     81f:	82 02 00             	addb   $0x0,(%edx)
     822:	00 02                	add    %al,(%edx)
     824:	00 01                	add    %al,(%ecx)
     826:	a7                   	cmpsl  %es:(%edi),%ds:(%esi)
     827:	05 00 00 15 8e       	add    $0x8e150000,%eax
     82c:	02 00                	add    (%eax),%al
     82e:	00 02                	add    %al,(%edx)
     830:	00 01                	add    %al,(%ecx)
     832:	97                   	xchg   %eax,%edi
     833:	05 00 00 14 9a       	add    $0x9a140000,%eax
     838:	02 00                	add    (%eax),%al
     83a:	00 02                	add    %al,(%edx)
     83c:	00 01                	add    %al,(%ecx)
     83e:	87 05 00 00 13 a6    	xchg   %eax,0xa6130000
     844:	02 00                	add    (%eax),%al
     846:	00 02                	add    %al,(%edx)
     848:	00 01                	add    %al,(%ecx)
     84a:	45                   	inc    %ebp
     84b:	05 00 00 12 b2       	add    $0xb2120000,%eax
     850:	02 00                	add    (%eax),%al
     852:	00 02                	add    %al,(%edx)
     854:	00 01                	add    %al,(%ecx)
     856:	35 05 00 00 11       	xor    $0x11000005,%eax
     85b:	be 02 00 00 02       	mov    $0x2000002,%esi
     860:	00 01                	add    %al,(%ecx)
     862:	61                   	popa
     863:	04 00                	add    $0x0,%al
     865:	00 10                	add    %dl,(%eax)
     867:	ca 02 00             	lret   $0x2
     86a:	00 02                	add    %al,(%edx)
     86c:	00 01                	add    %al,(%ecx)
     86e:	25 05 00 00 0f       	and    $0xf000005,%eax
     873:	d6                   	(bad)
     874:	02 00                	add    (%eax),%al
     876:	00 02                	add    %al,(%edx)
     878:	00 01                	add    %al,(%ecx)
     87a:	15 05 00 00 0e       	adc    $0xe000005,%eax
     87f:	e2 02                	loop   883 <SEG_KERN_CS+0x87b>
     881:	00 00                	add    %al,(%eax)
     883:	02 00                	add    (%eax),%al
     885:	01 05 05 00 00 0d    	add    %eax,0xd000005
     88b:	ee                   	out    %al,(%dx)
     88c:	02 00                	add    (%eax),%al
     88e:	00 02                	add    %al,(%edx)
     890:	00 01                	add    %al,(%ecx)
     892:	f5                   	cmc
     893:	04 00                	add    $0x0,%al
     895:	00 0c fa             	add    %cl,(%edx,%edi,8)
     898:	02 00                	add    (%eax),%al
     89a:	00 02                	add    %al,(%edx)
     89c:	00 01                	add    %al,(%ecx)
     89e:	e5 04                	in     $0x4,%eax
     8a0:	00 00                	add    %al,(%eax)
     8a2:	0b 06                	or     (%esi),%eax
     8a4:	03 00                	add    (%eax),%eax
     8a6:	00 02                	add    %al,(%edx)
     8a8:	00 01                	add    %al,(%ecx)
     8aa:	d5 04                	aad    $0x4
     8ac:	00 00                	add    %al,(%eax)
     8ae:	0a 12                	or     (%edx),%dl
     8b0:	03 00                	add    (%eax),%eax
     8b2:	00 02                	add    %al,(%edx)
     8b4:	00 01                	add    %al,(%ecx)
     8b6:	c5 04 00             	lds    (%eax,%eax,1),%eax
     8b9:	00 09                	add    %cl,(%ecx)
     8bb:	1e                   	push   %ds
     8bc:	03 00                	add    (%eax),%eax
     8be:	00 02                	add    %al,(%edx)
     8c0:	00 19                	add    %bl,(%ecx)
     8c2:	94                   	xchg   %eax,%esp
     8c3:	04 00                	add    $0x0,%al
     8c5:	00 01                	add    %al,(%ecx)
     8c7:	5f                   	pop    %edi
     8c8:	06                   	push   %es
     8c9:	75 59                	jne    924 <SEG_KERN_CS+0x91c>
     8cb:	40                   	inc    %eax
     8cc:	f0 4c                	lock dec %esp
     8ce:	00 00                	add    %al,(%eax)
     8d0:	00 01                	add    %al,(%ecx)
     8d2:	9c                   	pushf
     8d3:	72 03                	jb     8d8 <SEG_KERN_CS+0x8d0>
     8d5:	00 00                	add    %al,(%eax)
     8d7:	08 6e 00             	or     %ch,0x0(%esi)
     8da:	5f                   	pop    %edi
     8db:	1c 5c                	sbb    $0x5c,%al
     8dd:	00 00                	add    %al,(%eax)
     8df:	00 02                	add    %al,(%edx)
     8e1:	91                   	xchg   %eax,%ecx
     8e2:	00 08                	add    %cl,(%eax)
     8e4:	6b 00 5f             	imul   $0x5f,(%eax),%eax
     8e7:	28 5c 00 00          	sub    %bl,0x0(%eax,%eax,1)
     8eb:	00 02                	add    %al,(%edx)
     8ed:	91                   	xchg   %eax,%ecx
     8ee:	04 0d                	add    $0xd,%al
     8f0:	8e 04 00             	mov    (%eax,%eax,1),%es
     8f3:	00 5f 41             	add    %bl,0x41(%edi)
     8f6:	2b 01                	sub    (%ecx),%eax
     8f8:	00 00                	add    %al,(%eax)
     8fa:	02 91 08 1a 89 59    	add    0x59891a08(%ecx),%dl
     900:	40                   	inc    %eax
     901:	f0 35 00 00 00 1b    	lock xor $0x1b000000,%eax
     907:	65 00 01             	add    %al,%gs:(%ecx)
     90a:	61                   	popa
     90b:	12 32                	adc    (%edx),%dh
     90d:	01 00                	add    %eax,(%eax)
     90f:	00 02                	add    %al,(%edx)
     911:	91                   	xchg   %eax,%ecx
     912:	60                   	pusha
     913:	00 00                	add    %al,(%eax)
     915:	11 18                	adc    %ebx,(%eax)
     917:	04 00                	add    $0x0,%al
     919:	00 54 42 00          	add    %dl,0x0(%edx,%eax,2)
     91d:	00 00                	add    %al,(%eax)
     91f:	33 59 40             	xor    0x40(%ecx),%ebx
     922:	f0 42                	lock inc %edx
     924:	00 00                	add    %al,(%eax)
     926:	00 01                	add    %al,(%ecx)
     928:	9c                   	pushf
     929:	b2 03                	mov    $0x3,%dl
     92b:	00 00                	add    %al,(%eax)
     92d:	08 6e 00             	or     %ch,0x0(%esi)
     930:	54                   	push   %esp
     931:	22 42 00             	and    0x0(%edx),%al
     934:	00 00                	add    %al,(%eax)
     936:	02 91 74 08 63 62    	add    0x62630874(%ecx),%dl
     93c:	00 54 37 43          	add    %dl,0x43(%edi,%esi,1)
     940:	01 00                	add    %eax,(%eax)
     942:	00 02                	add    %al,(%edx)
     944:	91                   	xchg   %eax,%ecx
     945:	04 0d                	add    $0xd,%al
     947:	12 09                	adc    (%ecx),%cl
     949:	00 00                	add    %al,(%eax)
     94b:	54                   	push   %esp
     94c:	41                   	inc    %ecx
     94d:	30 01                	xor    %al,(%ecx)
     94f:	00 00                	add    %al,(%eax)
     951:	02 91 08 00 11 76    	add    0x76110008(%ecx),%dl
     957:	05 00 00 44 42       	add    $0x42440000,%eax
     95c:	00 00                	add    %al,(%eax)
     95e:	00 e1                	add    %ah,%cl
     960:	58                   	pop    %eax
     961:	40                   	inc    %eax
     962:	f0 52                	lock push %edx
     964:	00 00                	add    %al,(%eax)
     966:	00 01                	add    %al,(%ecx)
     968:	9c                   	pushf
     969:	f2 03 00             	repnz add (%eax),%eax
     96c:	00 08                	add    %cl,(%eax)
     96e:	6e                   	outsb  %ds:(%esi),(%dx)
     96f:	00 44 22 42          	add    %al,0x42(%edx,%eiz,1)
     973:	00 00                	add    %al,(%eax)
     975:	00 02                	add    %al,(%edx)
     977:	91                   	xchg   %eax,%ecx
     978:	74 08                	je     982 <SEG_KERN_CS+0x97a>
     97a:	63 62 00             	arpl   %esp,0x0(%edx)
     97d:	44                   	inc    %esp
     97e:	38 f2                	cmp    %dh,%dl
     980:	03 00                	add    (%eax),%eax
     982:	00 02                	add    %al,(%edx)
     984:	91                   	xchg   %eax,%ecx
     985:	04 0d                	add    $0xd,%al
     987:	12 09                	adc    (%ecx),%cl
     989:	00 00                	add    %al,(%eax)
     98b:	44                   	inc    %esp
     98c:	43                   	inc    %ebx
     98d:	f7 03 00 00 02 91    	testl  $0x91020000,(%ebx)
     993:	08 00                	or     %al,(%eax)
     995:	06                   	push   %es
     996:	43                   	inc    %ebx
     997:	01 00                	add    %eax,(%eax)
     999:	00 06                	add    %al,(%esi)
     99b:	30 01                	xor    %al,(%ecx)
     99d:	00 00                	add    %al,(%eax)
     99f:	1c 31                	sbb    $0x31,%al
     9a1:	02 00                	add    (%eax),%al
     9a3:	00 01                	add    %al,(%ecx)
     9a5:	3c 06                	cmp    $0x6,%al
     9a7:	9e                   	sahf
     9a8:	58                   	pop    %eax
     9a9:	40                   	inc    %eax
     9aa:	f0 43                	lock inc %ebx
     9ac:	00 00                	add    %al,(%eax)
     9ae:	00 01                	add    %al,(%ecx)
     9b0:	9c                   	pushf
     9b1:	00 ee                	add    %ch,%dh
     9b3:	02 00                	add    (%eax),%al
     9b5:	00 05 00 01 04 fc    	add    %al,0xfc040100
     9bb:	03 00                	add    (%eax),%eax
     9bd:	00 0c 9a             	add    %cl,(%edx,%ebx,4)
     9c0:	01 00                	add    %eax,(%eax)
     9c2:	00 0c 82             	add    %cl,(%edx,%eax,4)
     9c5:	01 00                	add    %eax,(%eax)
     9c7:	00 0b                	add    %cl,(%ebx)
     9c9:	00 00                	add    %al,(%eax)
     9cb:	00 c1                	add    %al,%cl
     9cd:	59                   	pop    %ecx
     9ce:	40                   	inc    %eax
     9cf:	f0 b0 01             	lock mov $0x1,%al
     9d2:	00 00                	add    %al,(%eax)
     9d4:	27                   	daa
     9d5:	03 00                	add    (%eax),%eax
     9d7:	00 01                	add    %al,(%ecx)
     9d9:	01 06                	add    %eax,(%esi)
     9db:	5b                   	pop    %ebx
     9dc:	01 00                	add    %eax,(%eax)
     9de:	00 01                	add    %al,(%ecx)
     9e0:	02 05 50 02 00 00    	add    0x250,%al
     9e6:	0d 04 05 69 6e       	or     $0x6e690504,%eax
     9eb:	74 00                	je     9ed <SEG_KERN_CS+0x9e5>
     9ed:	01 08                	add    %ecx,(%eax)
     9ef:	05 14 02 00 00       	add    $0x214,%eax
     9f4:	05 88 01 00 00       	add    $0x188,%eax
     9f9:	02 13                	add    (%ebx),%dl
     9fb:	1d 4e 00 00 00       	sbb    $0x4e,%eax
     a00:	01 01                	add    %eax,(%ecx)
     a02:	08 52 01             	or     %dl,0x1(%edx)
     a05:	00 00                	add    %al,(%eax)
     a07:	05 8d 06 00 00       	add    $0x68d,%eax
     a0c:	02 14 1d 61 00 00 00 	add    0x61(,%ebx,1),%dl
     a13:	01 02                	add    %eax,(%edx)
     a15:	07                   	pop    %es
     a16:	3d 00 00 00 05       	cmp    $0x5000000,%eax
     a1b:	7c 02                	jl     a1f <SEG_KERN_CS+0xa17>
     a1d:	00 00                	add    %al,(%eax)
     a1f:	02 15 1d 74 00 00    	add    0x741d,%dl
     a25:	00 01                	add    %al,(%ecx)
     a27:	04 07                	add    $0x7,%al
     a29:	7b 01                	jnp    a2c <SEG_KERN_CS+0xa24>
     a2b:	00 00                	add    %al,(%eax)
     a2d:	01 08                	add    %ecx,(%eax)
     a2f:	07                   	pop    %es
     a30:	71 01                	jno    a33 <SEG_KERN_CS+0xa2b>
     a32:	00 00                	add    %al,(%eax)
     a34:	05 ce 00 00 00       	add    $0xce,%eax
     a39:	02 1b                	add    (%ebx),%bl
     a3b:	1d 68 00 00 00       	sbb    $0x68,%eax
     a40:	08 51 06             	or     %dl,0x6(%ecx)
     a43:	00 00                	add    %al,(%eax)
     a45:	06                   	push   %es
     a46:	0a b2 00 00 00 02    	or     0x2000000(%edx),%dh
     a4c:	07                   	pop    %es
     a4d:	06                   	push   %es
     a4e:	00 00                	add    %al,(%eax)
     a50:	0b 0e                	or     (%esi),%ecx
     a52:	55                   	push   %ebp
     a53:	00 00                	add    %al,(%eax)
     a55:	00 00                	add    %al,(%eax)
     a57:	02 ee                	add    %dh,%ch
     a59:	0c 00                	or     $0x0,%al
     a5b:	00 0c 0e             	add    %cl,(%esi,%ecx,1)
     a5e:	68 00 00 00 02       	push   $0x2000000
     a63:	00 08                	add    %cl,(%eax)
     a65:	cd 06                	int    $0x6
     a67:	00 00                	add    %al,(%eax)
     a69:	08 1d 06 01 00 00    	or     %bl,0x106
     a6f:	02 7c 06 00          	add    0x0(%esi,%eax,1),%bh
     a73:	00 1e                	add    %bl,(%esi)
     a75:	0e                   	push   %cs
     a76:	55                   	push   %ebp
     a77:	00 00                	add    %al,(%eax)
     a79:	00 00                	add    %al,(%eax)
     a7b:	02 b6 06 00 00 1f    	add    0x1f000006(%esi),%dh
     a81:	0e                   	push   %cs
     a82:	55                   	push   %ebp
     a83:	00 00                	add    %al,(%eax)
     a85:	00 02                	add    %al,(%edx)
     a87:	02 0d 06 00 00 20    	add    0x20000006,%cl
     a8d:	0d 42 00 00 00       	or     $0x42,%eax
     a92:	04 02                	add    $0x2,%al
     a94:	86 06                	xchg   %al,(%esi)
     a96:	00 00                	add    %al,(%eax)
     a98:	21 0d 42 00 00 00    	and    %ecx,0x42
     a9e:	05 02 62 06 00       	add    $0x66202,%eax
     aa3:	00 22                	add    %ah,(%edx)
     aa5:	0d 42 00 00 00       	or     $0x42,%eax
     aaa:	06                   	push   %es
     aab:	02 a3 06 00 00 23    	add    0x23000006(%ebx),%ah
     ab1:	0d 42 00 00 00       	or     $0x42,%eax
     ab6:	07                   	pop    %es
     ab7:	00 05 96 06 00 00    	add    %al,0x696
     abd:	03 29                	add    (%ecx),%ebp
     abf:	21 8e 00 00 00 05    	and    %ecx,0x5000000(%esi)
     ac5:	16                   	push   %ss
     ac6:	06                   	push   %es
     ac7:	00 00                	add    %al,(%eax)
     ac9:	03 2b                	add    (%ebx),%ebp
     acb:	20 b2 00 00 00 0e    	and    %dh,0xe000000(%edx)
     ad1:	07                   	pop    %es
     ad2:	04 74                	add    $0x74,%al
     ad4:	00 00                	add    %al,(%eax)
     ad6:	00 06                	add    %al,(%esi)
     ad8:	11 06                	adc    %eax,(%esi)
     ada:	5d                   	pop    %ebp
     adb:	01 00                	add    %eax,(%eax)
     add:	00 03                	add    %al,(%ebx)
     adf:	49                   	dec    %ecx
     ae0:	01 00                	add    %eax,(%eax)
     ae2:	00 00                	add    %al,(%eax)
     ae4:	03 2d 01 00 00 01    	add    0x1000001,%ebp
     aea:	03 10                	add    (%eax),%edx
     aec:	00 00                	add    %al,(%eax)
     aee:	00 02                	add    %al,(%edx)
     af0:	03 87 00 00 00 03    	add    0x3000000(%edi),%eax
     af6:	03 a8 02 00 00 04    	add    0x4000002(%eax),%ebp
     afc:	03 41 01             	add    0x1(%ecx),%eax
     aff:	00 00                	add    %al,(%eax)
     b01:	05 03 66 00 00       	add    $0x6603,%eax
     b06:	00 06                	add    %al,(%esi)
     b08:	03 b6 00 00 00 16    	add    0x16000000(%esi),%esi
     b0e:	00 0f                	add    %cl,(%edi)
     b10:	22 06                	and    (%esi),%al
     b12:	00 00                	add    %al,(%eax)
     b14:	01 08                	add    %ecx,(%eax)
     b16:	0e                   	push   %cs
     b17:	06                   	push   %es
     b18:	01 00                	add    %eax,(%eax)
     b1a:	00 05 03 f0 13 41    	add    %al,0x4113f003
     b20:	f0 10 12             	lock adc %dl,(%edx)
     b23:	01 00                	add    %eax,(%eax)
     b25:	00 7f 01             	add    %bh,0x1(%edi)
     b28:	00 00                	add    %al,(%eax)
     b2a:	11 7f 01             	adc    %edi,0x1(%edi)
     b2d:	00 00                	add    %al,(%eax)
     b2f:	15 00 01 04 07       	adc    $0x7040100,%eax
     b34:	76 01                	jbe    b37 <SEG_KERN_CS+0xb2f>
     b36:	00 00                	add    %al,(%eax)
     b38:	12 67 64             	adc    0x64(%edi),%ah
     b3b:	74 00                	je     b3d <SEG_KERN_CS+0xb35>
     b3d:	01 09                	add    %ecx,(%ecx)
     b3f:	0d 6f 01 00 00       	or     $0x16f,%eax
     b44:	08 05 03 f8 13 41    	or     %al,0x4113f803
     b4a:	f0 09 ad 06 00 00 04 	lock or %ebp,0x4000006(%ebp)
     b51:	16                   	push   %ss
     b52:	0d ab 01 00 00       	or     $0x1ab,%eax
     b57:	06                   	push   %es
     b58:	ab                   	stos   %eax,%es:(%edi)
     b59:	01 00                	add    %eax,(%eax)
     b5b:	00 00                	add    %al,(%eax)
     b5d:	13 04 09             	adc    (%ecx,%ecx,1),%eax
     b60:	71 04                	jno    b66 <SEG_KERN_CS+0xb5e>
     b62:	00 00                	add    %al,(%eax)
     b64:	05 09 06 c9 01       	add    $0x1c90609,%eax
     b69:	00 00                	add    %al,(%eax)
     b6b:	06                   	push   %es
     b6c:	ab                   	stos   %eax,%es:(%edi)
     b6d:	01 00                	add    %eax,(%eax)
     b6f:	00 06                	add    %al,(%esi)
     b71:	42                   	inc    %edx
     b72:	00 00                	add    %al,(%eax)
     b74:	00 06                	add    %al,(%esi)
     b76:	82 00 00             	addb   $0x0,(%eax)
     b79:	00 00                	add    %al,(%eax)
     b7b:	0a 2b                	or     (%ebx),%ch
     b7d:	06                   	push   %es
     b7e:	00 00                	add    %al,(%eax)
     b80:	48                   	dec    %eax
     b81:	49                   	dec    %ecx
     b82:	5b                   	pop    %ebx
     b83:	40                   	inc    %eax
     b84:	f0 28 00             	lock sub %al,(%eax)
     b87:	00 00                	add    %al,(%eax)
     b89:	01 9c 16 02 00 00 07 	add    %ebx,0x7000002(%esi,%edx,1)
     b90:	73 65                	jae    bf7 <SEG_KERN_CS+0xbef>
     b92:	67 00 48 26          	add    %cl,0x26(%bx,%si)
     b96:	16                   	push   %ss
     b97:	02 00                	add    (%eax),%al
     b99:	00 02                	add    %al,(%edx)
     b9b:	91                   	xchg   %eax,%ecx
     b9c:	00 04 ee             	add    %al,(%esi,%ebp,8)
     b9f:	0c 00                	or     $0x0,%al
     ba1:	00 48 34             	add    %cl,0x34(%eax)
     ba4:	68 00 00 00 02       	push   $0x2000000
     ba9:	91                   	xchg   %eax,%ecx
     baa:	04 04                	add    $0x4,%al
     bac:	1d 0a 00 00 48       	sbb    $0x4800000a,%eax
     bb1:	43                   	inc    %ebx
     bb2:	68 00 00 00 02       	push   $0x2000000
     bb7:	91                   	xchg   %eax,%ecx
     bb8:	08 04 09             	or     %al,(%ecx,%ecx,1)
     bbb:	04 00                	add    $0x0,%al
     bbd:	00 48 52             	add    %cl,0x52(%eax)
     bc0:	68 00 00 00 02       	push   $0x2000000
     bc5:	91                   	xchg   %eax,%ecx
     bc6:	0c 00                	or     $0x0,%al
     bc8:	14 04                	adc    $0x4,%al
     bca:	12 01                	adc    (%ecx),%al
     bcc:	00 00                	add    %al,(%eax)
     bce:	0a 3e                	or     (%esi),%bh
     bd0:	06                   	push   %es
     bd1:	00 00                	add    %al,(%eax)
     bd3:	40                   	inc    %eax
     bd4:	21 5b 40             	and    %ebx,0x40(%ebx)
     bd7:	f0 28 00             	lock sub %al,(%eax)
     bda:	00 00                	add    %al,(%eax)
     bdc:	01 9c 69 02 00 00 07 	add    %ebx,0x7000002(%ecx,%ebp,2)
     be3:	73 65                	jae    c4a <SEG_KERN_CS+0xc42>
     be5:	67 00 40 26          	add    %al,0x26(%bx,%si)
     be9:	16                   	push   %ss
     bea:	02 00                	add    (%eax),%al
     bec:	00 02                	add    %al,(%edx)
     bee:	91                   	xchg   %eax,%ecx
     bef:	00 04 ee             	add    %al,(%esi,%ebp,8)
     bf2:	0c 00                	or     $0x0,%al
     bf4:	00 40 34             	add    %al,0x34(%eax)
     bf7:	68 00 00 00 02       	push   $0x2000000
     bfc:	91                   	xchg   %eax,%ecx
     bfd:	04 04                	add    $0x4,%al
     bff:	1d 0a 00 00 40       	sbb    $0x4000000a,%eax
     c04:	43                   	inc    %ebx
     c05:	68 00 00 00 02       	push   $0x2000000
     c0a:	91                   	xchg   %eax,%ecx
     c0b:	08 04 09             	or     %al,(%ecx,%ecx,1)
     c0e:	04 00                	add    $0x0,%al
     c10:	00 40 52             	add    %al,0x52(%eax)
     c13:	68 00 00 00 02       	push   $0x2000000
     c18:	91                   	xchg   %eax,%ecx
     c19:	0c 00                	or     $0x0,%al
     c1b:	15 bf 06 00 00       	adc    $0x6bf,%eax
     c20:	01 2e                	add    %ebp,(%esi)
     c22:	06                   	push   %es
     c23:	9a 5a 40 f0 87 00 00 	lcall  $0x0,$0x87f0405a
     c2a:	00 01                	add    %al,(%ecx)
     c2c:	9c                   	pushf
     c2d:	aa                   	stos   %al,%es:(%edi)
     c2e:	02 00                	add    (%eax),%al
     c30:	00 07                	add    %al,(%edi)
     c32:	73 65                	jae    c99 <SEG_KERN_CS+0xc91>
     c34:	67 00 2e 21 16       	add    %ch,0x1621
     c39:	02 00                	add    (%eax),%al
     c3b:	00 02                	add    %al,(%edx)
     c3d:	91                   	xchg   %eax,%ecx
     c3e:	00 04 ee             	add    %al,(%esi,%ebp,8)
     c41:	0c 00                	or     $0x0,%al
     c43:	00 2e                	add    %ch,(%esi)
     c45:	2f                   	das
     c46:	68 00 00 00 02       	push   $0x2000000
     c4b:	91                   	xchg   %eax,%ecx
     c4c:	04 04                	add    $0x4,%al
     c4e:	1d 0a 00 00 2e       	sbb    $0x2e00000a,%eax
     c53:	3e 68 00 00 00 02    	ds push $0x2000000
     c59:	91                   	xchg   %eax,%ecx
     c5a:	08 00                	or     %al,(%eax)
     c5c:	16                   	push   %ss
     c5d:	6e                   	outsb  %ds:(%esi),(%dx)
     c5e:	06                   	push   %es
     c5f:	00 00                	add    %al,(%eax)
     c61:	01 26                	add    %esp,(%esi)
     c63:	0e                   	push   %cs
     c64:	16                   	push   %ss
     c65:	02 00                	add    (%eax),%al
     c67:	00 73 5a             	add    %dh,0x5a(%ebx)
     c6a:	40                   	inc    %eax
     c6b:	f0 27                	lock daa
     c6d:	00 00                	add    %al,(%eax)
     c6f:	00 01                	add    %al,(%ecx)
     c71:	9c                   	pushf
     c72:	d1 02                	roll   $1,(%edx)
     c74:	00 00                	add    %al,(%eax)
     c76:	07                   	pop    %es
     c77:	6e                   	outsb  %ds:(%esi),(%dx)
     c78:	00 26                	add    %ah,(%esi)
     c7a:	24 42                	and    $0x42,%al
     c7c:	00 00                	add    %al,(%eax)
     c7e:	00 02                	add    %al,(%edx)
     c80:	91                   	xchg   %eax,%ecx
     c81:	74 00                	je     c83 <SEG_KERN_CS+0xc7b>
     c83:	0b be 00 00 00 22    	or     0x22000000(%esi),%edi
     c89:	5a                   	pop    %edx
     c8a:	5a                   	pop    %edx
     c8b:	40                   	inc    %eax
     c8c:	f0 19 00             	lock sbb %eax,(%eax)
     c8f:	00 00                	add    %al,(%eax)
     c91:	01 9c 0b 90 02 00 00 	add    %ebx,0x290(%ebx,%ecx,1)
     c98:	12 c1                	adc    %cl,%al
     c9a:	59                   	pop    %ecx
     c9b:	40                   	inc    %eax
     c9c:	f0 99                	lock cltd
     c9e:	00 00                	add    %al,(%eax)
     ca0:	00 01                	add    %al,(%ecx)
     ca2:	9c                   	pushf
     ca3:	00 b2 00 00 00 05    	add    %dh,0x5000000(%edx)
     ca9:	00 01                	add    %al,(%ecx)
     cab:	04 6f                	add    $0x6f,%al
     cad:	05 00 00 03 9a       	add    $0x9a030000,%eax
     cb2:	01 00                	add    %eax,(%eax)
     cb4:	00 0c 92             	add    %cl,(%edx,%edx,4)
     cb7:	01 00                	add    %eax,(%eax)
     cb9:	00 0b                	add    %cl,(%ebx)
     cbb:	00 00                	add    %al,(%eax)
     cbd:	00 71 5b             	add    %dh,0x5b(%ecx)
     cc0:	40                   	inc    %eax
     cc1:	f0 8e 00             	lock mov (%eax),%es
     cc4:	00 00                	add    %al,(%eax)
     cc6:	30 04 00             	xor    %al,(%eax,%eax,1)
     cc9:	00 01                	add    %al,(%ecx)
     ccb:	01 06                	add    %eax,(%esi)
     ccd:	5b                   	pop    %ebx
     cce:	01 00                	add    %eax,(%eax)
     cd0:	00 01                	add    %al,(%ecx)
     cd2:	02 05 50 02 00 00    	add    0x250,%al
     cd8:	04 04                	add    $0x4,%al
     cda:	05 69 6e 74 00       	add    $0x746e69,%eax
     cdf:	01 08                	add    %ecx,(%eax)
     ce1:	05 14 02 00 00       	add    $0x214,%eax
     ce6:	01 01                	add    %eax,(%ecx)
     ce8:	08 52 01             	or     %dl,0x1(%edx)
     ceb:	00 00                	add    %al,(%eax)
     ced:	01 02                	add    %eax,(%edx)
     cef:	07                   	pop    %es
     cf0:	3d 00 00 00 05       	cmp    $0x5000000,%eax
     cf5:	7c 02                	jl     cf9 <SEG_KERN_CS+0xcf1>
     cf7:	00 00                	add    %al,(%eax)
     cf9:	02 15 1d 5c 00 00    	add    0x5c1d,%dl
     cff:	00 01                	add    %al,(%ecx)
     d01:	04 07                	add    $0x7,%al
     d03:	7b 01                	jnp    d06 <SEG_KERN_CS+0xcfe>
     d05:	00 00                	add    %al,(%eax)
     d07:	01 08                	add    %ecx,(%eax)
     d09:	07                   	pop    %es
     d0a:	71 01                	jno    d0d <SEG_KERN_CS+0xd05>
     d0c:	00 00                	add    %al,(%eax)
     d0e:	06                   	push   %es
     d0f:	f0 06                	lock push %es
     d11:	00 00                	add    %al,(%eax)
     d13:	03 2d 0d 81 00 00    	add    0x810d,%ebp
     d19:	00 02                	add    %al,(%edx)
     d1b:	50                   	push   %eax
     d1c:	00 00                	add    %al,(%eax)
     d1e:	00 02                	add    %al,(%edx)
     d20:	50                   	push   %eax
     d21:	00 00                	add    %al,(%eax)
     d23:	00 00                	add    %al,(%eax)
     d25:	07                   	pop    %es
     d26:	dd 06                	fldl   (%esi)
     d28:	00 00                	add    %al,(%eax)
     d2a:	01 1e                	add    %ebx,(%esi)
     d2c:	06                   	push   %es
     d2d:	e9 5b 40 f0 16       	jmp    16f04d8d <_mb_unpaged_end+0x16affd8d>
     d32:	00 00                	add    %al,(%eax)
     d34:	00 01                	add    %al,(%ecx)
     d36:	9c                   	pushf
     d37:	08 fe                	or     %bh,%dh
     d39:	06                   	push   %es
     d3a:	00 00                	add    %al,(%eax)
     d3c:	01 10                	add    %edx,(%eax)
     d3e:	06                   	push   %es
     d3f:	71 5b                	jno    d9c <SEG_KERN_CS+0xd94>
     d41:	40                   	inc    %eax
     d42:	f0 78 00             	lock js d45 <SEG_KERN_CS+0xd3d>
     d45:	00 00                	add    %al,(%eax)
     d47:	01 9c 09 f9 06 00 00 	add    %ebx,0x6f9(%ecx,%ecx,1)
     d4e:	01 10                	add    %edx,(%eax)
     d50:	20 50 00             	and    %dl,0x0(%eax)
     d53:	00 00                	add    %al,(%eax)
     d55:	02 91 00 00 00 f6    	add    -0xa000000(%ecx),%dl
     d5b:	04 00                	add    $0x0,%al
     d5d:	00 05 00 01 04 05    	add    %al,0x5040100
     d63:	06                   	push   %es
     d64:	00 00                	add    %al,(%eax)
     d66:	15 9a 01 00 00       	adc    $0x19a,%eax
     d6b:	0c a4                	or     $0xa4,%al
     d6d:	01 00                	add    %eax,(%eax)
     d6f:	00 0b                	add    %cl,(%ebx)
     d71:	00 00                	add    %al,(%eax)
     d73:	00 f0                	add    %dh,%al
     d75:	5e                   	pop    %esi
     d76:	40                   	inc    %eax
     d77:	f0 6b 03 00          	lock imul $0x0,(%ebx),%eax
     d7b:	00 b2 04 00 00 05    	add    %dh,0x5000004(%edx)
     d81:	01 06                	add    %eax,(%esi)
     d83:	5b                   	pop    %ebx
     d84:	01 00                	add    %eax,(%eax)
     d86:	00 05 02 05 50 02    	add    %al,0x2500502
     d8c:	00 00                	add    %al,(%eax)
     d8e:	16                   	push   %ss
     d8f:	04 05                	add    $0x5,%al
     d91:	69 6e 74 00 05 08 05 	imul   $0x5080500,0x74(%esi),%ebp
     d98:	14 02                	adc    $0x2,%al
     d9a:	00 00                	add    %al,(%eax)
     d9c:	06                   	push   %es
     d9d:	88 01                	mov    %al,(%ecx)
     d9f:	00 00                	add    %al,(%eax)
     da1:	02 13                	add    (%ebx),%dl
     da3:	1d 53 00 00 00       	sbb    $0x53,%eax
     da8:	0b 42 00             	or     0x0(%edx),%eax
     dab:	00 00                	add    %al,(%eax)
     dad:	05 01 08 52 01       	add    $0x1520801,%eax
     db2:	00 00                	add    %al,(%eax)
     db4:	05 02 07 3d 00       	add    $0x3d0702,%eax
     db9:	00 00                	add    %al,(%eax)
     dbb:	06                   	push   %es
     dbc:	7c 02                	jl     dc0 <SEG_KERN_CS+0xdb8>
     dbe:	00 00                	add    %al,(%eax)
     dc0:	02 15 1d 6d 00 00    	add    0x6d1d,%dl
     dc6:	00 05 04 07 7b 01    	add    %al,0x17b0704
     dcc:	00 00                	add    %al,(%eax)
     dce:	05 08 07 71 01       	add    $0x1710708,%eax
     dd3:	00 00                	add    %al,(%eax)
     dd5:	06                   	push   %es
     dd6:	ce                   	into
     dd7:	00 00                	add    %al,(%eax)
     dd9:	00 02                	add    %al,(%edx)
     ddb:	1b 1d 61 00 00 00    	sbb    0x61,%ebx
     de1:	06                   	push   %es
     de2:	53                   	push   %ebx
     de3:	04 00                	add    $0x0,%al
     de5:	00 03                	add    %al,(%ebx)
     de7:	2f                   	das
     de8:	12 61 00             	adc    0x0(%ecx),%ah
     deb:	00 00                	add    %al,(%eax)
     ded:	12 dc                	adc    %ah,%bl
     def:	08 00                	or     %al,(%eax)
     df1:	00 14 03             	add    %dl,(%ebx,%eax,1)
     df4:	64 dd 00             	fldl   %fs:(%eax)
     df7:	00 00                	add    %al,(%eax)
     df9:	07                   	pop    %es
     dfa:	69 70 00 03 66 13 87 	imul   $0x87136603,0x0(%eax),%esi
     e01:	00 00                	add    %al,(%eax)
     e03:	00 00                	add    %al,(%eax)
     e05:	07                   	pop    %es
     e06:	63 73 00             	arpl   %esi,0x0(%ebx)
     e09:	03 67 13             	add    0x13(%edi),%esp
     e0c:	87 00                	xchg   %eax,(%eax)
     e0e:	00 00                	add    %al,(%eax)
     e10:	04 0a                	add    $0xa,%al
     e12:	a6                   	cmpsb  %es:(%edi),%ds:(%esi)
     e13:	04 00                	add    $0x0,%al
     e15:	00 03                	add    %al,(%ebx)
     e17:	68 13 87 00 00       	push   $0x8713
     e1c:	00 08                	add    %cl,(%eax)
     e1e:	07                   	pop    %es
     e1f:	73 70                	jae    e91 <SEG_KERN_CS+0xe89>
     e21:	00 03                	add    %al,(%ebx)
     e23:	6b 13 87             	imul   $0xffffff87,(%ebx),%edx
     e26:	00 00                	add    %al,(%eax)
     e28:	00 0c 07             	add    %cl,(%edi,%eax,1)
     e2b:	73 73                	jae    ea0 <SEG_KERN_CS+0xe98>
     e2d:	00 03                	add    %al,(%ebx)
     e2f:	6c                   	insb   (%dx),%es:(%edi)
     e30:	13 87 00 00 00 10    	adc    0x10000000(%edi),%eax
     e36:	00 06                	add    %al,(%esi)
     e38:	2b 09                	sub    (%ecx),%ecx
     e3a:	00 00                	add    %al,(%eax)
     e3c:	03 81 27 93 00 00    	add    0x9327(%ecx),%eax
     e42:	00 17                	add    %dl,(%edi)
     e44:	10 04 2c             	adc    %al,(%esp,%ebp,1)
     e47:	09 23                	or     %esp,(%ebx)
     e49:	01 00                	add    %eax,(%eax)
     e4b:	00 07                	add    %al,(%edi)
     e4d:	6e                   	outsb  %ds:(%esi),(%dx)
     e4e:	00 04 2d 0e 61 00 00 	add    %al,0x610e(,%ebp,1)
     e55:	00 00                	add    %al,(%eax)
     e57:	07                   	pop    %es
     e58:	6b 00 04             	imul   $0x4,(%eax),%eax
     e5b:	2e 0e                	cs push %cs
     e5d:	61                   	popa
     e5e:	00 00                	add    %al,(%eax)
     e60:	00 04 0a             	add    %al,(%edx,%ecx,1)
     e63:	8e 04 00             	mov    (%eax,%eax,1),%es
     e66:	00 04 2f             	add    %al,(%edi,%ebp,1)
     e69:	19 23                	sbb    %esp,(%ebx)
     e6b:	01 00                	add    %eax,(%eax)
     e6d:	00 08                	add    %cl,(%eax)
     e6f:	0a 12                	or     (%edx),%dl
     e71:	09 00                	or     %eax,(%eax)
     e73:	00 04 30             	add    %al,(%eax,%esi,1)
     e76:	0b 28                	or     (%eax),%ebp
     e78:	01 00                	add    %eax,(%eax)
     e7a:	00 0c 00             	add    %cl,(%eax,%eax,1)
     e7d:	08 dd                	or     %bl,%ch
     e7f:	00 00                	add    %al,(%eax)
     e81:	00 18                	add    %bl,(%eax)
     e83:	04 06                	add    $0x6,%al
     e85:	b3 08                	mov    $0x8,%bl
     e87:	00 00                	add    %al,(%eax)
     e89:	04 31                	add    $0x31,%al
     e8b:	03 e9                	add    %ecx,%ebp
     e8d:	00 00                	add    %al,(%eax)
     e8f:	00 0b                	add    %cl,(%ebx)
     e91:	2a 01                	sub    (%ecx),%al
     e93:	00 00                	add    %al,(%eax)
     e95:	06                   	push   %es
     e96:	f3 08 00             	repz or %al,(%eax)
     e99:	00 04 36             	add    %al,(%esi,%esi,1)
     e9c:	10 47 01             	adc    %al,0x1(%edi)
     e9f:	00 00                	add    %al,(%eax)
     ea1:	08 4c 01 00          	or     %cl,0x0(%ecx,%eax,1)
     ea5:	00 19                	add    %bl,(%ecx)
     ea7:	57                   	push   %edi
     ea8:	01 00                	add    %eax,(%eax)
     eaa:	00 03                	add    %al,(%ebx)
     eac:	57                   	push   %edi
     ead:	01 00                	add    %eax,(%eax)
     eaf:	00 00                	add    %al,(%eax)
     eb1:	08 36                	or     %dh,(%esi)
     eb3:	01 00                	add    %eax,(%eax)
     eb5:	00 12                	add    %dl,(%edx)
     eb7:	42                   	inc    %edx
     eb8:	04 00                	add    $0x0,%al
     eba:	00 08                	add    %cl,(%eax)
     ebc:	05 0a 90 01 00       	add    $0x1900a,%eax
     ec1:	00 0a                	add    %cl,(%edx)
     ec3:	a1 04 00 00 05       	mov    0x5000004,%eax
     ec8:	0b 0b                	or     (%ebx),%ecx
     eca:	96                   	xchg   %eax,%esi
     ecb:	01 00                	add    %eax,(%eax)
     ecd:	00 00                	add    %al,(%eax)
     ecf:	07                   	pop    %es
     ed0:	76 65                	jbe    f37 <SEG_KERN_CS+0xf2f>
     ed2:	63 00                	arpl   %eax,(%eax)
     ed4:	05 0c 0d 42 00       	add    $0x420d0c,%eax
     ed9:	00 00                	add    %al,(%eax)
     edb:	04 0a                	add    $0xa,%al
     edd:	09 04 00             	or     %eax,(%eax,%eax,1)
     ee0:	00 05 0d 0d 42 00    	add    %al,0x420d0d
     ee6:	00 00                	add    %al,(%eax)
     ee8:	05 00 0b 5c 01       	add    $0x15c0b00,%eax
     eed:	00 00                	add    %al,(%eax)
     eef:	1a 08                	sbb    (%eax),%cl
     ef1:	95                   	xchg   %eax,%ebp
     ef2:	01 00                	add    %eax,(%eax)
     ef4:	00 0d 90 01 00 00    	add    %cl,0x190
     efa:	ab                   	stos   %eax,%es:(%edi)
     efb:	01 00                	add    %eax,(%eax)
     efd:	00 0e                	add    %cl,(%esi)
     eff:	b0 01                	mov    $0x1,%al
     f01:	00 00                	add    %al,(%eax)
     f03:	08 00                	or     %al,(%eax)
     f05:	0b 9b 01 00 00 05    	or     0x5000001(%ebx),%ebx
     f0b:	04 07                	add    $0x7,%al
     f0d:	76 01                	jbe    f10 <SEG_KERN_CS+0xf08>
     f0f:	00 00                	add    %al,(%eax)
     f11:	09 e1                	or     %esp,%ecx
     f13:	07                   	pop    %es
     f14:	00 00                	add    %al,(%eax)
     f16:	1c 1d                	sbb    $0x1d,%al
     f18:	ab                   	stos   %eax,%es:(%edi)
     f19:	01 00                	add    %eax,(%eax)
     f1b:	00 05 03 00 71 40    	add    %al,0x40710003
     f21:	f0 09 7f 09          	lock or %edi,0x9(%edi)
     f25:	00 00                	add    %al,(%eax)
     f27:	28 1d ab 01 00 00    	sub    %bl,0x1ab
     f2d:	05 03 60 71 40       	add    $0x40716003,%eax
     f32:	f0 0d 3b 01 00 00    	lock or $0x13b,%eax
     f38:	e9 01 00 00 0e       	jmp    e000f3e <_mb_unpaged_end+0xdbfbf3e>
     f3d:	b0 01                	mov    $0x1,%al
     f3f:	00 00                	add    %al,(%eax)
     f41:	0f 00 13             	lldt   (%ebx)
     f44:	d3 08                	rorl   %cl,(%eax)
     f46:	00 00                	add    %al,(%eax)
     f48:	35 12 d9 01 00       	xor    $0x1d912,%eax
     f4d:	00 05 03 c0 14 41    	add    %al,0x4114c003
     f53:	f0 0d 28 01 00 00    	lock or $0x128,%eax
     f59:	0a 02                	or     (%edx),%al
     f5b:	00 00                	add    %al,(%eax)
     f5d:	0e                   	push   %cs
     f5e:	b0 01                	mov    $0x1,%al
     f60:	00 00                	add    %al,(%eax)
     f62:	0f 00 13             	lldt   (%ebx)
     f65:	09 09                	or     %ecx,(%ecx)
     f67:	00 00                	add    %al,(%eax)
     f69:	36 07                	ss pop %es
     f6b:	fa                   	cli
     f6c:	01 00                	add    %eax,(%eax)
     f6e:	00 05 03 00 15 41    	add    %al,0x41150003
     f74:	f0 1b 77 09          	lock sbb 0x9(%edi),%esi
     f78:	00 00                	add    %al,(%eax)
     f7a:	06                   	push   %es
     f7b:	29 11                	sub    %edx,(%ecx)
     f7d:	61                   	popa
     f7e:	00 00                	add    %al,(%eax)
     f80:	00 31                	add    %dh,(%ecx)
     f82:	02 00                	add    (%eax),%al
     f84:	00 03                	add    %al,(%ebx)
     f86:	61                   	popa
     f87:	00 00                	add    %al,(%eax)
     f89:	00 00                	add    %al,(%eax)
     f8b:	0f f0                	(bad)
     f8d:	06                   	push   %es
     f8e:	00 00                	add    %al,(%eax)
     f90:	06                   	push   %es
     f91:	2d 0d 48 02 00       	sub    $0x2480d,%eax
     f96:	00 03                	add    %al,(%ebx)
     f98:	61                   	popa
     f99:	00 00                	add    %al,(%eax)
     f9b:	00 03                	add    %al,(%ebx)
     f9d:	61                   	popa
     f9e:	00 00                	add    %al,(%eax)
     fa0:	00 00                	add    %al,(%eax)
     fa2:	0f 33                	rdpmc
     fa4:	04 00                	add    $0x0,%al
     fa6:	00 05 29 06 5f 02    	add    %al,0x25f0629
     fac:	00 00                	add    %al,(%eax)
     fae:	03 5f 02             	add    0x2(%edi),%ebx
     fb1:	00 00                	add    %al,(%eax)
     fb3:	03 42 00             	add    0x0(%edx),%eax
     fb6:	00 00                	add    %al,(%eax)
     fb8:	00 08                	add    %cl,(%eax)
     fba:	90                   	nop
     fbb:	01 00                	add    %eax,(%eax)
     fbd:	00 0f                	add    %cl,(%edi)
     fbf:	71 04                	jno    fc5 <SEG_KERN_CS+0xfbd>
     fc1:	00 00                	add    %al,(%eax)
     fc3:	07                   	pop    %es
     fc4:	09 06                	or     %eax,(%esi)
     fc6:	80 02 00             	addb   $0x0,(%edx)
     fc9:	00 03                	add    %al,(%ebx)
     fcb:	28 01                	sub    %al,(%ecx)
     fcd:	00 00                	add    %al,(%eax)
     fcf:	03 42 00             	add    0x0(%edx),%eax
     fd2:	00 00                	add    %al,(%eax)
     fd4:	03 7b 00             	add    0x0(%ebx),%edi
     fd7:	00 00                	add    %al,(%eax)
     fd9:	00 01                	add    %al,(%ecx)
     fdb:	81 08 00 00 19 8c    	orl    $0x8c190000,(%eax)
     fe1:	02 00                	add    (%eax),%al
     fe3:	00 02                	add    %al,(%edx)
     fe5:	00 01                	add    %al,(%ecx)
     fe7:	6c                   	insb   (%dx),%es:(%edi)
     fe8:	08 00                	or     %al,(%eax)
     fea:	00 18                	add    %bl,(%eax)
     fec:	98                   	cwtl
     fed:	02 00                	add    (%eax),%al
     fef:	00 02                	add    %al,(%edx)
     ff1:	00 01                	add    %al,(%ecx)
     ff3:	57                   	push   %edi
     ff4:	08 00                	or     %al,(%eax)
     ff6:	00 17                	add    %dl,(%edi)
     ff8:	a4                   	movsb  %ds:(%esi),%es:(%edi)
     ff9:	02 00                	add    (%eax),%al
     ffb:	00 02                	add    %al,(%edx)
     ffd:	00 01                	add    %al,(%ecx)
     fff:	42                   	inc    %edx
    1000:	08 00                	or     %al,(%eax)
    1002:	00 16                	add    %dl,(%esi)
    1004:	b0 02                	mov    $0x2,%al
    1006:	00 00                	add    %al,(%eax)
    1008:	02 00                	add    (%eax),%al
    100a:	01 2d 08 00 00 15    	add    %ebp,0x15000008
    1010:	bc 02 00 00 02       	mov    $0x2000002,%esp
    1015:	00 01                	add    %al,(%ecx)
    1017:	18 08                	sbb    %cl,(%eax)
    1019:	00 00                	add    %al,(%eax)
    101b:	14 c8                	adc    $0xc8,%al
    101d:	02 00                	add    (%eax),%al
    101f:	00 02                	add    %al,(%edx)
    1021:	00 01                	add    %al,(%ecx)
    1023:	cc                   	int3
    1024:	07                   	pop    %es
    1025:	00 00                	add    %al,(%eax)
    1027:	13 d4                	adc    %esp,%edx
    1029:	02 00                	add    (%eax),%al
    102b:	00 02                	add    %al,(%edx)
    102d:	00 01                	add    %al,(%ecx)
    102f:	b7 07                	mov    $0x7,%bh
    1031:	00 00                	add    %al,(%eax)
    1033:	12 e0                	adc    %al,%ah
    1035:	02 00                	add    (%eax),%al
    1037:	00 02                	add    %al,(%edx)
    1039:	00 01                	add    %al,(%ecx)
    103b:	a2 07 00 00 10       	mov    %al,0x10000007
    1040:	ec                   	in     (%dx),%al
    1041:	02 00                	add    (%eax),%al
    1043:	00 02                	add    %al,(%edx)
    1045:	00 01                	add    %al,(%ecx)
    1047:	8d 07                	lea    (%edi),%eax
    1049:	00 00                	add    %al,(%eax)
    104b:	0f f8 02             	psubb  (%edx),%mm0
    104e:	00 00                	add    %al,(%eax)
    1050:	02 00                	add    (%eax),%al
    1052:	01 78 07             	add    %edi,0x7(%eax)
    1055:	00 00                	add    %al,(%eax)
    1057:	0e                   	push   %cs
    1058:	04 03                	add    $0x3,%al
    105a:	00 00                	add    %al,(%eax)
    105c:	02 00                	add    (%eax),%al
    105e:	01 63 07             	add    %esp,0x7(%ebx)
    1061:	00 00                	add    %al,(%eax)
    1063:	0d 10 03 00 00       	or     $0x310,%eax
    1068:	02 00                	add    (%eax),%al
    106a:	01 4e 07             	add    %ecx,0x7(%esi)
    106d:	00 00                	add    %al,(%eax)
    106f:	0c 1c                	or     $0x1c,%al
    1071:	03 00                	add    (%eax),%eax
    1073:	00 02                	add    %al,(%edx)
    1075:	00 01                	add    %al,(%ecx)
    1077:	39 07                	cmp    %eax,(%edi)
    1079:	00 00                	add    %al,(%eax)
    107b:	0b 28                	or     (%eax),%ebp
    107d:	03 00                	add    (%eax),%eax
    107f:	00 02                	add    %al,(%edx)
    1081:	00 01                	add    %al,(%ecx)
    1083:	24 07                	and    $0x7,%al
    1085:	00 00                	add    %al,(%eax)
    1087:	0a 34 03             	or     (%ebx,%eax,1),%dh
    108a:	00 00                	add    %al,(%eax)
    108c:	02 00                	add    (%eax),%al
    108e:	01 0f                	add    %ecx,(%edi)
    1090:	07                   	pop    %es
    1091:	00 00                	add    %al,(%eax)
    1093:	09 40 03             	or     %eax,0x3(%eax)
    1096:	00 00                	add    %al,(%eax)
    1098:	02 00                	add    (%eax),%al
    109a:	0c 4f                	or     $0x4f,%al
    109c:	09 00                	or     %eax,(%eax)
    109e:	00 a6 01 62 40 f0    	add    %ah,-0xfbf9dff(%esi)
    10a4:	5a                   	pop    %edx
    10a5:	00 00                	add    %al,(%eax)
    10a7:	00 01                	add    %al,(%ecx)
    10a9:	9c                   	pushf
    10aa:	92                   	xchg   %eax,%edx
    10ab:	03 00                	add    (%eax),%eax
    10ad:	00 04 6e             	add    %al,(%esi,%ebp,2)
    10b0:	00 a6 21 61 00 00    	add    %ah,0x6121(%esi)
    10b6:	00 02                	add    %al,(%edx)
    10b8:	91                   	xchg   %eax,%ecx
    10b9:	00 04 6b             	add    %al,(%ebx,%ebp,2)
    10bc:	00 a6 2d 61 00 00    	add    %ah,0x612d(%esi)
    10c2:	00 02                	add    %al,(%edx)
    10c4:	91                   	xchg   %eax,%ecx
    10c5:	04 10                	add    $0x10,%al
    10c7:	8e 04 00             	mov    (%eax,%eax,1),%es
    10ca:	00 a6 44 23 01 00    	add    %ah,0x12344(%esi)
    10d0:	00 02                	add    %al,(%edx)
    10d2:	91                   	xchg   %eax,%ecx
    10d3:	08 1c 15 62 40 f0 35 	or     %bl,0x35f04062(,%edx,1)
    10da:	00 00                	add    %al,(%eax)
    10dc:	00 1d 65 00 01 a8    	add    %bl,0xa8010065
    10e2:	11 2a                	adc    %ebp,(%edx)
    10e4:	01 00                	add    %eax,(%eax)
    10e6:	00 02                	add    %al,(%edx)
    10e8:	91                   	xchg   %eax,%ecx
    10e9:	60                   	pusha
    10ea:	00 00                	add    %al,(%eax)
    10ec:	14 61                	adc    $0x61,%al
    10ee:	09 00                	or     %eax,(%eax)
    10f0:	00 9c 42 00 00 00 c5 	add    %bl,-0x3b000000(%edx,%eax,2)
    10f7:	61                   	popa
    10f8:	40                   	inc    %eax
    10f9:	f0 3c 00             	lock cmp $0x0,%al
    10fc:	00 00                	add    %al,(%eax)
    10fe:	01 9c d2 03 00 00 04 	add    %ebx,0x4000003(%edx,%edx,8)
    1105:	6e                   	outsb  %ds:(%esi),(%dx)
    1106:	00 9c 27 42 00 00 00 	add    %bl,0x42(%edi,%eiz,1)
    110d:	02 91 74 04 63 62    	add    0x62630474(%ecx),%dl
    1113:	00 9c 3b 3b 01 00 00 	add    %bl,0x13b(%ebx,%edi,1)
    111a:	02 91 04 10 12 09    	add    0x9121004(%ecx),%dl
    1120:	00 00                	add    %al,(%eax)
    1122:	9c                   	pushf
    1123:	45                   	inc    %ebp
    1124:	28 01                	sub    %al,(%ecx)
    1126:	00 00                	add    %al,(%eax)
    1128:	02 91 08 00 14 96    	add    -0x69ebfff8(%ecx),%dl
    112e:	08 00                	or     %al,(%eax)
    1130:	00 8c 42 00 00 00 79 	add    %cl,0x79000000(%edx,%eax,2)
    1137:	61                   	popa
    1138:	40                   	inc    %eax
    1139:	f0 4c                	lock dec %esp
    113b:	00 00                	add    %al,(%eax)
    113d:	00 01                	add    %al,(%ecx)
    113f:	9c                   	pushf
    1140:	12 04 00             	adc    (%eax,%eax,1),%al
    1143:	00 04 6e             	add    %al,(%esi,%ebp,2)
    1146:	00 8c 27 42 00 00 00 	add    %cl,0x42(%edi,%eiz,1)
    114d:	02 91 74 04 63 62    	add    0x62630474(%ecx),%dl
    1153:	00 8c 3c 12 04 00 00 	add    %cl,0x412(%esp,%edi,1)
    115a:	02 91 04 10 12 09    	add    0x9121004(%ecx),%dl
    1160:	00 00                	add    %al,(%eax)
    1162:	8c 47 17             	mov    %es,0x17(%edi)
    1165:	04 00                	add    $0x0,%al
    1167:	00 02                	add    %al,(%edx)
    1169:	91                   	xchg   %eax,%ecx
    116a:	08 00                	or     %al,(%eax)
    116c:	08 3b                	or     %bh,(%ebx)
    116e:	01 00                	add    %eax,(%eax)
    1170:	00 08                	add    %cl,(%eax)
    1172:	28 01                	sub    %al,(%ecx)
    1174:	00 00                	add    %al,(%eax)
    1176:	0c c3                	or     $0xc3,%al
    1178:	08 00                	or     %al,(%eax)
    117a:	00 82 38 61 40 f0    	add    %al,-0xfbf9ec8(%edx)
    1180:	41                   	inc    %ecx
    1181:	00 00                	add    %al,(%eax)
    1183:	00 01                	add    %al,(%ecx)
    1185:	9c                   	pushf
    1186:	3d 04 00 00 04       	cmp    $0x4000004,%eax
    118b:	6e                   	outsb  %ds:(%esi),(%dx)
    118c:	00 82 1f 61 00 00    	add    %al,0x611f(%edx)
    1192:	00 02                	add    %al,(%edx)
    1194:	91                   	xchg   %eax,%ecx
    1195:	00 00                	add    %al,(%eax)
    1197:	11 04 08             	adc    %eax,(%eax,%ecx,1)
    119a:	00 00                	add    %al,(%eax)
    119c:	7c fb                	jl     1199 <SEG_KERN_CS+0x1191>
    119e:	60                   	pusha
    119f:	40                   	inc    %eax
    11a0:	f0 3d 00 00 00 01    	lock cmp $0x1000000,%eax
    11a6:	9c                   	pushf
    11a7:	0c 3e                	or     $0x3e,%al
    11a9:	09 00                	or     %eax,(%eax)
    11ab:	00 71 79             	add    %dh,0x79(%ecx)
    11ae:	60                   	pusha
    11af:	40                   	inc    %eax
    11b0:	f0 82 00 00          	lock addb $0x0,(%eax)
    11b4:	00 01                	add    %al,(%ecx)
    11b6:	9c                   	pushf
    11b7:	9a 04 00 00 04 69 72 	lcall  $0x7269,$0x4000004
    11be:	71 00                	jno    11c0 <SEG_KERN_CS+0x11b8>
    11c0:	71 1f                	jno    11e1 <SEG_KERN_CS+0x11d9>
    11c2:	42                   	inc    %edx
    11c3:	00 00                	add    %al,(%eax)
    11c5:	00 02                	add    %al,(%edx)
    11c7:	91                   	xchg   %eax,%ecx
    11c8:	5c                   	pop    %esp
    11c9:	09 bb 08 00 00 72    	or     %edi,0x72000008(%ebx)
    11cf:	13 4e 00             	adc    0x0(%esi),%ecx
    11d2:	00 00                	add    %al,(%eax)
    11d4:	02 91 6f 09 04 09    	add    0x904096f(%ecx),%dl
    11da:	00 00                	add    %al,(%eax)
    11dc:	73 13                	jae    11f1 <SEG_KERN_CS+0x11e9>
    11de:	4e                   	dec    %esi
    11df:	00 00                	add    %al,(%eax)
    11e1:	00 02                	add    %al,(%edx)
    11e3:	91                   	xchg   %eax,%ecx
    11e4:	6e                   	outsb  %ds:(%esi),(%dx)
    11e5:	09 ac 08 00 00 74 13 	or     %ebp,0x13740000(%eax,%ecx,1)
    11ec:	4e                   	dec    %esi
    11ed:	00 00                	add    %al,(%eax)
    11ef:	00 02                	add    %al,(%edx)
    11f1:	91                   	xchg   %eax,%ecx
    11f2:	6d                   	insl   (%dx),%es:(%edi)
    11f3:	00 0c f1             	add    %cl,(%ecx,%esi,8)
    11f6:	07                   	pop    %es
    11f7:	00 00                	add    %al,(%eax)
    11f9:	67 f8                	addr16 clc
    11fb:	5f                   	pop    %edi
    11fc:	40                   	inc    %eax
    11fd:	f0 81 00 00 00 01 9c 	lock addl $0x9c010000,(%eax)
    1204:	d9 04 00             	flds   (%eax,%eax,1)
    1207:	00 04 69             	add    %al,(%ecx,%ebp,2)
    120a:	72 71                	jb     127d <SEG_KERN_CS+0x1275>
    120c:	00 67 21             	add    %ah,0x21(%edi)
    120f:	42                   	inc    %edx
    1210:	00 00                	add    %al,(%eax)
    1212:	00 02                	add    %al,(%edx)
    1214:	91                   	xchg   %eax,%ecx
    1215:	5c                   	pop    %esp
    1216:	09 bb 08 00 00 68    	or     %edi,0x68000008(%ebx)
    121c:	13 4e 00             	adc    0x0(%esi),%ecx
    121f:	00 00                	add    %al,(%eax)
    1221:	02 91 6f 09 04 09    	add    0x904096f(%ecx),%dl
    1227:	00 00                	add    %al,(%eax)
    1229:	69 13 4e 00 00 00    	imul   $0x4e,(%ebx),%edx
    122f:	02 91 6e 00 11 17    	add    0x1711006e(%ecx),%dl
    1235:	09 00                	or     %eax,(%eax)
    1237:	00 57 4a             	add    %dl,0x4a(%edi)
    123a:	5f                   	pop    %edi
    123b:	40                   	inc    %eax
    123c:	f0 ae                	lock scas %es:(%edi),%al
    123e:	00 00                	add    %al,(%eax)
    1240:	00 01                	add    %al,(%ecx)
    1242:	9c                   	pushf
    1243:	11 6e 00             	adc    %ebp,0x0(%esi)
    1246:	00 00                	add    %al,(%eax)
    1248:	4c                   	dec    %esp
    1249:	f0 5e                	lock pop %esi
    124b:	40                   	inc    %eax
    124c:	f0 5a                	lock pop %edx
    124e:	00 00                	add    %al,(%eax)
    1250:	00 01                	add    %al,(%ecx)
    1252:	9c                   	pushf
    1253:	00 c6                	add    %al,%dh
    1255:	02 00                	add    (%eax),%al
    1257:	00 05 00 01 04 c1    	add    %al,0xc1040100
    125d:	07                   	pop    %es
    125e:	00 00                	add    %al,(%eax)
    1260:	0d 9a 01 00 00       	or     $0x19a,%eax
    1265:	0c b6                	or     $0xb6,%al
    1267:	01 00                	add    %eax,(%eax)
    1269:	00 0b                	add    %cl,(%ebx)
    126b:	00 00                	add    %al,(%eax)
    126d:	00 5b 62             	add    %bl,0x62(%ebx)
    1270:	40                   	inc    %eax
    1271:	f0 fb                	lock sti
    1273:	00 00                	add    %al,(%eax)
    1275:	00 51 06             	add    %dl,0x6(%ecx)
    1278:	00 00                	add    %al,(%eax)
    127a:	01 01                	add    %eax,(%ecx)
    127c:	06                   	push   %es
    127d:	5b                   	pop    %ebx
    127e:	01 00                	add    %eax,(%eax)
    1280:	00 01                	add    %al,(%ecx)
    1282:	02 05 50 02 00 00    	add    0x250,%al
    1288:	0e                   	push   %cs
    1289:	04 05                	add    $0x5,%al
    128b:	69 6e 74 00 01 08 05 	imul   $0x5080100,0x74(%esi),%ebp
    1292:	14 02                	adc    $0x2,%al
    1294:	00 00                	add    %al,(%eax)
    1296:	04 88                	add    $0x88,%al
    1298:	01 00                	add    %eax,(%eax)
    129a:	00 02                	add    %al,(%edx)
    129c:	13 1d 4e 00 00 00    	adc    0x4e,%ebx
    12a2:	01 01                	add    %eax,(%ecx)
    12a4:	08 52 01             	or     %dl,0x1(%edx)
    12a7:	00 00                	add    %al,(%eax)
    12a9:	04 8d                	add    $0x8d,%al
    12ab:	06                   	push   %es
    12ac:	00 00                	add    %al,(%eax)
    12ae:	02 14 1d 61 00 00 00 	add    0x61(,%ebx,1),%dl
    12b5:	01 02                	add    %eax,(%edx)
    12b7:	07                   	pop    %es
    12b8:	3d 00 00 00 04       	cmp    $0x4000000,%eax
    12bd:	7c 02                	jl     12c1 <SEG_KERN_CS+0x12b9>
    12bf:	00 00                	add    %al,(%eax)
    12c1:	02 15 1d 74 00 00    	add    0x741d,%dl
    12c7:	00 01                	add    %al,(%ecx)
    12c9:	04 07                	add    $0x7,%al
    12cb:	7b 01                	jnp    12ce <SEG_KERN_CS+0x12c6>
    12cd:	00 00                	add    %al,(%eax)
    12cf:	01 08                	add    %ecx,(%eax)
    12d1:	07                   	pop    %es
    12d2:	71 01                	jno    12d5 <SEG_KERN_CS+0x12cd>
    12d4:	00 00                	add    %al,(%eax)
    12d6:	04 ce                	add    $0xce,%al
    12d8:	00 00                	add    %al,(%eax)
    12da:	00 02                	add    %al,(%edx)
    12dc:	1b 1d 68 00 00 00    	sbb    0x68,%ebx
    12e2:	07                   	pop    %es
    12e3:	51                   	push   %ecx
    12e4:	06                   	push   %es
    12e5:	00 00                	add    %al,(%eax)
    12e7:	06                   	push   %es
    12e8:	03 0a                	add    (%edx),%ecx
    12ea:	b5 00                	mov    $0x0,%ch
    12ec:	00 00                	add    %al,(%eax)
    12ee:	03 07                	add    (%edi),%eax
    12f0:	06                   	push   %es
    12f1:	00 00                	add    %al,(%eax)
    12f3:	03 0b                	add    (%ebx),%ecx
    12f5:	0e                   	push   %cs
    12f6:	55                   	push   %ebp
    12f7:	00 00                	add    %al,(%eax)
    12f9:	00 00                	add    %al,(%eax)
    12fb:	03 ee                	add    %esi,%ebp
    12fd:	0c 00                	or     $0x0,%al
    12ff:	00 03                	add    %al,(%ebx)
    1301:	0c 0e                	or     $0xe,%al
    1303:	68 00 00 00 02       	push   $0x2000000
    1308:	00 07                	add    %al,(%edi)
    130a:	dd 09                	fisttpll (%ecx)
    130c:	00 00                	add    %al,(%eax)
    130e:	08 03                	or     %al,(%ebx)
    1310:	12 03                	adc    (%ebx),%al
    1312:	01 00                	add    %eax,(%eax)
    1314:	00 03                	add    %al,(%ebx)
    1316:	8e 09                	mov    (%ecx),%cs
    1318:	00 00                	add    %al,(%eax)
    131a:	03 13                	add    (%ebx),%edx
    131c:	0e                   	push   %cs
    131d:	55                   	push   %ebp
    131e:	00 00                	add    %al,(%eax)
    1320:	00 00                	add    %al,(%eax)
    1322:	08 73 65             	or     %dh,0x65(%ebx)
    1325:	6c                   	insb   (%dx),%es:(%edi)
    1326:	00 03                	add    %al,(%ebx)
    1328:	14 0e                	adc    $0xe,%al
    132a:	55                   	push   %ebp
    132b:	00 00                	add    %al,(%eax)
    132d:	00 02                	add    %al,(%edx)
    132f:	08 70 61             	or     %dh,0x61(%eax)
    1332:	64 00 03             	add    %al,%fs:(%ebx)
    1335:	15 0d 42 00 00       	adc    $0x420d,%eax
    133a:	00 04 03             	add    %al,(%ebx,%eax,1)
    133d:	c9                   	leave
    133e:	09 00                	or     %eax,(%eax)
    1340:	00 03                	add    %al,(%ebx)
    1342:	16                   	push   %ss
    1343:	0d 42 00 00 00       	or     $0x42,%eax
    1348:	05 03 ee 09 00       	add    $0x9ee03,%eax
    134d:	00 03                	add    %al,(%ebx)
    134f:	17                   	pop    %ss
    1350:	0e                   	push   %cs
    1351:	55                   	push   %ebp
    1352:	00 00                	add    %al,(%eax)
    1354:	00 06                	add    %al,(%esi)
    1356:	00 04 96             	add    %al,(%esi,%edx,4)
    1359:	06                   	push   %es
    135a:	00 00                	add    %al,(%eax)
    135c:	03 29                	add    (%ecx),%ebp
    135e:	21 8e 00 00 00 04    	and    %ecx,0x4000000(%esi)
    1364:	96                   	xchg   %eax,%esi
    1365:	09 00                	or     %eax,(%eax)
    1367:	00 03                	add    %al,(%ebx)
    1369:	2a 21                	sub    (%ecx),%ah
    136b:	b5 00                	mov    $0x0,%ch
    136d:	00 00                	add    %al,(%eax)
    136f:	07                   	pop    %es
    1370:	42                   	inc    %edx
    1371:	04 00                	add    $0x0,%al
    1373:	00 08                	add    %cl,(%eax)
    1375:	04 0a                	add    $0xa,%al
    1377:	4f                   	dec    %edi
    1378:	01 00                	add    %eax,(%eax)
    137a:	00 03                	add    %al,(%ebx)
    137c:	a1 04 00 00 04       	mov    0x4000004,%eax
    1381:	0b 0b                	or     (%ebx),%ecx
    1383:	55                   	push   %ebp
    1384:	01 00                	add    %eax,(%eax)
    1386:	00 00                	add    %al,(%eax)
    1388:	08 76 65             	or     %dh,0x65(%esi)
    138b:	63 00                	arpl   %eax,(%eax)
    138d:	04 0c                	add    $0xc,%al
    138f:	0d 42 00 00 00       	or     $0x42,%eax
    1394:	04 03                	add    $0x3,%al
    1396:	09 04 00             	or     %eax,(%eax,%eax,1)
    1399:	00 04 0d 0d 42 00 00 	add    %al,0x420d(,%ecx,1)
    13a0:	00 05 00 0f 1b 01    	add    %al,0x11b0f00
    13a6:	00 00                	add    %al,(%eax)
    13a8:	10 09                	adc    %cl,(%ecx)
    13aa:	54                   	push   %esp
    13ab:	01 00                	add    %eax,(%eax)
    13ad:	00 11                	add    %dl,(%ecx)
    13af:	07                   	pop    %es
    13b0:	04 74                	add    $0x74,%al
    13b2:	00 00                	add    %al,(%eax)
    13b4:	00 07                	add    %al,(%edi)
    13b6:	11 06                	adc    %eax,(%esi)
    13b8:	99                   	cltd
    13b9:	01 00                	add    %eax,(%eax)
    13bb:	00 02                	add    %al,(%edx)
    13bd:	49                   	dec    %ecx
    13be:	01 00                	add    %eax,(%eax)
    13c0:	00 00                	add    %al,(%eax)
    13c2:	02 2d 01 00 00 01    	add    0x1000001,%ch
    13c8:	02 10                	add    (%eax),%dl
    13ca:	00 00                	add    %al,(%eax)
    13cc:	00 02                	add    %al,(%edx)
    13ce:	02 87 00 00 00 03    	add    0x3000000(%edi),%al
    13d4:	02 a8 02 00 00 04    	add    0x4000002(%eax),%ch
    13da:	02 41 01             	add    0x1(%ecx),%al
    13dd:	00 00                	add    %al,(%eax)
    13df:	05 02 66 00 00       	add    $0x6602,%eax
    13e4:	00 06                	add    %al,(%esi)
    13e6:	02 b6 00 00 00 16    	add    0x16000000(%esi),%dh
    13ec:	00 12                	add    %dl,(%edx)
    13ee:	d4 09                	aam    $0x9
    13f0:	00 00                	add    %al,(%eax)
    13f2:	01 08                	add    %ecx,(%eax)
    13f4:	0e                   	push   %cs
    13f5:	03 01                	add    (%ecx),%eax
    13f7:	00 00                	add    %al,(%eax)
    13f9:	05 03 40 15 41       	add    $0x41154003,%eax
    13fe:	f0 13 0f             	lock adc (%edi),%ecx
    1401:	01 00                	add    %eax,(%eax)
    1403:	00 bb 01 00 00 14    	add    %bh,0x14000001(%ebx)
    1409:	bb 01 00 00 ff       	mov    $0xff000001,%ebx
    140e:	00 01                	add    %al,(%ecx)
    1410:	04 07                	add    $0x7,%al
    1412:	76 01                	jbe    1415 <SEG_KERN_CS+0x140d>
    1414:	00 00                	add    %al,(%eax)
    1416:	15 69 64 74 00       	adc    $0x746469,%eax
    141b:	01 09                	add    %ecx,(%ecx)
    141d:	0e                   	push   %cs
    141e:	ab                   	stos   %eax,%es:(%edi)
    141f:	01 00                	add    %eax,(%eax)
    1421:	00 08                	add    %cl,(%eax)
    1423:	05 03 48 15 41       	add    $0x41154803,%eax
    1428:	f0 0a b2 09 00 00 05 	lock or 0x5000009(%edx),%dh
    142f:	17                   	pop    %ss
    1430:	0d e7 01 00 00       	or     $0x1e7,%eax
    1435:	05 e7 01 00 00       	add    $0x1e7,%eax
    143a:	00 16                	add    %dl,(%esi)
    143c:	04 0a                	add    $0xa,%al
    143e:	71 04                	jno    1444 <SEG_KERN_CS+0x143c>
    1440:	00 00                	add    %al,(%eax)
    1442:	06                   	push   %es
    1443:	09 06                	or     %eax,(%esi)
    1445:	05 02 00 00 05       	add    $0x5000002,%eax
    144a:	e7 01                	out    %eax,$0x1
    144c:	00 00                	add    %al,(%eax)
    144e:	05 42 00 00 00       	add    $0x42,%eax
    1453:	05 82 00 00 00       	add    $0x82,%eax
    1458:	00 17                	add    %dl,(%edi)
    145a:	33 04 00             	xor    (%eax,%eax,1),%eax
    145d:	00 01                	add    %al,(%ecx)
    145f:	21 06                	and    %eax,(%esi)
    1461:	f3 62 40 f0          	repz bound %eax,-0x10(%eax)
    1465:	63 00                	arpl   %eax,(%eax)
    1467:	00 00                	add    %al,(%eax)
    1469:	01 9c 50 02 00 00 06 	add    %ebx,0x6000002(%eax,%edx,2)
    1470:	a3 09 00 00 21       	mov    %eax,0x21000009
    1475:	33 50 02             	xor    0x2(%eax),%edx
    1478:	00 00                	add    %al,(%eax)
    147a:	02 91 00 06 a9 09    	add    0x9a90600(%ecx),%dl
    1480:	00 00                	add    %al,(%eax)
    1482:	21 42 42             	and    %eax,0x42(%edx)
    1485:	00 00                	add    %al,(%eax)
    1487:	00 02                	add    %al,(%edx)
    1489:	91                   	xchg   %eax,%ecx
    148a:	60                   	pusha
    148b:	18 02                	sbb    %al,(%edx)
    148d:	63 40 f0             	arpl   %eax,-0x10(%eax)
    1490:	3f                   	aas
    1491:	00 00                	add    %al,(%eax)
    1493:	00 0b                	add    %cl,(%ebx)
    1495:	6e                   	outsb  %ds:(%esi),(%dx)
    1496:	6f                   	outsl  %ds:(%esi),(%dx)
    1497:	77 00                	ja     1499 <SEG_KERN_CS+0x1491>
    1499:	23 1f                	and    (%edi),%ebx
    149b:	50                   	push   %eax
    149c:	02 00                	add    (%eax),%al
    149e:	00 02                	add    %al,(%edx)
    14a0:	91                   	xchg   %eax,%ecx
    14a1:	70 00                	jo     14a3 <SEG_KERN_CS+0x149b>
    14a3:	00 09                	add    %cl,(%ecx)
    14a5:	4f                   	dec    %edi
    14a6:	01 00                	add    %eax,(%eax)
    14a8:	00 19                	add    %bl,(%ecx)
    14aa:	bb 09 00 00 01       	mov    $0x1000009,%ebx
    14af:	17                   	pop    %ss
    14b0:	06                   	push   %es
    14b1:	a7                   	cmpsl  %es:(%edi),%ds:(%esi)
    14b2:	62 40 f0             	bound  %eax,-0x10(%eax)
    14b5:	4c                   	dec    %esp
    14b6:	00 00                	add    %al,(%eax)
    14b8:	00 01                	add    %al,(%ecx)
    14ba:	9c                   	pushf
    14bb:	a4                   	movsb  %ds:(%esi),%es:(%edi)
    14bc:	02 00                	add    (%eax),%al
    14be:	00 1a                	add    %bl,(%edx)
    14c0:	76 65                	jbe    1527 <SEG_KERN_CS+0x151f>
    14c2:	63 00                	arpl   %eax,(%eax)
    14c4:	01 17                	add    %edx,(%edi)
    14c6:	1c 42                	sbb    $0x42,%al
    14c8:	00 00                	add    %al,(%eax)
    14ca:	00 02                	add    %al,(%edx)
    14cc:	91                   	xchg   %eax,%ecx
    14cd:	64 06                	fs push %es
    14cf:	6c                   	insb   (%dx),%es:(%edi)
    14d0:	0d 00 00 17 2a       	or     $0x2a170000,%eax
    14d5:	68 00 00 00 02       	push   $0x2000000
    14da:	91                   	xchg   %eax,%ecx
    14db:	04 06                	add    $0x6,%al
    14dd:	09 04 00             	or     %eax,(%eax,%eax,1)
    14e0:	00 17                	add    %dl,(%edi)
    14e2:	3b 68 00             	cmp    0x0(%eax),%ebp
    14e5:	00 00                	add    %al,(%eax)
    14e7:	02 91 08 0b 65 6c    	add    0x6c650b08(%ecx),%dl
    14ed:	00 18                	add    %bl,(%eax)
    14ef:	13 a4 02 00 00 02 91 	adc    -0x6efe0000(%edx,%eax,1),%esp
    14f6:	74 00                	je     14f8 <SEG_KERN_CS+0x14f0>
    14f8:	09 0f                	or     %ecx,(%edi)
    14fa:	01 00                	add    %eax,(%eax)
    14fc:	00 0c 9b             	add    %cl,(%ebx,%ebx,4)
    14ff:	00 00                	add    %al,(%eax)
    1501:	00 13                	add    %dl,(%ebx)
    1503:	8e 62 40             	mov    0x40(%edx),%fs
    1506:	f0 19 00             	lock sbb %eax,(%eax)
    1509:	00 00                	add    %al,(%eax)
    150b:	01 9c 0c 22 00 00 00 	add    %ebx,0x22(%esp,%ecx,1)
    1512:	0c 5b                	or     $0x5b,%al
    1514:	62 40 f0             	bound  %eax,-0x10(%eax)
    1517:	33 00                	xor    (%eax),%eax
    1519:	00 00                	add    %al,(%eax)
    151b:	01 9c 00 93 02 00 00 	add    %ebx,0x293(%eax,%eax,1)
    1522:	05 00 01 04 4d       	add    $0x4d040100,%eax
    1527:	09 00                	or     %eax,(%eax)
    1529:	00 0e                	add    %cl,(%esi)
    152b:	9a 01 00 00 0c c6 01 	lcall  $0x1c6,$0xc000001
    1532:	00 00                	add    %al,(%eax)
    1534:	0b 00                	or     (%eax),%eax
    1536:	00 00                	add    %al,(%eax)
    1538:	56                   	push   %esi
    1539:	63 40 f0             	arpl   %eax,-0x10(%eax)
    153c:	03 01                	add    (%ecx),%eax
    153e:	00 00                	add    %al,(%eax)
    1540:	35 07 00 00 02       	xor    $0x2000007,%eax
    1545:	01 06                	add    %eax,(%esi)
    1547:	5b                   	pop    %ebx
    1548:	01 00                	add    %eax,(%eax)
    154a:	00 02                	add    %al,(%edx)
    154c:	02 05 50 02 00 00    	add    0x250,%al
    1552:	0f 04                	(bad)
    1554:	05 69 6e 74 00       	add    $0x746e69,%eax
    1559:	02 08                	add    (%eax),%cl
    155b:	05 14 02 00 00       	add    $0x214,%eax
    1560:	02 01                	add    (%ecx),%al
    1562:	08 52 01             	or     %dl,0x1(%edx)
    1565:	00 00                	add    %al,(%eax)
    1567:	02 02                	add    (%edx),%al
    1569:	07                   	pop    %es
    156a:	3d 00 00 00 03       	cmp    $0x3000000,%eax
    156f:	7c 02                	jl     1573 <SEG_KERN_CS+0x156b>
    1571:	00 00                	add    %al,(%eax)
    1573:	02 15 1d 5c 00 00    	add    0x5c1d,%dl
    1579:	00 02                	add    %al,(%edx)
    157b:	04 07                	add    $0x7,%al
    157d:	7b 01                	jnp    1580 <SEG_KERN_CS+0x1578>
    157f:	00 00                	add    %al,(%eax)
    1581:	03 5d 00             	add    0x0(%ebp),%ebx
    1584:	00 00                	add    %al,(%eax)
    1586:	02 16                	add    (%esi),%dl
    1588:	1d 6f 00 00 00       	sbb    $0x6f,%eax
    158d:	02 08                	add    (%eax),%cl
    158f:	07                   	pop    %es
    1590:	71 01                	jno    1593 <SEG_KERN_CS+0x158b>
    1592:	00 00                	add    %al,(%eax)
    1594:	08 08                	or     %cl,(%eax)
    1596:	09 95 00 00 00 01    	or     %edx,0x1000000(%ebp)
    159c:	b5 0b                	mov    $0xb,%ch
    159e:	00 00                	add    %al,(%eax)
    15a0:	0a 0e                	or     (%esi),%cl
    15a2:	50                   	push   %eax
    15a3:	00 00                	add    %al,(%eax)
    15a5:	00 00                	add    %al,(%eax)
    15a7:	09 6c 65 6e          	or     %ebp,0x6e(%ebp,%eiz,2)
    15ab:	00 0b                	add    %cl,(%ebx)
    15ad:	50                   	push   %eax
    15ae:	00 00                	add    %al,(%eax)
    15b0:	00 04 00             	add    %al,(%eax,%eax,1)
    15b3:	03 5a 02             	add    0x2(%edx),%ebx
    15b6:	00 00                	add    %al,(%eax)
    15b8:	03 0c 03             	add    (%ebx,%eax,1),%ecx
    15bb:	76 00                	jbe    15bd <SEG_KERN_CS+0x15b5>
    15bd:	00 00                	add    %al,(%eax)
    15bf:	08 18                	or     %bl,(%eax)
    15c1:	19 d8                	sbb    %ebx,%eax
    15c3:	00 00                	add    %al,(%eax)
    15c5:	00 01                	add    %al,(%ecx)
    15c7:	1d 0a 00 00 1a       	sbb    $0x1a00000a,%eax
    15cc:	0e                   	push   %cs
    15cd:	50                   	push   %eax
    15ce:	00 00                	add    %al,(%eax)
    15d0:	00 00                	add    %al,(%eax)
    15d2:	01 b5 0b 00 00 1b    	add    %esi,0x1b00000b(%ebp)
    15d8:	0e                   	push   %cs
    15d9:	63 00                	arpl   %eax,(%eax)
    15db:	00 00                	add    %al,(%eax)
    15dd:	04 09                	add    $0x9,%al
    15df:	6c                   	insb   (%dx),%es:(%edi)
    15e0:	65 6e                	outsb  %gs:(%esi),(%dx)
    15e2:	00 1c 63             	add    %bl,(%ebx,%eiz,2)
    15e5:	00 00                	add    %al,(%eax)
    15e7:	00 0c 01             	add    %cl,(%ecx,%eax,1)
    15ea:	cf                   	iret
    15eb:	09 00                	or     %eax,(%eax)
    15ed:	00 1d 0e 50 00 00    	add    %bl,0x500e
    15f3:	00 14 00             	add    %dl,(%eax,%eax,1)
    15f6:	03 1c 01             	add    (%ecx,%eax,1),%ebx
    15f9:	00 00                	add    %al,(%eax)
    15fb:	03 1e                	add    (%esi),%ebx
    15fd:	03 a1 00 00 00 10    	add    0x10000000(%ecx),%esp
    1603:	2c 03                	sub    $0x3,%al
    1605:	03 26                	add    (%esi),%esp
    1607:	09 6a 01             	or     %ebp,0x1(%edx)
    160a:	00 00                	add    %al,(%eax)
    160c:	01 e7                	add    %esp,%edi
    160e:	01 00                	add    %eax,(%eax)
    1610:	00 27                	add    %ah,(%edi)
    1612:	0e                   	push   %cs
    1613:	50                   	push   %eax
    1614:	00 00                	add    %al,(%eax)
    1616:	00 00                	add    %al,(%eax)
    1618:	01 65 02             	add    %esp,0x2(%ebp)
    161b:	00 00                	add    %al,(%eax)
    161d:	2a 0e                	sub    (%esi),%cl
    161f:	50                   	push   %eax
    1620:	00 00                	add    %al,(%eax)
    1622:	00 04 01             	add    %al,(%ecx,%eax,1)
    1625:	90                   	nop
    1626:	01 00                	add    %eax,(%eax)
    1628:	00 2b                	add    %ch,(%ebx)
    162a:	10 95 00 00 00 08    	adc    %dl,0x8000000(%ebp)
    1630:	01 fe                	add    %edi,%esi
    1632:	00 00                	add    %al,(%eax)
    1634:	00 2e                	add    %ch,(%esi)
    1636:	10 95 00 00 00 10    	adc    %dl,0x10000000(%ebp)
    163c:	01 ab 00 00 00 31    	add    %ebp,0x31000000(%ebx)
    1642:	0e                   	push   %cs
    1643:	50                   	push   %eax
    1644:	00 00                	add    %al,(%eax)
    1646:	00 18                	add    %bl,(%eax)
    1648:	01 22                	add    %esp,(%edx)
    164a:	02 00                	add    (%eax),%al
    164c:	00 32                	add    %dh,(%edx)
    164e:	0e                   	push   %cs
    164f:	50                   	push   %eax
    1650:	00 00                	add    %al,(%eax)
    1652:	00 1c 01             	add    %bl,(%ecx,%eax,1)
    1655:	50                   	push   %eax
    1656:	00 00                	add    %al,(%eax)
    1658:	00 35 16 6a 01 00    	add    %dh,0x16a16
    165e:	00 20                	add    %ah,(%eax)
    1660:	05 9f 02 00 00       	add    $0x29f,%eax
    1665:	36 0e                	ss push %cs
    1667:	50                   	push   %eax
    1668:	00 00                	add    %al,(%eax)
    166a:	00 20                	add    %ah,(%eax)
    166c:	03 05 93 00 00 00    	add    0x93,%eax
    1672:	39 0f                	cmp    %ecx,(%edi)
    1674:	81 01 00 00 24 03    	addl   $0x3240000,(%ecx)
    167a:	05 f5 01 00 00       	add    $0x1f5,%eax
    167f:	3a 0e                	cmp    (%esi),%cl
    1681:	50                   	push   %eax
    1682:	00 00                	add    %al,(%eax)
    1684:	00 28                	add    %ch,(%eax)
    1686:	03 00                	add    (%eax),%eax
    1688:	11 d8                	adc    %ebx,%eax
    168a:	00 00                	add    %al,(%eax)
    168c:	00 7a 01             	add    %bh,0x1(%edx)
    168f:	00 00                	add    %al,(%eax)
    1691:	12 7a 01             	adc    0x1(%edx),%bh
    1694:	00 00                	add    %al,(%eax)
    1696:	1f                   	pop    %ds
    1697:	00 02                	add    %al,(%edx)
    1699:	04 07                	add    $0x7,%al
    169b:	76 01                	jbe    169e <SEG_KERN_CS+0x1696>
    169d:	00 00                	add    %al,(%eax)
    169f:	0a 50 00             	or     0x0(%eax),%dl
    16a2:	00 00                	add    %al,(%eax)
    16a4:	03 31                	add    (%ecx),%esi
    16a6:	00 00                	add    %al,(%eax)
    16a8:	00 03                	add    %al,(%ebx)
    16aa:	3b 03                	cmp    (%ebx),%eax
    16ac:	e4 00                	in     $0x0,%al
    16ae:	00 00                	add    %al,(%eax)
    16b0:	06                   	push   %es
    16b1:	3a 0a                	cmp    (%edx),%cl
    16b3:	00 00                	add    %al,(%eax)
    16b5:	0a 9c 01 00 00 13 04 	or     0x4130000(%ecx,%eax,1),%bl
    16bc:	06                   	push   %es
    16bd:	f7 09 00 00 0b 9c    	testl  $0x9c0b0000,(%ecx)
    16c3:	01 00                	add    %eax,(%eax)
    16c5:	00 06                	add    %al,(%esi)
    16c7:	19 0a                	sbb    %ecx,(%edx)
    16c9:	00 00                	add    %al,(%eax)
    16cb:	11 9c 01 00 00 14 48 	adc    %ebx,0x48140000(%ecx,%eax,1)
    16d2:	0a 00                	or     (%eax),%al
    16d4:	00 05 0e 0d c4 01    	add    %al,0x1c40d0e
    16da:	00 00                	add    %al,(%eax)
    16dc:	15 50 00 00 00       	adc    $0x50,%eax
    16e1:	00 0b                	add    %cl,(%ebx)
    16e3:	22 0a                	and    (%edx),%cl
    16e5:	00 00                	add    %al,(%eax)
    16e7:	29 f4                	sub    %esi,%esp
    16e9:	63 40 f0             	arpl   %eax,-0x10(%eax)
    16ec:	65 00 00             	add    %al,%gs:(%eax)
    16ef:	00 01                	add    %al,(%ecx)
    16f1:	9c                   	pushf
    16f2:	11 02                	adc    %eax,(%edx)
    16f4:	00 00                	add    %al,(%eax)
    16f6:	07                   	pop    %es
    16f7:	1d 00 00 00 29       	sbb    $0x29000000,%eax
    16fc:	2b 11                	sub    (%ecx),%edx
    16fe:	02 00                	add    (%eax),%al
    1700:	00 02                	add    %al,(%edx)
    1702:	91                   	xchg   %eax,%ecx
    1703:	00 04 52             	add    %al,(%edx,%edx,2)
    1706:	0a 00                	or     (%eax),%al
    1708:	00 2a                	add    %ch,(%edx)
    170a:	0e                   	push   %cs
    170b:	50                   	push   %eax
    170c:	00 00                	add    %al,(%eax)
    170e:	00 02                	add    %al,(%edx)
    1710:	91                   	xchg   %eax,%ecx
    1711:	74 04                	je     1717 <SEG_KERN_CS+0x170f>
    1713:	f0 01 00             	lock add %eax,(%eax)
    1716:	00 2a                	add    %ch,(%edx)
    1718:	1a 50 00             	sbb    0x0(%eax),%dl
    171b:	00 00                	add    %al,(%eax)
    171d:	02 91 70 0c 70 64    	add    0x64700c70(%ecx),%dl
    1723:	65 00 2b             	add    %ch,%gs:(%ebx)
    1726:	0e                   	push   %cs
    1727:	50                   	push   %eax
    1728:	00 00                	add    %al,(%eax)
    172a:	00 02                	add    %al,(%edx)
    172c:	91                   	xchg   %eax,%ecx
    172d:	6c                   	insb   (%dx),%es:(%edi)
    172e:	00 0a                	add    %cl,(%edx)
    1730:	86 01                	xchg   %al,(%ecx)
    1732:	00 00                	add    %al,(%eax)
    1734:	0b 05 0a 00 00 17    	or     0x1700000a,%eax
    173a:	90                   	nop
    173b:	63 40 f0             	arpl   %eax,-0x10(%eax)
    173e:	64 00 00             	add    %al,%fs:(%eax)
    1741:	00 01                	add    %al,(%ecx)
    1743:	9c                   	pushf
    1744:	75 02                	jne    1748 <SEG_KERN_CS+0x1740>
    1746:	00 00                	add    %al,(%eax)
    1748:	07                   	pop    %es
    1749:	1d 00 00 00 17       	sbb    $0x17000000,%eax
    174e:	27                   	daa
    174f:	11 02                	adc    %eax,(%edx)
    1751:	00 00                	add    %al,(%eax)
    1753:	02 91 00 0d 96 63    	add    0x63960d00(%ecx),%dl
    1759:	40                   	inc    %eax
    175a:	f0 5a                	lock pop %edx
    175c:	00 00                	add    %al,(%eax)
    175e:	00 0c 69             	add    %cl,(%ecx,%ebp,2)
    1761:	00 19                	add    %bl,(%ecx)
    1763:	12 50 00             	adc    0x0(%eax),%dl
    1766:	00 00                	add    %al,(%eax)
    1768:	02 91 74 0d 9f 63    	add    0x639f0d74(%ecx),%dl
    176e:	40                   	inc    %eax
    176f:	f0 44                	lock inc %esp
    1771:	00 00                	add    %al,(%eax)
    1773:	00 04 a6             	add    %al,(%esi,%eiz,4)
    1776:	04 00                	add    $0x0,%al
    1778:	00 1a                	add    %bl,(%edx)
    177a:	12 50 00             	adc    0x0(%eax),%dl
    177d:	00 00                	add    %al,(%eax)
    177f:	02 91 70 04 f0 01    	add    0x1f00470(%ecx),%dl
    1785:	00 00                	add    %al,(%eax)
    1787:	1f                   	pop    %ds
    1788:	12 50 00             	adc    0x0(%eax),%dl
    178b:	00 00                	add    %al,(%eax)
    178d:	02 91 6c 00 00 00    	add    0x6c(%ecx),%dl
    1793:	16                   	push   %ss
    1794:	e5 00                	in     $0x0,%eax
    1796:	00 00                	add    %al,(%eax)
    1798:	01 10                	add    %edx,(%eax)
    179a:	06                   	push   %es
    179b:	56                   	push   %esi
    179c:	63 40 f0             	arpl   %eax,-0x10(%eax)
    179f:	3a 00                	cmp    (%eax),%al
    17a1:	00 00                	add    %al,(%eax)
    17a3:	01 9c 07 1d 00 00 00 	add    %ebx,0x1d(%edi,%eax,1)
    17aa:	10 23                	adc    %ah,(%ebx)
    17ac:	11 02                	adc    %eax,(%edx)
    17ae:	00 00                	add    %al,(%eax)
    17b0:	02 91 00 00 00 3a    	add    0x3a000000(%ecx),%dl
    17b6:	05 00 00 05 00       	add    $0x50000,%eax
    17bb:	01 04 a6             	add    %eax,(%esi,%eiz,4)
    17be:	0a 00                	or     (%eax),%al
    17c0:	00 14 9a             	add    %dl,(%edx,%ebx,4)
    17c3:	01 00                	add    %eax,(%eax)
    17c5:	00 0c e1             	add    %cl,(%ecx,%eiz,8)
    17c8:	01 00                	add    %eax,(%eax)
    17ca:	00 0b                	add    %cl,(%ebx)
    17cc:	00 00                	add    %al,(%eax)
    17ce:	00 59 64             	add    %bl,0x64(%ecx)
    17d1:	40                   	inc    %eax
    17d2:	f0 79 02             	lock jns 17d7 <SEG_KERN_CS+0x17cf>
    17d5:	00 00                	add    %al,(%eax)
    17d7:	18 08                	sbb    %cl,(%eax)
    17d9:	00 00                	add    %al,(%eax)
    17db:	06                   	push   %es
    17dc:	01 06                	add    %eax,(%esi)
    17de:	5b                   	pop    %ebx
    17df:	01 00                	add    %eax,(%eax)
    17e1:	00 06                	add    %al,(%esi)
    17e3:	02 05 50 02 00 00    	add    0x250,%al
    17e9:	15 04 05 69 6e       	adc    $0x6e690504,%eax
    17ee:	74 00                	je     17f0 <SEG_KERN_CS+0x17e8>
    17f0:	06                   	push   %es
    17f1:	08 05 14 02 00 00    	or     %al,0x214
    17f7:	04 88                	add    $0x88,%al
    17f9:	01 00                	add    %eax,(%eax)
    17fb:	00 02                	add    %al,(%edx)
    17fd:	13 1d 4e 00 00 00    	adc    0x4e,%ebx
    1803:	06                   	push   %es
    1804:	01 08                	add    %ecx,(%eax)
    1806:	52                   	push   %edx
    1807:	01 00                	add    %eax,(%eax)
    1809:	00 04 8d 06 00 00 02 	add    %al,0x2000006(,%ecx,4)
    1810:	14 1d                	adc    $0x1d,%al
    1812:	61                   	popa
    1813:	00 00                	add    %al,(%eax)
    1815:	00 06                	add    %al,(%esi)
    1817:	02 07                	add    (%edi),%al
    1819:	3d 00 00 00 04       	cmp    $0x4000000,%eax
    181e:	7c 02                	jl     1822 <SEG_KERN_CS+0x181a>
    1820:	00 00                	add    %al,(%eax)
    1822:	02 15 1d 74 00 00    	add    0x741d,%dl
    1828:	00 06                	add    %al,(%esi)
    182a:	04 07                	add    $0x7,%al
    182c:	7b 01                	jnp    182f <SEG_KERN_CS+0x1827>
    182e:	00 00                	add    %al,(%eax)
    1830:	06                   	push   %es
    1831:	08 07                	or     %al,(%edi)
    1833:	71 01                	jno    1836 <SEG_KERN_CS+0x182e>
    1835:	00 00                	add    %al,(%eax)
    1837:	04 ce                	add    $0xce,%al
    1839:	00 00                	add    %al,(%eax)
    183b:	00 02                	add    %al,(%edx)
    183d:	1b 1d 68 00 00 00    	sbb    0x68,%ebx
    1843:	08 cd                	or     %cl,%ch
    1845:	06                   	push   %es
    1846:	00 00                	add    %al,(%eax)
    1848:	08 1d e2 00 00 00    	or     %bl,0xe2
    184e:	03 7c 06 00          	add    0x0(%esi,%eax,1),%edi
    1852:	00 1e                	add    %bl,(%esi)
    1854:	0e                   	push   %cs
    1855:	55                   	push   %ebp
    1856:	00 00                	add    %al,(%eax)
    1858:	00 00                	add    %al,(%eax)
    185a:	03 b6 06 00 00 1f    	add    0x1f000006(%esi),%esi
    1860:	0e                   	push   %cs
    1861:	55                   	push   %ebp
    1862:	00 00                	add    %al,(%eax)
    1864:	00 02                	add    %al,(%edx)
    1866:	03 0d 06 00 00 20    	add    0x20000006,%ecx
    186c:	0d 42 00 00 00       	or     $0x42,%eax
    1871:	04 03                	add    $0x3,%al
    1873:	86 06                	xchg   %al,(%esi)
    1875:	00 00                	add    %al,(%eax)
    1877:	21 0d 42 00 00 00    	and    %ecx,0x42
    187d:	05 03 62 06 00       	add    $0x66203,%eax
    1882:	00 22                	add    %ah,(%edx)
    1884:	0d 42 00 00 00       	or     $0x42,%eax
    1889:	06                   	push   %es
    188a:	03 a3 06 00 00 23    	add    0x23000006(%ebx),%esp
    1890:	0d 42 00 00 00       	or     $0x42,%eax
    1895:	07                   	pop    %es
    1896:	00 04 16             	add    %al,(%esi,%edx,1)
    1899:	06                   	push   %es
    189a:	00 00                	add    %al,(%eax)
    189c:	03 2b                	add    (%ebx),%ebp
    189e:	20 8e 00 00 00 04    	and    %cl,0x4000000(%esi)
    18a4:	53                   	push   %ebx
    18a5:	04 00                	add    $0x0,%al
    18a7:	00 03                	add    %al,(%ebx)
    18a9:	2f                   	das
    18aa:	12 68 00             	adc    0x0(%eax),%ch
    18ad:	00 00                	add    %al,(%eax)
    18af:	04 7b                	add    $0x7b,%al
    18b1:	0a 00                	or     (%eax),%al
    18b3:	00 03                	add    %al,(%ebx)
    18b5:	30 12                	xor    %dl,(%edx)
    18b7:	68 00 00 00 08       	push   $0x8000000
    18bc:	b3 0a                	mov    $0xa,%bl
    18be:	00 00                	add    %al,(%eax)
    18c0:	6c                   	insb   (%dx),%es:(%edi)
    18c1:	36 30 02             	xor    %al,%ss:(%edx)
    18c4:	00 00                	add    %al,(%eax)
    18c6:	03 99 0a 00 00 37    	add    0x3700000a(%ecx),%ebx
    18cc:	13 ee                	adc    %esi,%ebp
    18ce:	00 00                	add    %al,(%eax)
    18d0:	00 00                	add    %al,(%eax)
    18d2:	02 73 70             	add    0x70(%ebx),%dh
    18d5:	30 00                	xor    %al,(%eax)
    18d7:	38 ee                	cmp    %ch,%dh
    18d9:	00 00                	add    %al,(%eax)
    18db:	00 04 02             	add    %al,(%edx,%eax,1)
    18de:	73 73                	jae    1953 <SEG_KERN_CS+0x194b>
    18e0:	30 00                	xor    %al,(%eax)
    18e2:	39 ee                	cmp    %ebp,%esi
    18e4:	00 00                	add    %al,(%eax)
    18e6:	00 08                	add    %cl,(%eax)
    18e8:	02 73 70             	add    0x70(%ebx),%dh
    18eb:	31 00                	xor    %eax,(%eax)
    18ed:	3a ee                	cmp    %dh,%ch
    18ef:	00 00                	add    %al,(%eax)
    18f1:	00 0c 02             	add    %cl,(%edx,%eax,1)
    18f4:	73 73                	jae    1969 <SEG_KERN_CS+0x1961>
    18f6:	31 00                	xor    %eax,(%eax)
    18f8:	3b ee                	cmp    %esi,%ebp
    18fa:	00 00                	add    %al,(%eax)
    18fc:	00 10                	add    %dl,(%eax)
    18fe:	02 73 70             	add    0x70(%ebx),%dh
    1901:	32 00                	xor    (%eax),%al
    1903:	3c ee                	cmp    $0xee,%al
    1905:	00 00                	add    %al,(%eax)
    1907:	00 14 02             	add    %dl,(%edx,%eax,1)
    190a:	73 73                	jae    197f <SEG_KERN_CS+0x1977>
    190c:	32 00                	xor    (%eax),%al
    190e:	3d ee 00 00 00       	cmp    $0xee,%eax
    1913:	18 02                	sbb    %al,(%edx)
    1915:	63 72 33             	arpl   %esi,0x33(%edx)
    1918:	00 3e                	add    %bh,(%esi)
    191a:	ee                   	out    %al,(%dx)
    191b:	00 00                	add    %al,(%eax)
    191d:	00 1c 02             	add    %bl,(%edx,%eax,1)
    1920:	69 70 00 3f ee 00 00 	imul   $0xee3f,0x0(%eax),%esi
    1927:	00 20                	add    %ah,(%eax)
    1929:	03 a6 04 00 00 40    	add    0x40000004(%esi),%esp
    192f:	13 ee                	adc    %esi,%ebp
    1931:	00 00                	add    %al,(%eax)
    1933:	00 24 02             	add    %ah,(%edx,%eax,1)
    1936:	61                   	popa
    1937:	78 00                	js     1939 <SEG_KERN_CS+0x1931>
    1939:	41                   	inc    %ecx
    193a:	ee                   	out    %al,(%dx)
    193b:	00 00                	add    %al,(%eax)
    193d:	00 28                	add    %ch,(%eax)
    193f:	02 63 78             	add    0x78(%ebx),%ah
    1942:	00 42 ee             	add    %al,-0x12(%edx)
    1945:	00 00                	add    %al,(%eax)
    1947:	00 2c 02             	add    %ch,(%edx,%eax,1)
    194a:	64 78 00             	fs js  194d <SEG_KERN_CS+0x1945>
    194d:	43                   	inc    %ebx
    194e:	ee                   	out    %al,(%dx)
    194f:	00 00                	add    %al,(%eax)
    1951:	00 30                	add    %dh,(%eax)
    1953:	02 62 78             	add    0x78(%edx),%ah
    1956:	00 44 ee 00          	add    %al,0x0(%esi,%ebp,8)
    195a:	00 00                	add    %al,(%eax)
    195c:	34 02                	xor    $0x2,%al
    195e:	73 70                	jae    19d0 <SEG_KERN_CS+0x19c8>
    1960:	00 45 ee             	add    %al,-0x12(%ebp)
    1963:	00 00                	add    %al,(%eax)
    1965:	00 38                	add    %bh,(%eax)
    1967:	02 62 70             	add    0x70(%edx),%ah
    196a:	00 46 ee             	add    %al,-0x12(%esi)
    196d:	00 00                	add    %al,(%eax)
    196f:	00 3c 02             	add    %bh,(%edx,%eax,1)
    1972:	73 69                	jae    19dd <SEG_KERN_CS+0x19d5>
    1974:	00 47 ee             	add    %al,-0x12(%edi)
    1977:	00 00                	add    %al,(%eax)
    1979:	00 40 02             	add    %al,0x2(%eax)
    197c:	64 69 00 48 ee 00 00 	imul   $0xee48,%fs:(%eax),%eax
    1983:	00 44 02 65          	add    %al,0x65(%edx,%eax,1)
    1987:	73 00                	jae    1989 <SEG_KERN_CS+0x1981>
    1989:	49                   	dec    %ecx
    198a:	ee                   	out    %al,(%dx)
    198b:	00 00                	add    %al,(%eax)
    198d:	00 48 02             	add    %cl,0x2(%eax)
    1990:	63 73 00             	arpl   %esi,0x0(%ebx)
    1993:	4a                   	dec    %edx
    1994:	ee                   	out    %al,(%dx)
    1995:	00 00                	add    %al,(%eax)
    1997:	00 4c 02 73          	add    %cl,0x73(%edx,%eax,1)
    199b:	73 00                	jae    199d <SEG_KERN_CS+0x1995>
    199d:	4b                   	dec    %ebx
    199e:	ee                   	out    %al,(%dx)
    199f:	00 00                	add    %al,(%eax)
    19a1:	00 50 02             	add    %dl,0x2(%eax)
    19a4:	64 73 00             	fs jae 19a7 <SEG_KERN_CS+0x199f>
    19a7:	4c                   	dec    %esp
    19a8:	ee                   	out    %al,(%dx)
    19a9:	00 00                	add    %al,(%eax)
    19ab:	00 54 02 66          	add    %dl,0x66(%edx,%eax,1)
    19af:	73 00                	jae    19b1 <SEG_KERN_CS+0x19a9>
    19b1:	4d                   	dec    %ebp
    19b2:	ee                   	out    %al,(%dx)
    19b3:	00 00                	add    %al,(%eax)
    19b5:	00 58 02             	add    %bl,0x2(%eax)
    19b8:	67 73 00             	addr16 jae 19bb <SEG_KERN_CS+0x19b3>
    19bb:	4e                   	dec    %esi
    19bc:	ee                   	out    %al,(%dx)
    19bd:	00 00                	add    %al,(%eax)
    19bf:	00 5c 02 6c          	add    %bl,0x6c(%edx,%eax,1)
    19c3:	64 74 00             	fs je  19c6 <SEG_KERN_CS+0x19be>
    19c6:	4f                   	dec    %edi
    19c7:	ee                   	out    %al,(%dx)
    19c8:	00 00                	add    %al,(%eax)
    19ca:	00 60 03             	add    %ah,0x3(%eax)
    19cd:	03 01                	add    (%ecx),%eax
    19cf:	00 00                	add    %al,(%eax)
    19d1:	50                   	push   %eax
    19d2:	13 fa                	adc    %edx,%edi
    19d4:	00 00                	add    %al,(%eax)
    19d6:	00 64 03 92          	add    %ah,-0x6e(%ebx,%eax,1)
    19da:	0a 00                	or     (%eax),%al
    19dc:	00 51 13             	add    %dl,0x13(%ecx)
    19df:	fa                   	cli
    19e0:	00 00                	add    %al,(%eax)
    19e2:	00 68 00             	add    %ch,0x0(%eax)
    19e5:	08 e1                	or     %ah,%cl
    19e7:	0a 00                	or     (%eax),%al
    19e9:	00 08                	add    %cl,(%eax)
    19eb:	57                   	push   %edi
    19ec:	53                   	push   %ebx
    19ed:	02 00                	add    (%eax),%al
    19ef:	00 03                	add    %al,(%ebx)
    19f1:	0b 0b                	or     (%ebx),%ecx
    19f3:	00 00                	add    %al,(%eax)
    19f5:	58                   	pop    %eax
    19f6:	13 ee                	adc    %esi,%ebp
    19f8:	00 00                	add    %al,(%eax)
    19fa:	00 00                	add    %al,(%eax)
    19fc:	02 63 70             	add    0x70(%ebx),%ah
    19ff:	75 00                	jne    1a01 <SEG_KERN_CS+0x19f9>
    1a01:	59                   	pop    %ecx
    1a02:	ee                   	out    %al,(%dx)
    1a03:	00 00                	add    %al,(%eax)
    1a05:	00 04 00             	add    %al,(%eax,%eax,1)
    1a08:	04 d5                	add    $0xd5,%al
    1a0a:	0a 00                	or     (%eax),%al
    1a0c:	00 03                	add    %al,(%ebx)
    1a0e:	5d                   	pop    %ebp
    1a0f:	20 06                	and    %al,(%esi)
    1a11:	01 00                	add    %eax,(%eax)
    1a13:	00 04 59             	add    %al,(%ecx,%ebx,2)
    1a16:	0a 00                	or     (%eax),%al
    1a18:	00 03                	add    %al,(%ebx)
    1a1a:	5e                   	pop    %esi
    1a1b:	26 30 02             	xor    %al,%es:(%edx)
    1a1e:	00 00                	add    %al,(%eax)
    1a20:	09 74 00 00          	or     %esi,0x0(%eax,%eax,1)
    1a24:	00 04 11             	add    %al,(%ecx,%edx,1)
    1a27:	06                   	push   %es
    1a28:	a8 02                	test   $0x2,%al
    1a2a:	00 00                	add    %al,(%eax)
    1a2c:	01 49 01             	add    %ecx,0x1(%ecx)
    1a2f:	00 00                	add    %al,(%eax)
    1a31:	00 01                	add    %al,(%ecx)
    1a33:	2d 01 00 00 01       	sub    $0x1000001,%eax
    1a38:	01 10                	add    %edx,(%eax)
    1a3a:	00 00                	add    %al,(%eax)
    1a3c:	00 02                	add    %al,(%edx)
    1a3e:	01 87 00 00 00 03    	add    %eax,0x3000000(%edi)
    1a44:	01 a8 02 00 00 04    	add    %ebp,0x4000002(%eax)
    1a4a:	01 41 01             	add    %eax,0x1(%ecx)
    1a4d:	00 00                	add    %al,(%eax)
    1a4f:	05 01 66 00 00       	add    $0x6601,%eax
    1a54:	00 06                	add    %al,(%esi)
    1a56:	01 b6 00 00 00 16    	add    %esi,0x16000000(%esi)
    1a5c:	00 09                	add    %cl,(%ecx)
    1a5e:	74 00                	je     1a60 <SEG_KERN_CS+0x1a58>
    1a60:	00 00                	add    %al,(%eax)
    1a62:	05 11 0e 21 03       	add    $0x3210e11,%eax
    1a67:	00 00                	add    %al,(%eax)
    1a69:	01 3e                	add    %edi,(%esi)
    1a6b:	03 00                	add    (%eax),%eax
    1a6d:	00 01                	add    %al,(%ecx)
    1a6f:	01 ff                	add    %edi,%edi
    1a71:	03 00                	add    (%eax),%eax
    1a73:	00 02                	add    %al,(%edx)
    1a75:	01 de                	add    %ebx,%esi
    1a77:	02 00                	add    (%eax),%al
    1a79:	00 03                	add    %al,(%ebx)
    1a7b:	01 cb                	add    %ecx,%ebx
    1a7d:	02 00                	add    (%eax),%al
    1a7f:	00 04 01             	add    %al,(%ecx,%eax,1)
    1a82:	a4                   	movsb  %ds:(%esi),%es:(%edi)
    1a83:	03 00                	add    (%eax),%eax
    1a85:	00 05 01 5a 03 00    	add    %al,0x35a01
    1a8b:	00 06                	add    %al,(%esi)
    1a8d:	01 f0                	add    %esi,%eax
    1a8f:	03 00                	add    (%eax),%eax
    1a91:	00 07                	add    %al,(%edi)
    1a93:	01 4f 03             	add    %ecx,0x3(%edi)
    1a96:	00 00                	add    %al,(%eax)
    1a98:	08 01                	or     %al,(%ecx)
    1a9a:	b6 03                	mov    $0x3,%dh
    1a9c:	00 00                	add    %al,(%eax)
    1a9e:	09 01                	or     %eax,(%ecx)
    1aa0:	c1 03 00             	roll   $0x0,(%ebx)
    1aa3:	00 0a                	add    %cl,(%edx)
    1aa5:	01 cc                	add    %ecx,%esp
    1aa7:	03 00                	add    (%eax),%eax
    1aa9:	00 0b                	add    %cl,(%ebx)
    1aab:	01 32                	add    %esi,(%edx)
    1aad:	03 00                	add    (%eax),%eax
    1aaf:	00 0c 01             	add    %cl,(%ecx,%eax,1)
    1ab2:	18 03                	sbb    %al,(%ebx)
    1ab4:	00 00                	add    %al,(%eax)
    1ab6:	0d 01 25 03 00       	or     $0x32501,%eax
    1abb:	00 0e                	add    %cl,(%esi)
    1abd:	01 ff                	add    %edi,%edi
    1abf:	02 00                	add    (%eax),%al
    1ac1:	00 0f                	add    %cl,(%edi)
    1ac3:	01 bd 02 00 00 10    	add    %edi,0x10000002(%ebp)
    1ac9:	01 95 03 00 00 11    	add    %edx,0x11000003(%ebp)
    1acf:	01 e2                	add    %esp,%edx
    1ad1:	03 00                	add    (%eax),%eax
    1ad3:	00 12                	add    %dl,(%edx)
    1ad5:	00 04 71             	add    %al,(%ecx,%esi,2)
    1ad8:	03 00                	add    (%eax),%eax
    1ada:	00 05 24 03 a8 02    	add    %al,0x2a80324
    1ae0:	00 00                	add    %al,(%eax)
    1ae2:	0d 53 02 00 00       	or     $0x253,%eax
    1ae7:	3c 03                	cmp    $0x3,%al
    1ae9:	00 00                	add    %al,(%eax)
    1aeb:	0e                   	push   %cs
    1aec:	3c 03                	cmp    $0x3,%al
    1aee:	00 00                	add    %al,(%eax)
    1af0:	00 06                	add    %al,(%esi)
    1af2:	04 07                	add    $0x7,%al
    1af4:	76 01                	jbe    1af7 <SEG_KERN_CS+0x1aef>
    1af6:	00 00                	add    %al,(%eax)
    1af8:	16                   	push   %ss
    1af9:	74 73                	je     1b6e <SEG_KERN_CS+0x1b66>
    1afb:	73 00                	jae    1afd <SEG_KERN_CS+0x1af5>
    1afd:	01 09                	add    %ecx,(%ecx)
    1aff:	0d 2d 03 00 00       	or     $0x32d,%eax
    1b04:	08 05 03 48 1d 41    	or     %al,0x411d4803
    1b0a:	f0 0d 65 03 00 00    	lock or $0x365,%eax
    1b10:	65 03 00             	add    %gs:(%eax),%eax
    1b13:	00 0e                	add    %cl,(%esi)
    1b15:	3c 03                	cmp    $0x3,%al
    1b17:	00 00                	add    %al,(%eax)
    1b19:	00 0a                	add    %cl,(%edx)
    1b1b:	5f                   	pop    %edi
    1b1c:	02 00                	add    (%eax),%al
    1b1e:	00 17                	add    %dl,(%edi)
    1b20:	a9 0a 00 00 01       	test   $0x100000a,%eax
    1b25:	0a 14 56             	or     (%esi,%edx,2),%dl
    1b28:	03 00                	add    (%eax),%eax
    1b2a:	00 08                	add    %cl,(%eax)
    1b2c:	05 03 08 24 41       	add    $0x41240803,%eax
    1b31:	f0 18 f7             	lock sbb %dh,%bh
    1b34:	0a 00                	or     (%eax),%al
    1b36:	00 01                	add    %al,(%ecx)
    1b38:	0b 09                	or     (%ecx),%ecx
    1b3a:	42                   	inc    %edx
    1b3b:	00 00                	add    %al,(%eax)
    1b3d:	00 05 03 48 24 41    	add    %al,0x41244803
    1b43:	f0 09 74 00 00       	lock or %esi,0x0(%eax,%eax,1)
    1b48:	00 01                	add    %al,(%ecx)
    1b4a:	0d 06 a8 03 00       	or     $0x3a806,%eax
    1b4f:	00 01                	add    %al,(%ecx)
    1b51:	3e 0b 00             	or     %ds:(%eax),%eax
    1b54:	00 01                	add    %al,(%ecx)
    1b56:	01 24 0b             	add    %esp,(%ebx,%ecx,1)
    1b59:	00 00                	add    %al,(%eax)
    1b5b:	02 00                	add    (%eax),%al
    1b5d:	19 c3                	sbb    %eax,%ebx
    1b5f:	0a 00                	or     (%eax),%al
    1b61:	00 01                	add    %al,(%ecx)
    1b63:	12 0e                	adc    (%esi),%cl
    1b65:	b4 03                	mov    $0x3,%ah
    1b67:	00 00                	add    %al,(%eax)
    1b69:	1a 04 0b             	sbb    (%ebx,%ecx,1),%al
    1b6c:	89 0a                	mov    %ecx,(%edx)
    1b6e:	00 00                	add    %al,(%eax)
    1b70:	49                   	dec    %ecx
    1b71:	34 00                	xor    $0x0,%al
    1b73:	00 00                	add    %al,(%eax)
    1b75:	c6 03 00             	movb   $0x0,(%ebx)
    1b78:	00 07                	add    %al,(%edi)
    1b7a:	00 0b                	add    %cl,(%ebx)
    1b7c:	10 0b                	adc    %cl,(%ebx)
    1b7e:	00 00                	add    %al,(%eax)
    1b80:	41                   	inc    %ecx
    1b81:	34 00                	xor    $0x0,%al
    1b83:	00 00                	add    %al,(%eax)
    1b85:	d6                   	(bad)
    1b86:	03 00                	add    (%eax),%eax
    1b88:	00 07                	add    %al,(%edi)
    1b8a:	00 0f                	add    %cl,(%edi)
    1b8c:	3e 06                	ds push %es
    1b8e:	00 00                	add    %al,(%eax)
    1b90:	06                   	push   %es
    1b91:	19 f6                	sbb    %esi,%esi
    1b93:	03 00                	add    (%eax),%eax
    1b95:	00 05 f6 03 00 00    	add    %al,0x3f6
    1b9b:	05 68 00 00 00       	add    $0x68,%eax
    1ba0:	05 68 00 00 00       	add    $0x68,%eax
    1ba5:	05 68 00 00 00       	add    $0x68,%eax
    1baa:	00 0a                	add    %cl,(%edx)
    1bac:	e2 00                	loop   1bae <SEG_KERN_CS+0x1ba6>
    1bae:	00 00                	add    %al,(%eax)
    1bb0:	10 6e 06             	adc    %ch,0x6(%esi)
    1bb3:	00 00                	add    %al,(%eax)
    1bb5:	06                   	push   %es
    1bb6:	14 0e                	adc    $0xe,%al
    1bb8:	f6 03 00             	testb  $0x0,(%ebx)
    1bbb:	00 11                	add    %dl,(%ecx)
    1bbd:	04 00                	add    $0x0,%al
    1bbf:	00 05 42 00 00 00    	add    %al,0x42
    1bc5:	00 10                	add    %dl,(%eax)
    1bc7:	b4 02                	mov    $0x2,%ah
    1bc9:	00 00                	add    %al,(%eax)
    1bcb:	05 2e 0a 68 00       	add    $0x680a2e,%eax
    1bd0:	00 00                	add    %al,(%eax)
    1bd2:	27                   	daa
    1bd3:	04 00                	add    $0x0,%al
    1bd5:	00 05 21 03 00 00    	add    %al,0x321
    1bdb:	00 0f                	add    %cl,(%edi)
    1bdd:	71 04                	jno    1be3 <SEG_KERN_CS+0x1bdb>
    1bdf:	00 00                	add    %al,(%eax)
    1be1:	07                   	pop    %es
    1be2:	09 42 04             	or     %eax,0x4(%edx)
    1be5:	00 00                	add    %al,(%eax)
    1be7:	05 b4 03 00 00       	add    $0x3b4,%eax
    1bec:	05 42 00 00 00       	add    $0x42,%eax
    1bf1:	05 82 00 00 00       	add    $0x82,%eax
    1bf6:	00 1b                	add    %bl,(%ebx)
    1bf8:	6b 0a 00             	imul   $0x0,(%edx),%ecx
    1bfb:	00 01                	add    %al,(%ecx)
    1bfd:	29 09                	sub    %ecx,(%ecx)
    1bff:	42                   	inc    %edx
    1c00:	00 00                	add    %al,(%eax)
    1c02:	00 1f                	add    %bl,(%edi)
    1c04:	65 40                	gs inc %eax
    1c06:	f0 b3 01             	lock mov $0x1,%bl
    1c09:	00 00                	add    %al,(%eax)
    1c0b:	01 9c ff 04 00 00 11 	add    %ebx,0x11000004(%edi,%edi,8)
    1c12:	63 70 75             	arpl   %esi,0x75(%eax)
    1c15:	00 29                	add    %ch,(%ecx)
    1c17:	21 42 00             	and    %eax,0x0(%edx)
    1c1a:	00 00                	add    %al,(%eax)
    1c1c:	02 91 4c 1c 1a 0b    	add    0xb1a1c4c(%ecx),%dl
    1c22:	00 00                	add    %al,(%eax)
    1c24:	01 29                	add    %ebp,(%ecx)
    1c26:	2c b4                	sub    $0xb4,%al
    1c28:	03 00                	add    (%eax),%eax
    1c2a:	00 02                	add    %al,(%edx)
    1c2c:	91                   	xchg   %eax,%ecx
    1c2d:	04 0c                	add    $0xc,%al
    1c2f:	74 73                	je     1ca4 <SEG_KERN_CS+0x1c9c>
    1c31:	73 00                	jae    1c33 <SEG_KERN_CS+0x1c2b>
    1c33:	2a 12                	sub    (%edx),%dl
    1c35:	ff 04 00             	incl   (%eax,%eax,1)
    1c38:	00 02                	add    %al,(%edx)
    1c3a:	91                   	xchg   %eax,%ecx
    1c3b:	6c                   	insb   (%dx),%es:(%edi)
    1c3c:	0c 73                	or     $0x73,%al
    1c3e:	65 67 00 2b          	add    %ch,%gs:(%bp,%di)
    1c42:	12 f6                	adc    %dh,%dh
    1c44:	03 00                	add    (%eax),%eax
    1c46:	00 02                	add    %al,(%edx)
    1c48:	91                   	xchg   %eax,%ecx
    1c49:	68 0c 73 6d 00       	push   $0x6d730c
    1c4e:	31 18                	xor    %ebx,(%eax)
    1c50:	65 03 00             	add    %gs:(%eax),%eax
    1c53:	00 02                	add    %al,(%edx)
    1c55:	91                   	xchg   %eax,%ecx
    1c56:	64 1d 2e 66 40 f0    	fs sbb $0xf040662e,%eax
    1c5c:	41                   	inc    %ecx
    1c5d:	00 00                	add    %al,(%eax)
    1c5f:	00 bc 04 00 00 12 10 	add    %bh,0x10120000(%esp,%eax,1)
    1c66:	0b 00                	or     (%eax),%eax
    1c68:	00 41 34             	add    %al,0x34(%ecx)
    1c6b:	00 00                	add    %al,(%eax)
    1c6d:	00 07                	add    %al,(%edi)
    1c6f:	00 00                	add    %al,(%eax)
    1c71:	1e                   	push   %ds
    1c72:	80 66 40 f0          	andb   $0xf0,0x40(%esi)
    1c76:	50                   	push   %eax
    1c77:	00 00                	add    %al,(%eax)
    1c79:	00 13                	add    %dl,(%ebx)
    1c7b:	04 0b                	add    $0xb,%al
    1c7d:	00 00                	add    %al,(%eax)
    1c7f:	47                   	inc    %edi
    1c80:	12 68 00             	adc    0x0(%eax),%ch
    1c83:	00 00                	add    %al,(%eax)
    1c85:	02 91 60 13 a2 0a    	add    0xaa21360(%ecx),%dl
    1c8b:	00 00                	add    %al,(%eax)
    1c8d:	47                   	inc    %edi
    1c8e:	1a 68 00             	sbb    0x0(%eax),%ch
    1c91:	00 00                	add    %al,(%eax)
    1c93:	02 91 5c 0b 89 0a    	add    0xa890b5c(%ecx),%dl
    1c99:	00 00                	add    %al,(%eax)
    1c9b:	49                   	dec    %ecx
    1c9c:	34 00                	xor    $0x0,%al
    1c9e:	00 00                	add    %al,(%eax)
    1ca0:	f1                   	int1
    1ca1:	04 00                	add    $0x0,%al
    1ca3:	00 07                	add    %al,(%edi)
    1ca5:	00 12                	add    %dl,(%edx)
    1ca7:	10 0b                	adc    %cl,(%ebx)
    1ca9:	00 00                	add    %al,(%eax)
    1cab:	41                   	inc    %ecx
    1cac:	34 00                	xor    $0x0,%al
    1cae:	00 00                	add    %al,(%eax)
    1cb0:	07                   	pop    %es
    1cb1:	00 00                	add    %al,(%eax)
    1cb3:	00 0a                	add    %cl,(%edx)
    1cb5:	53                   	push   %ebx
    1cb6:	02 00                	add    (%eax),%al
    1cb8:	00 1f                	add    %bl,(%edi)
    1cba:	30 0b                	xor    %cl,(%ebx)
    1cbc:	00 00                	add    %al,(%eax)
    1cbe:	01 21                	add    %esp,(%ecx)
    1cc0:	0e                   	push   %cs
    1cc1:	ff 04 00             	incl   (%eax,%eax,1)
    1cc4:	00 f8                	add    %bh,%al
    1cc6:	64 40                	fs inc %eax
    1cc8:	f0 27                	lock daa
    1cca:	00 00                	add    %al,(%eax)
    1ccc:	00 01                	add    %al,(%ecx)
    1cce:	9c                   	pushf
    1ccf:	2b 05 00 00 11 6e    	sub    0x6e110000,%eax
    1cd5:	00 21                	add    %ah,(%ecx)
    1cd7:	24 42                	and    $0x42,%al
    1cd9:	00 00                	add    %al,(%eax)
    1cdb:	00 02                	add    %al,(%edx)
    1cdd:	91                   	xchg   %eax,%ecx
    1cde:	74 00                	je     1ce0 <SEG_KERN_CS+0x1cd8>
    1ce0:	20 05 02 00 00 01    	and    %al,0x1000002
    1ce6:	15 06 59 64 40       	adc    $0x40645906,%eax
    1ceb:	f0 9f                	lock lahf
    1ced:	00 00                	add    %al,(%eax)
    1cef:	00 01                	add    %al,(%ecx)
    1cf1:	9c                   	pushf
    1cf2:	00 26                	add    %ah,(%esi)
    1cf4:	0a 00                	or     (%eax),%al
    1cf6:	00 05 00 01 04 bc    	add    %al,0xbc040100
    1cfc:	0c 00                	or     $0x0,%al
    1cfe:	00 15 9a 01 00 00    	add    %dl,0x19a
    1d04:	0c f1                	or     $0xf1,%al
    1d06:	01 00                	add    %eax,(%eax)
    1d08:	00 0b                	add    %cl,(%ebx)
    1d0a:	00 00                	add    %al,(%eax)
    1d0c:	00 d2                	add    %dl,%dl
    1d0e:	66 40                	inc    %ax
    1d10:	f0 94                	lock xchg %eax,%esp
    1d12:	06                   	push   %es
    1d13:	00 00                	add    %al,(%eax)
    1d15:	56                   	push   %esi
    1d16:	09 00                	or     %eax,(%eax)
    1d18:	00 06                	add    %al,(%esi)
    1d1a:	01 06                	add    %eax,(%esi)
    1d1c:	5b                   	pop    %ebx
    1d1d:	01 00                	add    %eax,(%eax)
    1d1f:	00 16                	add    %dl,(%esi)
    1d21:	26 00 00             	add    %al,%es:(%eax)
    1d24:	00 06                	add    %al,(%esi)
    1d26:	02 05 50 02 00 00    	add    0x250,%al
    1d2c:	03 7d 02             	add    0x2(%ebp),%edi
    1d2f:	00 00                	add    %al,(%eax)
    1d31:	02 11                	add    (%ecx),%dl
    1d33:	1d 45 00 00 00       	sbb    $0x45,%eax
    1d38:	17                   	pop    %ss
    1d39:	04 05                	add    $0x5,%al
    1d3b:	69 6e 74 00 06 08 05 	imul   $0x5080600,0x74(%esi),%ebp
    1d42:	14 02                	adc    $0x2,%al
    1d44:	00 00                	add    %al,(%eax)
    1d46:	03 88 01 00 00 02    	add    0x2000001(%eax),%ecx
    1d4c:	13 1d 5f 00 00 00    	adc    0x5f,%ebx
    1d52:	06                   	push   %es
    1d53:	01 08                	add    %ecx,(%eax)
    1d55:	52                   	push   %edx
    1d56:	01 00                	add    %eax,(%eax)
    1d58:	00 03                	add    %al,(%ebx)
    1d5a:	8d 06                	lea    (%esi),%eax
    1d5c:	00 00                	add    %al,(%eax)
    1d5e:	02 14 1d 72 00 00 00 	add    0x72(,%ebx,1),%dl
    1d65:	06                   	push   %es
    1d66:	02 07                	add    (%edi),%al
    1d68:	3d 00 00 00 03       	cmp    $0x3000000,%eax
    1d6d:	7c 02                	jl     1d71 <SEG_KERN_CS+0x1d69>
    1d6f:	00 00                	add    %al,(%eax)
    1d71:	02 15 1d 85 00 00    	add    0x851d,%dl
    1d77:	00 06                	add    %al,(%esi)
    1d79:	04 07                	add    $0x7,%al
    1d7b:	7b 01                	jnp    1d7e <SEG_KERN_CS+0x1d76>
    1d7d:	00 00                	add    %al,(%eax)
    1d7f:	03 5d 00             	add    0x0(%ebp),%ebx
    1d82:	00 00                	add    %al,(%eax)
    1d84:	02 16                	add    (%esi),%dl
    1d86:	1d 98 00 00 00       	sbb    $0x98,%eax
    1d8b:	06                   	push   %es
    1d8c:	08 07                	or     %al,(%edi)
    1d8e:	71 01                	jno    1d91 <SEG_KERN_CS+0x1d89>
    1d90:	00 00                	add    %al,(%eax)
    1d92:	03 ce                	add    %esi,%ecx
    1d94:	00 00                	add    %al,(%eax)
    1d96:	00 02                	add    %al,(%edx)
    1d98:	1b 1d 79 00 00 00    	sbb    0x79,%ebx
    1d9e:	09 6d 0b             	or     %ebp,0xb(%ebp)
    1da1:	00 00                	add    %al,(%eax)
    1da3:	18 09                	sbb    %cl,(%ecx)
    1da5:	00 01                	add    %al,(%ecx)
    1da7:	00 00                	add    %al,(%eax)
    1da9:	02 73 69             	add    0x69(%ebx),%dh
    1dac:	67 00 0a             	add    %cl,(%bp,%si)
    1daf:	11 00                	adc    %eax,(%eax)
    1db1:	01 00                	add    %eax,(%eax)
    1db3:	00 00                	add    %al,(%eax)
    1db5:	02 63 68             	add    0x68(%ebx),%ah
    1db8:	6b 00 0b             	imul   $0xb,(%eax),%eax
    1dbb:	11 53 00             	adc    %edx,0x0(%ebx)
    1dbe:	00 00                	add    %al,(%eax)
    1dc0:	08 02                	or     %al,(%edx)
    1dc2:	6f                   	outsl  %ds:(%esi),(%dx)
    1dc3:	65 6d                	gs insl (%dx),%es:(%edi)
    1dc5:	00 0c 11             	add    %cl,(%ecx,%edx,1)
    1dc8:	17                   	pop    %ss
    1dc9:	01 00                	add    %eax,(%eax)
    1dcb:	00 09                	add    %cl,(%ecx)
    1dcd:	02 72 65             	add    0x65(%edx),%dh
    1dd0:	76 00                	jbe    1dd2 <SEG_KERN_CS+0x1dca>
    1dd2:	0d 11 53 00 00       	or     $0x5311,%eax
    1dd7:	00 0f                	add    %cl,(%edi)
    1dd9:	01 cb                	add    %ecx,%ebx
    1ddb:	0b 00                	or     (%eax),%eax
    1ddd:	00 03                	add    %al,(%ebx)
    1ddf:	0e                   	push   %cs
    1de0:	11 79 00             	adc    %edi,0x0(%ecx)
    1de3:	00 00                	add    %al,(%eax)
    1de5:	10 02                	adc    %al,(%edx)
    1de7:	6c                   	insb   (%dx),%es:(%edi)
    1de8:	65 6e                	outsb  %gs:(%esi),(%dx)
    1dea:	00 0f                	add    %cl,(%edi)
    1dec:	11 79 00             	adc    %edi,0x0(%ecx)
    1def:	00 00                	add    %al,(%eax)
    1df1:	14 00                	adc    $0x0,%al
    1df3:	0d 26 00 00 00       	or     $0x26,%eax
    1df8:	10 01                	adc    %al,(%ecx)
    1dfa:	00 00                	add    %al,(%eax)
    1dfc:	0e                   	push   %cs
    1dfd:	10 01                	adc    %al,(%ecx)
    1dff:	00 00                	add    %al,(%eax)
    1e01:	07                   	pop    %es
    1e02:	00 06                	add    %al,(%esi)
    1e04:	04 07                	add    $0x7,%al
    1e06:	76 01                	jbe    1e09 <SEG_KERN_CS+0x1e01>
    1e08:	00 00                	add    %al,(%eax)
    1e0a:	0d 26 00 00 00       	or     $0x26,%eax
    1e0f:	27                   	daa
    1e10:	01 00                	add    %eax,(%eax)
    1e12:	00 0e                	add    %cl,(%esi)
    1e14:	10 01                	adc    %al,(%ecx)
    1e16:	00 00                	add    %al,(%eax)
    1e18:	05 00 0d 53 00       	add    $0x530d00,%eax
    1e1d:	00 00                	add    %al,(%eax)
    1e1f:	37                   	aaa
    1e20:	01 00                	add    %eax,(%eax)
    1e22:	00 0e                	add    %cl,(%esi)
    1e24:	10 01                	adc    %al,(%ecx)
    1e26:	00 00                	add    %al,(%eax)
    1e28:	02 00                	add    (%eax),%al
    1e2a:	03 26                	add    (%esi),%esp
    1e2c:	0e                   	push   %cs
    1e2d:	00 00                	add    %al,(%eax)
    1e2f:	03 23                	add    (%ebx),%esp
    1e31:	24 ab                	and    $0xab,%al
    1e33:	00 00                	add    %al,(%eax)
    1e35:	00 09                	add    %cl,(%ecx)
    1e37:	d6                   	(bad)
    1e38:	0c 00                	or     $0x0,%al
    1e3a:	00 24 29             	add    %ah,(%ecx,%ebp,1)
    1e3d:	bf 01 00 00 02       	mov    $0x2000001,%edi
    1e42:	73 69                	jae    1ead <SEG_KERN_CS+0x1ea5>
    1e44:	67 00 2a             	add    %ch,(%bp,%si)
    1e47:	11 bf 01 00 00 00    	adc    %edi,0x1(%edi)
    1e4d:	02 6c 65 6e          	add    0x6e(%ebp,%eiz,2),%ch
    1e51:	00 2b                	add    %ch,(%ebx)
    1e53:	11 79 00             	adc    %edi,0x0(%ecx)
    1e56:	00 00                	add    %al,(%eax)
    1e58:	04 02                	add    $0x2,%al
    1e5a:	72 65                	jb     1ec1 <SEG_KERN_CS+0x1eb9>
    1e5c:	76 00                	jbe    1e5e <SEG_KERN_CS+0x1e56>
    1e5e:	2c 11                	sub    $0x11,%al
    1e60:	53                   	push   %ebx
    1e61:	00 00                	add    %al,(%eax)
    1e63:	00 08                	add    %cl,(%eax)
    1e65:	02 63 68             	add    0x68(%ebx),%ah
    1e68:	6b 00 2d             	imul   $0x2d,(%eax),%eax
    1e6b:	11 53 00             	adc    %edx,0x0(%ebx)
    1e6e:	00 00                	add    %al,(%eax)
    1e70:	09 02                	or     %eax,(%edx)
    1e72:	6f                   	outsl  %ds:(%esi),(%dx)
    1e73:	65 6d                	gs insl (%dx),%es:(%edi)
    1e75:	00 2e                	add    %ch,(%esi)
    1e77:	11 17                	adc    %edx,(%edi)
    1e79:	01 00                	add    %eax,(%eax)
    1e7b:	00 0a                	add    %cl,(%edx)
    1e7d:	01 ad 0f 00 00 03    	add    %ebp,0x300000f(%ebp)
    1e83:	2f                   	das
    1e84:	11 00                	adc    %eax,(%eax)
    1e86:	01 00                	add    %eax,(%eax)
    1e88:	00 10                	add    %dl,(%eax)
    1e8a:	01 65 0e             	add    %esp,0xe(%ebp)
    1e8d:	00 00                	add    %al,(%eax)
    1e8f:	03 30                	add    (%eax),%esi
    1e91:	11 79 00             	adc    %edi,0x0(%ecx)
    1e94:	00 00                	add    %al,(%eax)
    1e96:	18 01                	sbb    %al,(%ecx)
    1e98:	12 0d 00 00 03 31    	adc    0x31030000,%cl
    1e9e:	11 79 00             	adc    %edi,0x0(%ecx)
    1ea1:	00 00                	add    %al,(%eax)
    1ea3:	1c 01                	sbb    $0x1,%al
    1ea5:	b1 0e                	mov    $0xe,%cl
    1ea7:	00 00                	add    %al,(%eax)
    1ea9:	03 32                	add    (%edx),%esi
    1eab:	11 79 00             	adc    %edi,0x0(%ecx)
    1eae:	00 00                	add    %al,(%eax)
    1eb0:	20 00                	and    %al,(%eax)
    1eb2:	0d 26 00 00 00       	or     $0x26,%eax
    1eb7:	cf                   	iret
    1eb8:	01 00                	add    %eax,(%eax)
    1eba:	00 0e                	add    %cl,(%esi)
    1ebc:	10 01                	adc    %al,(%ecx)
    1ebe:	00 00                	add    %al,(%eax)
    1ec0:	03 00                	add    (%eax),%eax
    1ec2:	03 27                	add    (%edi),%esp
    1ec4:	0d 00 00 03 36       	or     $0x36030000,%eax
    1ec9:	23 43 01             	and    0x1(%ebx),%eax
    1ecc:	00 00                	add    %al,(%eax)
    1ece:	09 54 0f 00          	or     %edx,0x0(%edi,%ecx,1)
    1ed2:	00 2c 3b             	add    %ch,(%ebx,%edi,1)
    1ed5:	0d 02 00 00 02       	or     $0x2000002,%eax
    1eda:	68 64 72 00 3c       	push   $0x3c007264
    1edf:	19 cf                	sbb    %ecx,%edi
    1ee1:	01 00                	add    %eax,(%eax)
    1ee3:	00 00                	add    %al,(%eax)
    1ee5:	01 b5 0b 00 00 03    	add    %esi,0x300000b(%ebp)
    1eeb:	3d 19 79 00 00       	cmp    $0x7919,%eax
    1ef0:	00 24 01             	add    %ah,(%ecx,%eax,1)
    1ef3:	a6                   	cmpsb  %es:(%edi),%ds:(%esi)
    1ef4:	04 00                	add    $0x0,%al
    1ef6:	00 03                	add    %al,(%ebx)
    1ef8:	3e 19 79 00          	sbb    %edi,%ds:0x0(%ecx)
    1efc:	00 00                	add    %al,(%eax)
    1efe:	28 00                	sub    %al,(%eax)
    1f00:	09 5e 0c             	or     %ebx,0xc(%esi)
    1f03:	00 00                	add    %al,(%eax)
    1f05:	02 46 32             	add    0x32(%esi),%al
    1f08:	02 00                	add    (%eax),%al
    1f0a:	00 01                	add    %al,(%ecx)
    1f0c:	cf                   	iret
    1f0d:	09 00                	or     %eax,(%eax)
    1f0f:	00 03                	add    %al,(%ebx)
    1f11:	47                   	inc    %edi
    1f12:	15 53 00 00 00       	adc    $0x53,%eax
    1f17:	00 02                	add    %al,(%edx)
    1f19:	6c                   	insb   (%dx),%es:(%edi)
    1f1a:	65 6e                	outsb  %gs:(%esi),(%dx)
    1f1c:	00 48 15             	add    %cl,0x15(%eax)
    1f1f:	53                   	push   %ebx
    1f20:	00 00                	add    %al,(%eax)
    1f22:	00 01                	add    %al,(%ecx)
    1f24:	00 03                	add    %al,(%ebx)
    1f26:	52                   	push   %edx
    1f27:	0d 00 00 03 4c       	or     $0x4c030000,%eax
    1f2c:	24 db                	and    $0xdb,%al
    1f2e:	01 00                	add    %eax,(%eax)
    1f30:	00 03                	add    %al,(%ebx)
    1f32:	79 0d                	jns    1f41 <SEG_KERN_CS+0x1f39>
    1f34:	00 00                	add    %al,(%eax)
    1f36:	03 4d 29             	add    0x29(%ebp),%ecx
    1f39:	0d 02 00 00 09       	or     $0x9000002,%eax
    1f3e:	a5                   	movsl  %ds:(%esi),%es:(%edi)
    1f3f:	0b 00                	or     (%eax),%eax
    1f41:	00 05 85 97 02 00    	add    %al,0x29785
    1f47:	00 01                	add    %al,(%ecx)
    1f49:	c5 0f                	lds    (%edi),%ecx
    1f4b:	00 00                	add    %al,(%eax)
    1f4d:	03 86 19 53 00 00    	add    0x5319(%esi),%eax
    1f53:	00 00                	add    %al,(%eax)
    1f55:	01 44 0d 00          	add    %eax,0x0(%ebp,%ecx,1)
    1f59:	00 03                	add    %al,(%ebx)
    1f5b:	87 19                	xchg   %ebx,(%ecx)
    1f5d:	53                   	push   %ebx
    1f5e:	00 00                	add    %al,(%eax)
    1f60:	00 01                	add    %al,(%ecx)
    1f62:	01 64 0d 00          	add    %esp,0x0(%ebp,%ecx,1)
    1f66:	00 03                	add    %al,(%ebx)
    1f68:	88 19                	mov    %bl,(%ecx)
    1f6a:	53                   	push   %ebx
    1f6b:	00 00                	add    %al,(%eax)
    1f6d:	00 02                	add    %al,(%edx)
    1f6f:	01 38                	add    %edi,(%eax)
    1f71:	0d 00 00 03 89       	or     $0x89030000,%eax
    1f76:	19 53 00             	sbb    %edx,0x0(%ebx)
    1f79:	00 00                	add    %al,(%eax)
    1f7b:	03 01                	add    (%ecx),%eax
    1f7d:	b5 0b                	mov    $0xb,%ch
    1f7f:	00 00                	add    %al,(%eax)
    1f81:	03 8a 19 53 00 00    	add    0x5319(%edx),%ecx
    1f87:	00 04 00             	add    %al,(%eax,%eax,1)
    1f8a:	03 ff                	add    %edi,%edi
    1f8c:	0c 00                	or     $0x0,%al
    1f8e:	00 03                	add    %al,(%ebx)
    1f90:	8e 25 4a 02 00 00    	mov    0x24a,%fs
    1f96:	09 4b 0b             	or     %ecx,0xb(%ebx)
    1f99:	00 00                	add    %al,(%eax)
    1f9b:	b5 93                	mov    $0x93,%ch
    1f9d:	51                   	push   %ecx
    1f9e:	05 00 00 02 68       	add    $0x68020000,%eax
    1fa3:	64 72 00             	fs jb  1fa6 <SEG_KERN_CS+0x1f9e>
    1fa6:	94                   	xchg   %eax,%esp
    1fa7:	19 cf                	sbb    %ecx,%edi
    1fa9:	01 00                	add    %eax,(%eax)
    1fab:	00 00                	add    %al,(%eax)
    1fad:	01 dd                	add    %ebx,%ebp
    1faf:	0e                   	push   %cs
    1fb0:	00 00                	add    %al,(%eax)
    1fb2:	03 96 0e 79 00 00    	add    0x790e(%esi),%edx
    1fb8:	00 24 01             	add    %ah,(%ecx,%eax,1)
    1fbb:	74 0d                	je     1fca <SEG_KERN_CS+0x1fc2>
    1fbd:	00 00                	add    %al,(%eax)
    1fbf:	03 97 0e 79 00 00    	add    0x790e(%edi),%edx
    1fc5:	00 28                	add    %ch,(%eax)
    1fc7:	01 88 03 00 00 03    	add    %ecx,0x3000003(%eax)
    1fcd:	98                   	cwtl
    1fce:	0d 53 00 00 00       	or     $0x53,%eax
    1fd3:	2c 02                	sub    $0x2,%al
    1fd5:	70 70                	jo     2047 <SEG_KERN_CS+0x203f>
    1fd7:	70 00                	jo     1fd9 <SEG_KERN_CS+0x1fd1>
    1fd9:	99                   	cltd
    1fda:	0d 53 00 00 00       	or     $0x53,%eax
    1fdf:	2d 01 28 0c 00       	sub    $0xc2801,%eax
    1fe4:	00 03                	add    %al,(%ebx)
    1fe6:	9b                   	fwait
    1fe7:	0e                   	push   %cs
    1fe8:	66 00 00             	data16 add %al,(%eax)
    1feb:	00 2e                	add    %ch,(%esi)
    1fed:	01 3a                	add    %edi,(%edx)
    1fef:	0c 00                	or     $0x0,%al
    1ff1:	00 03                	add    %al,(%ebx)
    1ff3:	9c                   	pushf
    1ff4:	0e                   	push   %cs
    1ff5:	79 00                	jns    1ff7 <SEG_KERN_CS+0x1fef>
    1ff7:	00 00                	add    %al,(%eax)
    1ff9:	30 01                	xor    %al,(%ecx)
    1ffb:	38 0e                	cmp    %cl,(%esi)
    1ffd:	00 00                	add    %al,(%eax)
    1fff:	03 9d 0d 53 00 00    	add    0x530d(%ebp),%ebx
    2005:	00 34 01             	add    %dh,(%ecx,%eax,1)
    2008:	1a 0d 00 00 03 9e    	sbb    0x9e030000,%cl
    200e:	0d 53 00 00 00       	or     $0x53,%eax
    2013:	35 01 c5 0e 00       	xor    $0xec501,%eax
    2018:	00 03                	add    %al,(%ebx)
    201a:	a0 0d 53 00 00       	mov    0x530d,%al
    201f:	00 36                	add    %dh,(%esi)
    2021:	01 cc                	add    %ecx,%esp
    2023:	0d 00 00 03 a1       	or     $0xa1030000,%eax
    2028:	0d 53 00 00 00       	or     $0x53,%eax
    202d:	37                   	aaa
    202e:	01 fb                	add    %edi,%ebx
    2030:	0f 00 00             	sldt   (%eax)
    2033:	03 a3 0b 79 00 00    	add    0x790b(%ebx),%esp
    2039:	00 38                	add    %bh,(%eax)
    203b:	01 60 0b             	add    %esp,0xb(%eax)
    203e:	00 00                	add    %al,(%eax)
    2040:	03 a4 0b 79 00 00 00 	add    0x79(%ebx,%ecx,1),%esp
    2047:	3c 01                	cmp    $0x1,%al
    2049:	b8 0f 00 00 03       	mov    $0x300000f,%eax
    204e:	a5                   	movsl  %ds:(%esi),%es:(%edi)
    204f:	0b 79 00             	or     0x0(%ecx),%edi
    2052:	00 00                	add    %al,(%eax)
    2054:	40                   	inc    %eax
    2055:	01 35 0f 00 00 03    	add    %esi,0x300000f
    205b:	a6                   	cmpsb  %es:(%edi),%ds:(%esi)
    205c:	0b 79 00             	or     0x0(%ecx),%edi
    205f:	00 00                	add    %al,(%eax)
    2061:	44                   	inc    %esp
    2062:	01 ed                	add    %ebp,%ebp
    2064:	0d 00 00 03 a7       	or     $0xa7030000,%eax
    2069:	0b 79 00             	or     0x0(%ecx),%edi
    206c:	00 00                	add    %al,(%eax)
    206e:	48                   	dec    %eax
    206f:	01 43 0f             	add    %eax,0xf(%ebx)
    2072:	00 00                	add    %al,(%eax)
    2074:	03 a8 0b 79 00 00    	add    0x790b(%eax),%ebp
    207a:	00 4c 01 c3          	add    %cl,-0x3d(%ecx,%eax,1)
    207e:	0c 00                	or     $0x0,%al
    2080:	00 03                	add    %al,(%ebx)
    2082:	aa                   	stos   %al,%es:(%edi)
    2083:	0b 79 00             	or     0x0(%ecx),%edi
    2086:	00 00                	add    %al,(%eax)
    2088:	50                   	push   %eax
    2089:	01 45 0e             	add    %eax,0xe(%ebp)
    208c:	00 00                	add    %al,(%eax)
    208e:	03 ab 0b 79 00 00    	add    0x790b(%ebx),%ebp
    2094:	00 54 01 f3          	add    %dl,-0xd(%ecx,%eax,1)
    2098:	0c 00                	or     $0x0,%al
    209a:	00 03                	add    %al,(%ebx)
    209c:	ad                   	lods   %ds:(%esi),%eax
    209d:	0a 53 00             	or     0x0(%ebx),%dl
    20a0:	00 00                	add    %al,(%eax)
    20a2:	58                   	pop    %eax
    20a3:	01 96 0e 00 00 03    	add    %edx,0x300000e(%esi)
    20a9:	ae                   	scas   %es:(%edi),%al
    20aa:	0a 53 00             	or     0x0(%ebx),%dl
    20ad:	00 00                	add    %al,(%eax)
    20af:	59                   	pop    %ecx
    20b0:	01 d0                	add    %edx,%eax
    20b2:	0e                   	push   %cs
    20b3:	00 00                	add    %al,(%eax)
    20b5:	03 af 0a 53 00 00    	add    0x530a(%edi),%ebp
    20bb:	00 5a 01             	add    %bl,0x1(%edx)
    20be:	ef                   	out    %eax,(%dx)
    20bf:	0f 00 00             	sldt   (%eax)
    20c2:	03 b0 0a 53 00 00    	add    0x530a(%eax),%esi
    20c8:	00 5b 01             	add    %bl,0x1(%ebx)
    20cb:	90                   	nop
    20cc:	0d 00 00 03 b2       	or     $0xb2030000,%eax
    20d1:	0a 53 00             	or     0x0(%ebx),%dl
    20d4:	00 00                	add    %al,(%eax)
    20d6:	5c                   	pop    %esp
    20d7:	01 bf 0d 00 00 03    	add    %edi,0x300000d(%edi)
    20dd:	b3 0a                	mov    $0xa,%bl
    20df:	53                   	push   %ebx
    20e0:	00 00                	add    %al,(%eax)
    20e2:	00 5d 01             	add    %bl,0x1(%ebp)
    20e5:	e9 0c 00 00 03       	jmp    30020f6 <_mb_unpaged_end+0x2bfd0f6>
    20ea:	b4 0a                	mov    $0xa,%ah
    20ec:	53                   	push   %ebx
    20ed:	00 00                	add    %al,(%eax)
    20ef:	00 5e 01             	add    %bl,0x1(%esi)
    20f2:	fe 0b                	decb   (%ebx)
    20f4:	00 00                	add    %al,(%eax)
    20f6:	03 b6 0a 53 00 00    	add    0x530a(%esi),%esi
    20fc:	00 5f 01             	add    %bl,0x1(%edi)
    20ff:	ed                   	in     (%dx),%eax
    2100:	0b 00                	or     (%eax),%eax
    2102:	00 03                	add    %al,(%ebx)
    2104:	b7 0b                	mov    $0xb,%bh
    2106:	66 00 00             	data16 add %al,(%eax)
    2109:	00 60 01             	add    %ah,0x1(%eax)
    210c:	97                   	xchg   %eax,%edi
    210d:	0f 00 00             	sldt   (%eax)
    2110:	03 b8 0b 66 00 00    	add    0x660b(%eax),%edi
    2116:	00 62 01             	add    %ah,0x1(%edx)
    2119:	a2 0f 00 00 03       	mov    %al,0x300000f
    211e:	b9 0b 66 00 00       	mov    $0x660b,%ecx
    2123:	00 64 01 d3          	add    %ah,-0x2d(%ecx,%eax,1)
    2127:	0f 00 00             	sldt   (%eax)
    212a:	03 ba 0b 66 00 00    	add    0x660b(%edx),%edi
    2130:	00 66 01             	add    %ah,0x1(%esi)
    2133:	68 0f 00 00 03       	push   $0x300000f
    2138:	bb 0a 53 00 00       	mov    $0x530a,%ebx
    213d:	00 68 01             	add    %ch,0x1(%eax)
    2140:	ba 0e 00 00 03       	mov    $0x300000e,%edx
    2145:	bc 0a 53 00 00       	mov    $0x530a,%esp
    214a:	00 69 01             	add    %ch,0x1(%ecx)
    214d:	79 0e                	jns    215d <SEG_KERN_CS+0x2155>
    214f:	00 00                	add    %al,(%eax)
    2151:	03 bd 0a 53 00 00    	add    0x530a(%ebp),%edi
    2157:	00 6a 01             	add    %ch,0x1(%edx)
    215a:	9d                   	popf
    215b:	0d 00 00 03 be       	or     $0xbe030000,%eax
    2160:	0a 53 00             	or     0x0(%ebx),%dl
    2163:	00 00                	add    %al,(%eax)
    2165:	6b 01 f9             	imul   $0xfffffff9,(%ecx),%eax
    2168:	0d 00 00 03 bf       	or     $0xbf030000,%eax
    216d:	0a 53 00             	or     0x0(%ebx),%dl
    2170:	00 00                	add    %al,(%eax)
    2172:	6c                   	insb   (%dx),%es:(%edi)
    2173:	01 e0                	add    %esp,%eax
    2175:	0f 00 00             	sldt   (%eax)
    2178:	03 c1                	add    %ecx,%eax
    217a:	0b 66 00             	or     0x0(%esi),%esp
    217d:	00 00                	add    %al,(%eax)
    217f:	6d                   	insl   (%dx),%es:(%edi)
    2180:	01 f8                	add    %edi,%eax
    2182:	0b 00                	or     (%eax),%eax
    2184:	00 03                	add    %al,(%ebx)
    2186:	c2 0a 53             	ret    $0x530a
    2189:	00 00                	add    %al,(%eax)
    218b:	00 6f 01             	add    %ch,0x1(%edi)
    218e:	a6                   	cmpsb  %es:(%edi),%ds:(%esi)
    218f:	04 00                	add    $0x0,%al
    2191:	00 03                	add    %al,(%ebx)
    2193:	c3                   	ret
    2194:	0b 79 00             	or     0x0(%ecx),%edi
    2197:	00 00                	add    %al,(%eax)
    2199:	70 01                	jo     219c <SEG_KERN_CS+0x2194>
    219b:	cc                   	int3
    219c:	0c 00                	or     $0x0,%al
    219e:	00 03                	add    %al,(%ebx)
    21a0:	c5 15 97 02 00 00    	lds    0x297,%edx
    21a6:	74 01                	je     21a9 <SEG_KERN_CS+0x21a1>
    21a8:	08 10                	or     %dl,(%eax)
    21aa:	00 00                	add    %al,(%eax)
    21ac:	03 c7                	add    %edi,%eax
    21ae:	0a 53 00             	or     0x0(%ebx),%dl
    21b1:	00 00                	add    %al,(%eax)
    21b3:	79 01                	jns    21b6 <SEG_KERN_CS+0x21ae>
    21b5:	74 0f                	je     21c6 <SEG_KERN_CS+0x21be>
    21b7:	00 00                	add    %al,(%eax)
    21b9:	03 c8                	add    %eax,%ecx
    21bb:	0a 27                	or     (%edi),%ah
    21bd:	01 00                	add    %eax,(%eax)
    21bf:	00 7a 01             	add    %bh,0x1(%edx)
    21c2:	dc 0e                	fmull  (%esi)
    21c4:	00 00                	add    %al,(%eax)
    21c6:	03 c9                	add    %ecx,%ecx
    21c8:	0b 8c 00 00 00 7d 01 	or     0x17d0000(%eax,%eax,1),%ecx
    21cf:	73 0d                	jae    21de <SEG_KERN_CS+0x21d6>
    21d1:	00 00                	add    %al,(%eax)
    21d3:	03 ca                	add    %edx,%ecx
    21d5:	0b 8c 00 00 00 85 01 	or     0x1850000(%eax,%eax,1),%ecx
    21dc:	fa                   	cli
    21dd:	0f 00 00             	sldt   (%eax)
    21e0:	03 cc                	add    %esp,%ecx
    21e2:	15 97 02 00 00       	adc    $0x297,%eax
    21e7:	8d 01                	lea    (%ecx),%eax
    21e9:	5f                   	pop    %edi
    21ea:	0b 00                	or     (%eax),%eax
    21ec:	00 03                	add    %al,(%ebx)
    21ee:	cd 15                	int    $0x15
    21f0:	97                   	xchg   %eax,%edi
    21f1:	02 00                	add    (%eax),%al
    21f3:	00 92 01 a6 0d 00    	add    %dl,0xda601(%edx)
    21f9:	00 03                	add    %al,(%ebx)
    21fb:	ce                   	into
    21fc:	15 97 02 00 00       	adc    $0x297,%eax
    2201:	97                   	xchg   %eax,%edi
    2202:	01 d7                	add    %edx,%edi
    2204:	0d 00 00 03 cf       	or     $0xcf030000,%eax
    2209:	15 97 02 00 00       	adc    $0x297,%eax
    220e:	9c                   	pushf
    220f:	01 ec                	add    %ebp,%esp
    2211:	0d 00 00 03 d0       	or     $0xd0030000,%eax
    2216:	15 97 02 00 00       	adc    $0x297,%eax
    221b:	a1 01 42 0f 00       	mov    0xf4201,%eax
    2220:	00 03                	add    %al,(%ebx)
    2222:	d1 15 97 02 00 00    	rcll   $1,0x297
    2228:	a6                   	cmpsb  %es:(%edi),%ds:(%esi)
    2229:	01 c2                	add    %eax,%edx
    222b:	0c 00                	or     $0x0,%al
    222d:	00 03                	add    %al,(%ebx)
    222f:	d2 15 97 02 00 00    	rclb   %cl,0x297
    2235:	ab                   	stos   %eax,%es:(%edi)
    2236:	01 44 0e 00          	add    %eax,0x0(%esi,%ecx,1)
    223a:	00 03                	add    %al,(%ebx)
    223c:	d3 15 97 02 00 00    	rcll   %cl,0x297
    2242:	b0 00                	mov    $0x0,%al
    2244:	03 b0 0c 00 00 03    	add    0x300000c(%eax),%esi
    224a:	d7                   	xlat   %ds:(%ebx)
    224b:	24 a3                	and    $0xa3,%al
    224d:	02 00                	add    (%eax),%al
    224f:	00 18                	add    %bl,(%eax)
    2251:	08 04 3d 09 81 05 00 	or     %al,0x58109(,%edi,1)
    2258:	00 01                	add    %al,(%ecx)
    225a:	e0 0b                	loopne 2267 <SEG_KERN_CS+0x225f>
    225c:	00 00                	add    %al,(%eax)
    225e:	04 3e                	add    $0x3e,%al
    2260:	18 81 05 00 00 00    	sbb    %al,0x5(%ecx)
    2266:	01 e5                	add    %esp,%ebp
    2268:	0d 00 00 04 3f       	or     $0x3f040000,%eax
    226d:	0e                   	push   %cs
    226e:	86 05 00 00 04 00    	xchg   %al,0x40000
    2274:	05 32 02 00 00       	add    $0x232,%eax
    2279:	05 53 00 00 00       	add    $0x53,%eax
    227e:	03 99 0c 00 00 04    	add    0x400000c(%ecx),%ebx
    2284:	40                   	inc    %eax
    2285:	03 5d 05             	add    0x5(%ebp),%ebx
    2288:	00 00                	add    %al,(%eax)
    228a:	0a b4 0d 00 00 07 79 	or     0x79070000(%ebp,%ecx,1),%dh
    2291:	00 00                	add    %al,(%eax)
    2293:	00 05 03 4c 24 41    	add    %al,0x41244c03
    2299:	f0 0a 01             	lock or (%ecx),%al
    229c:	0e                   	push   %cs
    229d:	00 00                	add    %al,(%eax)
    229f:	08 79 00             	or     %bh,0x0(%ecx)
    22a2:	00 00                	add    %al,(%eax)
    22a4:	05 03 50 24 41       	add    $0x41245003,%eax
    22a9:	f0 0a e2             	lock or %dl,%ah
    22ac:	0e                   	push   %cs
    22ad:	00 00                	add    %al,(%eax)
    22af:	0a 66 00             	or     0x0(%esi),%ah
    22b2:	00 00                	add    %al,(%eax)
    22b4:	05 03 54 24 41       	add    $0x41245403,%eax
    22b9:	f0 0a a2 0e 00 00 0b 	lock or 0xb00000e(%edx),%ah
    22c0:	66 00 00             	data16 add %al,(%eax)
    22c3:	00 05 03 56 24 41    	add    %al,0x41245603
    22c9:	f0 0a b3 0f 00 00 0c 	lock or 0xc00000f(%ebx),%dh
    22d0:	66 00 00             	data16 add %al,(%eax)
    22d3:	00 05 03 58 24 41    	add    %al,0x41245803
    22d9:	f0 0a 30             	lock or (%eax),%dh
    22dc:	0f 00 00             	sldt   (%eax)
    22df:	0d 66 00 00 00       	or     $0x66,%eax
    22e4:	05 03 5a 24 41       	add    $0x41245a03,%eax
    22e9:	f0 13 55 00          	lock adc 0x0(%ebp),%edx
    22ed:	00 00                	add    %al,(%eax)
    22ef:	05 0a 06 13 06       	add    $0x613060a,%eax
    22f4:	00 00                	add    %al,(%eax)
    22f6:	07                   	pop    %es
    22f7:	13 06                	adc    (%esi),%eax
    22f9:	00 00                	add    %al,(%eax)
    22fb:	07                   	pop    %es
    22fc:	15 06 00 00 07       	adc    $0x7000006,%eax
    2301:	9f                   	lahf
    2302:	00 00                	add    %al,(%eax)
    2304:	00 00                	add    %al,(%eax)
    2306:	19 04 05 1a 06 00 00 	sbb    %eax,0x61a(,%eax,1)
    230d:	1a 13                	sbb    (%ebx),%dl
    230f:	30 0c 00             	xor    %cl,(%eax,%eax,1)
    2312:	00 06                	add    %al,(%esi)
    2314:	2e 0d 32 06 00 00    	cs or  $0x632,%eax
    231a:	07                   	pop    %es
    231b:	79 00                	jns    231d <SEG_KERN_CS+0x2315>
    231d:	00 00                	add    %al,(%eax)
    231f:	07                   	pop    %es
    2320:	79 00                	jns    2322 <SEG_KERN_CS+0x231a>
    2322:	00 00                	add    %al,(%eax)
    2324:	00 1b                	add    %bl,(%ebx)
    2326:	e5 0b                	in     $0xb,%eax
    2328:	00 00                	add    %al,(%eax)
    232a:	05 0c 09 39 00       	add    $0x39090c,%eax
    232f:	00 00                	add    %al,(%eax)
    2331:	52                   	push   %edx
    2332:	06                   	push   %es
    2333:	00 00                	add    %al,(%eax)
    2335:	07                   	pop    %es
    2336:	15 06 00 00 07       	adc    $0x7000006,%eax
    233b:	15 06 00 00 07       	adc    $0x7000006,%eax
    2340:	9f                   	lahf
    2341:	00 00                	add    %al,(%eax)
    2343:	00 00                	add    %al,(%eax)
    2345:	1c 42                	sbb    $0x42,%al
    2347:	0c 00                	or     $0x0,%al
    2349:	00 01                	add    %al,(%ecx)
    234b:	2b 01                	sub    (%ecx),%eax
    234d:	09 53 00             	or     %edx,0x0(%ebx)
    2350:	00 00                	add    %al,(%eax)
    2352:	e0 6c                	loopne 23c0 <SEG_KERN_CS+0x23b8>
    2354:	40                   	inc    %eax
    2355:	f0 86 00             	lock xchg %al,(%eax)
    2358:	00 00                	add    %al,(%eax)
    235a:	01 9c c9 06 00 00 0c 	add    %ebx,0xc000006(%ecx,%ecx,8)
    2361:	92                   	xchg   %eax,%edx
    2362:	0f 00 00             	sldt   (%eax)
    2365:	2b 01                	sub    (%ecx),%eax
    2367:	36 c9                	ss leave
    2369:	06                   	push   %es
    236a:	00 00                	add    %al,(%eax)
    236c:	02 91 00 0c 72 0c    	add    0xc720c00(%ecx),%dl
    2372:	00 00                	add    %al,(%eax)
    2374:	2b 01                	sub    (%ecx),%eax
    2376:	55                   	push   %ebp
    2377:	ce                   	into
    2378:	06                   	push   %es
    2379:	00 00                	add    %al,(%eax)
    237b:	02 91 04 1d e0 0b    	add    0xbe01d04(%ecx),%dl
    2381:	00 00                	add    %al,(%eax)
    2383:	01 30                	add    %esi,(%eax)
    2385:	01 18                	add    %ebx,(%eax)
    2387:	81 05 00 00 02 91 74 	addl   $0x656c1174,0x91020000
    238e:	11 6c 65 
    2391:	6e                   	outsb  %ds:(%esi),(%dx)
    2392:	00 31                	add    %dh,(%ecx)
    2394:	01 0e                	add    %ecx,(%esi)
    2396:	79 00                	jns    2398 <SEG_KERN_CS+0x2390>
    2398:	00 00                	add    %al,(%eax)
    239a:	02 91 70 11 65 6e    	add    0x6e651170(%ecx),%dl
    23a0:	64 00 32             	add    %dh,%fs:(%edx)
    23a3:	01 0e                	add    %ecx,(%esi)
    23a5:	86 05 00 00 02 91    	xchg   %al,0x91020000
    23ab:	6c                   	insb   (%dx),%es:(%edi)
    23ac:	11 6e 6f             	adc    %ebp,0x6f(%esi)
    23af:	77 00                	ja     23b1 <SEG_KERN_CS+0x23a9>
    23b1:	38 01                	cmp    %al,(%ecx)
    23b3:	1d d3 06 00 00       	sbb    $0x6d3,%eax
    23b8:	02 91 68 00 05 8b    	add    -0x74faff98(%ecx),%dl
    23be:	05 00 00 05 d3       	add    $0xd3050000,%eax
    23c3:	06                   	push   %es
    23c4:	00 00                	add    %al,(%eax)
    23c6:	05 3e 02 00 00       	add    $0x23e,%eax
    23cb:	1e                   	push   %ds
    23cc:	10 0c 00             	adc    %cl,(%eax,%eax,1)
    23cf:	00 01                	add    %al,(%ecx)
    23d1:	1e                   	push   %ds
    23d2:	01 06                	add    %eax,(%esi)
    23d4:	99                   	cltd
    23d5:	6c                   	insb   (%dx),%es:(%edi)
    23d6:	40                   	inc    %eax
    23d7:	f0 47                	lock inc %edi
    23d9:	00 00                	add    %al,(%eax)
    23db:	00 01                	add    %al,(%ecx)
    23dd:	9c                   	pushf
    23de:	0e                   	push   %cs
    23df:	07                   	pop    %es
    23e0:	00 00                	add    %al,(%eax)
    23e2:	0c 92                	or     $0x92,%al
    23e4:	0f 00 00             	sldt   (%eax)
    23e7:	1e                   	push   %ds
    23e8:	01 36                	add    %esi,(%esi)
    23ea:	c9                   	leave
    23eb:	06                   	push   %es
    23ec:	00 00                	add    %al,(%eax)
    23ee:	02 91 00 0c e0 0b    	add    0xbe00c00(%ecx),%dl
    23f4:	00 00                	add    %al,(%eax)
    23f6:	1e                   	push   %ds
    23f7:	01 4f 81             	add    %ecx,-0x7f(%edi)
    23fa:	05 00 00 02 91       	add    $0x91020000,%eax
    23ff:	04 00                	add    $0x0,%al
    2401:	14 06                	adc    $0x6,%al
    2403:	0f 00 00             	sldt   (%eax)
    2406:	1a 01                	sbb    (%ecx),%al
    2408:	23 07                	and    (%edi),%eax
    240a:	00 00                	add    %al,(%eax)
    240c:	81 6c 40 f0 18 00 00 	subl   $0x18,-0x10(%eax,%eax,2)
    2413:	00 
    2414:	01 9c 05 51 05 00 00 	add    %ebx,0x551(%ebp,%eax,1)
    241b:	14 d0                	adc    $0xd0,%al
    241d:	0b 00                	or     (%eax),%eax
    241f:	00 16                	add    %dl,(%esi)
    2421:	01 81 05 00 00 69    	add    %eax,0x69000005(%ecx)
    2427:	6c                   	insb   (%dx),%es:(%edi)
    2428:	40                   	inc    %eax
    2429:	f0 18 00             	lock sbb %al,(%eax)
    242c:	00 00                	add    %al,(%eax)
    242e:	01 9c 1f 7d 0c 00 00 	add    %ebx,0xc7d(%edi,%ebx,1)
    2435:	01 0c 01             	add    %ecx,(%ecx,%eax,1)
    2438:	13 68 07             	adc    0x7(%eax),%ebp
    243b:	00 00                	add    %al,(%eax)
    243d:	3d 6c 40 f0 2c       	cmp    $0x2cf0406c,%eax
    2442:	00 00                	add    %al,(%eax)
    2444:	00 01                	add    %al,(%ecx)
    2446:	9c                   	pushf
    2447:	68 07 00 00 0c       	push   $0xc000007
    244c:	f1                   	int1
    244d:	0e                   	push   %cs
    244e:	00 00                	add    %al,(%eax)
    2450:	0c 01                	or     $0x1,%al
    2452:	35 6d 07 00 00       	xor    $0x76d,%eax
    2457:	02 91 00 00 05 cf    	add    -0x30fb0000(%ecx),%dl
    245d:	01 00                	add    %eax,(%eax)
    245f:	00 05 2d 00 00 00    	add    %al,0x2d
    2465:	0f 7a                	(bad)
    2467:	0f 00 00             	sldt   (%eax)
    246a:	f6 13                	notb   (%ebx)
    246c:	68 07 00 00 a3       	push   $0xa3000007
    2471:	6b 40 f0 9a          	imul   $0xffffff9a,-0x10(%eax),%eax
    2475:	00 00                	add    %al,(%eax)
    2477:	00 01                	add    %al,(%ecx)
    2479:	9c                   	pushf
    247a:	00 08                	add    %cl,(%eax)
    247c:	00 00                	add    %al,(%eax)
    247e:	12 73 64             	adc    0x64(%ebx),%dh
    2481:	74 00                	je     2483 <SEG_KERN_CS+0x247b>
    2483:	f6 3d 68 07 00 00    	idivb  0x768
    2489:	02 91 00 0b f1 0e    	add    0xef10b00(%ecx),%dl
    248f:	00 00                	add    %al,(%eax)
    2491:	f6 4e 6d 07          	testb  $0x7,0x6d(%esi)
    2495:	00 00                	add    %al,(%eax)
    2497:	02 91 04 04 6d 0e    	add    0xe6d0404(%ecx),%dl
    249d:	00 00                	add    %al,(%eax)
    249f:	f7 0e 86 05 00 00    	testl  $0x586,(%esi)
    24a5:	02 91 64 04 4e 0f    	add    0xf4e0464(%ecx),%dl
    24ab:	00 00                	add    %al,(%eax)
    24ad:	f8                   	clc
    24ae:	0e                   	push   %cs
    24af:	79 00                	jns    24b1 <SEG_KERN_CS+0x24a9>
    24b1:	00 00                	add    %al,(%eax)
    24b3:	02 91 60 10 cb 6b    	add    0x6bcb1060(%ecx),%dl
    24b9:	40                   	inc    %eax
    24ba:	f0 6b 00 00          	lock imul $0x0,(%eax),%eax
    24be:	00 08                	add    %cl,(%eax)
    24c0:	69 00 fa 13 79 00    	imul   $0x7913fa,(%eax),%eax
    24c6:	00 00                	add    %al,(%eax)
    24c8:	02 91 6c 10 d4 6b    	add    0x6bd4106c(%ecx),%dl
    24ce:	40                   	inc    %eax
    24cf:	f0 56                	lock push %esi
    24d1:	00 00                	add    %al,(%eax)
    24d3:	00 04 06             	add    %al,(%esi,%eax,1)
    24d6:	0c 00                	or     $0x0,%al
    24d8:	00 fb                	add    %bh,%bl
    24da:	12 86 05 00 00 02    	adc    0x2000005(%esi),%al
    24e0:	91                   	xchg   %eax,%ecx
    24e1:	5c                   	pop    %esp
    24e2:	04 8d                	add    $0x8d,%al
    24e4:	0c 00                	or     $0x0,%al
    24e6:	00 fc                	add    %bh,%ah
    24e8:	1b 68 07             	sbb    0x7(%eax),%ebp
    24eb:	00 00                	add    %al,(%eax)
    24ed:	02 91 68 00 00 00    	add    0x68(%ecx),%dl
    24f3:	20 ba 0b 00 00 01    	and    %bh,0x100000b(%edx)
    24f9:	eb 09                	jmp    2504 <SEG_KERN_CS+0x24fc>
    24fb:	53                   	push   %ebx
    24fc:	00 00                	add    %al,(%eax)
    24fe:	00 3f                	add    %bh,(%edi)
    2500:	6b 40 f0 64          	imul   $0x64,-0x10(%eax),%eax
    2504:	00 00                	add    %al,(%eax)
    2506:	00 01                	add    %al,(%ecx)
    2508:	9c                   	pushf
    2509:	29 08                	sub    %ecx,(%eax)
    250b:	00 00                	add    %al,(%eax)
    250d:	08 68 64             	or     %ch,0x64(%eax)
    2510:	72 00                	jb     2512 <SEG_KERN_CS+0x250a>
    2512:	ec                   	in     (%dx),%al
    2513:	17                   	pop    %ss
    2514:	68 07 00 00 02       	push   $0x2000007
    2519:	91                   	xchg   %eax,%ecx
    251a:	6c                   	insb   (%dx),%es:(%edi)
    251b:	00 0f                	add    %cl,(%edi)
    251d:	1b 0f                	sbb    (%edi),%ecx
    251f:	00 00                	add    %al,(%eax)
    2521:	d4 07                	aam    $0x7
    2523:	13 06                	adc    (%esi),%eax
    2525:	00 00                	add    %al,(%eax)
    2527:	b5 6a                	mov    $0x6a,%ch
    2529:	40                   	inc    %eax
    252a:	f0 8a 00             	lock mov (%eax),%al
    252d:	00 00                	add    %al,(%eax)
    252f:	01 9c 6d 08 00 00 0b 	add    %ebx,0xb000008(%ebp,%ebp,2)
    2536:	9d                   	popf
    2537:	0b 00                	or     (%eax),%eax
    2539:	00 d4                	add    %dl,%ah
    253b:	25 86 05 00 00       	and    $0x586,%eax
    2540:	02 91 00 04 21 0e    	add    0xe210400(%ecx),%dl
    2546:	00 00                	add    %al,(%eax)
    2548:	d5 0e                	aad    $0xe
    254a:	66 00 00             	data16 add %al,(%eax)
    254d:	00 02                	add    %al,(%edx)
    254f:	91                   	xchg   %eax,%ecx
    2550:	6a 04                	push   $0x4
    2552:	57                   	push   %edi
    2553:	0c 00                	or     $0x0,%al
    2555:	00 d6                	add    %dl,%dh
    2557:	0b 13                	or     (%ebx),%edx
    2559:	06                   	push   %es
    255a:	00 00                	add    %al,(%eax)
    255c:	02 91 6c 00 0f 4e    	add    0x4e0f006c(%ecx),%dl
    2562:	0e                   	push   %cs
    2563:	00 00                	add    %al,(%eax)
    2565:	bd 07 13 06 00       	mov    $0x61307,%ebp
    256a:	00 3b                	add    %bh,(%ebx)
    256c:	6a 40                	push   $0x40
    256e:	f0 7a 00             	lock jp 2571 <SEG_KERN_CS+0x2569>
    2571:	00 00                	add    %al,(%eax)
    2573:	01 9c ed 08 00 00 0b 	add    %ebx,0xb000008(%ebp,%ebp,8)
    257a:	9d                   	popf
    257b:	0b 00                	or     (%eax),%eax
    257d:	00 be 0e 86 05 00    	add    %bh,0x5860e(%esi)
    2583:	00 02                	add    %al,(%edx)
    2585:	91                   	xchg   %eax,%ecx
    2586:	00 0b                	add    %cl,(%ebx)
    2588:	93                   	xchg   %eax,%ebx
    2589:	0c 00                	or     $0x0,%al
    258b:	00 be 20 79 00 00    	add    %bh,0x7920(%esi)
    2591:	00 02                	add    %al,(%edx)
    2593:	91                   	xchg   %eax,%ecx
    2594:	04 12                	add    $0x12,%al
    2596:	65 6e                	outsb  %gs:(%esi),(%dx)
    2598:	64 00 be 30 79 00 00 	add    %bh,%fs:0x7930(%esi)
    259f:	00 02                	add    %al,(%edx)
    25a1:	91                   	xchg   %eax,%ecx
    25a2:	08 04 77             	or     %al,(%edi,%esi,2)
    25a5:	0c 00                	or     $0x0,%al
    25a7:	00 c4                	add    %al,%ah
    25a9:	0e                   	push   %cs
    25aa:	79 00                	jns    25ac <SEG_KERN_CS+0x25a4>
    25ac:	00 00                	add    %al,(%eax)
    25ae:	02 91 68 10 64 6a    	add    0x6a641068(%ecx),%dl
    25b4:	40                   	inc    %eax
    25b5:	f0 4a                	lock dec %edx
    25b7:	00 00                	add    %al,(%eax)
    25b9:	00 08                	add    %cl,(%eax)
    25bb:	69 00 c5 13 79 00    	imul   $0x7913c5,(%eax),%eax
    25c1:	00 00                	add    %al,(%eax)
    25c3:	02 91 6c 10 6c 6a    	add    0x6a6c106c(%ecx),%dl
    25c9:	40                   	inc    %eax
    25ca:	f0 36 00 00          	lock add %al,%ss:(%eax)
    25ce:	00 04 2b             	add    %al,(%ebx,%ebp,1)
    25d1:	0f 00 00             	sldt   (%eax)
    25d4:	c6                   	(bad)
    25d5:	1c ed                	sbb    $0xed,%al
    25d7:	08 00                	or     %al,(%eax)
    25d9:	00 02                	add    %al,(%edx)
    25db:	91                   	xchg   %eax,%ecx
    25dc:	64 00 00             	add    %al,%fs:(%eax)
    25df:	00 05 37 01 00 00    	add    %al,0x137
    25e5:	0f f6 0e             	psadbw (%esi),%mm1
    25e8:	00 00                	add    %al,(%eax)
    25ea:	ac                   	lods   %ds:(%esi),%al
    25eb:	09 53 00             	or     %edx,0x0(%ebx)
    25ee:	00 00                	add    %al,(%eax)
    25f0:	c1 69 40 f0          	shrl   $0xf0,0x40(%ecx)
    25f4:	7a 00                	jp     25f6 <SEG_KERN_CS+0x25ee>
    25f6:	00 00                	add    %al,(%eax)
    25f8:	01 9c 1a 09 00 00 0b 	add    %ebx,0xb000009(%edx,%ebx,1)
    25ff:	2b 0f                	sub    (%edi),%ecx
    2601:	00 00                	add    %al,(%eax)
    2603:	ac                   	lods   %ds:(%esi),%al
    2604:	2c ed                	sub    $0xed,%al
    2606:	08 00                	or     %al,(%eax)
    2608:	00 02                	add    %al,(%edx)
    260a:	91                   	xchg   %eax,%ecx
    260b:	00 00                	add    %al,(%eax)
    260d:	21 82 0e 00 00 01    	and    %eax,0x100000e(%edx)
    2613:	a1 09 53 00 00       	mov    0x5309,%eax
    2618:	00 8d 69 40 f0 34    	add    %cl,0x34f04069(%ebp)
    261e:	00 00                	add    %al,(%eax)
    2620:	00 01                	add    %al,(%ecx)
    2622:	9c                   	pushf
    2623:	6d                   	insl   (%dx),%es:(%edi)
    2624:	09 00                	or     %eax,(%eax)
    2626:	00 0b                	add    %cl,(%ebx)
    2628:	a3 09 00 00 a1       	mov    %eax,0xa1000009
    262d:	23 13                	and    (%ebx),%edx
    262f:	06                   	push   %es
    2630:	00 00                	add    %al,(%eax)
    2632:	02 91 00 12 6c 65    	add    0x656c1200(%ecx),%dl
    2638:	6e                   	outsb  %ds:(%esi),(%dx)
    2639:	00 a1 33 79 00 00    	add    %ah,0x7933(%ecx)
    263f:	00 02                	add    %al,(%edx)
    2641:	91                   	xchg   %eax,%ecx
    2642:	04 08                	add    $0x8,%al
    2644:	72 65                	jb     26ab <SEG_KERN_CS+0x26a3>
    2646:	74 00                	je     2648 <SEG_KERN_CS+0x2640>
    2648:	a2 0d 53 00 00       	mov    %al,0x530d
    264d:	00 02                	add    %al,(%edx)
    264f:	91                   	xchg   %eax,%ecx
    2650:	77 08                	ja     265a <SEG_KERN_CS+0x2652>
    2652:	70 74                	jo     26c8 <SEG_KERN_CS+0x26c0>
    2654:	72 00                	jb     2656 <SEG_KERN_CS+0x264e>
    2656:	a3 0e 86 05 00       	mov    %eax,0x5860e
    265b:	00 02                	add    %al,(%edx)
    265d:	91                   	xchg   %eax,%ecx
    265e:	70 00                	jo     2660 <SEG_KERN_CS+0x2658>
    2660:	22 08                	and    (%eax),%cl
    2662:	01 00                	add    %eax,(%eax)
    2664:	00 01                	add    %al,(%ecx)
    2666:	93                   	xchg   %eax,%ebx
    2667:	09 53 00             	or     %edx,0x0(%ebx)
    266a:	00 00                	add    %al,(%eax)
    266c:	19 69 40             	sbb    %ebp,0x40(%ecx)
    266f:	f0 74 00             	lock je 2672 <SEG_KERN_CS+0x266a>
    2672:	00 00                	add    %al,(%eax)
    2674:	01 9c 23 0c 0e 00 00 	add    %ebx,0xe0c(%ebx,%eiz,1)
    267b:	01 8f 09 53 00 00    	add    %ecx,0x5309(%edi)
    2681:	00 f6                	add    %dh,%dh
    2683:	68 40 f0 23 00       	push   $0x23f040
    2688:	00 00                	add    %al,(%eax)
    268a:	01 9c 24 81 0b 00 00 	add    %ebx,0xb81(%esp)
    2691:	01 44 06 81          	add    %eax,-0x7f(%esi,%eax,1)
    2695:	67 40                	addr16 inc %eax
    2697:	f0 75 01             	lock jne 269b <SEG_KERN_CS+0x2693>
    269a:	00 00                	add    %al,(%eax)
    269c:	01 9c f6 09 00 00 04 	add    %ebx,0x4000009(%esi,%esi,8)
    26a3:	16                   	push   %ss
    26a4:	0f 00 00             	sldt   (%eax)
    26a7:	45                   	inc    %ebp
    26a8:	18 23                	sbb    %ah,(%ebx)
    26aa:	07                   	pop    %es
    26ab:	00 00                	add    %al,(%eax)
    26ad:	02 91 68 04 74 0d    	add    0xd740468(%ecx),%dl
    26b3:	00 00                	add    %al,(%eax)
    26b5:	4a                   	dec    %edx
    26b6:	17                   	pop    %ss
    26b7:	68 07 00 00 02       	push   $0x2000007
    26bc:	91                   	xchg   %eax,%ecx
    26bd:	64 08 70 74          	or     %dh,%fs:0x74(%eax)
    26c1:	72 00                	jb     26c3 <SEG_KERN_CS+0x26bb>
    26c3:	4f                   	dec    %edi
    26c4:	0e                   	push   %cs
    26c5:	86 05 00 00 02 91    	xchg   %al,0x91020000
    26cb:	6c                   	insb   (%dx),%es:(%edi)
    26cc:	08 65 6e             	or     %ah,0x6e(%ebp)
    26cf:	64 00 50 0e          	add    %dl,%fs:0xe(%eax)
    26d3:	86 05 00 00 02 91    	xchg   %al,0x91020000
    26d9:	60                   	pusha
    26da:	04 93                	add    $0x93,%al
    26dc:	0c 00                	or     $0x0,%al
    26de:	00 51 0e             	add    %dl,0xe(%ecx)
    26e1:	86 05 00 00 02 91    	xchg   %al,0x91020000
    26e7:	5c                   	pop    %esp
    26e8:	00 25 d5 00 00 00    	add    %ah,0xd5
    26ee:	01 21                	add    %esp,(%ecx)
    26f0:	09 53 00             	or     %edx,0x0(%ebx)
    26f3:	00 00                	add    %al,(%eax)
    26f5:	d2 66 40             	shlb   %cl,0x40(%esi)
    26f8:	f0 af                	lock scas %es:(%edi),%eax
    26fa:	00 00                	add    %al,(%eax)
    26fc:	00 01                	add    %al,(%ecx)
    26fe:	9c                   	pushf
    26ff:	04 9d                	add    $0x9d,%al
    2701:	0b 00                	or     (%eax),%eax
    2703:	00 22                	add    %ah,(%edx)
    2705:	0d 53 00 00 00       	or     $0x53,%eax
    270a:	02 91 6b 08 70 74    	add    0x7470086b(%ecx),%dl
    2710:	72 00                	jb     2712 <SEG_KERN_CS+0x270a>
    2712:	28 0b                	sub    %cl,(%ebx)
    2714:	13 06                	adc    (%esi),%eax
    2716:	00 00                	add    %al,(%eax)
    2718:	02 91 6c 00 00 c3    	add    -0x3cffff94(%ecx),%dl
    271e:	02 00                	add    (%eax),%al
    2720:	00 05 00 01 04 61    	add    %al,0x61040100
    2726:	0f 00 00             	sldt   (%eax)
    2729:	08 9a 01 00 00 0c    	or     %bl,0xc000001(%edx)
    272f:	4f                   	dec    %edi
    2730:	02 00                	add    (%eax),%al
    2732:	00 5c 02 00          	add    %bl,0x0(%edx,%eax,1)
    2736:	00 66 6d             	add    %ah,0x6d(%esi)
    2739:	40                   	inc    %eax
    273a:	f0 24 02             	lock and $0x2,%al
    273d:	00 00                	add    %al,(%eax)
    273f:	33 0d 00 00 03 01    	xor    0x1030000,%ecx
    2745:	06                   	push   %es
    2746:	5b                   	pop    %ebx
    2747:	01 00                	add    %eax,(%eax)
    2749:	00 03                	add    %al,(%ebx)
    274b:	02 05 50 02 00 00    	add    0x250,%al
    2751:	05 7d 02 00 00       	add    $0x27d,%eax
    2756:	11 3e                	adc    %edi,(%esi)
    2758:	00 00                	add    %al,(%eax)
    275a:	00 09                	add    %cl,(%ecx)
    275c:	04 05                	add    $0x5,%al
    275e:	69 6e 74 00 03 08 05 	imul   $0x5080300,0x74(%esi),%ebp
    2765:	14 02                	adc    $0x2,%al
    2767:	00 00                	add    %al,(%eax)
    2769:	05 88 01 00 00       	add    $0x188,%eax
    276e:	13 56 00             	adc    0x0(%esi),%edx
    2771:	00 00                	add    %al,(%eax)
    2773:	03 01                	add    (%ecx),%eax
    2775:	08 52 01             	or     %dl,0x1(%edx)
    2778:	00 00                	add    %al,(%eax)
    277a:	03 02                	add    (%edx),%eax
    277c:	07                   	pop    %es
    277d:	3d 00 00 00 05       	cmp    $0x5000000,%eax
    2782:	7c 02                	jl     2786 <SEG_KERN_CS+0x277e>
    2784:	00 00                	add    %al,(%eax)
    2786:	15 6e 00 00 00       	adc    $0x6e,%eax
    278b:	03 04 07             	add    (%edi,%eax,1),%eax
    278e:	7b 01                	jnp    2791 <SEG_KERN_CS+0x2789>
    2790:	00 00                	add    %al,(%eax)
    2792:	03 08                	add    (%eax),%ecx
    2794:	07                   	pop    %es
    2795:	71 01                	jno    2798 <SEG_KERN_CS+0x2790>
    2797:	00 00                	add    %al,(%eax)
    2799:	05 ce 00 00 00       	add    $0xce,%eax
    279e:	1b 64 00 00          	sbb    0x0(%eax,%eax,1),%esp
    27a2:	00 0a                	add    %cl,(%edx)
    27a4:	e5 0b                	in     $0xb,%eax
    27a6:	00 00                	add    %al,(%eax)
    27a8:	01 42 09             	add    %eax,0x9(%edx)
    27ab:	34 00                	xor    $0x0,%al
    27ad:	00 00                	add    %al,(%eax)
    27af:	e0 6e                	loopne 281f <SEG_KERN_CS+0x2817>
    27b1:	40                   	inc    %eax
    27b2:	f0 aa                	lock stos %al,%es:(%edi)
    27b4:	00 00                	add    %al,(%eax)
    27b6:	00 01                	add    %al,(%ecx)
    27b8:	9c                   	pushf
    27b9:	58                   	pop    %eax
    27ba:	01 00                	add    %eax,(%eax)
    27bc:	00 07                	add    %al,(%edi)
    27be:	32 10                	xor    (%eax),%dl
    27c0:	00 00                	add    %al,(%eax)
    27c2:	42                   	inc    %edx
    27c3:	1d 58 01 00 00       	sbb    $0x158,%eax
    27c8:	02 91 00 07 1f 10    	add    0x101f0700(%ecx),%dl
    27ce:	00 00                	add    %al,(%eax)
    27d0:	42                   	inc    %edx
    27d1:	2f                   	das
    27d2:	58                   	pop    %eax
    27d3:	01 00                	add    %eax,(%eax)
    27d5:	00 02                	add    %al,(%edx)
    27d7:	91                   	xchg   %eax,%ecx
    27d8:	04 02                	add    $0x2,%al
    27da:	6c                   	insb   (%dx),%es:(%edi)
    27db:	65 6e                	outsb  %gs:(%esi),(%dx)
    27dd:	00 42 3d             	add    %al,0x3d(%edx)
    27e0:	7c 00                	jl     27e2 <SEG_KERN_CS+0x27da>
    27e2:	00 00                	add    %al,(%eax)
    27e4:	02 91 08 01 2e 10    	add    0x102e0108(%ecx),%dl
    27ea:	00 00                	add    %al,(%eax)
    27ec:	43                   	inc    %ebx
    27ed:	0e                   	push   %cs
    27ee:	5e                   	pop    %esi
    27ef:	01 00                	add    %eax,(%eax)
    27f1:	00 02                	add    %al,(%edx)
    27f3:	91                   	xchg   %eax,%ecx
    27f4:	74 01                	je     27f7 <SEG_KERN_CS+0x27ef>
    27f6:	1b 10                	sbb    (%eax),%edx
    27f8:	00 00                	add    %al,(%eax)
    27fa:	44                   	inc    %esp
    27fb:	0e                   	push   %cs
    27fc:	5e                   	pop    %esi
    27fd:	01 00                	add    %eax,(%eax)
    27ff:	00 02                	add    %al,(%edx)
    2801:	91                   	xchg   %eax,%ecx
    2802:	70 04                	jo     2808 <SEG_KERN_CS+0x2800>
    2804:	64 76 00             	fs jbe 2807 <SEG_KERN_CS+0x27ff>
    2807:	45                   	inc    %ebp
    2808:	0d 34 00 00 00       	or     $0x34,%eax
    280d:	02 91 64 01 37 10    	add    0x10370164(%ecx),%dl
    2813:	00 00                	add    %al,(%eax)
    2815:	51                   	push   %ecx
    2816:	0e                   	push   %cs
    2817:	63 01                	arpl   %eax,(%ecx)
    2819:	00 00                	add    %al,(%eax)
    281b:	02 91 6c 01 47 10    	add    0x1047016c(%ecx),%dl
    2821:	00 00                	add    %al,(%eax)
    2823:	52                   	push   %edx
    2824:	0e                   	push   %cs
    2825:	63 01                	arpl   %eax,(%ecx)
    2827:	00 00                	add    %al,(%eax)
    2829:	02 91 68 0b 0c 00    	add    0xc0b68(%ecx),%dl
    282f:	00 00                	add    %al,(%eax)
    2831:	33 01                	xor    (%ecx),%eax
    2833:	00 00                	add    %al,(%eax)
    2835:	04 76                	add    $0x76,%al
    2837:	6c                   	insb   (%dx),%es:(%edi)
    2838:	00 48 11             	add    %cl,0x11(%eax)
    283b:	34 00                	xor    $0x0,%al
    283d:	00 00                	add    %al,(%eax)
    283f:	02 91 60 04 76 72    	add    0x72760460(%ecx),%dl
    2845:	00 49 11             	add    %cl,0x11(%ecx)
    2848:	34 00                	xor    $0x0,%al
    284a:	00 00                	add    %al,(%eax)
    284c:	02 91 5c 00 0c 41    	add    0x410c005c(%ecx),%dl
    2852:	6f                   	outsl  %ds:(%esi),(%dx)
    2853:	40                   	inc    %eax
    2854:	f0 3c 00             	lock cmp $0x0,%al
    2857:	00 00                	add    %al,(%eax)
    2859:	04 76                	add    $0x76,%al
    285b:	6c                   	insb   (%dx),%es:(%edi)
    285c:	00 55 11             	add    %dl,0x11(%ebp)
    285f:	34 00                	xor    $0x0,%al
    2861:	00 00                	add    %al,(%eax)
    2863:	02 91 58 04 76 72    	add    0x72760458(%ecx),%dl
    2869:	00 56 11             	add    %dl,0x11(%esi)
    286c:	34 00                	xor    $0x0,%al
    286e:	00 00                	add    %al,(%eax)
    2870:	02 91 54 00 00 06    	add    0x6000054(%ecx),%dl
    2876:	5d                   	pop    %ebp
    2877:	01 00                	add    %eax,(%eax)
    2879:	00 0d 06 34 00 00    	add    %cl,0x3406
    287f:	00 06                	add    %al,(%esi)
    2881:	4c                   	dec    %esp
    2882:	00 00                	add    %al,(%eax)
    2884:	00 0e                	add    %cl,(%esi)
    2886:	25 10 00 00 01       	and    $0x1000010,%eax
    288b:	29 06                	sub    %eax,(%esi)
    288d:	55                   	push   %ebp
    288e:	6e                   	outsb  %ds:(%esi),(%dx)
    288f:	40                   	inc    %eax
    2890:	f0 8b 00             	lock mov (%eax),%eax
    2893:	00 00                	add    %al,(%eax)
    2895:	01 9c e1 01 00 00 02 	add    %ebx,0x2000001(%ecx,%eiz,8)
    289c:	64 73 74             	fs jae 2913 <SEG_KERN_CS+0x290b>
    289f:	00 29                	add    %ch,(%ecx)
    28a1:	15 e1 01 00 00       	adc    $0x1e1,%eax
    28a6:	02 91 00 02 73 72    	add    0x72730200(%ecx),%dl
    28ac:	63 00                	arpl   %eax,(%eax)
    28ae:	29 26                	sub    %esp,(%esi)
    28b0:	58                   	pop    %eax
    28b1:	01 00                	add    %eax,(%eax)
    28b3:	00 02                	add    %al,(%edx)
    28b5:	91                   	xchg   %eax,%ecx
    28b6:	04 02                	add    $0x2,%al
    28b8:	6c                   	insb   (%dx),%es:(%edi)
    28b9:	65 6e                	outsb  %gs:(%esi),(%dx)
    28bb:	00 29                	add    %ch,(%ecx)
    28bd:	32 7c 00 00          	xor    0x0(%eax,%eax,1),%bh
    28c1:	00 02                	add    %al,(%edx)
    28c3:	91                   	xchg   %eax,%ecx
    28c4:	08 01                	or     %al,(%ecx)
    28c6:	3f                   	aas
    28c7:	10 00                	adc    %al,(%eax)
    28c9:	00 33                	add    %dh,(%ebx)
    28cb:	0f e3 01             	pavgw  (%ecx),%mm0
    28ce:	00 00                	add    %al,(%eax)
    28d0:	02 91 74 01 5e 10    	add    0x105e0174(%ecx),%dl
    28d6:	00 00                	add    %al,(%eax)
    28d8:	34 0f                	xor    $0xf,%al
    28da:	e3 01                	jecxz  28dd <SEG_KERN_CS+0x28d5>
    28dc:	00 00                	add    %al,(%eax)
    28de:	02 91 70 01 57 10    	add    0x10570170(%ecx),%dl
    28e4:	00 00                	add    %al,(%eax)
    28e6:	3a 0e                	cmp    (%esi),%cl
    28e8:	63 01                	arpl   %eax,(%ecx)
    28ea:	00 00                	add    %al,(%eax)
    28ec:	02 91 6c 01 14 10    	add    0x1014016c(%ecx),%dl
    28f2:	00 00                	add    %al,(%eax)
    28f4:	3b 0e                	cmp    (%esi),%ecx
    28f6:	63 01                	arpl   %eax,(%ecx)
    28f8:	00 00                	add    %al,(%eax)
    28fa:	02 91 68 00 0f 04    	add    0x40f0068(%ecx),%dl
    2900:	06                   	push   %es
    2901:	64 00 00             	add    %al,%fs:(%eax)
    2904:	00 10                	add    %dl,(%eax)
    2906:	55                   	push   %ebp
    2907:	00 00                	add    %al,(%eax)
    2909:	00 01                	add    %al,(%ecx)
    290b:	17                   	pop    %ss
    290c:	06                   	push   %es
    290d:	ee                   	out    %al,(%dx)
    290e:	6d                   	insl   (%dx),%es:(%edi)
    290f:	40                   	inc    %eax
    2910:	f0 67 00 00          	lock add %al,(%bx,%si)
    2914:	00 01                	add    %al,(%ecx)
    2916:	9c                   	pushf
    2917:	61                   	popa
    2918:	02 00                	add    (%eax),%al
    291a:	00 02                	add    %al,(%edx)
    291c:	64 73 74             	fs jae 2993 <SEG_KERN_CS+0x298b>
    291f:	00 17                	add    %dl,(%edi)
    2921:	14 e1                	adc    $0xe1,%al
    2923:	01 00                	add    %eax,(%eax)
    2925:	00 02                	add    %al,(%edx)
    2927:	91                   	xchg   %eax,%ecx
    2928:	00 02                	add    %al,(%edx)
    292a:	73 72                	jae    299e <SEG_KERN_CS+0x2996>
    292c:	63 00                	arpl   %eax,(%eax)
    292e:	17                   	pop    %ss
    292f:	25 58 01 00 00       	and    $0x158,%eax
    2934:	02 91 04 02 6c 65    	add    0x656c0204(%ecx),%dl
    293a:	6e                   	outsb  %ds:(%esi),(%dx)
    293b:	00 17                	add    %dl,(%edi)
    293d:	31 7c 00 00          	xor    %edi,0x0(%eax,%eax,1)
    2941:	00 02                	add    %al,(%edx)
    2943:	91                   	xchg   %eax,%ecx
    2944:	08 01                	or     %al,(%ecx)
    2946:	3f                   	aas
    2947:	10 00                	adc    %al,(%eax)
    2949:	00 18                	add    %bl,(%eax)
    294b:	0f e3 01             	pavgw  (%ecx),%mm0
    294e:	00 00                	add    %al,(%eax)
    2950:	02 91 74 01 5e 10    	add    0x105e0174(%ecx),%dl
    2956:	00 00                	add    %al,(%eax)
    2958:	19 0f                	sbb    %ecx,(%edi)
    295a:	e3 01                	jecxz  295d <SEG_KERN_CS+0x2955>
    295c:	00 00                	add    %al,(%eax)
    295e:	02 91 70 01 57 10    	add    0x10570170(%ecx),%dl
    2964:	00 00                	add    %al,(%eax)
    2966:	20 0e                	and    %cl,(%esi)
    2968:	63 01                	arpl   %eax,(%ecx)
    296a:	00 00                	add    %al,(%eax)
    296c:	02 91 6c 01 14 10    	add    0x1014016c(%ecx),%dl
    2972:	00 00                	add    %al,(%eax)
    2974:	21 0e                	and    %ecx,(%esi)
    2976:	63 01                	arpl   %eax,(%ecx)
    2978:	00 00                	add    %al,(%eax)
    297a:	02 91 68 00 11 71    	add    0x71110068(%ecx),%dl
    2980:	04 00                	add    $0x0,%al
    2982:	00 01                	add    %al,(%ecx)
    2984:	03 06                	add    (%esi),%eax
    2986:	66 6d                	insw   (%dx),%es:(%edi)
    2988:	40                   	inc    %eax
    2989:	f0 88 00             	lock mov %al,(%eax)
    298c:	00 00                	add    %al,(%eax)
    298e:	01 9c 02 64 73 74 00 	add    %ebx,0x747364(%edx,%eax,1)
    2995:	03 14 e1             	add    (%ecx,%eiz,8),%edx
    2998:	01 00                	add    %eax,(%eax)
    299a:	00 02                	add    %al,(%edx)
    299c:	91                   	xchg   %eax,%ecx
    299d:	00 02                	add    %al,(%edx)
    299f:	76 61                	jbe    2a02 <SEG_KERN_CS+0x29fa>
    29a1:	6c                   	insb   (%dx),%es:(%edi)
    29a2:	00 03                	add    %al,(%ebx)
    29a4:	21 4c 00 00          	and    %ecx,0x0(%eax,%eax,1)
    29a8:	00 02                	add    %al,(%edx)
    29aa:	91                   	xchg   %eax,%ecx
    29ab:	64 02 6c 65 6e       	add    %fs:0x6e(%ebp,%eiz,2),%ch
    29b0:	00 03                	add    %al,(%ebx)
    29b2:	2d 7c 00 00 00       	sub    $0x7c,%eax
    29b7:	02 91 08 01 66 10    	add    0x10660108(%ecx),%dl
    29bd:	00 00                	add    %al,(%eax)
    29bf:	04 0e                	add    $0xe,%al
    29c1:	64 00 00             	add    %al,%fs:(%eax)
    29c4:	00 02                	add    %al,(%edx)
    29c6:	91                   	xchg   %eax,%ecx
    29c7:	6c                   	insb   (%dx),%es:(%edi)
    29c8:	01 50 10             	add    %edx,0x10(%eax)
    29cb:	00 00                	add    %al,(%eax)
    29cd:	0b 0e                	or     (%esi),%ecx
    29cf:	63 01                	arpl   %eax,(%ecx)
    29d1:	00 00                	add    %al,(%eax)
    29d3:	02 91 70 04 69 00    	add    0x690470(%ecx),%dl
    29d9:	0c 0c                	or     $0xc,%al
    29db:	7c 00                	jl     29dd <SEG_KERN_CS+0x29d5>
    29dd:	00 00                	add    %al,(%eax)
    29df:	02 91 74 00 00 93    	add    -0x6cffff8c(%ecx),%dl
    29e5:	00 00                	add    %al,(%eax)
    29e7:	00 05 00 01 04 78    	add    %al,0x78040100
    29ed:	10 00                	adc    %al,(%eax)
    29ef:	00 02                	add    %al,(%edx)
    29f1:	6e                   	outsb  %ds:(%esi),(%dx)
    29f2:	10 00                	adc    %al,(%eax)
    29f4:	00 21                	add    %ah,(%ecx)
    29f6:	8d 02                	lea    (%edx),%eax
    29f8:	00 00                	add    %al,(%eax)
    29fa:	77 02                	ja     29fe <SEG_KERN_CS+0x29f6>
    29fc:	00 00                	add    %al,(%eax)
    29fe:	8a 6f 40             	mov    0x40(%edi),%ch
    2a01:	f0 18 00             	lock sbb %al,(%eax)
    2a04:	00 00                	add    %al,(%eax)
    2a06:	a5                   	movsl  %ds:(%esi),%es:(%edi)
    2a07:	0e                   	push   %cs
    2a08:	00 00                	add    %al,(%eax)
    2a0a:	01 01                	add    %eax,(%ecx)
    2a0c:	06                   	push   %es
    2a0d:	5b                   	pop    %ebx
    2a0e:	01 00                	add    %eax,(%eax)
    2a10:	00 01                	add    %al,(%ecx)
    2a12:	02 05 50 02 00 00    	add    0x250,%al
    2a18:	03 04 05 69 6e 74 00 	add    0x746e69(,%eax,1),%eax
    2a1f:	01 08                	add    %ecx,(%eax)
    2a21:	05 14 02 00 00       	add    $0x214,%eax
    2a26:	01 01                	add    %eax,(%ecx)
    2a28:	08 52 01             	or     %dl,0x1(%edx)
    2a2b:	00 00                	add    %al,(%eax)
    2a2d:	04 8d                	add    $0x8d,%al
    2a2f:	06                   	push   %es
    2a30:	00 00                	add    %al,(%eax)
    2a32:	02 14 1d 55 00 00 00 	add    0x55(,%ebx,1),%dl
    2a39:	01 02                	add    %eax,(%edx)
    2a3b:	07                   	pop    %es
    2a3c:	3d 00 00 00 01       	cmp    $0x1000000,%eax
    2a41:	04 07                	add    $0x7,%al
    2a43:	7b 01                	jnp    2a46 <SEG_KERN_CS+0x2a3e>
    2a45:	00 00                	add    %al,(%eax)
    2a47:	01 08                	add    %ecx,(%eax)
    2a49:	07                   	pop    %es
    2a4a:	71 01                	jno    2a4d <SEG_KERN_CS+0x2a45>
    2a4c:	00 00                	add    %al,(%eax)
    2a4e:	05 cc 10 00 00       	add    $0x10cc,%eax
    2a53:	01 03                	add    %eax,(%ebx)
    2a55:	11 8a 6f 40 f0 18    	adc    %ecx,0x18f0406f(%edx)
    2a5b:	00 00                	add    %al,(%eax)
    2a5d:	00 01                	add    %al,(%ecx)
    2a5f:	9c                   	pushf
    2a60:	90                   	nop
    2a61:	00 00                	add    %al,(%eax)
    2a63:	00 06                	add    %al,(%esi)
    2a65:	76 67                	jbe    2ace <SEG_KERN_CS+0x2ac6>
    2a67:	61                   	popa
    2a68:	00 01                	add    %al,(%ecx)
    2a6a:	04 0f                	add    $0xf,%al
    2a6c:	90                   	nop
    2a6d:	00 00                	add    %al,(%eax)
    2a6f:	00 02                	add    %al,(%edx)
    2a71:	91                   	xchg   %eax,%ecx
    2a72:	74 00                	je     2a74 <SEG_KERN_CS+0x2a6c>
    2a74:	07                   	pop    %es
    2a75:	04 49                	add    $0x49,%al
    2a77:	00 00                	add    %al,(%eax)
	...

Disassembly of section .debug_abbrev:

00000000 <.debug_abbrev>:
       0:	01 0d 00 03 0e 3a    	add    %ecx,0x3a0e0300
       6:	21 03                	and    %eax,(%ebx)
       8:	3b 0b                	cmp    (%ebx),%ecx
       a:	39 0b                	cmp    %ecx,(%ebx)
       c:	49                   	dec    %ecx
       d:	13 38                	adc    (%eax),%edi
       f:	0b 00                	or     (%eax),%eax
      11:	00 02                	add    %al,(%edx)
      13:	05 00 49 13 00       	add    $0x134900,%eax
      18:	00 03                	add    %al,(%ebx)
      1a:	18 00                	sbb    %al,(%eax)
      1c:	00 00                	add    %al,(%eax)
      1e:	04 2e                	add    $0x2e,%al
      20:	01 3f                	add    %edi,(%edi)
      22:	19 03                	sbb    %eax,(%ebx)
      24:	0e                   	push   %cs
      25:	3a 0b                	cmp    (%ebx),%cl
      27:	3b 0b                	cmp    (%ebx),%ecx
      29:	39 0b                	cmp    %ecx,(%ebx)
      2b:	27                   	daa
      2c:	19 3c 19             	sbb    %edi,(%ecx,%ebx,1)
      2f:	01 13                	add    %edx,(%ebx)
      31:	00 00                	add    %al,(%eax)
      33:	05 24 00 0b 0b       	add    $0xb0b0024,%eax
      38:	3e 0b 03             	or     %ds:(%ebx),%eax
      3b:	0e                   	push   %cs
      3c:	00 00                	add    %al,(%eax)
      3e:	06                   	push   %es
      3f:	28 00                	sub    %al,(%eax)
      41:	03 0e                	add    (%esi),%ecx
      43:	1c 0b                	sbb    $0xb,%al
      45:	00 00                	add    %al,(%eax)
      47:	07                   	pop    %es
      48:	2e 01 3f             	add    %edi,%cs:(%edi)
      4b:	19 03                	sbb    %eax,(%ebx)
      4d:	0e                   	push   %cs
      4e:	3a 0b                	cmp    (%ebx),%cl
      50:	3b 0b                	cmp    (%ebx),%ecx
      52:	39 0b                	cmp    %ecx,(%ebx)
      54:	3c 19                	cmp    $0x19,%al
      56:	01 13                	add    %edx,(%ebx)
      58:	00 00                	add    %al,(%eax)
      5a:	08 16                	or     %dl,(%esi)
      5c:	00 03                	add    %al,(%ebx)
      5e:	0e                   	push   %cs
      5f:	3a 0b                	cmp    (%ebx),%cl
      61:	3b 0b                	cmp    (%ebx),%ecx
      63:	39 0b                	cmp    %ecx,(%ebx)
      65:	49                   	dec    %ecx
      66:	13 00                	adc    (%eax),%eax
      68:	00 09                	add    %cl,(%ecx)
      6a:	0d 00 03 0e 3a       	or     $0x3a0e0300,%eax
      6f:	21 03                	and    %eax,(%ebx)
      71:	3b 0b                	cmp    (%ebx),%ecx
      73:	39 0b                	cmp    %ecx,(%ebx)
      75:	49                   	dec    %ecx
      76:	13 38                	adc    (%eax),%edi
      78:	05 00 00 0a 0f       	add    $0xf0a0000,%eax
      7d:	00 0b                	add    %cl,(%ebx)
      7f:	21 04 49             	and    %eax,(%ecx,%ecx,2)
      82:	13 00                	adc    (%eax),%eax
      84:	00 0b                	add    %cl,(%ebx)
      86:	13 01                	adc    (%ecx),%eax
      88:	0b 0b                	or     (%ebx),%ecx
      8a:	3a 21                	cmp    (%ecx),%ah
      8c:	03 3b                	add    (%ebx),%edi
      8e:	0b 39                	or     (%ecx),%edi
      90:	21 09                	and    %ecx,(%ecx)
      92:	01 13                	add    %edx,(%ebx)
      94:	00 00                	add    %al,(%eax)
      96:	0c 0d                	or     $0xd,%al
      98:	00 03                	add    %al,(%ebx)
      9a:	08 3a                	or     %bh,(%edx)
      9c:	21 03                	and    %eax,(%ebx)
      9e:	3b 0b                	cmp    (%ebx),%ecx
      a0:	39 21                	cmp    %esp,(%ecx)
      a2:	0e                   	push   %cs
      a3:	49                   	dec    %ecx
      a4:	13 38                	adc    (%eax),%edi
      a6:	0b 00                	or     (%eax),%eax
      a8:	00 0d 2e 01 3f 19    	add    %cl,0x193f012e
      ae:	03 0e                	add    (%esi),%ecx
      b0:	3a 21                	cmp    (%ecx),%ah
      b2:	0b 3b                	or     (%ebx),%edi
      b4:	0b 39                	or     (%ecx),%edi
      b6:	21 09                	and    %ecx,(%ecx)
      b8:	49                   	dec    %ecx
      b9:	13 3c 19             	adc    (%ecx,%ebx,1),%edi
      bc:	01 13                	add    %edx,(%ebx)
      be:	00 00                	add    %al,(%eax)
      c0:	0e                   	push   %cs
      c1:	11 01                	adc    %eax,(%ecx)
      c3:	25 0e 13 0b 03       	and    $0x30b130e,%eax
      c8:	1f                   	pop    %ds
      c9:	1b 1f                	sbb    (%edi),%ebx
      cb:	11 01                	adc    %eax,(%ecx)
      cd:	12 06                	adc    (%esi),%al
      cf:	10 17                	adc    %dl,(%edi)
      d1:	00 00                	add    %al,(%eax)
      d3:	0f 24 00             	mov    %tr0,%eax
      d6:	0b 0b                	or     (%ebx),%ecx
      d8:	3e 0b 03             	or     %ds:(%ebx),%eax
      db:	08 00                	or     %al,(%eax)
      dd:	00 10                	add    %dl,(%eax)
      df:	13 01                	adc    (%ecx),%eax
      e1:	0b 05 3a 0b 3b 0b    	or     0xb3b0b3a,%eax
      e7:	39 0b                	cmp    %ecx,(%ebx)
      e9:	01 13                	add    %edx,(%ebx)
      eb:	00 00                	add    %al,(%eax)
      ed:	11 01                	adc    %eax,(%ecx)
      ef:	01 49 13             	add    %ecx,0x13(%ecx)
      f2:	01 13                	add    %edx,(%ebx)
      f4:	00 00                	add    %al,(%eax)
      f6:	12 21                	adc    (%ecx),%ah
      f8:	00 49 13             	add    %cl,0x13(%ecx)
      fb:	2f                   	das
      fc:	0b 00                	or     (%eax),%eax
      fe:	00 13                	add    %dl,(%ebx)
     100:	04 01                	add    $0x1,%al
     102:	3e 0b 0b             	or     %ds:(%ebx),%ecx
     105:	0b 49 13             	or     0x13(%ecx),%ecx
     108:	3a 0b                	cmp    (%ebx),%cl
     10a:	3b 0b                	cmp    (%ebx),%ecx
     10c:	39 0b                	cmp    %ecx,(%ebx)
     10e:	01 13                	add    %edx,(%ebx)
     110:	00 00                	add    %al,(%eax)
     112:	14 0f                	adc    $0xf,%al
     114:	00 0b                	add    %cl,(%ebx)
     116:	0b 00                	or     (%eax),%eax
     118:	00 15 34 00 03 0e    	add    %dl,0xe030034
     11e:	3a 0b                	cmp    (%ebx),%cl
     120:	3b 0b                	cmp    (%ebx),%ecx
     122:	39 0b                	cmp    %ecx,(%ebx)
     124:	49                   	dec    %ecx
     125:	13 3f                	adc    (%edi),%edi
     127:	19 02                	sbb    %eax,(%edx)
     129:	18 00                	sbb    %al,(%eax)
     12b:	00 16                	add    %dl,(%esi)
     12d:	26 00 00             	add    %al,%es:(%eax)
     130:	00 17                	add    %dl,(%edi)
     132:	2e 00 3f             	add    %bh,%cs:(%edi)
     135:	19 03                	sbb    %eax,(%ebx)
     137:	0e                   	push   %cs
     138:	3a 0b                	cmp    (%ebx),%cl
     13a:	3b 0b                	cmp    (%ebx),%ecx
     13c:	39 0b                	cmp    %ecx,(%ebx)
     13e:	11 01                	adc    %eax,(%ecx)
     140:	12 06                	adc    (%esi),%al
     142:	40                   	inc    %eax
     143:	18 7c 19 00          	sbb    %bh,0x0(%ecx,%ebx,1)
     147:	00 18                	add    %bl,(%eax)
     149:	2e 01 3f             	add    %edi,%cs:(%edi)
     14c:	19 03                	sbb    %eax,(%ebx)
     14e:	0e                   	push   %cs
     14f:	3a 0b                	cmp    (%ebx),%cl
     151:	3b 0b                	cmp    (%ebx),%ecx
     153:	39 0b                	cmp    %ecx,(%ebx)
     155:	27                   	daa
     156:	19 11                	sbb    %edx,(%ecx)
     158:	01 12                	add    %edx,(%edx)
     15a:	06                   	push   %es
     15b:	40                   	inc    %eax
     15c:	18 7c 19 00          	sbb    %bh,0x0(%ecx,%ebx,1)
     160:	00 19                	add    %bl,(%ecx)
     162:	05 00 03 0e 3a       	add    $0x3a0e0300,%eax
     167:	0b 3b                	or     (%ebx),%edi
     169:	0b 39                	or     (%ecx),%edi
     16b:	0b 49 13             	or     0x13(%ecx),%ecx
     16e:	02 18                	add    (%eax),%bl
     170:	00 00                	add    %al,(%eax)
     172:	00 01                	add    %al,(%ecx)
     174:	28 00                	sub    %al,(%eax)
     176:	03 0e                	add    (%esi),%ecx
     178:	1c 0b                	sbb    $0xb,%al
     17a:	00 00                	add    %al,(%eax)
     17c:	02 34 00             	add    (%eax,%eax,1),%dh
     17f:	03 0e                	add    (%esi),%ecx
     181:	3a 21                	cmp    (%ecx),%ah
     183:	01 3b                	add    %edi,(%ebx)
     185:	0b 39                	or     (%ecx),%edi
     187:	0b 49 13             	or     0x13(%ecx),%ecx
     18a:	02 18                	add    (%eax),%bl
     18c:	00 00                	add    %al,(%eax)
     18e:	03 24 00             	add    (%eax,%eax,1),%esp
     191:	0b 0b                	or     (%ebx),%ecx
     193:	3e 0b 03             	or     %ds:(%ebx),%eax
     196:	0e                   	push   %cs
     197:	00 00                	add    %al,(%eax)
     199:	04 34                	add    $0x34,%al
     19b:	00 03                	add    %al,(%ebx)
     19d:	08 3a                	or     %bh,(%edx)
     19f:	21 01                	and    %eax,(%ecx)
     1a1:	3b 0b                	cmp    (%ebx),%ecx
     1a3:	39 0b                	cmp    %ecx,(%ebx)
     1a5:	49                   	dec    %ecx
     1a6:	13 02                	adc    (%edx),%eax
     1a8:	18 00                	sbb    %al,(%eax)
     1aa:	00 05 05 00 49 13    	add    %al,0x13490005
     1b0:	00 00                	add    %al,(%eax)
     1b2:	06                   	push   %es
     1b3:	16                   	push   %ss
     1b4:	00 03                	add    %al,(%ebx)
     1b6:	0e                   	push   %cs
     1b7:	3a 0b                	cmp    (%ebx),%cl
     1b9:	3b 0b                	cmp    (%ebx),%ecx
     1bb:	39 0b                	cmp    %ecx,(%ebx)
     1bd:	49                   	dec    %ecx
     1be:	13 00                	adc    (%eax),%eax
     1c0:	00 07                	add    %al,(%edi)
     1c2:	34 00                	xor    $0x0,%al
     1c4:	03 0e                	add    (%esi),%ecx
     1c6:	3a 21                	cmp    (%ecx),%ah
     1c8:	01 3b                	add    %edi,(%ebx)
     1ca:	0b 39                	or     (%ecx),%edi
     1cc:	21 0d 49 13 3f 19    	and    %ecx,0x193f1349
     1d2:	02 18                	add    (%eax),%bl
     1d4:	00 00                	add    %al,(%eax)
     1d6:	08 0f                	or     %cl,(%edi)
     1d8:	00 0b                	add    %cl,(%ebx)
     1da:	21 04 49             	and    %eax,(%ecx,%ecx,2)
     1dd:	13 00                	adc    (%eax),%eax
     1df:	00 09                	add    %cl,(%ecx)
     1e1:	11 01                	adc    %eax,(%ecx)
     1e3:	25 0e 13 0b 03       	and    $0x30b130e,%eax
     1e8:	1f                   	pop    %ds
     1e9:	1b 1f                	sbb    (%edi),%ebx
     1eb:	11 01                	adc    %eax,(%ecx)
     1ed:	12 06                	adc    (%esi),%al
     1ef:	10 17                	adc    %dl,(%edi)
     1f1:	00 00                	add    %al,(%eax)
     1f3:	0a 26                	or     (%esi),%ah
     1f5:	00 49 13             	add    %cl,0x13(%ecx)
     1f8:	00 00                	add    %al,(%eax)
     1fa:	0b 24 00             	or     (%eax,%eax,1),%esp
     1fd:	0b 0b                	or     (%ebx),%ecx
     1ff:	3e 0b 03             	or     %ds:(%ebx),%eax
     202:	08 00                	or     %al,(%eax)
     204:	00 0c 04             	add    %cl,(%esp,%eax,1)
     207:	01 3e                	add    %edi,(%esi)
     209:	0b 0b                	or     (%ebx),%ecx
     20b:	0b 49 13             	or     0x13(%ecx),%ecx
     20e:	3a 0b                	cmp    (%ebx),%cl
     210:	3b 0b                	cmp    (%ebx),%ecx
     212:	39 0b                	cmp    %ecx,(%ebx)
     214:	01 13                	add    %edx,(%ebx)
     216:	00 00                	add    %al,(%eax)
     218:	0d 2e 01 3f 19       	or     $0x193f012e,%eax
     21d:	03 0e                	add    (%esi),%ecx
     21f:	3a 0b                	cmp    (%ebx),%cl
     221:	3b 0b                	cmp    (%ebx),%ecx
     223:	39 0b                	cmp    %ecx,(%ebx)
     225:	27                   	daa
     226:	19 3c 19             	sbb    %edi,(%ecx,%ebx,1)
     229:	01 13                	add    %edx,(%ebx)
     22b:	00 00                	add    %al,(%eax)
     22d:	0e                   	push   %cs
     22e:	2e 01 3f             	add    %edi,%cs:(%edi)
     231:	19 03                	sbb    %eax,(%ebx)
     233:	0e                   	push   %cs
     234:	3a 0b                	cmp    (%ebx),%cl
     236:	3b 0b                	cmp    (%ebx),%ecx
     238:	39 0b                	cmp    %ecx,(%ebx)
     23a:	27                   	daa
     23b:	19 49 13             	sbb    %ecx,0x13(%ecx)
     23e:	11 01                	adc    %eax,(%ecx)
     240:	12 06                	adc    (%esi),%al
     242:	40                   	inc    %eax
     243:	18 7c 19 00          	sbb    %bh,0x0(%ecx,%ebx,1)
     247:	00 0f                	add    %cl,(%edi)
     249:	05 00 03 0e 3a       	add    $0x3a0e0300,%eax
     24e:	0b 3b                	or     (%ebx),%edi
     250:	0b 39                	or     (%ecx),%edi
     252:	0b 49 13             	or     0x13(%ecx),%ecx
     255:	02 18                	add    (%eax),%bl
     257:	00 00                	add    %al,(%eax)
     259:	00 01                	add    %al,(%ecx)
     25b:	2e 01 3f             	add    %edi,%cs:(%edi)
     25e:	19 03                	sbb    %eax,(%ebx)
     260:	0e                   	push   %cs
     261:	3a 21                	cmp    (%ecx),%ah
     263:	01 3b                	add    %edi,(%ebx)
     265:	0b 39                	or     (%ecx),%edi
     267:	21 0d 3c 19 01 13    	and    %ecx,0x1301193c
     26d:	00 00                	add    %al,(%eax)
     26f:	02 18                	add    (%eax),%bl
     271:	00 00                	add    %al,(%eax)
     273:	00 03                	add    %al,(%ebx)
     275:	24 00                	and    $0x0,%al
     277:	0b 0b                	or     (%ebx),%ecx
     279:	3e 0b 03             	or     %ds:(%ebx),%eax
     27c:	0e                   	push   %cs
     27d:	00 00                	add    %al,(%eax)
     27f:	04 0d                	add    $0xd,%al
     281:	00 03                	add    %al,(%ebx)
     283:	08 3a                	or     %bh,(%edx)
     285:	0b 3b                	or     (%ebx),%edi
     287:	0b 39                	or     (%ecx),%edi
     289:	0b 49 13             	or     0x13(%ecx),%ecx
     28c:	38 0b                	cmp    %cl,(%ebx)
     28e:	00 00                	add    %al,(%eax)
     290:	05 16 00 03 0e       	add    $0xe030016,%eax
     295:	3a 0b                	cmp    (%ebx),%cl
     297:	3b 0b                	cmp    (%ebx),%ecx
     299:	39 0b                	cmp    %ecx,(%ebx)
     29b:	49                   	dec    %ecx
     29c:	13 00                	adc    (%eax),%eax
     29e:	00 06                	add    %al,(%esi)
     2a0:	0f 00 0b             	str    (%ebx)
     2a3:	21 04 49             	and    %eax,(%ecx,%ecx,2)
     2a6:	13 00                	adc    (%eax),%eax
     2a8:	00 07                	add    %al,(%edi)
     2aa:	05 00 49 13 00       	add    $0x134900,%eax
     2af:	00 08                	add    %cl,(%eax)
     2b1:	05 00 03 08 3a       	add    $0x3a080300,%eax
     2b6:	21 01                	and    %eax,(%ecx)
     2b8:	3b 0b                	cmp    (%ebx),%ecx
     2ba:	39 0b                	cmp    %ecx,(%ebx)
     2bc:	49                   	dec    %ecx
     2bd:	13 02                	adc    (%edx),%eax
     2bf:	18 00                	sbb    %al,(%eax)
     2c1:	00 09                	add    %cl,(%ecx)
     2c3:	0d 00 03 0e 3a       	or     $0x3a0e0300,%eax
     2c8:	0b 3b                	or     (%ebx),%edi
     2ca:	0b 39                	or     (%ecx),%edi
     2cc:	0b 49 13             	or     0x13(%ecx),%ecx
     2cf:	38 0b                	cmp    %cl,(%ebx)
     2d1:	00 00                	add    %al,(%eax)
     2d3:	0a 26                	or     (%esi),%ah
     2d5:	00 49 13             	add    %cl,0x13(%ecx)
     2d8:	00 00                	add    %al,(%eax)
     2da:	0b 01                	or     (%ecx),%eax
     2dc:	01 49 13             	add    %ecx,0x13(%ecx)
     2df:	01 13                	add    %edx,(%ebx)
     2e1:	00 00                	add    %al,(%eax)
     2e3:	0c 21                	or     $0x21,%al
     2e5:	00 49 13             	add    %cl,0x13(%ecx)
     2e8:	2f                   	das
     2e9:	21 12                	and    %edx,(%edx)
     2eb:	00 00                	add    %al,(%eax)
     2ed:	0d 05 00 03 0e       	or     $0xe030005,%eax
     2f2:	3a 21                	cmp    (%ecx),%ah
     2f4:	01 3b                	add    %edi,(%ebx)
     2f6:	0b 39                	or     (%ecx),%edi
     2f8:	0b 49 13             	or     0x13(%ecx),%ecx
     2fb:	02 18                	add    (%eax),%bl
     2fd:	00 00                	add    %al,(%eax)
     2ff:	0e                   	push   %cs
     300:	13 01                	adc    (%ecx),%eax
     302:	03 0e                	add    (%esi),%ecx
     304:	0b 0b                	or     (%ebx),%ecx
     306:	3a 0b                	cmp    (%ebx),%cl
     308:	3b 0b                	cmp    (%ebx),%ecx
     30a:	39 21                	cmp    %esp,(%ecx)
     30c:	08 01                	or     %al,(%ecx)
     30e:	13 00                	adc    (%eax),%eax
     310:	00 0f                	add    %cl,(%edi)
     312:	34 00                	xor    $0x0,%al
     314:	03 0e                	add    (%esi),%ecx
     316:	3a 21                	cmp    (%ecx),%ah
     318:	01 3b                	add    %edi,(%ebx)
     31a:	0b 39                	or     (%ecx),%edi
     31c:	0b 49 13             	or     0x13(%ecx),%ecx
     31f:	3f                   	aas
     320:	19 02                	sbb    %eax,(%edx)
     322:	18 00                	sbb    %al,(%eax)
     324:	00 10                	add    %dl,(%eax)
     326:	2e 01 3f             	add    %edi,%cs:(%edi)
     329:	19 03                	sbb    %eax,(%ebx)
     32b:	0e                   	push   %cs
     32c:	3a 0b                	cmp    (%ebx),%cl
     32e:	3b 0b                	cmp    (%ebx),%ecx
     330:	39 21                	cmp    %esp,(%ecx)
     332:	06                   	push   %es
     333:	27                   	daa
     334:	19 3c 19             	sbb    %edi,(%ecx,%ebx,1)
     337:	01 13                	add    %edx,(%ebx)
     339:	00 00                	add    %al,(%eax)
     33b:	11 2e                	adc    %ebp,(%esi)
     33d:	01 3f                	add    %edi,(%edi)
     33f:	19 03                	sbb    %eax,(%ebx)
     341:	0e                   	push   %cs
     342:	3a 21                	cmp    (%ecx),%ah
     344:	01 3b                	add    %edi,(%ebx)
     346:	0b 39                	or     (%ecx),%edi
     348:	21 09                	and    %ecx,(%ecx)
     34a:	27                   	daa
     34b:	19 49 13             	sbb    %ecx,0x13(%ecx)
     34e:	11 01                	adc    %eax,(%ecx)
     350:	12 06                	adc    (%esi),%al
     352:	40                   	inc    %eax
     353:	18 7a 19             	sbb    %bh,0x19(%edx)
     356:	01 13                	add    %edx,(%ebx)
     358:	00 00                	add    %al,(%eax)
     35a:	12 11                	adc    (%ecx),%dl
     35c:	01 25 0e 13 0b 03    	add    %esp,0x30b130e
     362:	1f                   	pop    %ds
     363:	1b 1f                	sbb    (%edi),%ebx
     365:	11 01                	adc    %eax,(%ecx)
     367:	12 06                	adc    (%esi),%al
     369:	10 17                	adc    %dl,(%edi)
     36b:	00 00                	add    %al,(%eax)
     36d:	13 24 00             	adc    (%eax,%eax,1),%esp
     370:	0b 0b                	or     (%ebx),%ecx
     372:	3e 0b 03             	or     %ds:(%ebx),%eax
     375:	08 00                	or     %al,(%eax)
     377:	00 14 13             	add    %dl,(%ebx,%edx,1)
     37a:	01 0b                	add    %ecx,(%ebx)
     37c:	0b 3a                	or     (%edx),%edi
     37e:	0b 3b                	or     (%ebx),%edi
     380:	0b 39                	or     (%ecx),%edi
     382:	0b 01                	or     (%ecx),%eax
     384:	13 00                	adc    (%eax),%eax
     386:	00 15 0f 00 0b 0b    	add    %dl,0xb0b000f
     38c:	00 00                	add    %al,(%eax)
     38e:	16                   	push   %ss
     38f:	15 01 27 19 01       	adc    $0x1192701,%eax
     394:	13 00                	adc    (%eax),%eax
     396:	00 17                	add    %dl,(%edi)
     398:	15 00 27 19 00       	adc    $0x192700,%eax
     39d:	00 18                	add    %bl,(%eax)
     39f:	34 00                	xor    $0x0,%al
     3a1:	03 0e                	add    (%esi),%ecx
     3a3:	3a 0b                	cmp    (%ebx),%cl
     3a5:	3b 0b                	cmp    (%ebx),%ecx
     3a7:	39 0b                	cmp    %ecx,(%ebx)
     3a9:	49                   	dec    %ecx
     3aa:	13 02                	adc    (%edx),%eax
     3ac:	18 00                	sbb    %al,(%eax)
     3ae:	00 19                	add    %bl,(%ecx)
     3b0:	2e 01 3f             	add    %edi,%cs:(%edi)
     3b3:	19 03                	sbb    %eax,(%ebx)
     3b5:	0e                   	push   %cs
     3b6:	3a 0b                	cmp    (%ebx),%cl
     3b8:	3b 0b                	cmp    (%ebx),%ecx
     3ba:	39 0b                	cmp    %ecx,(%ebx)
     3bc:	27                   	daa
     3bd:	19 11                	sbb    %edx,(%ecx)
     3bf:	01 12                	add    %edx,(%edx)
     3c1:	06                   	push   %es
     3c2:	40                   	inc    %eax
     3c3:	18 7c 19 01          	sbb    %bh,0x1(%ecx,%ebx,1)
     3c7:	13 00                	adc    (%eax),%eax
     3c9:	00 1a                	add    %bl,(%edx)
     3cb:	0b 01                	or     (%ecx),%eax
     3cd:	11 01                	adc    %eax,(%ecx)
     3cf:	12 06                	adc    (%esi),%al
     3d1:	00 00                	add    %al,(%eax)
     3d3:	1b 34 00             	sbb    (%eax,%eax,1),%esi
     3d6:	03 08                	add    (%eax),%ecx
     3d8:	3a 0b                	cmp    (%ebx),%cl
     3da:	3b 0b                	cmp    (%ebx),%ecx
     3dc:	39 0b                	cmp    %ecx,(%ebx)
     3de:	49                   	dec    %ecx
     3df:	13 02                	adc    (%edx),%eax
     3e1:	18 00                	sbb    %al,(%eax)
     3e3:	00 1c 2e             	add    %bl,(%esi,%ebp,1)
     3e6:	00 3f                	add    %bh,(%edi)
     3e8:	19 03                	sbb    %eax,(%ebx)
     3ea:	0e                   	push   %cs
     3eb:	3a 0b                	cmp    (%ebx),%cl
     3ed:	3b 0b                	cmp    (%ebx),%ecx
     3ef:	39 0b                	cmp    %ecx,(%ebx)
     3f1:	11 01                	adc    %eax,(%ecx)
     3f3:	12 06                	adc    (%esi),%al
     3f5:	40                   	inc    %eax
     3f6:	18 7c 19 00          	sbb    %bh,0x0(%ecx,%ebx,1)
     3fa:	00 00                	add    %al,(%eax)
     3fc:	01 24 00             	add    %esp,(%eax,%eax,1)
     3ff:	0b 0b                	or     (%ebx),%ecx
     401:	3e 0b 03             	or     %ds:(%ebx),%eax
     404:	0e                   	push   %cs
     405:	00 00                	add    %al,(%eax)
     407:	02 0d 00 03 0e 3a    	add    0x3a0e0300,%cl
     40d:	21 03                	and    %eax,(%ebx)
     40f:	3b 0b                	cmp    (%ebx),%ecx
     411:	39 0b                	cmp    %ecx,(%ebx)
     413:	49                   	dec    %ecx
     414:	13 38                	adc    (%eax),%edi
     416:	0b 00                	or     (%eax),%eax
     418:	00 03                	add    %al,(%ebx)
     41a:	28 00                	sub    %al,(%eax)
     41c:	03 0e                	add    (%esi),%ecx
     41e:	1c 0b                	sbb    $0xb,%al
     420:	00 00                	add    %al,(%eax)
     422:	04 05                	add    $0x5,%al
     424:	00 03                	add    %al,(%ebx)
     426:	0e                   	push   %cs
     427:	3a 21                	cmp    (%ecx),%ah
     429:	01 3b                	add    %edi,(%ebx)
     42b:	0b 39                	or     (%ecx),%edi
     42d:	0b 49 13             	or     0x13(%ecx),%ecx
     430:	02 18                	add    (%eax),%bl
     432:	00 00                	add    %al,(%eax)
     434:	05 16 00 03 0e       	add    $0xe030016,%eax
     439:	3a 0b                	cmp    (%ebx),%cl
     43b:	3b 0b                	cmp    (%ebx),%ecx
     43d:	39 0b                	cmp    %ecx,(%ebx)
     43f:	49                   	dec    %ecx
     440:	13 00                	adc    (%eax),%eax
     442:	00 06                	add    %al,(%esi)
     444:	05 00 49 13 00       	add    $0x134900,%eax
     449:	00 07                	add    %al,(%edi)
     44b:	05 00 03 08 3a       	add    $0x3a080300,%eax
     450:	21 01                	and    %eax,(%ecx)
     452:	3b 0b                	cmp    (%ebx),%ecx
     454:	39 0b                	cmp    %ecx,(%ebx)
     456:	49                   	dec    %ecx
     457:	13 02                	adc    (%edx),%eax
     459:	18 00                	sbb    %al,(%eax)
     45b:	00 08                	add    %cl,(%eax)
     45d:	13 01                	adc    (%ecx),%eax
     45f:	03 0e                	add    (%esi),%ecx
     461:	0b 0b                	or     (%ebx),%ecx
     463:	3a 21                	cmp    (%ecx),%ah
     465:	03 3b                	add    (%ebx),%edi
     467:	0b 39                	or     (%ecx),%edi
     469:	21 08                	and    %ecx,(%eax)
     46b:	01 13                	add    %edx,(%ebx)
     46d:	00 00                	add    %al,(%eax)
     46f:	09 2e                	or     %ebp,(%esi)
     471:	01 3f                	add    %edi,(%edi)
     473:	19 03                	sbb    %eax,(%ebx)
     475:	0e                   	push   %cs
     476:	3a 0b                	cmp    (%ebx),%cl
     478:	3b 0b                	cmp    (%ebx),%ecx
     47a:	39 0b                	cmp    %ecx,(%ebx)
     47c:	27                   	daa
     47d:	19 3c 19             	sbb    %edi,(%ecx,%ebx,1)
     480:	01 13                	add    %edx,(%ebx)
     482:	00 00                	add    %al,(%eax)
     484:	0a 2e                	or     (%esi),%ch
     486:	01 3f                	add    %edi,(%edi)
     488:	19 03                	sbb    %eax,(%ebx)
     48a:	0e                   	push   %cs
     48b:	3a 21                	cmp    (%ecx),%ah
     48d:	01 3b                	add    %edi,(%ebx)
     48f:	0b 39                	or     (%ecx),%edi
     491:	21 06                	and    %eax,(%esi)
     493:	27                   	daa
     494:	19 11                	sbb    %edx,(%ecx)
     496:	01 12                	add    %edx,(%edx)
     498:	06                   	push   %es
     499:	40                   	inc    %eax
     49a:	18 7c 19 01          	sbb    %bh,0x1(%ecx,%ebx,1)
     49e:	13 00                	adc    (%eax),%eax
     4a0:	00 0b                	add    %cl,(%ebx)
     4a2:	2e 00 3f             	add    %bh,%cs:(%edi)
     4a5:	19 03                	sbb    %eax,(%ebx)
     4a7:	0e                   	push   %cs
     4a8:	3a 21                	cmp    (%ecx),%ah
     4aa:	01 3b                	add    %edi,(%ebx)
     4ac:	0b 39                	or     (%ecx),%edi
     4ae:	21 06                	and    %eax,(%esi)
     4b0:	11 01                	adc    %eax,(%ecx)
     4b2:	12 06                	adc    (%esi),%al
     4b4:	40                   	inc    %eax
     4b5:	18 7c 19 00          	sbb    %bh,0x0(%ecx,%ebx,1)
     4b9:	00 0c 11             	add    %cl,(%ecx,%edx,1)
     4bc:	01 25 0e 13 0b 03    	add    %esp,0x30b130e
     4c2:	1f                   	pop    %ds
     4c3:	1b 1f                	sbb    (%edi),%ebx
     4c5:	11 01                	adc    %eax,(%ecx)
     4c7:	12 06                	adc    (%esi),%al
     4c9:	10 17                	adc    %dl,(%edi)
     4cb:	00 00                	add    %al,(%eax)
     4cd:	0d 24 00 0b 0b       	or     $0xb0b0024,%eax
     4d2:	3e 0b 03             	or     %ds:(%ebx),%eax
     4d5:	08 00                	or     %al,(%eax)
     4d7:	00 0e                	add    %cl,(%esi)
     4d9:	04 01                	add    $0x1,%al
     4db:	3e 0b 0b             	or     %ds:(%ebx),%ecx
     4de:	0b 49 13             	or     0x13(%ecx),%ecx
     4e1:	3a 0b                	cmp    (%ebx),%cl
     4e3:	3b 0b                	cmp    (%ebx),%ecx
     4e5:	39 0b                	cmp    %ecx,(%ebx)
     4e7:	01 13                	add    %edx,(%ebx)
     4e9:	00 00                	add    %al,(%eax)
     4eb:	0f 34                	sysenter
     4ed:	00 03                	add    %al,(%ebx)
     4ef:	0e                   	push   %cs
     4f0:	3a 0b                	cmp    (%ebx),%cl
     4f2:	3b 0b                	cmp    (%ebx),%ecx
     4f4:	39 0b                	cmp    %ecx,(%ebx)
     4f6:	49                   	dec    %ecx
     4f7:	13 3f                	adc    (%edi),%edi
     4f9:	19 02                	sbb    %eax,(%edx)
     4fb:	18 00                	sbb    %al,(%eax)
     4fd:	00 10                	add    %dl,(%eax)
     4ff:	01 01                	add    %eax,(%ecx)
     501:	49                   	dec    %ecx
     502:	13 01                	adc    (%ecx),%eax
     504:	13 00                	adc    (%eax),%eax
     506:	00 11                	add    %dl,(%ecx)
     508:	21 00                	and    %eax,(%eax)
     50a:	49                   	dec    %ecx
     50b:	13 2f                	adc    (%edi),%ebp
     50d:	0b 00                	or     (%eax),%eax
     50f:	00 12                	add    %dl,(%edx)
     511:	34 00                	xor    $0x0,%al
     513:	03 08                	add    (%eax),%ecx
     515:	3a 0b                	cmp    (%ebx),%cl
     517:	3b 0b                	cmp    (%ebx),%ecx
     519:	39 0b                	cmp    %ecx,(%ebx)
     51b:	49                   	dec    %ecx
     51c:	13 3f                	adc    (%edi),%edi
     51e:	19 88 01 0b 02 18    	sbb    %ecx,0x18020b01(%eax)
     524:	00 00                	add    %al,(%eax)
     526:	13 0f                	adc    (%edi),%ecx
     528:	00 0b                	add    %cl,(%ebx)
     52a:	0b 00                	or     (%eax),%eax
     52c:	00 14 0f             	add    %dl,(%edi,%ecx,1)
     52f:	00 0b                	add    %cl,(%ebx)
     531:	0b 49 13             	or     0x13(%ecx),%ecx
     534:	00 00                	add    %al,(%eax)
     536:	15 2e 01 3f 19       	adc    $0x193f012e,%eax
     53b:	03 0e                	add    (%esi),%ecx
     53d:	3a 0b                	cmp    (%ebx),%cl
     53f:	3b 0b                	cmp    (%ebx),%ecx
     541:	39 0b                	cmp    %ecx,(%ebx)
     543:	27                   	daa
     544:	19 11                	sbb    %edx,(%ecx)
     546:	01 12                	add    %edx,(%edx)
     548:	06                   	push   %es
     549:	40                   	inc    %eax
     54a:	18 7a 19             	sbb    %bh,0x19(%edx)
     54d:	01 13                	add    %edx,(%ebx)
     54f:	00 00                	add    %al,(%eax)
     551:	16                   	push   %ss
     552:	2e 01 3f             	add    %edi,%cs:(%edi)
     555:	19 03                	sbb    %eax,(%ebx)
     557:	0e                   	push   %cs
     558:	3a 0b                	cmp    (%ebx),%cl
     55a:	3b 0b                	cmp    (%ebx),%ecx
     55c:	39 0b                	cmp    %ecx,(%ebx)
     55e:	27                   	daa
     55f:	19 49 13             	sbb    %ecx,0x13(%ecx)
     562:	11 01                	adc    %eax,(%ecx)
     564:	12 06                	adc    (%esi),%al
     566:	40                   	inc    %eax
     567:	18 7a 19             	sbb    %bh,0x19(%edx)
     56a:	01 13                	add    %edx,(%ebx)
     56c:	00 00                	add    %al,(%eax)
     56e:	00 01                	add    %al,(%ecx)
     570:	24 00                	and    $0x0,%al
     572:	0b 0b                	or     (%ebx),%ecx
     574:	3e 0b 03             	or     %ds:(%ebx),%eax
     577:	0e                   	push   %cs
     578:	00 00                	add    %al,(%eax)
     57a:	02 05 00 49 13 00    	add    0x134900,%al
     580:	00 03                	add    %al,(%ebx)
     582:	11 01                	adc    %eax,(%ecx)
     584:	25 0e 13 0b 03       	and    $0x30b130e,%eax
     589:	1f                   	pop    %ds
     58a:	1b 1f                	sbb    (%edi),%ebx
     58c:	11 01                	adc    %eax,(%ecx)
     58e:	12 06                	adc    (%esi),%al
     590:	10 17                	adc    %dl,(%edi)
     592:	00 00                	add    %al,(%eax)
     594:	04 24                	add    $0x24,%al
     596:	00 0b                	add    %cl,(%ebx)
     598:	0b 3e                	or     (%esi),%edi
     59a:	0b 03                	or     (%ebx),%eax
     59c:	08 00                	or     %al,(%eax)
     59e:	00 05 16 00 03 0e    	add    %al,0xe030016
     5a4:	3a 0b                	cmp    (%ebx),%cl
     5a6:	3b 0b                	cmp    (%ebx),%ecx
     5a8:	39 0b                	cmp    %ecx,(%ebx)
     5aa:	49                   	dec    %ecx
     5ab:	13 00                	adc    (%eax),%eax
     5ad:	00 06                	add    %al,(%esi)
     5af:	2e 01 3f             	add    %edi,%cs:(%edi)
     5b2:	19 03                	sbb    %eax,(%ebx)
     5b4:	0e                   	push   %cs
     5b5:	3a 0b                	cmp    (%ebx),%cl
     5b7:	3b 0b                	cmp    (%ebx),%ecx
     5b9:	39 0b                	cmp    %ecx,(%ebx)
     5bb:	27                   	daa
     5bc:	19 3c 19             	sbb    %edi,(%ecx,%ebx,1)
     5bf:	01 13                	add    %edx,(%ebx)
     5c1:	00 00                	add    %al,(%eax)
     5c3:	07                   	pop    %es
     5c4:	2e 00 3f             	add    %bh,%cs:(%edi)
     5c7:	19 03                	sbb    %eax,(%ebx)
     5c9:	0e                   	push   %cs
     5ca:	3a 0b                	cmp    (%ebx),%cl
     5cc:	3b 0b                	cmp    (%ebx),%ecx
     5ce:	39 0b                	cmp    %ecx,(%ebx)
     5d0:	11 01                	adc    %eax,(%ecx)
     5d2:	12 06                	adc    (%esi),%al
     5d4:	40                   	inc    %eax
     5d5:	18 7c 19 00          	sbb    %bh,0x0(%ecx,%ebx,1)
     5d9:	00 08                	add    %cl,(%eax)
     5db:	2e 01 3f             	add    %edi,%cs:(%edi)
     5de:	19 03                	sbb    %eax,(%ebx)
     5e0:	0e                   	push   %cs
     5e1:	3a 0b                	cmp    (%ebx),%cl
     5e3:	3b 0b                	cmp    (%ebx),%ecx
     5e5:	39 0b                	cmp    %ecx,(%ebx)
     5e7:	27                   	daa
     5e8:	19 11                	sbb    %edx,(%ecx)
     5ea:	01 12                	add    %edx,(%edx)
     5ec:	06                   	push   %es
     5ed:	40                   	inc    %eax
     5ee:	18 7c 19 00          	sbb    %bh,0x0(%ecx,%ebx,1)
     5f2:	00 09                	add    %cl,(%ecx)
     5f4:	05 00 03 0e 3a       	add    $0x3a0e0300,%eax
     5f9:	0b 3b                	or     (%ebx),%edi
     5fb:	0b 39                	or     (%ecx),%edi
     5fd:	0b 49 13             	or     0x13(%ecx),%ecx
     600:	02 18                	add    (%eax),%bl
     602:	00 00                	add    %al,(%eax)
     604:	00 01                	add    %al,(%ecx)
     606:	2e 01 3f             	add    %edi,%cs:(%edi)
     609:	19 03                	sbb    %eax,(%ebx)
     60b:	0e                   	push   %cs
     60c:	3a 21                	cmp    (%ecx),%ah
     60e:	01 3b                	add    %edi,(%ebx)
     610:	0b 39                	or     (%ecx),%edi
     612:	21 0d 3c 19 01 13    	and    %ecx,0x1301193c
     618:	00 00                	add    %al,(%eax)
     61a:	02 18                	add    (%eax),%bl
     61c:	00 00                	add    %al,(%eax)
     61e:	00 03                	add    %al,(%ebx)
     620:	05 00 49 13 00       	add    $0x134900,%eax
     625:	00 04 05 00 03 08 3a 	add    %al,0x3a080300(,%eax,1)
     62c:	21 01                	and    %eax,(%ecx)
     62e:	3b 0b                	cmp    (%ebx),%ecx
     630:	39 0b                	cmp    %ecx,(%ebx)
     632:	49                   	dec    %ecx
     633:	13 02                	adc    (%edx),%eax
     635:	18 00                	sbb    %al,(%eax)
     637:	00 05 24 00 0b 0b    	add    %al,0xb0b0024
     63d:	3e 0b 03             	or     %ds:(%ebx),%eax
     640:	0e                   	push   %cs
     641:	00 00                	add    %al,(%eax)
     643:	06                   	push   %es
     644:	16                   	push   %ss
     645:	00 03                	add    %al,(%ebx)
     647:	0e                   	push   %cs
     648:	3a 0b                	cmp    (%ebx),%cl
     64a:	3b 0b                	cmp    (%ebx),%ecx
     64c:	39 0b                	cmp    %ecx,(%ebx)
     64e:	49                   	dec    %ecx
     64f:	13 00                	adc    (%eax),%eax
     651:	00 07                	add    %al,(%edi)
     653:	0d 00 03 08 3a       	or     $0x3a080300,%eax
     658:	0b 3b                	or     (%ebx),%edi
     65a:	0b 39                	or     (%ecx),%edi
     65c:	0b 49 13             	or     0x13(%ecx),%ecx
     65f:	38 0b                	cmp    %cl,(%ebx)
     661:	00 00                	add    %al,(%eax)
     663:	08 0f                	or     %cl,(%edi)
     665:	00 0b                	add    %cl,(%ebx)
     667:	21 04 49             	and    %eax,(%ecx,%ecx,2)
     66a:	13 00                	adc    (%eax),%eax
     66c:	00 09                	add    %cl,(%ecx)
     66e:	34 00                	xor    $0x0,%al
     670:	03 0e                	add    (%esi),%ecx
     672:	3a 21                	cmp    (%ecx),%ah
     674:	01 3b                	add    %edi,(%ebx)
     676:	0b 39                	or     (%ecx),%edi
     678:	0b 49 13             	or     0x13(%ecx),%ecx
     67b:	02 18                	add    (%eax),%bl
     67d:	00 00                	add    %al,(%eax)
     67f:	0a 0d 00 03 0e 3a    	or     0x3a0e0300,%cl
     685:	0b 3b                	or     (%ebx),%edi
     687:	0b 39                	or     (%ecx),%edi
     689:	0b 49 13             	or     0x13(%ecx),%ecx
     68c:	38 0b                	cmp    %cl,(%ebx)
     68e:	00 00                	add    %al,(%eax)
     690:	0b 26                	or     (%esi),%esp
     692:	00 49 13             	add    %cl,0x13(%ecx)
     695:	00 00                	add    %al,(%eax)
     697:	0c 2e                	or     $0x2e,%al
     699:	01 3f                	add    %edi,(%edi)
     69b:	19 03                	sbb    %eax,(%ebx)
     69d:	0e                   	push   %cs
     69e:	3a 21                	cmp    (%ecx),%ah
     6a0:	01 3b                	add    %edi,(%ebx)
     6a2:	0b 39                	or     (%ecx),%edi
     6a4:	21 06                	and    %eax,(%esi)
     6a6:	27                   	daa
     6a7:	19 11                	sbb    %edx,(%ecx)
     6a9:	01 12                	add    %edx,(%edx)
     6ab:	06                   	push   %es
     6ac:	40                   	inc    %eax
     6ad:	18 7c 19 01          	sbb    %bh,0x1(%ecx,%ebx,1)
     6b1:	13 00                	adc    (%eax),%eax
     6b3:	00 0d 01 01 49 13    	add    %cl,0x13490101
     6b9:	01 13                	add    %edx,(%ebx)
     6bb:	00 00                	add    %al,(%eax)
     6bd:	0e                   	push   %cs
     6be:	21 00                	and    %eax,(%eax)
     6c0:	49                   	dec    %ecx
     6c1:	13 2f                	adc    (%edi),%ebp
     6c3:	0b 00                	or     (%eax),%eax
     6c5:	00 0f                	add    %cl,(%edi)
     6c7:	2e 01 3f             	add    %edi,%cs:(%edi)
     6ca:	19 03                	sbb    %eax,(%ebx)
     6cc:	0e                   	push   %cs
     6cd:	3a 0b                	cmp    (%ebx),%cl
     6cf:	3b 0b                	cmp    (%ebx),%ecx
     6d1:	39 0b                	cmp    %ecx,(%ebx)
     6d3:	27                   	daa
     6d4:	19 3c 19             	sbb    %edi,(%ecx,%ebx,1)
     6d7:	01 13                	add    %edx,(%ebx)
     6d9:	00 00                	add    %al,(%eax)
     6db:	10 05 00 03 0e 3a    	adc    %al,0x3a0e0300
     6e1:	21 01                	and    %eax,(%ecx)
     6e3:	3b 0b                	cmp    (%ebx),%ecx
     6e5:	39 0b                	cmp    %ecx,(%ebx)
     6e7:	49                   	dec    %ecx
     6e8:	13 02                	adc    (%edx),%eax
     6ea:	18 00                	sbb    %al,(%eax)
     6ec:	00 11                	add    %dl,(%ecx)
     6ee:	2e 00 3f             	add    %bh,%cs:(%edi)
     6f1:	19 03                	sbb    %eax,(%ebx)
     6f3:	0e                   	push   %cs
     6f4:	3a 21                	cmp    (%ecx),%ah
     6f6:	01 3b                	add    %edi,(%ebx)
     6f8:	0b 39                	or     (%ecx),%edi
     6fa:	21 06                	and    %eax,(%esi)
     6fc:	11 01                	adc    %eax,(%ecx)
     6fe:	12 06                	adc    (%esi),%al
     700:	40                   	inc    %eax
     701:	18 7c 19 00          	sbb    %bh,0x0(%ecx,%ebx,1)
     705:	00 12                	add    %dl,(%edx)
     707:	13 01                	adc    (%ecx),%eax
     709:	03 0e                	add    (%esi),%ecx
     70b:	0b 0b                	or     (%ebx),%ecx
     70d:	3a 0b                	cmp    (%ebx),%cl
     70f:	3b 0b                	cmp    (%ebx),%ecx
     711:	39 21                	cmp    %esp,(%ecx)
     713:	08 01                	or     %al,(%ecx)
     715:	13 00                	adc    (%eax),%eax
     717:	00 13                	add    %dl,(%ebx)
     719:	34 00                	xor    $0x0,%al
     71b:	03 0e                	add    (%esi),%ecx
     71d:	3a 21                	cmp    (%ecx),%ah
     71f:	01 3b                	add    %edi,(%ebx)
     721:	0b 39                	or     (%ecx),%edi
     723:	0b 49 13             	or     0x13(%ecx),%ecx
     726:	3f                   	aas
     727:	19 02                	sbb    %eax,(%edx)
     729:	18 00                	sbb    %al,(%eax)
     72b:	00 14 2e             	add    %dl,(%esi,%ebp,1)
     72e:	01 3f                	add    %edi,(%edi)
     730:	19 03                	sbb    %eax,(%ebx)
     732:	0e                   	push   %cs
     733:	3a 21                	cmp    (%ecx),%ah
     735:	01 3b                	add    %edi,(%ebx)
     737:	0b 39                	or     (%ecx),%edi
     739:	21 09                	and    %ecx,(%ecx)
     73b:	27                   	daa
     73c:	19 49 13             	sbb    %ecx,0x13(%ecx)
     73f:	11 01                	adc    %eax,(%ecx)
     741:	12 06                	adc    (%esi),%al
     743:	40                   	inc    %eax
     744:	18 7a 19             	sbb    %bh,0x19(%edx)
     747:	01 13                	add    %edx,(%ebx)
     749:	00 00                	add    %al,(%eax)
     74b:	15 11 01 25 0e       	adc    $0xe250111,%eax
     750:	13 0b                	adc    (%ebx),%ecx
     752:	03 1f                	add    (%edi),%ebx
     754:	1b 1f                	sbb    (%edi),%ebx
     756:	11 01                	adc    %eax,(%ecx)
     758:	12 06                	adc    (%esi),%al
     75a:	10 17                	adc    %dl,(%edi)
     75c:	00 00                	add    %al,(%eax)
     75e:	16                   	push   %ss
     75f:	24 00                	and    $0x0,%al
     761:	0b 0b                	or     (%ebx),%ecx
     763:	3e 0b 03             	or     %ds:(%ebx),%eax
     766:	08 00                	or     %al,(%eax)
     768:	00 17                	add    %dl,(%edi)
     76a:	13 01                	adc    (%ecx),%eax
     76c:	0b 0b                	or     (%ebx),%ecx
     76e:	3a 0b                	cmp    (%ebx),%cl
     770:	3b 0b                	cmp    (%ebx),%ecx
     772:	39 0b                	cmp    %ecx,(%ebx)
     774:	01 13                	add    %edx,(%ebx)
     776:	00 00                	add    %al,(%eax)
     778:	18 0f                	sbb    %cl,(%edi)
     77a:	00 0b                	add    %cl,(%ebx)
     77c:	0b 00                	or     (%eax),%eax
     77e:	00 19                	add    %bl,(%ecx)
     780:	15 01 27 19 01       	adc    $0x1192701,%eax
     785:	13 00                	adc    (%eax),%eax
     787:	00 1a                	add    %bl,(%edx)
     789:	15 00 27 19 00       	adc    $0x192700,%eax
     78e:	00 1b                	add    %bl,(%ebx)
     790:	2e 01 3f             	add    %edi,%cs:(%edi)
     793:	19 03                	sbb    %eax,(%ebx)
     795:	0e                   	push   %cs
     796:	3a 0b                	cmp    (%ebx),%cl
     798:	3b 0b                	cmp    (%ebx),%ecx
     79a:	39 0b                	cmp    %ecx,(%ebx)
     79c:	27                   	daa
     79d:	19 49 13             	sbb    %ecx,0x13(%ecx)
     7a0:	3c 19                	cmp    $0x19,%al
     7a2:	01 13                	add    %edx,(%ebx)
     7a4:	00 00                	add    %al,(%eax)
     7a6:	1c 0b                	sbb    $0xb,%al
     7a8:	01 11                	add    %edx,(%ecx)
     7aa:	01 12                	add    %edx,(%edx)
     7ac:	06                   	push   %es
     7ad:	00 00                	add    %al,(%eax)
     7af:	1d 34 00 03 08       	sbb    $0x8030034,%eax
     7b4:	3a 0b                	cmp    (%ebx),%cl
     7b6:	3b 0b                	cmp    (%ebx),%ecx
     7b8:	39 0b                	cmp    %ecx,(%ebx)
     7ba:	49                   	dec    %ecx
     7bb:	13 02                	adc    (%edx),%eax
     7bd:	18 00                	sbb    %al,(%eax)
     7bf:	00 00                	add    %al,(%eax)
     7c1:	01 24 00             	add    %esp,(%eax,%eax,1)
     7c4:	0b 0b                	or     (%ebx),%ecx
     7c6:	3e 0b 03             	or     %ds:(%ebx),%eax
     7c9:	0e                   	push   %cs
     7ca:	00 00                	add    %al,(%eax)
     7cc:	02 28                	add    (%eax),%ch
     7ce:	00 03                	add    %al,(%ebx)
     7d0:	0e                   	push   %cs
     7d1:	1c 0b                	sbb    $0xb,%al
     7d3:	00 00                	add    %al,(%eax)
     7d5:	03 0d 00 03 0e 3a    	add    0x3a0e0300,%ecx
     7db:	0b 3b                	or     (%ebx),%edi
     7dd:	0b 39                	or     (%ecx),%edi
     7df:	0b 49 13             	or     0x13(%ecx),%ecx
     7e2:	38 0b                	cmp    %cl,(%ebx)
     7e4:	00 00                	add    %al,(%eax)
     7e6:	04 16                	add    $0x16,%al
     7e8:	00 03                	add    %al,(%ebx)
     7ea:	0e                   	push   %cs
     7eb:	3a 0b                	cmp    (%ebx),%cl
     7ed:	3b 0b                	cmp    (%ebx),%ecx
     7ef:	39 0b                	cmp    %ecx,(%ebx)
     7f1:	49                   	dec    %ecx
     7f2:	13 00                	adc    (%eax),%eax
     7f4:	00 05 05 00 49 13    	add    %al,0x13490005
     7fa:	00 00                	add    %al,(%eax)
     7fc:	06                   	push   %es
     7fd:	05 00 03 0e 3a       	add    $0x3a0e0300,%eax
     802:	21 01                	and    %eax,(%ecx)
     804:	3b 0b                	cmp    (%ebx),%ecx
     806:	39 0b                	cmp    %ecx,(%ebx)
     808:	49                   	dec    %ecx
     809:	13 02                	adc    (%edx),%eax
     80b:	18 00                	sbb    %al,(%eax)
     80d:	00 07                	add    %al,(%edi)
     80f:	13 01                	adc    (%ecx),%eax
     811:	03 0e                	add    (%esi),%ecx
     813:	0b 0b                	or     (%ebx),%ecx
     815:	3a 0b                	cmp    (%ebx),%cl
     817:	3b 0b                	cmp    (%ebx),%ecx
     819:	39 21                	cmp    %esp,(%ecx)
     81b:	08 01                	or     %al,(%ecx)
     81d:	13 00                	adc    (%eax),%eax
     81f:	00 08                	add    %cl,(%eax)
     821:	0d 00 03 08 3a       	or     $0x3a080300,%eax
     826:	0b 3b                	or     (%ebx),%edi
     828:	0b 39                	or     (%ecx),%edi
     82a:	0b 49 13             	or     0x13(%ecx),%ecx
     82d:	38 0b                	cmp    %cl,(%ebx)
     82f:	00 00                	add    %al,(%eax)
     831:	09 0f                	or     %ecx,(%edi)
     833:	00 0b                	add    %cl,(%ebx)
     835:	21 04 49             	and    %eax,(%ecx,%ecx,2)
     838:	13 00                	adc    (%eax),%eax
     83a:	00 0a                	add    %cl,(%edx)
     83c:	2e 01 3f             	add    %edi,%cs:(%edi)
     83f:	19 03                	sbb    %eax,(%ebx)
     841:	0e                   	push   %cs
     842:	3a 0b                	cmp    (%ebx),%cl
     844:	3b 0b                	cmp    (%ebx),%ecx
     846:	39 0b                	cmp    %ecx,(%ebx)
     848:	27                   	daa
     849:	19 3c 19             	sbb    %edi,(%ecx,%ebx,1)
     84c:	01 13                	add    %edx,(%ebx)
     84e:	00 00                	add    %al,(%eax)
     850:	0b 34 00             	or     (%eax,%eax,1),%esi
     853:	03 08                	add    (%eax),%ecx
     855:	3a 21                	cmp    (%ecx),%ah
     857:	01 3b                	add    %edi,(%ebx)
     859:	0b 39                	or     (%ecx),%edi
     85b:	0b 49 13             	or     0x13(%ecx),%ecx
     85e:	02 18                	add    (%eax),%bl
     860:	00 00                	add    %al,(%eax)
     862:	0c 2e                	or     $0x2e,%al
     864:	00 3f                	add    %bh,(%edi)
     866:	19 03                	sbb    %eax,(%ebx)
     868:	0e                   	push   %cs
     869:	3a 21                	cmp    (%ecx),%ah
     86b:	01 3b                	add    %edi,(%ebx)
     86d:	0b 39                	or     (%ecx),%edi
     86f:	21 06                	and    %eax,(%esi)
     871:	11 01                	adc    %eax,(%ecx)
     873:	12 06                	adc    (%esi),%al
     875:	40                   	inc    %eax
     876:	18 7c 19 00          	sbb    %bh,0x0(%ecx,%ebx,1)
     87a:	00 0d 11 01 25 0e    	add    %cl,0xe250111
     880:	13 0b                	adc    (%ebx),%ecx
     882:	03 1f                	add    (%edi),%ebx
     884:	1b 1f                	sbb    (%edi),%ebx
     886:	11 01                	adc    %eax,(%ecx)
     888:	12 06                	adc    (%esi),%al
     88a:	10 17                	adc    %dl,(%edi)
     88c:	00 00                	add    %al,(%eax)
     88e:	0e                   	push   %cs
     88f:	24 00                	and    $0x0,%al
     891:	0b 0b                	or     (%ebx),%ecx
     893:	3e 0b 03             	or     %ds:(%ebx),%eax
     896:	08 00                	or     %al,(%eax)
     898:	00 0f                	add    %cl,(%edi)
     89a:	26 00 49 13          	add    %cl,%es:0x13(%ecx)
     89e:	00 00                	add    %al,(%eax)
     8a0:	10 15 00 27 19 00    	adc    %dl,0x192700
     8a6:	00 11                	add    %dl,(%ecx)
     8a8:	04 01                	add    $0x1,%al
     8aa:	3e 0b 0b             	or     %ds:(%ebx),%ecx
     8ad:	0b 49 13             	or     0x13(%ecx),%ecx
     8b0:	3a 0b                	cmp    (%ebx),%cl
     8b2:	3b 0b                	cmp    (%ebx),%ecx
     8b4:	39 0b                	cmp    %ecx,(%ebx)
     8b6:	01 13                	add    %edx,(%ebx)
     8b8:	00 00                	add    %al,(%eax)
     8ba:	12 34 00             	adc    (%eax,%eax,1),%dh
     8bd:	03 0e                	add    (%esi),%ecx
     8bf:	3a 0b                	cmp    (%ebx),%cl
     8c1:	3b 0b                	cmp    (%ebx),%ecx
     8c3:	39 0b                	cmp    %ecx,(%ebx)
     8c5:	49                   	dec    %ecx
     8c6:	13 3f                	adc    (%edi),%edi
     8c8:	19 02                	sbb    %eax,(%edx)
     8ca:	18 00                	sbb    %al,(%eax)
     8cc:	00 13                	add    %dl,(%ebx)
     8ce:	01 01                	add    %eax,(%ecx)
     8d0:	49                   	dec    %ecx
     8d1:	13 01                	adc    (%ecx),%eax
     8d3:	13 00                	adc    (%eax),%eax
     8d5:	00 14 21             	add    %dl,(%ecx,%eiz,1)
     8d8:	00 49 13             	add    %cl,0x13(%ecx)
     8db:	2f                   	das
     8dc:	0b 00                	or     (%eax),%eax
     8de:	00 15 34 00 03 08    	add    %dl,0x8030034
     8e4:	3a 0b                	cmp    (%ebx),%cl
     8e6:	3b 0b                	cmp    (%ebx),%ecx
     8e8:	39 0b                	cmp    %ecx,(%ebx)
     8ea:	49                   	dec    %ecx
     8eb:	13 3f                	adc    (%edi),%edi
     8ed:	19 88 01 0b 02 18    	sbb    %ecx,0x18020b01(%eax)
     8f3:	00 00                	add    %al,(%eax)
     8f5:	16                   	push   %ss
     8f6:	0f 00 0b             	str    (%ebx)
     8f9:	0b 00                	or     (%eax),%eax
     8fb:	00 17                	add    %dl,(%edi)
     8fd:	2e 01 3f             	add    %edi,%cs:(%edi)
     900:	19 03                	sbb    %eax,(%ebx)
     902:	0e                   	push   %cs
     903:	3a 0b                	cmp    (%ebx),%cl
     905:	3b 0b                	cmp    (%ebx),%ecx
     907:	39 0b                	cmp    %ecx,(%ebx)
     909:	27                   	daa
     90a:	19 11                	sbb    %edx,(%ecx)
     90c:	01 12                	add    %edx,(%edx)
     90e:	06                   	push   %es
     90f:	40                   	inc    %eax
     910:	18 7c 19 01          	sbb    %bh,0x1(%ecx,%ebx,1)
     914:	13 00                	adc    (%eax),%eax
     916:	00 18                	add    %bl,(%eax)
     918:	0b 01                	or     (%ecx),%eax
     91a:	11 01                	adc    %eax,(%ecx)
     91c:	12 06                	adc    (%esi),%al
     91e:	00 00                	add    %al,(%eax)
     920:	19 2e                	sbb    %ebp,(%esi)
     922:	01 3f                	add    %edi,(%edi)
     924:	19 03                	sbb    %eax,(%ebx)
     926:	0e                   	push   %cs
     927:	3a 0b                	cmp    (%ebx),%cl
     929:	3b 0b                	cmp    (%ebx),%ecx
     92b:	39 0b                	cmp    %ecx,(%ebx)
     92d:	27                   	daa
     92e:	19 11                	sbb    %edx,(%ecx)
     930:	01 12                	add    %edx,(%edx)
     932:	06                   	push   %es
     933:	40                   	inc    %eax
     934:	18 7a 19             	sbb    %bh,0x19(%edx)
     937:	01 13                	add    %edx,(%ebx)
     939:	00 00                	add    %al,(%eax)
     93b:	1a 05 00 03 08 3a    	sbb    0x3a080300,%al
     941:	0b 3b                	or     (%ebx),%edi
     943:	0b 39                	or     (%ecx),%edi
     945:	0b 49 13             	or     0x13(%ecx),%ecx
     948:	02 18                	add    (%eax),%bl
     94a:	00 00                	add    %al,(%eax)
     94c:	00 01                	add    %al,(%ecx)
     94e:	0d 00 03 0e 3a       	or     $0x3a0e0300,%eax
     953:	21 03                	and    %eax,(%ebx)
     955:	3b 0b                	cmp    (%ebx),%ecx
     957:	39 0b                	cmp    %ecx,(%ebx)
     959:	49                   	dec    %ecx
     95a:	13 38                	adc    (%eax),%edi
     95c:	0b 00                	or     (%eax),%eax
     95e:	00 02                	add    %al,(%edx)
     960:	24 00                	and    $0x0,%al
     962:	0b 0b                	or     (%ebx),%ecx
     964:	3e 0b 03             	or     %ds:(%ebx),%eax
     967:	0e                   	push   %cs
     968:	00 00                	add    %al,(%eax)
     96a:	03 16                	add    (%esi),%edx
     96c:	00 03                	add    %al,(%ebx)
     96e:	0e                   	push   %cs
     96f:	3a 0b                	cmp    (%ebx),%cl
     971:	3b 0b                	cmp    (%ebx),%ecx
     973:	39 0b                	cmp    %ecx,(%ebx)
     975:	49                   	dec    %ecx
     976:	13 00                	adc    (%eax),%eax
     978:	00 04 34             	add    %al,(%esp,%esi,1)
     97b:	00 03                	add    %al,(%ebx)
     97d:	0e                   	push   %cs
     97e:	3a 21                	cmp    (%ecx),%ah
     980:	01 3b                	add    %edi,(%ebx)
     982:	0b 39                	or     (%ecx),%edi
     984:	0b 49 13             	or     0x13(%ecx),%ecx
     987:	02 18                	add    (%eax),%bl
     989:	00 00                	add    %al,(%eax)
     98b:	05 0d 00 03 0e       	add    $0xe03000d,%eax
     990:	3a 21                	cmp    (%ecx),%ah
     992:	03 3b                	add    (%ebx),%edi
     994:	0b 39                	or     (%ecx),%edi
     996:	0b 49 13             	or     0x13(%ecx),%ecx
     999:	38 05 00 00 06 34    	cmp    %al,0x34060000
     99f:	00 03                	add    %al,(%ebx)
     9a1:	0e                   	push   %cs
     9a2:	3a 21                	cmp    (%ecx),%ah
     9a4:	04 3b                	add    $0x3b,%al
     9a6:	0b 39                	or     (%ecx),%edi
     9a8:	21 0e                	and    %ecx,(%esi)
     9aa:	49                   	dec    %ecx
     9ab:	13 3f                	adc    (%edi),%edi
     9ad:	19 3c 19             	sbb    %edi,(%ecx,%ebx,1)
     9b0:	00 00                	add    %al,(%eax)
     9b2:	07                   	pop    %es
     9b3:	05 00 03 0e 3a       	add    $0x3a0e0300,%eax
     9b8:	21 01                	and    %eax,(%ecx)
     9ba:	3b 0b                	cmp    (%ebx),%ecx
     9bc:	39 0b                	cmp    %ecx,(%ebx)
     9be:	49                   	dec    %ecx
     9bf:	13 02                	adc    (%edx),%eax
     9c1:	18 00                	sbb    %al,(%eax)
     9c3:	00 08                	add    %cl,(%eax)
     9c5:	13 01                	adc    (%ecx),%eax
     9c7:	0b 0b                	or     (%ebx),%ecx
     9c9:	3a 21                	cmp    (%ecx),%ah
     9cb:	03 3b                	add    (%ebx),%edi
     9cd:	0b 39                	or     (%ecx),%edi
     9cf:	21 09                	and    %ecx,(%ecx)
     9d1:	01 13                	add    %edx,(%ebx)
     9d3:	00 00                	add    %al,(%eax)
     9d5:	09 0d 00 03 08 3a    	or     %ecx,0x3a080300
     9db:	21 03                	and    %eax,(%ebx)
     9dd:	3b 0b                	cmp    (%ebx),%ecx
     9df:	39 21                	cmp    %esp,(%ecx)
     9e1:	0e                   	push   %cs
     9e2:	49                   	dec    %ecx
     9e3:	13 38                	adc    (%eax),%edi
     9e5:	0b 00                	or     (%eax),%eax
     9e7:	00 0a                	add    %cl,(%edx)
     9e9:	0f 00 0b             	str    (%ebx)
     9ec:	21 04 49             	and    %eax,(%ecx,%ecx,2)
     9ef:	13 00                	adc    (%eax),%eax
     9f1:	00 0b                	add    %cl,(%ebx)
     9f3:	2e 01 3f             	add    %edi,%cs:(%edi)
     9f6:	19 03                	sbb    %eax,(%ebx)
     9f8:	0e                   	push   %cs
     9f9:	3a 21                	cmp    (%ecx),%ah
     9fb:	01 3b                	add    %edi,(%ebx)
     9fd:	0b 39                	or     (%ecx),%edi
     9ff:	21 06                	and    %eax,(%esi)
     a01:	27                   	daa
     a02:	19 11                	sbb    %edx,(%ecx)
     a04:	01 12                	add    %edx,(%edx)
     a06:	06                   	push   %es
     a07:	40                   	inc    %eax
     a08:	18 7a 19             	sbb    %bh,0x19(%edx)
     a0b:	01 13                	add    %edx,(%ebx)
     a0d:	00 00                	add    %al,(%eax)
     a0f:	0c 34                	or     $0x34,%al
     a11:	00 03                	add    %al,(%ebx)
     a13:	08 3a                	or     %bh,(%edx)
     a15:	21 01                	and    %eax,(%ecx)
     a17:	3b 0b                	cmp    (%ebx),%ecx
     a19:	39 0b                	cmp    %ecx,(%ebx)
     a1b:	49                   	dec    %ecx
     a1c:	13 02                	adc    (%edx),%eax
     a1e:	18 00                	sbb    %al,(%eax)
     a20:	00 0d 0b 01 11 01    	add    %cl,0x111010b
     a26:	12 06                	adc    (%esi),%al
     a28:	00 00                	add    %al,(%eax)
     a2a:	0e                   	push   %cs
     a2b:	11 01                	adc    %eax,(%ecx)
     a2d:	25 0e 13 0b 03       	and    $0x30b130e,%eax
     a32:	1f                   	pop    %ds
     a33:	1b 1f                	sbb    (%edi),%ebx
     a35:	11 01                	adc    %eax,(%ecx)
     a37:	12 06                	adc    (%esi),%al
     a39:	10 17                	adc    %dl,(%edi)
     a3b:	00 00                	add    %al,(%eax)
     a3d:	0f 24 00             	mov    %tr0,%eax
     a40:	0b 0b                	or     (%ebx),%ecx
     a42:	3e 0b 03             	or     %ds:(%ebx),%eax
     a45:	08 00                	or     %al,(%eax)
     a47:	00 10                	add    %dl,(%eax)
     a49:	13 01                	adc    (%ecx),%eax
     a4b:	0b 05 3a 0b 3b 0b    	or     0xb3b0b3a,%eax
     a51:	39 0b                	cmp    %ecx,(%ebx)
     a53:	01 13                	add    %edx,(%ebx)
     a55:	00 00                	add    %al,(%eax)
     a57:	11 01                	adc    %eax,(%ecx)
     a59:	01 49 13             	add    %ecx,0x13(%ecx)
     a5c:	01 13                	add    %edx,(%ebx)
     a5e:	00 00                	add    %al,(%eax)
     a60:	12 21                	adc    (%ecx),%ah
     a62:	00 49 13             	add    %cl,0x13(%ecx)
     a65:	2f                   	das
     a66:	0b 00                	or     (%eax),%eax
     a68:	00 13                	add    %dl,(%ebx)
     a6a:	0f 00 0b             	str    (%ebx)
     a6d:	0b 00                	or     (%eax),%eax
     a6f:	00 14 2e             	add    %dl,(%esi,%ebp,1)
     a72:	01 3f                	add    %edi,(%edi)
     a74:	19 03                	sbb    %eax,(%ebx)
     a76:	0e                   	push   %cs
     a77:	3a 0b                	cmp    (%ebx),%cl
     a79:	3b 0b                	cmp    (%ebx),%ecx
     a7b:	39 0b                	cmp    %ecx,(%ebx)
     a7d:	27                   	daa
     a7e:	19 3c 19             	sbb    %edi,(%ecx,%ebx,1)
     a81:	01 13                	add    %edx,(%ebx)
     a83:	00 00                	add    %al,(%eax)
     a85:	15 05 00 49 13       	adc    $0x13490005,%eax
     a8a:	00 00                	add    %al,(%eax)
     a8c:	16                   	push   %ss
     a8d:	2e 01 3f             	add    %edi,%cs:(%edi)
     a90:	19 03                	sbb    %eax,(%ebx)
     a92:	0e                   	push   %cs
     a93:	3a 0b                	cmp    (%ebx),%cl
     a95:	3b 0b                	cmp    (%ebx),%ecx
     a97:	39 0b                	cmp    %ecx,(%ebx)
     a99:	27                   	daa
     a9a:	19 11                	sbb    %edx,(%ecx)
     a9c:	01 12                	add    %edx,(%edx)
     a9e:	06                   	push   %es
     a9f:	40                   	inc    %eax
     aa0:	18 7c 19 00          	sbb    %bh,0x0(%ecx,%ebx,1)
     aa4:	00 00                	add    %al,(%eax)
     aa6:	01 28                	add    %ebp,(%eax)
     aa8:	00 03                	add    %al,(%ebx)
     aaa:	0e                   	push   %cs
     aab:	1c 0b                	sbb    $0xb,%al
     aad:	00 00                	add    %al,(%eax)
     aaf:	02 0d 00 03 08 3a    	add    0x3a080300,%cl
     ab5:	21 03                	and    %eax,(%ebx)
     ab7:	3b 0b                	cmp    (%ebx),%ecx
     ab9:	39 21                	cmp    %esp,(%ecx)
     abb:	13 49 13             	adc    0x13(%ecx),%ecx
     abe:	38 0b                	cmp    %cl,(%ebx)
     ac0:	00 00                	add    %al,(%eax)
     ac2:	03 0d 00 03 0e 3a    	add    0x3a0e0300,%ecx
     ac8:	21 03                	and    %eax,(%ebx)
     aca:	3b 0b                	cmp    (%ebx),%ecx
     acc:	39 0b                	cmp    %ecx,(%ebx)
     ace:	49                   	dec    %ecx
     acf:	13 38                	adc    (%eax),%edi
     ad1:	0b 00                	or     (%eax),%eax
     ad3:	00 04 16             	add    %al,(%esi,%edx,1)
     ad6:	00 03                	add    %al,(%ebx)
     ad8:	0e                   	push   %cs
     ad9:	3a 0b                	cmp    (%ebx),%cl
     adb:	3b 0b                	cmp    (%ebx),%ecx
     add:	39 0b                	cmp    %ecx,(%ebx)
     adf:	49                   	dec    %ecx
     ae0:	13 00                	adc    (%eax),%eax
     ae2:	00 05 05 00 49 13    	add    %al,0x13490005
     ae8:	00 00                	add    %al,(%eax)
     aea:	06                   	push   %es
     aeb:	24 00                	and    $0x0,%al
     aed:	0b 0b                	or     (%ebx),%ecx
     aef:	3e 0b 03             	or     %ds:(%ebx),%eax
     af2:	0e                   	push   %cs
     af3:	00 00                	add    %al,(%eax)
     af5:	07                   	pop    %es
     af6:	18 00                	sbb    %al,(%eax)
     af8:	00 00                	add    %al,(%eax)
     afa:	08 13                	or     %dl,(%ebx)
     afc:	01 03                	add    %eax,(%ebx)
     afe:	0e                   	push   %cs
     aff:	0b 0b                	or     (%ebx),%ecx
     b01:	3a 21                	cmp    (%ecx),%ah
     b03:	03 3b                	add    (%ebx),%edi
     b05:	0b 39                	or     (%ecx),%edi
     b07:	21 08                	and    %ecx,(%eax)
     b09:	01 13                	add    %edx,(%ebx)
     b0b:	00 00                	add    %al,(%eax)
     b0d:	09 04 01             	or     %eax,(%ecx,%eax,1)
     b10:	3e 21 07             	and    %eax,%ds:(%edi)
     b13:	0b 21                	or     (%ecx),%esp
     b15:	04 49                	add    $0x49,%al
     b17:	13 3a                	adc    (%edx),%edi
     b19:	0b 3b                	or     (%ebx),%edi
     b1b:	0b 39                	or     (%ecx),%edi
     b1d:	0b 01                	or     (%ecx),%eax
     b1f:	13 00                	adc    (%eax),%eax
     b21:	00 0a                	add    %cl,(%edx)
     b23:	0f 00 0b             	str    (%ebx)
     b26:	21 04 49             	and    %eax,(%ecx,%ecx,2)
     b29:	13 00                	adc    (%eax),%eax
     b2b:	00 0b                	add    %cl,(%ebx)
     b2d:	2e 01 3f             	add    %edi,%cs:(%edi)
     b30:	19 03                	sbb    %eax,(%ebx)
     b32:	0e                   	push   %cs
     b33:	3a 21                	cmp    (%ecx),%ah
     b35:	01 3b                	add    %edi,(%ebx)
     b37:	0b 39                	or     (%ecx),%edi
     b39:	21 09                	and    %ecx,(%ecx)
     b3b:	49                   	dec    %ecx
     b3c:	13 3c 19             	adc    (%ecx,%ebx,1),%edi
     b3f:	01 13                	add    %edx,(%ebx)
     b41:	00 00                	add    %al,(%eax)
     b43:	0c 34                	or     $0x34,%al
     b45:	00 03                	add    %al,(%ebx)
     b47:	08 3a                	or     %bh,(%edx)
     b49:	21 01                	and    %eax,(%ecx)
     b4b:	3b 0b                	cmp    (%ebx),%ecx
     b4d:	39 0b                	cmp    %ecx,(%ebx)
     b4f:	49                   	dec    %ecx
     b50:	13 02                	adc    (%edx),%eax
     b52:	18 00                	sbb    %al,(%eax)
     b54:	00 0d 01 01 49 13    	add    %cl,0x13490101
     b5a:	01 13                	add    %edx,(%ebx)
     b5c:	00 00                	add    %al,(%eax)
     b5e:	0e                   	push   %cs
     b5f:	21 00                	and    %eax,(%eax)
     b61:	49                   	dec    %ecx
     b62:	13 2f                	adc    (%edi),%ebp
     b64:	21 0f                	and    %ecx,(%edi)
     b66:	00 00                	add    %al,(%eax)
     b68:	0f 2e 01             	ucomiss (%ecx),%xmm0
     b6b:	3f                   	aas
     b6c:	19 03                	sbb    %eax,(%ebx)
     b6e:	0e                   	push   %cs
     b6f:	3a 0b                	cmp    (%ebx),%cl
     b71:	3b 0b                	cmp    (%ebx),%ecx
     b73:	39 21                	cmp    %esp,(%ecx)
     b75:	06                   	push   %es
     b76:	27                   	daa
     b77:	19 3c 19             	sbb    %edi,(%ecx,%ebx,1)
     b7a:	01 13                	add    %edx,(%ebx)
     b7c:	00 00                	add    %al,(%eax)
     b7e:	10 2e                	adc    %ch,(%esi)
     b80:	01 3f                	add    %edi,(%edi)
     b82:	19 03                	sbb    %eax,(%ebx)
     b84:	0e                   	push   %cs
     b85:	3a 0b                	cmp    (%ebx),%cl
     b87:	3b 0b                	cmp    (%ebx),%ecx
     b89:	39 0b                	cmp    %ecx,(%ebx)
     b8b:	27                   	daa
     b8c:	19 49 13             	sbb    %ecx,0x13(%ecx)
     b8f:	3c 19                	cmp    $0x19,%al
     b91:	01 13                	add    %edx,(%ebx)
     b93:	00 00                	add    %al,(%eax)
     b95:	11 05 00 03 08 3a    	adc    %eax,0x3a080300
     b9b:	21 01                	and    %eax,(%ecx)
     b9d:	3b 0b                	cmp    (%ebx),%ecx
     b9f:	39 0b                	cmp    %ecx,(%ebx)
     ba1:	49                   	dec    %ecx
     ba2:	13 02                	adc    (%edx),%eax
     ba4:	18 00                	sbb    %al,(%eax)
     ba6:	00 12                	add    %dl,(%edx)
     ba8:	2e 01 3f             	add    %edi,%cs:(%edi)
     bab:	19 03                	sbb    %eax,(%ebx)
     bad:	0e                   	push   %cs
     bae:	3a 21                	cmp    (%ecx),%ah
     bb0:	01 3b                	add    %edi,(%ebx)
     bb2:	0b 39                	or     (%ecx),%edi
     bb4:	21 09                	and    %ecx,(%ecx)
     bb6:	49                   	dec    %ecx
     bb7:	13 3c 19             	adc    (%ecx,%ebx,1),%edi
     bba:	00 00                	add    %al,(%eax)
     bbc:	13 34 00             	adc    (%eax,%eax,1),%esi
     bbf:	03 0e                	add    (%esi),%ecx
     bc1:	3a 21                	cmp    (%ecx),%ah
     bc3:	01 3b                	add    %edi,(%ebx)
     bc5:	0b 39                	or     (%ecx),%edi
     bc7:	0b 49 13             	or     0x13(%ecx),%ecx
     bca:	02 18                	add    (%eax),%bl
     bcc:	00 00                	add    %al,(%eax)
     bce:	14 11                	adc    $0x11,%al
     bd0:	01 25 0e 13 0b 03    	add    %esp,0x30b130e
     bd6:	1f                   	pop    %ds
     bd7:	1b 1f                	sbb    (%edi),%ebx
     bd9:	11 01                	adc    %eax,(%ecx)
     bdb:	12 06                	adc    (%esi),%al
     bdd:	10 17                	adc    %dl,(%edi)
     bdf:	00 00                	add    %al,(%eax)
     be1:	15 24 00 0b 0b       	adc    $0xb0b0024,%eax
     be6:	3e 0b 03             	or     %ds:(%ebx),%eax
     be9:	08 00                	or     %al,(%eax)
     beb:	00 16                	add    %dl,(%esi)
     bed:	34 00                	xor    $0x0,%al
     bef:	03 08                	add    (%eax),%ecx
     bf1:	3a 0b                	cmp    (%ebx),%cl
     bf3:	3b 0b                	cmp    (%ebx),%ecx
     bf5:	39 0b                	cmp    %ecx,(%ebx)
     bf7:	49                   	dec    %ecx
     bf8:	13 3f                	adc    (%edi),%edi
     bfa:	19 88 01 0b 02 18    	sbb    %ecx,0x18020b01(%eax)
     c00:	00 00                	add    %al,(%eax)
     c02:	17                   	pop    %ss
     c03:	34 00                	xor    $0x0,%al
     c05:	03 0e                	add    (%esi),%ecx
     c07:	3a 0b                	cmp    (%ebx),%cl
     c09:	3b 0b                	cmp    (%ebx),%ecx
     c0b:	39 0b                	cmp    %ecx,(%ebx)
     c0d:	49                   	dec    %ecx
     c0e:	13 3f                	adc    (%edi),%edi
     c10:	19 88 01 0b 02 18    	sbb    %ecx,0x18020b01(%eax)
     c16:	00 00                	add    %al,(%eax)
     c18:	18 34 00             	sbb    %dh,(%eax,%eax,1)
     c1b:	03 0e                	add    (%esi),%ecx
     c1d:	3a 0b                	cmp    (%ebx),%cl
     c1f:	3b 0b                	cmp    (%ebx),%ecx
     c21:	39 0b                	cmp    %ecx,(%ebx)
     c23:	49                   	dec    %ecx
     c24:	13 3f                	adc    (%edi),%edi
     c26:	19 02                	sbb    %eax,(%edx)
     c28:	18 00                	sbb    %al,(%eax)
     c2a:	00 19                	add    %bl,(%ecx)
     c2c:	34 00                	xor    $0x0,%al
     c2e:	03 0e                	add    (%esi),%ecx
     c30:	3a 0b                	cmp    (%ebx),%cl
     c32:	3b 0b                	cmp    (%ebx),%ecx
     c34:	39 0b                	cmp    %ecx,(%ebx)
     c36:	49                   	dec    %ecx
     c37:	13 3f                	adc    (%edi),%edi
     c39:	19 3c 19             	sbb    %edi,(%ecx,%ebx,1)
     c3c:	00 00                	add    %al,(%eax)
     c3e:	1a 0f                	sbb    (%edi),%cl
     c40:	00 0b                	add    %cl,(%ebx)
     c42:	0b 00                	or     (%eax),%eax
     c44:	00 1b                	add    %bl,(%ebx)
     c46:	2e 01 3f             	add    %edi,%cs:(%edi)
     c49:	19 03                	sbb    %eax,(%ebx)
     c4b:	0e                   	push   %cs
     c4c:	3a 0b                	cmp    (%ebx),%cl
     c4e:	3b 0b                	cmp    (%ebx),%ecx
     c50:	39 0b                	cmp    %ecx,(%ebx)
     c52:	27                   	daa
     c53:	19 49 13             	sbb    %ecx,0x13(%ecx)
     c56:	11 01                	adc    %eax,(%ecx)
     c58:	12 06                	adc    (%esi),%al
     c5a:	40                   	inc    %eax
     c5b:	18 7c 19 01          	sbb    %bh,0x1(%ecx,%ebx,1)
     c5f:	13 00                	adc    (%eax),%eax
     c61:	00 1c 05 00 03 0e 3a 	add    %bl,0x3a0e0300(,%eax,1)
     c68:	0b 3b                	or     (%ebx),%edi
     c6a:	0b 39                	or     (%ecx),%edi
     c6c:	0b 49 13             	or     0x13(%ecx),%ecx
     c6f:	02 18                	add    (%eax),%bl
     c71:	00 00                	add    %al,(%eax)
     c73:	1d 0b 01 11 01       	sbb    $0x111010b,%eax
     c78:	12 06                	adc    (%esi),%al
     c7a:	01 13                	add    %edx,(%ebx)
     c7c:	00 00                	add    %al,(%eax)
     c7e:	1e                   	push   %ds
     c7f:	0b 01                	or     (%ecx),%eax
     c81:	11 01                	adc    %eax,(%ecx)
     c83:	12 06                	adc    (%esi),%al
     c85:	00 00                	add    %al,(%eax)
     c87:	1f                   	pop    %ds
     c88:	2e 01 3f             	add    %edi,%cs:(%edi)
     c8b:	19 03                	sbb    %eax,(%ebx)
     c8d:	0e                   	push   %cs
     c8e:	3a 0b                	cmp    (%ebx),%cl
     c90:	3b 0b                	cmp    (%ebx),%ecx
     c92:	39 0b                	cmp    %ecx,(%ebx)
     c94:	27                   	daa
     c95:	19 49 13             	sbb    %ecx,0x13(%ecx)
     c98:	11 01                	adc    %eax,(%ecx)
     c9a:	12 06                	adc    (%esi),%al
     c9c:	40                   	inc    %eax
     c9d:	18 7a 19             	sbb    %bh,0x19(%edx)
     ca0:	01 13                	add    %edx,(%ebx)
     ca2:	00 00                	add    %al,(%eax)
     ca4:	20 2e                	and    %ch,(%esi)
     ca6:	00 3f                	add    %bh,(%edi)
     ca8:	19 03                	sbb    %eax,(%ebx)
     caa:	0e                   	push   %cs
     cab:	3a 0b                	cmp    (%ebx),%cl
     cad:	3b 0b                	cmp    (%ebx),%ecx
     caf:	39 0b                	cmp    %ecx,(%ebx)
     cb1:	11 01                	adc    %eax,(%ecx)
     cb3:	12 06                	adc    (%esi),%al
     cb5:	40                   	inc    %eax
     cb6:	18 7c 19 00          	sbb    %bh,0x0(%ecx,%ebx,1)
     cba:	00 00                	add    %al,(%eax)
     cbc:	01 0d 00 03 0e 3a    	add    %ecx,0x3a0e0300
     cc2:	0b 3b                	or     (%ebx),%edi
     cc4:	0b 39                	or     (%ecx),%edi
     cc6:	0b 49 13             	or     0x13(%ecx),%ecx
     cc9:	38 0b                	cmp    %cl,(%ebx)
     ccb:	00 00                	add    %al,(%eax)
     ccd:	02 0d 00 03 08 3a    	add    0x3a080300,%cl
     cd3:	21 03                	and    %eax,(%ebx)
     cd5:	3b 0b                	cmp    (%ebx),%ecx
     cd7:	39 0b                	cmp    %ecx,(%ebx)
     cd9:	49                   	dec    %ecx
     cda:	13 38                	adc    (%eax),%edi
     cdc:	0b 00                	or     (%eax),%eax
     cde:	00 03                	add    %al,(%ebx)
     ce0:	16                   	push   %ss
     ce1:	00 03                	add    %al,(%ebx)
     ce3:	0e                   	push   %cs
     ce4:	3a 0b                	cmp    (%ebx),%cl
     ce6:	3b 0b                	cmp    (%ebx),%ecx
     ce8:	39 0b                	cmp    %ecx,(%ebx)
     cea:	49                   	dec    %ecx
     ceb:	13 00                	adc    (%eax),%eax
     ced:	00 04 34             	add    %al,(%esp,%esi,1)
     cf0:	00 03                	add    %al,(%ebx)
     cf2:	0e                   	push   %cs
     cf3:	3a 21                	cmp    (%ecx),%ah
     cf5:	01 3b                	add    %edi,(%ebx)
     cf7:	0b 39                	or     (%ecx),%edi
     cf9:	0b 49 13             	or     0x13(%ecx),%ecx
     cfc:	02 18                	add    (%eax),%bl
     cfe:	00 00                	add    %al,(%eax)
     d00:	05 0f 00 0b 21       	add    $0x210b000f,%eax
     d05:	04 49                	add    $0x49,%al
     d07:	13 00                	adc    (%eax),%eax
     d09:	00 06                	add    %al,(%esi)
     d0b:	24 00                	and    $0x0,%al
     d0d:	0b 0b                	or     (%ebx),%ecx
     d0f:	3e 0b 03             	or     %ds:(%ebx),%eax
     d12:	0e                   	push   %cs
     d13:	00 00                	add    %al,(%eax)
     d15:	07                   	pop    %es
     d16:	05 00 49 13 00       	add    $0x134900,%eax
     d1b:	00 08                	add    %cl,(%eax)
     d1d:	34 00                	xor    $0x0,%al
     d1f:	03 08                	add    (%eax),%ecx
     d21:	3a 21                	cmp    (%ecx),%ah
     d23:	01 3b                	add    %edi,(%ebx)
     d25:	0b 39                	or     (%ecx),%edi
     d27:	0b 49 13             	or     0x13(%ecx),%ecx
     d2a:	02 18                	add    (%eax),%bl
     d2c:	00 00                	add    %al,(%eax)
     d2e:	09 13                	or     %edx,(%ebx)
     d30:	01 03                	add    %eax,(%ebx)
     d32:	0e                   	push   %cs
     d33:	0b 0b                	or     (%ebx),%ecx
     d35:	3a 21                	cmp    (%ecx),%ah
     d37:	03 3b                	add    (%ebx),%edi
     d39:	0b 39                	or     (%ecx),%edi
     d3b:	21 08                	and    %ecx,(%eax)
     d3d:	01 13                	add    %edx,(%ebx)
     d3f:	00 00                	add    %al,(%eax)
     d41:	0a 34 00             	or     (%eax,%eax,1),%dh
     d44:	03 0e                	add    (%esi),%ecx
     d46:	3a 21                	cmp    (%ecx),%ah
     d48:	01 3b                	add    %edi,(%ebx)
     d4a:	0b 39                	or     (%ecx),%edi
     d4c:	21 0a                	and    %ecx,(%edx)
     d4e:	49                   	dec    %ecx
     d4f:	13 3f                	adc    (%edi),%edi
     d51:	19 02                	sbb    %eax,(%edx)
     d53:	18 00                	sbb    %al,(%eax)
     d55:	00 0b                	add    %cl,(%ebx)
     d57:	05 00 03 0e 3a       	add    $0x3a0e0300,%eax
     d5c:	21 01                	and    %eax,(%ecx)
     d5e:	3b 0b                	cmp    (%ebx),%ecx
     d60:	39 0b                	cmp    %ecx,(%ebx)
     d62:	49                   	dec    %ecx
     d63:	13 02                	adc    (%edx),%eax
     d65:	18 00                	sbb    %al,(%eax)
     d67:	00 0c 05 00 03 0e 3a 	add    %cl,0x3a0e0300(,%eax,1)
     d6e:	21 01                	and    %eax,(%ecx)
     d70:	3b 05 39 0b 49 13    	cmp    0x13490b39,%eax
     d76:	02 18                	add    (%eax),%bl
     d78:	00 00                	add    %al,(%eax)
     d7a:	0d 01 01 49 13       	or     $0x13490101,%eax
     d7f:	01 13                	add    %edx,(%ebx)
     d81:	00 00                	add    %al,(%eax)
     d83:	0e                   	push   %cs
     d84:	21 00                	and    %eax,(%eax)
     d86:	49                   	dec    %ecx
     d87:	13 2f                	adc    (%edi),%ebp
     d89:	0b 00                	or     (%eax),%eax
     d8b:	00 0f                	add    %cl,(%edi)
     d8d:	2e 01 3f             	add    %edi,%cs:(%edi)
     d90:	19 03                	sbb    %eax,(%ebx)
     d92:	0e                   	push   %cs
     d93:	3a 21                	cmp    (%ecx),%ah
     d95:	01 3b                	add    %edi,(%ebx)
     d97:	0b 39                	or     (%ecx),%edi
     d99:	0b 27                	or     (%edi),%esp
     d9b:	19 49 13             	sbb    %ecx,0x13(%ecx)
     d9e:	11 01                	adc    %eax,(%ecx)
     da0:	12 06                	adc    (%esi),%al
     da2:	40                   	inc    %eax
     da3:	18 7c 19 01          	sbb    %bh,0x1(%ecx,%ebx,1)
     da7:	13 00                	adc    (%eax),%eax
     da9:	00 10                	add    %dl,(%eax)
     dab:	0b 01                	or     (%ecx),%eax
     dad:	11 01                	adc    %eax,(%ecx)
     daf:	12 06                	adc    (%esi),%al
     db1:	00 00                	add    %al,(%eax)
     db3:	11 34 00             	adc    %esi,(%eax,%eax,1)
     db6:	03 08                	add    (%eax),%ecx
     db8:	3a 21                	cmp    (%ecx),%ah
     dba:	01 3b                	add    %edi,(%ebx)
     dbc:	05 39 0b 49 13       	add    $0x13490b39,%eax
     dc1:	02 18                	add    (%eax),%bl
     dc3:	00 00                	add    %al,(%eax)
     dc5:	12 05 00 03 08 3a    	adc    0x3a080300,%al
     dcb:	21 01                	and    %eax,(%ecx)
     dcd:	3b 0b                	cmp    (%ebx),%ecx
     dcf:	39 0b                	cmp    %ecx,(%ebx)
     dd1:	49                   	dec    %ecx
     dd2:	13 02                	adc    (%edx),%eax
     dd4:	18 00                	sbb    %al,(%eax)
     dd6:	00 13                	add    %dl,(%ebx)
     dd8:	2e 01 3f             	add    %edi,%cs:(%edi)
     ddb:	19 03                	sbb    %eax,(%ebx)
     ddd:	0e                   	push   %cs
     dde:	3a 0b                	cmp    (%ebx),%cl
     de0:	3b 0b                	cmp    (%ebx),%ecx
     de2:	39 0b                	cmp    %ecx,(%ebx)
     de4:	27                   	daa
     de5:	19 3c 19             	sbb    %edi,(%ecx,%ebx,1)
     de8:	01 13                	add    %edx,(%ebx)
     dea:	00 00                	add    %al,(%eax)
     dec:	14 2e                	adc    $0x2e,%al
     dee:	00 3f                	add    %bh,(%edi)
     df0:	19 03                	sbb    %eax,(%ebx)
     df2:	0e                   	push   %cs
     df3:	3a 21                	cmp    (%ecx),%ah
     df5:	01 3b                	add    %edi,(%ebx)
     df7:	05 39 21 14 49       	add    $0x49142139,%eax
     dfc:	13 11                	adc    (%ecx),%edx
     dfe:	01 12                	add    %edx,(%edx)
     e00:	06                   	push   %es
     e01:	40                   	inc    %eax
     e02:	18 7c 19 00          	sbb    %bh,0x0(%ecx,%ebx,1)
     e06:	00 15 11 01 25 0e    	add    %dl,0xe250111
     e0c:	13 0b                	adc    (%ebx),%ecx
     e0e:	03 1f                	add    (%edi),%ebx
     e10:	1b 1f                	sbb    (%edi),%ebx
     e12:	11 01                	adc    %eax,(%ecx)
     e14:	12 06                	adc    (%esi),%al
     e16:	10 17                	adc    %dl,(%edi)
     e18:	00 00                	add    %al,(%eax)
     e1a:	16                   	push   %ss
     e1b:	26 00 49 13          	add    %cl,%es:0x13(%ecx)
     e1f:	00 00                	add    %al,(%eax)
     e21:	17                   	pop    %ss
     e22:	24 00                	and    $0x0,%al
     e24:	0b 0b                	or     (%ebx),%ecx
     e26:	3e 0b 03             	or     %ds:(%ebx),%eax
     e29:	08 00                	or     %al,(%eax)
     e2b:	00 18                	add    %bl,(%eax)
     e2d:	13 01                	adc    (%ecx),%eax
     e2f:	0b 0b                	or     (%ebx),%ecx
     e31:	3a 0b                	cmp    (%ebx),%cl
     e33:	3b 0b                	cmp    (%ebx),%ecx
     e35:	39 0b                	cmp    %ecx,(%ebx)
     e37:	01 13                	add    %edx,(%ebx)
     e39:	00 00                	add    %al,(%eax)
     e3b:	19 0f                	sbb    %ecx,(%edi)
     e3d:	00 0b                	add    %cl,(%ebx)
     e3f:	0b 00                	or     (%eax),%eax
     e41:	00 1a                	add    %bl,(%edx)
     e43:	26 00 00             	add    %al,%es:(%eax)
     e46:	00 1b                	add    %bl,(%ebx)
     e48:	2e 01 3f             	add    %edi,%cs:(%edi)
     e4b:	19 03                	sbb    %eax,(%ebx)
     e4d:	0e                   	push   %cs
     e4e:	3a 0b                	cmp    (%ebx),%cl
     e50:	3b 0b                	cmp    (%ebx),%ecx
     e52:	39 0b                	cmp    %ecx,(%ebx)
     e54:	27                   	daa
     e55:	19 49 13             	sbb    %ecx,0x13(%ecx)
     e58:	3c 19                	cmp    $0x19,%al
     e5a:	01 13                	add    %edx,(%ebx)
     e5c:	00 00                	add    %al,(%eax)
     e5e:	1c 2e                	sbb    $0x2e,%al
     e60:	01 3f                	add    %edi,(%edi)
     e62:	19 03                	sbb    %eax,(%ebx)
     e64:	0e                   	push   %cs
     e65:	3a 0b                	cmp    (%ebx),%cl
     e67:	3b 05 39 0b 27 19    	cmp    0x19270b39,%eax
     e6d:	49                   	dec    %ecx
     e6e:	13 11                	adc    (%ecx),%edx
     e70:	01 12                	add    %edx,(%edx)
     e72:	06                   	push   %es
     e73:	40                   	inc    %eax
     e74:	18 7a 19             	sbb    %bh,0x19(%edx)
     e77:	01 13                	add    %edx,(%ebx)
     e79:	00 00                	add    %al,(%eax)
     e7b:	1d 34 00 03 0e       	sbb    $0xe030034,%eax
     e80:	3a 0b                	cmp    (%ebx),%cl
     e82:	3b 05 39 0b 49 13    	cmp    0x13490b39,%eax
     e88:	02 18                	add    (%eax),%bl
     e8a:	00 00                	add    %al,(%eax)
     e8c:	1e                   	push   %ds
     e8d:	2e 01 3f             	add    %edi,%cs:(%edi)
     e90:	19 03                	sbb    %eax,(%ebx)
     e92:	0e                   	push   %cs
     e93:	3a 0b                	cmp    (%ebx),%cl
     e95:	3b 05 39 0b 27 19    	cmp    0x19270b39,%eax
     e9b:	11 01                	adc    %eax,(%ecx)
     e9d:	12 06                	adc    (%esi),%al
     e9f:	40                   	inc    %eax
     ea0:	18 7c 19 01          	sbb    %bh,0x1(%ecx,%ebx,1)
     ea4:	13 00                	adc    (%eax),%eax
     ea6:	00 1f                	add    %bl,(%edi)
     ea8:	2e 01 3f             	add    %edi,%cs:(%edi)
     eab:	19 03                	sbb    %eax,(%ebx)
     ead:	0e                   	push   %cs
     eae:	3a 0b                	cmp    (%ebx),%cl
     eb0:	3b 05 39 0b 27 19    	cmp    0x19270b39,%eax
     eb6:	49                   	dec    %ecx
     eb7:	13 11                	adc    (%ecx),%edx
     eb9:	01 12                	add    %edx,(%edx)
     ebb:	06                   	push   %es
     ebc:	40                   	inc    %eax
     ebd:	18 7c 19 01          	sbb    %bh,0x1(%ecx,%ebx,1)
     ec1:	13 00                	adc    (%eax),%eax
     ec3:	00 20                	add    %ah,(%eax)
     ec5:	2e 01 3f             	add    %edi,%cs:(%edi)
     ec8:	19 03                	sbb    %eax,(%ebx)
     eca:	0e                   	push   %cs
     ecb:	3a 0b                	cmp    (%ebx),%cl
     ecd:	3b 0b                	cmp    (%ebx),%ecx
     ecf:	39 0b                	cmp    %ecx,(%ebx)
     ed1:	49                   	dec    %ecx
     ed2:	13 11                	adc    (%ecx),%edx
     ed4:	01 12                	add    %edx,(%edx)
     ed6:	06                   	push   %es
     ed7:	40                   	inc    %eax
     ed8:	18 7c 19 01          	sbb    %bh,0x1(%ecx,%ebx,1)
     edc:	13 00                	adc    (%eax),%eax
     ede:	00 21                	add    %ah,(%ecx)
     ee0:	2e 01 3f             	add    %edi,%cs:(%edi)
     ee3:	19 03                	sbb    %eax,(%ebx)
     ee5:	0e                   	push   %cs
     ee6:	3a 0b                	cmp    (%ebx),%cl
     ee8:	3b 0b                	cmp    (%ebx),%ecx
     eea:	39 0b                	cmp    %ecx,(%ebx)
     eec:	27                   	daa
     eed:	19 49 13             	sbb    %ecx,0x13(%ecx)
     ef0:	11 01                	adc    %eax,(%ecx)
     ef2:	12 06                	adc    (%esi),%al
     ef4:	40                   	inc    %eax
     ef5:	18 7a 19             	sbb    %bh,0x19(%edx)
     ef8:	01 13                	add    %edx,(%ebx)
     efa:	00 00                	add    %al,(%eax)
     efc:	22 2e                	and    (%esi),%ch
     efe:	00 3f                	add    %bh,(%edi)
     f00:	19 03                	sbb    %eax,(%ebx)
     f02:	0e                   	push   %cs
     f03:	3a 0b                	cmp    (%ebx),%cl
     f05:	3b 0b                	cmp    (%ebx),%ecx
     f07:	39 0b                	cmp    %ecx,(%ebx)
     f09:	49                   	dec    %ecx
     f0a:	13 11                	adc    (%ecx),%edx
     f0c:	01 12                	add    %edx,(%edx)
     f0e:	06                   	push   %es
     f0f:	40                   	inc    %eax
     f10:	18 7c 19 00          	sbb    %bh,0x0(%ecx,%ebx,1)
     f14:	00 23                	add    %ah,(%ebx)
     f16:	2e 00 3f             	add    %bh,%cs:(%edi)
     f19:	19 03                	sbb    %eax,(%ebx)
     f1b:	0e                   	push   %cs
     f1c:	3a 0b                	cmp    (%ebx),%cl
     f1e:	3b 0b                	cmp    (%ebx),%ecx
     f20:	39 0b                	cmp    %ecx,(%ebx)
     f22:	49                   	dec    %ecx
     f23:	13 11                	adc    (%ecx),%edx
     f25:	01 12                	add    %edx,(%edx)
     f27:	06                   	push   %es
     f28:	40                   	inc    %eax
     f29:	18 7a 19             	sbb    %bh,0x19(%edx)
     f2c:	00 00                	add    %al,(%eax)
     f2e:	24 2e                	and    $0x2e,%al
     f30:	01 3f                	add    %edi,(%edi)
     f32:	19 03                	sbb    %eax,(%ebx)
     f34:	0e                   	push   %cs
     f35:	3a 0b                	cmp    (%ebx),%cl
     f37:	3b 0b                	cmp    (%ebx),%ecx
     f39:	39 0b                	cmp    %ecx,(%ebx)
     f3b:	11 01                	adc    %eax,(%ecx)
     f3d:	12 06                	adc    (%esi),%al
     f3f:	40                   	inc    %eax
     f40:	18 7c 19 01          	sbb    %bh,0x1(%ecx,%ebx,1)
     f44:	13 00                	adc    (%eax),%eax
     f46:	00 25 2e 01 3f 19    	add    %ah,0x193f012e
     f4c:	03 0e                	add    (%esi),%ecx
     f4e:	3a 0b                	cmp    (%ebx),%cl
     f50:	3b 0b                	cmp    (%ebx),%ecx
     f52:	39 0b                	cmp    %ecx,(%ebx)
     f54:	49                   	dec    %ecx
     f55:	13 11                	adc    (%ecx),%edx
     f57:	01 12                	add    %edx,(%edx)
     f59:	06                   	push   %es
     f5a:	40                   	inc    %eax
     f5b:	18 7c 19 00          	sbb    %bh,0x0(%ecx,%ebx,1)
     f5f:	00 00                	add    %al,(%eax)
     f61:	01 34 00             	add    %esi,(%eax,%eax,1)
     f64:	03 0e                	add    (%esi),%ecx
     f66:	3a 21                	cmp    (%ecx),%ah
     f68:	01 3b                	add    %edi,(%ebx)
     f6a:	0b 39                	or     (%ecx),%edi
     f6c:	0b 49 13             	or     0x13(%ecx),%ecx
     f6f:	02 18                	add    (%eax),%bl
     f71:	00 00                	add    %al,(%eax)
     f73:	02 05 00 03 08 3a    	add    0x3a080300,%al
     f79:	21 01                	and    %eax,(%ecx)
     f7b:	3b 0b                	cmp    (%ebx),%ecx
     f7d:	39 0b                	cmp    %ecx,(%ebx)
     f7f:	49                   	dec    %ecx
     f80:	13 02                	adc    (%edx),%eax
     f82:	18 00                	sbb    %al,(%eax)
     f84:	00 03                	add    %al,(%ebx)
     f86:	24 00                	and    $0x0,%al
     f88:	0b 0b                	or     (%ebx),%ecx
     f8a:	3e 0b 03             	or     %ds:(%ebx),%eax
     f8d:	0e                   	push   %cs
     f8e:	00 00                	add    %al,(%eax)
     f90:	04 34                	add    $0x34,%al
     f92:	00 03                	add    %al,(%ebx)
     f94:	08 3a                	or     %bh,(%edx)
     f96:	21 01                	and    %eax,(%ecx)
     f98:	3b 0b                	cmp    (%ebx),%ecx
     f9a:	39 0b                	cmp    %ecx,(%ebx)
     f9c:	49                   	dec    %ecx
     f9d:	13 02                	adc    (%edx),%eax
     f9f:	18 00                	sbb    %al,(%eax)
     fa1:	00 05 16 00 03 0e    	add    %al,0xe030016
     fa7:	3a 21                	cmp    (%ecx),%ah
     fa9:	02 3b                	add    (%ebx),%bh
     fab:	0b 39                	or     (%ecx),%edi
     fad:	21 1d 49 13 00 00    	and    %ebx,0x1349
     fb3:	06                   	push   %es
     fb4:	0f 00 0b             	str    (%ebx)
     fb7:	21 04 49             	and    %eax,(%ecx,%ecx,2)
     fba:	13 00                	adc    (%eax),%eax
     fbc:	00 07                	add    %al,(%edi)
     fbe:	05 00 03 0e 3a       	add    $0x3a0e0300,%eax
     fc3:	21 01                	and    %eax,(%ecx)
     fc5:	3b 0b                	cmp    (%ebx),%ecx
     fc7:	39 0b                	cmp    %ecx,(%ebx)
     fc9:	49                   	dec    %ecx
     fca:	13 02                	adc    (%edx),%eax
     fcc:	18 00                	sbb    %al,(%eax)
     fce:	00 08                	add    %cl,(%eax)
     fd0:	11 01                	adc    %eax,(%ecx)
     fd2:	25 0e 13 0b 03       	and    $0x30b130e,%eax
     fd7:	1f                   	pop    %ds
     fd8:	1b 1f                	sbb    (%edi),%ebx
     fda:	11 01                	adc    %eax,(%ecx)
     fdc:	12 06                	adc    (%esi),%al
     fde:	10 17                	adc    %dl,(%edi)
     fe0:	00 00                	add    %al,(%eax)
     fe2:	09 24 00             	or     %esp,(%eax,%eax,1)
     fe5:	0b 0b                	or     (%ebx),%ecx
     fe7:	3e 0b 03             	or     %ds:(%ebx),%eax
     fea:	08 00                	or     %al,(%eax)
     fec:	00 0a                	add    %cl,(%edx)
     fee:	2e 01 3f             	add    %edi,%cs:(%edi)
     ff1:	19 03                	sbb    %eax,(%ebx)
     ff3:	0e                   	push   %cs
     ff4:	3a 0b                	cmp    (%ebx),%cl
     ff6:	3b 0b                	cmp    (%ebx),%ecx
     ff8:	39 0b                	cmp    %ecx,(%ebx)
     ffa:	27                   	daa
     ffb:	19 49 13             	sbb    %ecx,0x13(%ecx)
     ffe:	11 01                	adc    %eax,(%ecx)
    1000:	12 06                	adc    (%esi),%al
    1002:	40                   	inc    %eax
    1003:	18 7a 19             	sbb    %bh,0x19(%edx)
    1006:	01 13                	add    %edx,(%ebx)
    1008:	00 00                	add    %al,(%eax)
    100a:	0b 0b                	or     (%ebx),%ecx
    100c:	01 55 17             	add    %edx,0x17(%ebp)
    100f:	01 13                	add    %edx,(%ebx)
    1011:	00 00                	add    %al,(%eax)
    1013:	0c 0b                	or     $0xb,%al
    1015:	01 11                	add    %edx,(%ecx)
    1017:	01 12                	add    %edx,(%edx)
    1019:	06                   	push   %es
    101a:	00 00                	add    %al,(%eax)
    101c:	0d 26 00 00 00       	or     $0x26,%eax
    1021:	0e                   	push   %cs
    1022:	2e 01 3f             	add    %edi,%cs:(%edi)
    1025:	19 03                	sbb    %eax,(%ebx)
    1027:	0e                   	push   %cs
    1028:	3a 0b                	cmp    (%ebx),%cl
    102a:	3b 0b                	cmp    (%ebx),%ecx
    102c:	39 0b                	cmp    %ecx,(%ebx)
    102e:	27                   	daa
    102f:	19 11                	sbb    %edx,(%ecx)
    1031:	01 12                	add    %edx,(%edx)
    1033:	06                   	push   %es
    1034:	40                   	inc    %eax
    1035:	18 7c 19 01          	sbb    %bh,0x1(%ecx,%ebx,1)
    1039:	13 00                	adc    (%eax),%eax
    103b:	00 0f                	add    %cl,(%edi)
    103d:	0f 00 0b             	str    (%ebx)
    1040:	0b 00                	or     (%eax),%eax
    1042:	00 10                	add    %dl,(%eax)
    1044:	2e 01 3f             	add    %edi,%cs:(%edi)
    1047:	19 03                	sbb    %eax,(%ebx)
    1049:	0e                   	push   %cs
    104a:	3a 0b                	cmp    (%ebx),%cl
    104c:	3b 0b                	cmp    (%ebx),%ecx
    104e:	39 0b                	cmp    %ecx,(%ebx)
    1050:	27                   	daa
    1051:	19 11                	sbb    %edx,(%ecx)
    1053:	01 12                	add    %edx,(%edx)
    1055:	06                   	push   %es
    1056:	40                   	inc    %eax
    1057:	18 7a 19             	sbb    %bh,0x19(%edx)
    105a:	01 13                	add    %edx,(%ebx)
    105c:	00 00                	add    %al,(%eax)
    105e:	11 2e                	adc    %ebp,(%esi)
    1060:	01 3f                	add    %edi,(%edi)
    1062:	19 03                	sbb    %eax,(%ebx)
    1064:	0e                   	push   %cs
    1065:	3a 0b                	cmp    (%ebx),%cl
    1067:	3b 0b                	cmp    (%ebx),%ecx
    1069:	39 0b                	cmp    %ecx,(%ebx)
    106b:	27                   	daa
    106c:	19 11                	sbb    %edx,(%ecx)
    106e:	01 12                	add    %edx,(%edx)
    1070:	06                   	push   %es
    1071:	40                   	inc    %eax
    1072:	18 7a 19             	sbb    %bh,0x19(%edx)
    1075:	00 00                	add    %al,(%eax)
    1077:	00 01                	add    %al,(%ecx)
    1079:	24 00                	and    $0x0,%al
    107b:	0b 0b                	or     (%ebx),%ecx
    107d:	3e 0b 03             	or     %ds:(%ebx),%eax
    1080:	0e                   	push   %cs
    1081:	00 00                	add    %al,(%eax)
    1083:	02 11                	add    (%ecx),%dl
    1085:	01 25 0e 13 0b 03    	add    %esp,0x30b130e
    108b:	1f                   	pop    %ds
    108c:	1b 1f                	sbb    (%edi),%ebx
    108e:	11 01                	adc    %eax,(%ecx)
    1090:	12 06                	adc    (%esi),%al
    1092:	10 17                	adc    %dl,(%edi)
    1094:	00 00                	add    %al,(%eax)
    1096:	03 24 00             	add    (%eax,%eax,1),%esp
    1099:	0b 0b                	or     (%ebx),%ecx
    109b:	3e 0b 03             	or     %ds:(%ebx),%eax
    109e:	08 00                	or     %al,(%eax)
    10a0:	00 04 16             	add    %al,(%esi,%edx,1)
    10a3:	00 03                	add    %al,(%ebx)
    10a5:	0e                   	push   %cs
    10a6:	3a 0b                	cmp    (%ebx),%cl
    10a8:	3b 0b                	cmp    (%ebx),%ecx
    10aa:	39 0b                	cmp    %ecx,(%ebx)
    10ac:	49                   	dec    %ecx
    10ad:	13 00                	adc    (%eax),%eax
    10af:	00 05 2e 01 3f 19    	add    %al,0x193f012e
    10b5:	03 0e                	add    (%esi),%ecx
    10b7:	3a 0b                	cmp    (%ebx),%cl
    10b9:	3b 0b                	cmp    (%ebx),%ecx
    10bb:	39 0b                	cmp    %ecx,(%ebx)
    10bd:	11 01                	adc    %eax,(%ecx)
    10bf:	12 06                	adc    (%esi),%al
    10c1:	40                   	inc    %eax
    10c2:	18 7a 19             	sbb    %bh,0x19(%edx)
    10c5:	01 13                	add    %edx,(%ebx)
    10c7:	00 00                	add    %al,(%eax)
    10c9:	06                   	push   %es
    10ca:	34 00                	xor    $0x0,%al
    10cc:	03 08                	add    (%eax),%ecx
    10ce:	3a 0b                	cmp    (%ebx),%cl
    10d0:	3b 0b                	cmp    (%ebx),%ecx
    10d2:	39 0b                	cmp    %ecx,(%ebx)
    10d4:	49                   	dec    %ecx
    10d5:	13 02                	adc    (%edx),%eax
    10d7:	18 00                	sbb    %al,(%eax)
    10d9:	00 07                	add    %al,(%edi)
    10db:	0f 00 0b             	str    (%ebx)
    10de:	0b 49 13             	or     0x13(%ecx),%ecx
    10e1:	00 00                	add    %al,(%eax)
	...

Disassembly of section .debug_line:

00000000 <.debug_line>:
   0:	c7 00 00 00 05 00    	movl   $0x50000,(%eax)
   6:	04 00                	add    $0x0,%al
   8:	7e 00                	jle    a <SEG_KERN_CS+0x2>
   a:	00 00                	add    %al,(%eax)
   c:	01 01                	add    %eax,(%ecx)
   e:	01 fb                	add    %edi,%ebx
  10:	0e                   	push   %cs
  11:	0d 00 01 01 01       	or     $0x1010100,%eax
  16:	01 00                	add    %eax,(%eax)
  18:	00 00                	add    %al,(%eax)
  1a:	01 00                	add    %eax,(%eax)
  1c:	00 01                	add    %al,(%ecx)
  1e:	01 01                	add    %eax,(%ecx)
  20:	1f                   	pop    %ds
  21:	07                   	pop    %es
  22:	0b 00                	or     (%eax),%eax
  24:	00 00                	add    %al,(%eax)
  26:	2f                   	das
  27:	00 00                	add    %al,(%eax)
  29:	00 33                	add    %dh,(%ebx)
  2b:	00 00                	add    %al,(%eax)
  2d:	00 68 00             	add    %ch,0x0(%eax)
  30:	00 00                	add    %al,(%eax)
  32:	72 00                	jb     34 <SEG_KERN_CS+0x2c>
  34:	00 00                	add    %al,(%eax)
  36:	b0 00                	mov    $0x0,%al
  38:	00 00                	add    %al,(%eax)
  3a:	b8 00 00 00 02       	mov    $0x2000000,%eax
  3f:	01 1f                	add    %ebx,(%edi)
  41:	02 0f                	add    (%edi),%cl
  43:	0e                   	push   %cs
  44:	04 00                	add    $0x0,%al
  46:	00 00                	add    %al,(%eax)
  48:	01 04 00             	add    %eax,(%eax,%eax,1)
  4b:	00 00                	add    %al,(%eax)
  4d:	01 47 02             	add    %eax,0x2(%edi)
  50:	00 00                	add    %al,(%eax)
  52:	02 f2                	add    %dl,%dh
  54:	00 00                	add    %al,(%eax)
  56:	00 02                	add    %al,(%edx)
  58:	f9                   	stc
  59:	00 00                	add    %al,(%eax)
  5b:	00 03                	add    %al,(%ebx)
  5d:	00 01                	add    %al,(%ecx)
  5f:	00 00                	add    %al,(%eax)
  61:	04 07                	add    $0x7,%al
  63:	01 00                	add    %eax,(%eax)
  65:	00 03                	add    %al,(%ebx)
  67:	0d 01 00 00 03       	or     $0x3000001,%eax
  6c:	16                   	push   %ss
  6d:	01 00                	add    %eax,(%eax)
  6f:	00 03                	add    %al,(%ebx)
  71:	1e                   	push   %ds
  72:	01 00                	add    %eax,(%eax)
  74:	00 03                	add    %al,(%ebx)
  76:	24 01                	and    $0x1,%al
  78:	00 00                	add    %al,(%eax)
  7a:	03 2a                	add    (%edx),%ebp
  7c:	01 00                	add    %eax,(%eax)
  7e:	00 05 31 01 00 00    	add    %al,0x131
  84:	06                   	push   %es
  85:	3a 01                	cmp    (%ecx),%al
  87:	00 00                	add    %al,(%eax)
  89:	04 05                	add    $0x5,%al
  8b:	24 00                	and    $0x0,%al
  8d:	05 02 00 50 40       	add    $0x40500002,%eax
  92:	f0 03 1b             	lock add (%ebx),%ebx
  95:	01 05 05 67 08 75    	add    %eax,0x75086705
  9b:	05 09 5b 05 08       	add    $0x8055b09,%eax
  a0:	00 02                	add    %al,(%edx)
  a2:	04 01                	add    $0x1,%al
  a4:	58                   	pop    %eax
  a5:	05 05 4e 05 09       	add    $0x9054e05,%eax
  aa:	71 05                	jno    b1 <SEG_KERN_CS+0xa9>
  ac:	01 24 05 19 33 05 05 	add    %esp,0x5053319(,%eax,1)
  b3:	68 59 5b 5b 59       	push   $0x595b5b59
  b8:	59                   	pop    %ecx
  b9:	5b                   	pop    %ebx
  ba:	5b                   	pop    %ebx
  bb:	c9                   	leave
  bc:	cb                   	lret
  bd:	59                   	pop    %ecx
  be:	c9                   	leave
  bf:	c9                   	leave
  c0:	c9                   	leave
  c1:	c9                   	leave
  c2:	cc                   	int3
  c3:	05 01 f3 02 03       	add    $0x302f301,%eax
  c8:	00 01                	add    %al,(%ecx)
  ca:	01 74 01 00          	add    %esi,0x0(%ecx,%eax,1)
  ce:	00 05 00 04 00 45    	add    %al,0x45000400
  d4:	00 00                	add    %al,(%eax)
  d6:	00 01                	add    %al,(%ecx)
  d8:	01 01                	add    %eax,(%ecx)
  da:	fb                   	sti
  db:	0e                   	push   %cs
  dc:	0d 00 01 01 01       	or     $0x1010100,%eax
  e1:	01 00                	add    %eax,(%eax)
  e3:	00 00                	add    %al,(%eax)
  e5:	01 00                	add    %eax,(%eax)
  e7:	00 01                	add    %al,(%ecx)
  e9:	01 01                	add    %eax,(%ecx)
  eb:	1f                   	pop    %ds
  ec:	04 0b                	add    $0xb,%al
  ee:	00 00                	add    %al,(%eax)
  f0:	00 59 01             	add    %bl,0x1(%ecx)
  f3:	00 00                	add    %al,(%eax)
  f5:	33 00                	xor    (%eax),%eax
  f7:	00 00                	add    %al,(%eax)
  f9:	72 00                	jb     fb <SEG_KERN_CS+0xf3>
  fb:	00 00                	add    %al,(%eax)
  fd:	02 01                	add    (%ecx),%al
  ff:	1f                   	pop    %ds
 100:	02 0f                	add    (%edi),%cl
 102:	05 4f 01 00 00       	add    $0x14f,%eax
 107:	01 4f 01             	add    %ecx,0x1(%edi)
 10a:	00 00                	add    %al,(%eax)
 10c:	01 47 02             	add    %eax,0x2(%edi)
 10f:	00 00                	add    %al,(%eax)
 111:	02 65 01             	add    0x1(%ebp),%ah
 114:	00 00                	add    %al,(%eax)
 116:	03 00                	add    (%eax),%eax
 118:	01 00                	add    %eax,(%eax)
 11a:	00 03                	add    %al,(%ebx)
 11c:	05 2c 00 05 02       	add    $0x205002c,%eax
 121:	0b 51 40             	or     0x40(%ecx),%edx
 124:	f0 03 0a             	lock add (%edx),%ecx
 127:	01 05 08 67 05 10    	add    %eax,0x10056708
 12d:	67 05 0e a1 75 05    	addr16 add $0x575a10e,%eax
 133:	1a 74 05 26          	sbb    0x26(%ebp,%eax,1),%dh
 137:	74 05                	je     13e <SEG_KERN_CS+0x136>
 139:	32 74 05 05          	xor    0x5(%ebp,%eax,1),%dh
 13d:	76 05                	jbe    144 <SEG_KERN_CS+0x13c>
 13f:	0d 08 76 05 08       	or     $0x8057608,%eax
 144:	3c 05                	cmp    $0x5,%al
 146:	10 4b 05             	adc    %cl,0x5(%ebx)
 149:	17                   	pop    %ss
 14a:	a1 05 15 58 05       	mov    0x5581505,%eax
 14f:	32 2e                	xor    (%esi),%ch
 151:	05 0d 82 05 15       	add    $0x1505820d,%eax
 156:	3d 05 13 58 05       	cmp    $0x5581305,%eax
 15b:	2e 2e 05 0d 82 05 09 	cs cs add $0x905820d,%eax
 162:	3f                   	aas
 163:	05 05 75 05 1d       	add    $0x1d057505,%eax
 168:	08 76 05             	or     %dh,0x5(%esi)
 16b:	0e                   	push   %cs
 16c:	3c 05                	cmp    $0x5,%al
 16e:	1b 67 05             	sbb    0x5(%edi),%esp
 171:	0e                   	push   %cs
 172:	66 05 08 68          	add    $0x6808,%ax
 176:	05 17 00 02 04       	add    $0x4020017,%eax
 17b:	01 66 05             	add    %esp,0x5(%esi)
 17e:	18 67 05             	sbb    %ah,0x5(%edi)
 181:	27                   	daa
 182:	66 05 0f 66          	add    $0x660f,%ax
 186:	05 1c 3f 05 0e       	add    $0xe053f1c,%eax
 18b:	66 05 08 67          	add    $0x6708,%ax
 18f:	05 18 67 05 1f       	add    $0x1f056718,%eax
 194:	66 05 10 3c          	add    $0x3c10,%ax
 198:	05 08 3f 05 10       	add    $0x10053f08,%eax
 19d:	67 05 09 75 05 05    	addr16 add $0x5057509,%eax
 1a3:	08 77 05             	or     %dh,0x5(%edi)
 1a6:	18 08                	sbb    %cl,(%eax)
 1a8:	84 af 05 0f af cb    	test   %ch,-0x3450f0fb(%edi)
 1ae:	af                   	scas   %es:(%edi),%eax
 1af:	05 10 af 05 3e       	add    $0x3e05af10,%eax
 1b4:	82 05 0e 75 05 3e 00 	addb   $0x0,0x3e05750e
 1bb:	02 04 01             	add    (%ecx,%eax,1),%al
 1be:	81 00 02 04 03 06    	addl   $0x6030402,(%eax)
 1c4:	74 58                	je     21e <SEG_KERN_CS+0x216>
 1c6:	00 02                	add    %al,(%edx)
 1c8:	04 04                	add    $0x4,%al
 1ca:	58                   	pop    %eax
 1cb:	58                   	pop    %eax
 1cc:	05 0f 06 5c cb       	add    $0xcb5c060f,%eax
 1d1:	cb                   	lret
 1d2:	cb                   	lret
 1d3:	af                   	scas   %es:(%edi),%eax
 1d4:	cb                   	lret
 1d5:	cb                   	lret
 1d6:	cb                   	lret
 1d7:	05 10 a1 05 17       	add    $0x1705a110,%eax
 1dc:	66 05 06 5b          	add    $0x5b06,%ax
 1e0:	05 16 00 02 04       	add    $0x4020016,%eax
 1e5:	01 66 06             	add    %esp,0x6(%esi)
 1e8:	58                   	pop    %eax
 1e9:	05 0d 06 2f 05       	add    $0x52f060d,%eax
 1ee:	06                   	push   %es
 1ef:	82 05 2c 00 02 04 01 	addb   $0x1,0x402002c
 1f6:	4a                   	dec    %edx
 1f7:	06                   	push   %es
 1f8:	58                   	pop    %eax
 1f9:	05 06 06 2f 05       	add    $0x52f0606,%eax
 1fe:	13 00                	adc    (%eax),%eax
 200:	02 04 01             	add    (%ecx,%eax,1),%al
 203:	66 05 20 00          	add    $0x20,%ax
 207:	02 04 02             	add    (%edx,%eax,1),%al
 20a:	66 05 38 00          	add    $0x38,%ax
 20e:	02 04 03             	add    (%ebx,%eax,1),%al
 211:	66 06                	pushw  %es
 213:	58                   	pop    %eax
 214:	05 0b 06 2f 05       	add    $0x52f060b,%eax
 219:	06                   	push   %es
 21a:	77 05                	ja     221 <SEG_KERN_CS+0x219>
 21c:	14 00                	adc    $0x0,%al
 21e:	02 04 01             	add    (%ecx,%eax,1),%al
 221:	66 06                	pushw  %es
 223:	58                   	pop    %eax
 224:	05 10 06 2f 05       	add    $0x52f0610,%eax
 229:	06                   	push   %es
 22a:	82 05 31 00 02 04 01 	addb   $0x1,0x4020031
 231:	4a                   	dec    %edx
 232:	06                   	push   %es
 233:	58                   	pop    %eax
 234:	05 0b 06 2f 05       	add    $0x52f060b,%eax
 239:	0c 77                	or     $0x77,%al
 23b:	05 01 59 02 02       	add    $0x2025901,%eax
 240:	00 01                	add    %al,(%ecx)
 242:	01 e0                	add    %esp,%eax
 244:	00 00                	add    %al,(%eax)
 246:	00 05 00 04 00 53    	add    %al,0x53000400
 24c:	00 00                	add    %al,(%eax)
 24e:	00 01                	add    %al,(%ecx)
 250:	01 01                	add    %eax,(%ecx)
 252:	fb                   	sti
 253:	0e                   	push   %cs
 254:	0d 00 01 01 01       	or     $0x1010100,%eax
 259:	01 00                	add    %eax,(%eax)
 25b:	00 00                	add    %al,(%eax)
 25d:	01 00                	add    %eax,(%eax)
 25f:	00 01                	add    %al,(%ecx)
 261:	01 01                	add    %eax,(%ecx)
 263:	1f                   	pop    %ds
 264:	05 0b 00 00 00       	add    $0xb,%eax
 269:	68 00 00 00 33       	push   $0x33000000
 26e:	00 00                	add    %al,(%eax)
 270:	00 72 00             	add    %dh,0x0(%edx)
 273:	00 00                	add    %al,(%eax)
 275:	b8 00 00 00 02       	mov    $0x2000000,%eax
 27a:	01 1f                	add    %ebx,(%edi)
 27c:	02 0f                	add    (%edi),%cl
 27e:	07                   	pop    %es
 27f:	79 01                	jns    282 <SEG_KERN_CS+0x27a>
 281:	00 00                	add    %al,(%eax)
 283:	01 79 01             	add    %edi,0x1(%ecx)
 286:	00 00                	add    %al,(%eax)
 288:	01 47 02             	add    %eax,0x2(%edi)
 28b:	00 00                	add    %al,(%eax)
 28d:	02 47 02             	add    0x2(%edi),%al
 290:	00 00                	add    %al,(%eax)
 292:	03 0d 01 00 00 01    	add    0x1000001,%ecx
 298:	07                   	pop    %es
 299:	01 00                	add    %eax,(%eax)
 29b:	00 01                	add    %al,(%ecx)
 29d:	31 01                	xor    %eax,(%ecx)
 29f:	00 00                	add    %al,(%eax)
 2a1:	04 05                	add    $0x5,%al
 2a3:	1a 00                	sbb    (%eax),%al
 2a5:	05 02 9e 58 40       	add    $0x40589e02,%eax
 2aa:	f0 03 3b             	lock add (%ebx),%edi
 2ad:	01 05 05 67 08 3d    	add    %eax,0x3d086705
 2b3:	08 3f                	or     %bh,(%edi)
 2b5:	05 01 08 21 05       	add    $0x5210801,%eax
 2ba:	49                   	dec    %ecx
 2bb:	3e 05 08 bb 05 1b    	ds add $0x1b05bb08,%eax
 2c1:	00 02                	add    %al,(%edx)
 2c3:	04 01                	add    $0x1,%al
 2c5:	66 05 10 67          	add    $0x6710,%ax
 2c9:	05 08 77 05 18       	add    $0x18057708,%eax
 2ce:	67 05 0d ac 05 08    	addr16 add $0x805ac0d,%eax
 2d4:	5b                   	pop    %ebx
 2d5:	05 1f 67 05 0f       	add    $0xf05671f,%eax
 2da:	ac                   	lods   %ds:(%esi),%al
 2db:	05 0c 5b 05 01       	add    $0x1055b0c,%eax
 2e0:	59                   	pop    %ecx
 2e1:	05 47 30 05 08       	add    $0x8053047,%eax
 2e6:	bb 05 1b 00 02       	mov    $0x2001b05,%ebx
 2eb:	04 01                	add    $0x1,%al
 2ed:	66 05 10 67          	add    $0x6710,%ax
 2f1:	05 0e 77 05 12       	add    $0x1205770e,%eax
 2f6:	4a                   	dec    %edx
 2f7:	05 13 9f 05 17       	add    $0x17059f13,%eax
 2fc:	4a                   	dec    %edx
 2fd:	05 0c a0 05 01       	add    $0x105a00c,%eax
 302:	59                   	pop    %ecx
 303:	05 48 30 05 12       	add    $0x12053048,%eax
 308:	67 05 08 9e 05 0d    	addr16 add $0xd059e08,%eax
 30e:	4d                   	dec    %ebp
 30f:	67 05 11 67 05 20    	addr16 add $0x20056711,%eax
 315:	67 05 10 9e 05 12    	addr16 add $0x12059e10,%eax
 31b:	3e 05 09 9e 05 01    	ds add $0x1059e09,%eax
 321:	c0 02 03             	rolb   $0x3,(%edx)
 324:	00 01                	add    %al,(%ecx)
 326:	01 05 01 00 00 05    	add    %eax,0x5000001
 32c:	00 04 00             	add    %al,(%eax,%eax,1)
 32f:	53                   	push   %ebx
 330:	00 00                	add    %al,(%eax)
 332:	00 01                	add    %al,(%ecx)
 334:	01 01                	add    %eax,(%ecx)
 336:	fb                   	sti
 337:	0e                   	push   %cs
 338:	0d 00 01 01 01       	or     $0x1010100,%eax
 33d:	01 00                	add    %eax,(%eax)
 33f:	00 00                	add    %al,(%eax)
 341:	01 00                	add    %eax,(%eax)
 343:	00 01                	add    %al,(%ecx)
 345:	01 01                	add    %eax,(%ecx)
 347:	1f                   	pop    %ds
 348:	05 0b 00 00 00       	add    $0xb,%eax
 34d:	68 00 00 00 33       	push   $0x33000000
 352:	00 00                	add    %al,(%eax)
 354:	00 72 00             	add    %dh,0x0(%edx)
 357:	00 00                	add    %al,(%eax)
 359:	b8 00 00 00 02       	mov    $0x2000000,%eax
 35e:	01 1f                	add    %ebx,(%edi)
 360:	02 0f                	add    (%edi),%cl
 362:	07                   	pop    %es
 363:	8c 01                	mov    %es,(%ecx)
 365:	00 00                	add    %al,(%eax)
 367:	01 8c 01 00 00 01 47 	add    %ecx,0x47010000(%ecx,%eax,1)
 36e:	02 00                	add    (%eax),%al
 370:	00 02                	add    %al,(%edx)
 372:	47                   	inc    %edi
 373:	02 00                	add    (%eax),%al
 375:	00 03                	add    %al,(%ebx)
 377:	00 01                	add    %al,(%ecx)
 379:	00 00                	add    %al,(%eax)
 37b:	03 31                	add    (%ecx),%esi
 37d:	01 00                	add    %eax,(%eax)
 37f:	00 04 3a             	add    %al,(%edx,%edi,1)
 382:	01 00                	add    %eax,(%eax)
 384:	00 03                	add    %al,(%ebx)
 386:	05 17 00 05 02       	add    $0x2050017,%eax
 38b:	c1 59 40 f0          	rcrl   $0xf0,0x40(%ecx)
 38f:	03 11                	add    (%ecx),%edx
 391:	01 05 05 67 05 15    	add    %eax,0x15056705
 397:	08 68 05             	or     %ch,0x5(%eax)
 39a:	13 58 05             	adc    0x5(%eax),%ebx
 39d:	14 59                	adc    $0x59,%al
 39f:	05 05 92 05 19       	add    $0x19059205,%eax
 3a4:	08 2f                	or     %ch,(%edi)
 3a6:	05 05 76 08 2f       	add    $0x2f087605,%eax
 3ab:	08 30                	or     %dh,(%eax)
 3ad:	08 2f                	or     %ch,(%edi)
 3af:	05 01 08 2f 05       	add    $0x52f0801,%eax
 3b4:	18 3e                	sbb    %bh,(%esi)
 3b6:	05 05 67 05 01       	add    $0x1056705,%eax
 3bb:	f3 05 27 3e 05 08    	repz add $0x8053e27,%eax
 3c1:	bb 05 10 67 77       	mov    $0x77671005,%ebx
 3c6:	05 0c 4a 05 01       	add    $0x1054a0c,%eax
 3cb:	83 05 44 30 05 13 3d 	addl   $0x3d,0x13053044
 3d2:	05 1b bb 05 13       	add    $0x1305bb1b,%eax
 3d7:	66 05 23 83          	add    $0x8323,%ax
 3db:	05 14 66 05 05       	add    $0x5056614,%eax
 3e0:	84 05 08 4b 05 1f    	test   %al,0x1f054b08
 3e6:	91                   	xchg   %eax,%ecx
 3e7:	05 18 66 05 2d       	add    $0x2d056618,%eax
 3ec:	83 05 25 66 05 1a 58 	addl   $0x58,0x1a056625
 3f3:	05 18 84 05 21       	add    $0x21058418,%eax
 3f8:	ad                   	lods   %ds:(%esi),%eax
 3f9:	05 1a 66 05 08       	add    $0x805661a,%eax
 3fe:	85 05 16 74 05 01    	test   %eax,0x1057416
 404:	ae                   	scas   %es:(%edi),%al
 405:	05 58 3e 05 05       	add    $0x5053e58,%eax
 40a:	3d 05 19 08 14       	cmp    $0x14081905,%eax
 40f:	05 27 66 05 11       	add    $0x11056627,%eax
 414:	58                   	pop    %eax
 415:	05 01 69 05 58       	add    $0x58056901,%eax
 41a:	3e 05 05 3d 05 19    	ds add $0x19053d05,%eax
 420:	08 14 05 27 66 05 11 	or     %dl,0x11056627(,%eax,1)
 427:	58                   	pop    %eax
 428:	05 01 69 02 03       	add    $0x3026901,%eax
 42d:	00 01                	add    %al,(%ecx)
 42f:	01 7e 00             	add    %edi,0x0(%esi)
 432:	00 00                	add    %al,(%eax)
 434:	05 00 04 00 40       	add    $0x40000400,%eax
 439:	00 00                	add    %al,(%eax)
 43b:	00 01                	add    %al,(%ecx)
 43d:	01 01                	add    %eax,(%ecx)
 43f:	fb                   	sti
 440:	0e                   	push   %cs
 441:	0d 00 01 01 01       	or     $0x1010100,%eax
 446:	01 00                	add    %eax,(%eax)
 448:	00 00                	add    %al,(%eax)
 44a:	01 00                	add    %eax,(%eax)
 44c:	00 01                	add    %al,(%ecx)
 44e:	01 01                	add    %eax,(%ecx)
 450:	1f                   	pop    %ds
 451:	04 0b                	add    $0xb,%al
 453:	00 00                	add    %al,(%eax)
 455:	00 68 00             	add    %ch,0x0(%eax)
 458:	00 00                	add    %al,(%eax)
 45a:	33 00                	xor    (%eax),%eax
 45c:	00 00                	add    %al,(%eax)
 45e:	72 00                	jb     460 <SEG_KERN_CS+0x458>
 460:	00 00                	add    %al,(%eax)
 462:	02 01                	add    (%ecx),%al
 464:	1f                   	pop    %ds
 465:	02 0f                	add    (%edi),%cl
 467:	04 9c                	add    $0x9c,%al
 469:	01 00                	add    %eax,(%eax)
 46b:	00 01                	add    %al,(%ecx)
 46d:	9c                   	pushf
 46e:	01 00                	add    %eax,(%eax)
 470:	00 01                	add    %al,(%ecx)
 472:	47                   	inc    %edi
 473:	02 00                	add    (%eax),%al
 475:	00 02                	add    %al,(%edx)
 477:	00 01                	add    %al,(%ecx)
 479:	00 00                	add    %al,(%eax)
 47b:	03 05 26 00 05 02    	add    0x2050026,%eax
 481:	71 5b                	jno    4de <SEG_KERN_CS+0x4d6>
 483:	40                   	inc    %eax
 484:	f0 03 0f             	lock add (%edi),%ecx
 487:	01 05 05 67 05 08    	add    %eax,0x8056705
 48d:	e6 05                	out    %al,$0x5
 48f:	09 67 e5             	or     %esp,-0x1b(%edi)
 492:	e5 05                	in     $0x5,%eax
 494:	0a 31                	or     (%ecx),%dh
 496:	05 05 f3 05 24       	add    $0x2405f305,%eax
 49b:	08 3d 05 05 66 05    	or     %bh,0x5660505
 4a1:	01 08                	add    %ecx,(%eax)
 4a3:	13 05 1b 30 05 05    	adc    0x505301b,%eax
 4a9:	67 05 01 c9 02 03    	addr16 add $0x302c901,%eax
 4af:	00 01                	add    %al,(%ecx)
 4b1:	01 9b 01 00 00 05    	add    %ebx,0x5000001(%ebx)
 4b7:	00 04 00             	add    %al,(%eax,%eax,1)
 4ba:	58                   	pop    %eax
 4bb:	00 00                	add    %al,(%eax)
 4bd:	00 01                	add    %al,(%ecx)
 4bf:	01 01                	add    %eax,(%ecx)
 4c1:	fb                   	sti
 4c2:	0e                   	push   %cs
 4c3:	0d 00 01 01 01       	or     $0x1010100,%eax
 4c8:	01 00                	add    %eax,(%eax)
 4ca:	00 00                	add    %al,(%eax)
 4cc:	01 00                	add    %eax,(%eax)
 4ce:	00 01                	add    %al,(%ecx)
 4d0:	01 01                	add    %eax,(%ecx)
 4d2:	1f                   	pop    %ds
 4d3:	05 0b 00 00 00       	add    $0xb,%eax
 4d8:	68 00 00 00 33       	push   $0x33000000
 4dd:	00 00                	add    %al,(%eax)
 4df:	00 72 00             	add    %dh,0x0(%edx)
 4e2:	00 00                	add    %al,(%eax)
 4e4:	b8 00 00 00 02       	mov    $0x2000000,%eax
 4e9:	01 1f                	add    %ebx,(%edi)
 4eb:	02 0f                	add    (%edi),%cl
 4ed:	08 ae 01 00 00 01    	or     %ch,0x1000001(%esi)
 4f3:	ae                   	scas   %es:(%edi),%al
 4f4:	01 00                	add    %eax,(%eax)
 4f6:	00 01                	add    %al,(%ecx)
 4f8:	47                   	inc    %edi
 4f9:	02 00                	add    (%eax),%al
 4fb:	00 02                	add    %al,(%edx)
 4fd:	47                   	inc    %edi
 4fe:	02 00                	add    (%eax),%al
 500:	00 03                	add    %al,(%ebx)
 502:	16                   	push   %ss
 503:	01 00                	add    %eax,(%eax)
 505:	00 01                	add    %al,(%ecx)
 507:	07                   	pop    %es
 508:	01 00                	add    %eax,(%eax)
 50a:	00 01                	add    %al,(%ecx)
 50c:	00 01                	add    %al,(%ecx)
 50e:	00 00                	add    %al,(%eax)
 510:	03 31                	add    (%ecx),%esi
 512:	01 00                	add    %eax,(%eax)
 514:	00 04 05 19 00 05 02 	add    %al,0x2050019(,%eax,1)
 51b:	f0 5e                	lock pop %esi
 51d:	40                   	inc    %eax
 51e:	f0 03 cb             	lock add %ebx,%ecx
 521:	00 01                	add    %al,(%ecx)
 523:	05 05 67 08 3d       	add    $0x3d086705,%eax
 528:	08 3e                	or     %bh,(%esi)
 52a:	08 21                	or     %ah,(%ecx)
 52c:	08 23                	or     %ah,(%ebx)
 52e:	05 01 59 05 1c       	add    $0x1c055901,%eax
 533:	3e 05 05 67 e5 e5    	ds add $0xe5e56705,%eax
 539:	e6 e5                	out    %al,$0xe5
 53b:	e6 08                	out    %al,$0x8
 53d:	21 08                	and    %ecx,(%eax)
 53f:	21 08                	and    %ecx,(%eax)
 541:	22 08                	and    (%eax),%cl
 543:	21 05 01 08 21 05    	and    %eax,0x5210801
 549:	26 3e 05 13 c9 00 02 	es ds add $0x200c913,%eax
 550:	04 01                	add    $0x1,%al
 552:	06                   	push   %es
 553:	66 00 02             	data16 add %al,(%edx)
 556:	04 02                	add    $0x2,%al
 558:	74 00                	je     55a <SEG_KERN_CS+0x552>
 55a:	02 04 04             	add    (%esp,%eax,1),%al
 55d:	58                   	pop    %eax
 55e:	05 1a 06 3d 05       	add    $0x53d061a,%eax
 563:	13 00                	adc    (%eax),%eax
 565:	02 04 01             	add    (%ecx,%eax,1),%al
 568:	f2 05 1c 3e 05 2a    	repnz add $0x2a053e1c,%eax
 56e:	4a                   	dec    %edx
 56f:	05 22 74 05 1e       	add    $0x1e057422,%eax
 574:	ac                   	lods   %ds:(%esi),%al
 575:	05 1c 2e 05 05       	add    $0x5052e1c,%eax
 57a:	2e 05 08 08 2f 05    	cs add $0x52f0808,%eax
 580:	12 00                	adc    (%eax),%al
 582:	02 04 01             	add    (%ecx,%eax,1),%al
 585:	66 05 09 67          	add    $0x6709,%ax
 589:	05 01 ca 05 24       	add    $0x2405ca01,%eax
 58e:	68 05 13 bb 00       	push   $0xbb1305
 593:	02 04 01             	add    (%ecx,%eax,1),%al
 596:	06                   	push   %es
 597:	66 00 02             	data16 add %al,(%edx)
 59a:	04 02                	add    $0x2,%al
 59c:	74 00                	je     59e <SEG_KERN_CS+0x596>
 59e:	02 04 04             	add    (%esp,%eax,1),%al
 5a1:	58                   	pop    %eax
 5a2:	05 1a 06 3d 05       	add    $0x53d061a,%eax
 5a7:	13 00                	adc    (%eax),%eax
 5a9:	02 04 01             	add    (%ecx,%eax,1),%al
 5ac:	f2 05 2e 3d 05 26    	repnz add $0x26053d2e,%eax
 5b2:	74 05                	je     5b9 <SEG_KERN_CS+0x5b1>
 5b4:	21 ac 05 13 82 05 05 	and    %ebp,0x5058213(%ebp,%eax,1)
 5bb:	3e 05 08 08 4b 05    	ds add $0x54b0808,%eax
 5c1:	12 00                	adc    (%eax),%al
 5c3:	02 04 01             	add    (%ecx,%eax,1),%al
 5c6:	66 05 09 67          	add    $0x6709,%ax
 5ca:	05 01 ca 05 1c       	add    $0x1c05ca01,%eax
 5cf:	3e 05 05 67 08 4b    	ds add $0x4b086705,%eax
 5d5:	08 21                	or     %ah,(%ecx)
 5d7:	05 01 c9 05 22       	add    $0x2205c901,%eax
 5dc:	3e 05 07 67 05 09    	ds add $0x9056707,%eax
 5e2:	67 05 01 ea 05 09    	addr16 add $0x905ea01,%eax
 5e8:	2b e5                	sub    %ebp,%esp
 5ea:	05 01 08 22 05       	add    $0x5220801,%eax
 5ef:	4d                   	dec    %ebp
 5f0:	3e 05 08 bb 05 10    	ds add $0x1005bb08,%eax
 5f6:	67 05 08 77 05 17    	addr16 add $0x17057708,%eax
 5fc:	67 05 0d ac 05 08    	addr16 add $0x805ac0d,%eax
 602:	5b                   	pop    %ebx
 603:	05 1e 67 05 0f       	add    $0xf05671e,%eax
 608:	ac                   	lods   %ds:(%esi),%al
 609:	05 0c 5b 05 01       	add    $0x1055b0c,%eax
 60e:	59                   	pop    %ecx
 60f:	05 4b 30 05 08       	add    $0x805304b,%eax
 614:	bb 05 10 67 05       	mov    $0x5671005,%ebx
 619:	0d 77 05 11 4a       	or     $0x4a110577,%eax
 61e:	05 12 9f 05 16       	add    $0x16059f12,%eax
 623:	4a                   	dec    %edx
 624:	05 0c 9f 05 01       	add    $0x1059f0c,%eax
 629:	59                   	pop    %ecx
 62a:	05 4b 30 05 11       	add    $0x1105304b,%eax
 62f:	67 05 08 9e 05 0d    	addr16 add $0xd059e08,%eax
 635:	4d                   	dec    %ebp
 636:	67 05 11 67 05 1f    	addr16 add $0x1f056711,%eax
 63c:	67 05 10 9e 05 11    	addr16 add $0x11059e10,%eax
 642:	3e 05 09 9e 05 05    	ds add $0x5059e09,%eax
 648:	be 05 01 db 02       	mov    $0x2db0105,%esi
 64d:	03 00                	add    (%eax),%eax
 64f:	01 01                	add    %eax,(%ecx)
 651:	e0 00                	loopne 653 <SEG_KERN_CS+0x64b>
 653:	00 00                	add    %al,(%eax)
 655:	05 00 04 00 58       	add    $0x58000400,%eax
 65a:	00 00                	add    %al,(%eax)
 65c:	00 01                	add    %al,(%ecx)
 65e:	01 01                	add    %eax,(%ecx)
 660:	fb                   	sti
 661:	0e                   	push   %cs
 662:	0d 00 01 01 01       	or     $0x1010100,%eax
 667:	01 00                	add    %eax,(%eax)
 669:	00 00                	add    %al,(%eax)
 66b:	01 00                	add    %eax,(%eax)
 66d:	00 01                	add    %al,(%ecx)
 66f:	01 01                	add    %eax,(%ecx)
 671:	1f                   	pop    %ds
 672:	05 0b 00 00 00       	add    $0xb,%eax
 677:	68 00 00 00 33       	push   $0x33000000
 67c:	00 00                	add    %al,(%eax)
 67e:	00 72 00             	add    %dh,0x0(%edx)
 681:	00 00                	add    %al,(%eax)
 683:	b8 00 00 00 02       	mov    $0x2000000,%eax
 688:	01 1f                	add    %ebx,(%edi)
 68a:	02 0f                	add    (%edi),%cl
 68c:	08 c0                	or     %al,%al
 68e:	01 00                	add    %eax,(%eax)
 690:	00 01                	add    %al,(%ecx)
 692:	c0 01 00             	rolb   $0x0,(%ecx)
 695:	00 01                	add    %al,(%ecx)
 697:	47                   	inc    %edi
 698:	02 00                	add    (%eax),%al
 69a:	00 02                	add    %al,(%edx)
 69c:	47                   	inc    %edi
 69d:	02 00                	add    (%eax),%al
 69f:	00 03                	add    %al,(%ebx)
 6a1:	07                   	pop    %es
 6a2:	01 00                	add    %eax,(%eax)
 6a4:	00 01                	add    %al,(%ecx)
 6a6:	00 01                	add    %al,(%ecx)
 6a8:	00 00                	add    %al,(%eax)
 6aa:	03 31                	add    (%ecx),%esi
 6ac:	01 00                	add    %eax,(%eax)
 6ae:	00 04 3a             	add    %al,(%edx,%edi,1)
 6b1:	01 00                	add    %eax,(%eax)
 6b3:	00 03                	add    %al,(%ebx)
 6b5:	05 17 00 05 02       	add    $0x2050017,%eax
 6ba:	5b                   	pop    %ebx
 6bb:	62 40 f0             	bound  %eax,-0x10(%eax)
 6be:	03 0b                	add    (%ebx),%ecx
 6c0:	01 05 05 67 05 15    	add    %eax,0x15056705
 6c6:	08 68 05             	or     %ch,0x5(%eax)
 6c9:	13 58 05             	adc    0x5(%eax),%ebx
 6cc:	14 59                	adc    $0x59,%al
 6ce:	05 01 91 05 18       	add    $0x18059101,%eax
 6d3:	3e 05 05 67 05 01    	ds add $0x1056705,%eax
 6d9:	f3 05 41 3e 05 1c    	repz add $0x1c053e41,%eax
 6df:	bb 05 13 4a 05       	mov    $0x54a1305,%ebx
 6e4:	11 ae 05 1b ad 05    	adc    %ebp,0x5ad1b05(%esi)
 6ea:	12 66 05             	adc    0x5(%esi),%ah
 6ed:	0d 92 05 14 91       	or     $0x91140592,%eax
 6f2:	05 01 ad 05 4c       	add    $0x4c05ad01,%eax
 6f7:	3e 05 0b c9 05 2a    	ds add $0x2a05c90b,%eax
 6fd:	2f                   	das
 6fe:	05 1f 90 05 2b       	add    $0x2b05901f,%eax
 703:	40                   	inc    %eax
 704:	05 32 9e 05 25       	add    $0x25059e32,%eax
 709:	3c 05                	cmp    $0x5,%al
 70b:	09 2d 05 3a 2e 05    	or     %ebp,0x52e3a05
 711:	09 58 05             	or     %ebx,0x5(%eax)
 714:	1a 2e                	sbb    (%esi),%ch
 716:	05 20 74 05 09       	add    $0x9057420,%eax
 71b:	66 05 12 d2          	add    $0xd212,%ax
 71f:	05 1a 00 02 04       	add    $0x402001a,%eax
 724:	01 66 05             	add    %esp,0x5(%esi)
 727:	12 00                	adc    (%eax),%al
 729:	02 04 01             	add    (%ecx,%eax,1),%al
 72c:	58                   	pop    %eax
 72d:	05 01 51 02 06       	add    $0x6025101,%eax
 732:	00 01                	add    %al,(%ecx)
 734:	01 df                	add    %ebx,%edi
 736:	00 00                	add    %al,(%eax)
 738:	00 05 00 04 00 4a    	add    %al,0x4a000400
 73e:	00 00                	add    %al,(%eax)
 740:	00 01                	add    %al,(%ecx)
 742:	01 01                	add    %eax,(%ecx)
 744:	fb                   	sti
 745:	0e                   	push   %cs
 746:	0d 00 01 01 01       	or     $0x1010100,%eax
 74b:	01 00                	add    %eax,(%eax)
 74d:	00 00                	add    %al,(%eax)
 74f:	01 00                	add    %eax,(%eax)
 751:	00 01                	add    %al,(%ecx)
 753:	01 01                	add    %eax,(%ecx)
 755:	1f                   	pop    %ds
 756:	04 0b                	add    $0xb,%al
 758:	00 00                	add    %al,(%eax)
 75a:	00 68 00             	add    %ch,0x0(%eax)
 75d:	00 00                	add    %al,(%eax)
 75f:	33 00                	xor    (%eax),%eax
 761:	00 00                	add    %al,(%eax)
 763:	72 00                	jb     765 <SEG_KERN_CS+0x75d>
 765:	00 00                	add    %al,(%eax)
 767:	02 01                	add    (%ecx),%al
 769:	1f                   	pop    %ds
 76a:	02 0f                	add    (%edi),%cl
 76c:	06                   	push   %es
 76d:	d0 01                	rolb   $1,(%ecx)
 76f:	00 00                	add    %al,(%eax)
 771:	01 d0                	add    %edx,%eax
 773:	01 00                	add    %eax,(%eax)
 775:	00 01                	add    %al,(%ecx)
 777:	47                   	inc    %edi
 778:	02 00                	add    (%eax),%al
 77a:	00 02                	add    %al,(%edx)
 77c:	f2 00 00             	repnz add %al,(%eax)
 77f:	00 02                	add    %al,(%edx)
 781:	d7                   	xlat   %ds:(%ebx)
 782:	01 00                	add    %eax,(%eax)
 784:	00 03                	add    %al,(%ebx)
 786:	00 01                	add    %al,(%ecx)
 788:	00 00                	add    %al,(%eax)
 78a:	03 05 29 00 05 02    	add    0x2050029,%eax
 790:	56                   	push   %esi
 791:	63 40 f0             	arpl   %eax,-0x10(%eax)
 794:	03 0f                	add    (%edi),%ecx
 796:	01 05 05 67 d7 05    	add    %eax,0x5d76705
 79c:	1e                   	push   %ds
 79d:	d8 05 05 90 05 01    	fadds  0x1059005
 7a3:	bb 05 2d 3e 05       	mov    $0x53e2d05,%ebx
 7a8:	12 68 05             	adc    0x5(%eax),%ch
 7ab:	05 74 05 12 2f       	add    $0x2f120574,%eax
 7b0:	79 05                	jns    7b7 <SEG_KERN_CS+0x7af>
 7b2:	0d 92 05 33 9e       	or     $0x9e330592,%eax
 7b7:	05 0c 90 05 13       	add    $0x1305900c,%eax
 7bc:	4b                   	dec    %ebx
 7bd:	05 0d 4d 05 16       	add    $0x16054d0d,%eax
 7c2:	90                   	nop
 7c3:	05 21 82 05 1a       	add    $0x1a058221,%eax
 7c8:	66 05 32 00          	add    $0x32,%ax
 7cc:	02 04 02             	add    (%edx,%eax,1),%al
 7cf:	03 74 2e 05          	add    0x5(%esi,%ebp,1),%esi
 7d3:	1b 00                	sbb    (%eax),%eax
 7d5:	02 04 01             	add    (%ecx,%eax,1),%al
 7d8:	4a                   	dec    %edx
 7d9:	05 01 03 0e 90       	add    $0x900e0301,%eax
 7de:	05 31 4c 05 0e       	add    $0xe054c31,%eax
 7e3:	67 05 1a 74 05 14    	addr16 add $0x1405741a,%eax
 7e9:	75 05                	jne    7f0 <SEG_KERN_CS+0x7e8>
 7eb:	0e                   	push   %cs
 7ec:	58                   	pop    %eax
 7ed:	05 0b 68 05 0d       	add    $0xd05680b,%eax
 7f2:	2f                   	das
 7f3:	05 16 90 05 1f       	add    $0x1f059016,%eax
 7f8:	84 05 0d 65 05 10    	test   %al,0x1005650d
 7fe:	32 05 0e 75 05 0c    	xor    0xc05750e,%al
 804:	75 05                	jne    80b <SEG_KERN_CS+0x803>
 806:	15 03 78 4a 05       	adc    $0x54a7803,%eax
 80b:	13 58 03             	adc    0x3(%eax),%ebx
 80e:	0b 58 05             	or     0x5(%eax),%ebx
 811:	01 bb 02 03 00 01    	add    %edi,0x1000302(%ebx)
 817:	01 3a                	add    %edi,(%edx)
 819:	01 00                	add    %eax,(%eax)
 81b:	00 05 00 04 00 58    	add    %al,0x58000400
 821:	00 00                	add    %al,(%eax)
 823:	00 01                	add    %al,(%ecx)
 825:	01 01                	add    %eax,(%ecx)
 827:	fb                   	sti
 828:	0e                   	push   %cs
 829:	0d 00 01 01 01       	or     $0x1010100,%eax
 82e:	01 00                	add    %eax,(%eax)
 830:	00 00                	add    %al,(%eax)
 832:	01 00                	add    %eax,(%eax)
 834:	00 01                	add    %al,(%ecx)
 836:	01 01                	add    %eax,(%ecx)
 838:	1f                   	pop    %ds
 839:	05 0b 00 00 00       	add    $0xb,%eax
 83e:	68 00 00 00 33       	push   $0x33000000
 843:	00 00                	add    %al,(%eax)
 845:	00 72 00             	add    %dh,0x0(%edx)
 848:	00 00                	add    %al,(%eax)
 84a:	b8 00 00 00 02       	mov    $0x2000000,%eax
 84f:	01 1f                	add    %ebx,(%edi)
 851:	02 0f                	add    (%edi),%cl
 853:	08 eb                	or     %ch,%bl
 855:	01 00                	add    %eax,(%eax)
 857:	00 01                	add    %al,(%ecx)
 859:	eb 01                	jmp    85c <SEG_KERN_CS+0x854>
 85b:	00 00                	add    %al,(%eax)
 85d:	01 47 02             	add    %eax,0x2(%edi)
 860:	00 00                	add    %al,(%eax)
 862:	02 47 02             	add    0x2(%edi),%al
 865:	00 00                	add    %al,(%eax)
 867:	03 3a                	add    (%edx),%edi
 869:	01 00                	add    %eax,(%eax)
 86b:	00 03                	add    %al,(%ebx)
 86d:	65 01 00             	add    %eax,%gs:(%eax)
 870:	00 03                	add    %al,(%ebx)
 872:	1e                   	push   %ds
 873:	01 00                	add    %eax,(%eax)
 875:	00 01                	add    %al,(%ecx)
 877:	31 01                	xor    %eax,(%ecx)
 879:	00 00                	add    %al,(%eax)
 87b:	04 05                	add    $0x5,%al
 87d:	17                   	pop    %ss
 87e:	00 05 02 59 64 40    	add    %al,0x40645902
 884:	f0 03 14 01          	lock add (%ecx,%eax,1),%edx
 888:	05 05 67 08 67       	add    $0x67086705,%eax
 88d:	05 12 08 3d 05       	add    $0x53d0812,%eax
 892:	15 76 05 3c 00       	adc    $0x3c0576,%eax
 897:	02 04 01             	add    (%ecx,%eax,1),%al
 89a:	c8 05 12 00          	enter  $0x1205,$0x0
 89e:	02 04 01             	add    (%ecx,%eax,1),%al
 8a1:	82 05 15 f3 05 3b 00 	addb   $0x0,0x3b05f315
 8a8:	02 04 01             	add    (%ecx,%eax,1),%al
 8ab:	c8 00 02 04          	enter  $0x200,$0x4
 8af:	02 06                	add    (%esi),%al
 8b1:	ac                   	lods   %ds:(%esi),%al
 8b2:	05 12 00 02 04       	add    $0x4020012,%eax
 8b7:	04 06                	add    $0x6,%al
 8b9:	58                   	pop    %eax
 8ba:	05 05 f5 05 01       	add    $0x105f505,%eax
 8bf:	08 21                	or     %ah,(%ecx)
 8c1:	05 27 3e 05 08       	add    $0x8053e27,%eax
 8c6:	bb 05 10 67 77       	mov    $0x77671005,%ebx
 8cb:	05 0c 4a 05 01       	add    $0x1054a0c,%eax
 8d0:	83 05 37 30 05 18 bb 	addl   $0xffffffbb,0x18053037
 8d7:	05 26 f3 05 18       	add    $0x1805f326,%eax
 8dc:	74 05                	je     8e3 <SEG_KERN_CS+0x8db>
 8de:	08 08                	or     %cl,(%eax)
 8e0:	22 05 0e 00 02 04    	and    0x402000e,%al
 8e6:	01 66 05             	add    %esp,0x5(%esi)
 8e9:	10 67 05             	adc    %ah,0x5(%edi)
 8ec:	18 a1 05 05 93 05    	sbb    %ah,0x5930505(%ecx)
 8f2:	11 08                	adc    %ecx,(%eax)
 8f4:	2f                   	das
 8f5:	05 05 76 05 36       	add    $0x36057605,%eax
 8fa:	08 21                	or     %ah,(%ecx)
 8fc:	05 30 9e 05 2b       	add    $0x2b059e30,%eax
 901:	66 05 26 66          	add    $0x6626,%ax
 905:	05 21 66 05 1c       	add    $0x1c056621,%eax
 90a:	66 05 17 66          	add    $0x6617,%ax
 90e:	05 12 66 05 0d       	add    $0xd056612,%eax
 913:	66 67 05 11 9f       	addr16 add $0x9f11,%ax
 918:	05 24 9f 05 2a       	add    $0x2a059f24,%eax
 91d:	4a                   	dec    %edx
 91e:	05 24 9e 05 10       	add    $0x10059e24,%eax
 923:	74 05                	je     92a <SEG_KERN_CS+0x922>
 925:	0e                   	push   %cs
 926:	2e 05 0d 68 05 0e    	cs add $0xe05680d,%eax
 92c:	9f                   	lahf
 92d:	05 17 92 05 08       	add    $0x8059217,%eax
 932:	c8 05 09 4b          	enter  $0x905,$0x4b
 936:	08 3d 08 83 05 17    	or     %bh,0x17058308
 93c:	08 3f                	or     %bh,(%edi)
 93e:	05 08 c8 05 09       	add    $0x905c808,%eax
 943:	4d                   	dec    %ebp
 944:	05 10 08 75 05       	add    $0x5750810,%eax
 949:	09 92 08 75 05 01    	or     %edx,0x1057508(%edx)
 94f:	08 6b 02             	or     %ch,0x2(%ebx)
 952:	02 00                	add    (%eax),%al
 954:	01 01                	add    %eax,(%ecx)
 956:	d9 03                	flds   (%ebx)
 958:	00 00                	add    %al,(%eax)
 95a:	05 00 04 00 57       	add    $0x57000400,%eax
 95f:	00 00                	add    %al,(%eax)
 961:	00 01                	add    %al,(%ecx)
 963:	01 01                	add    %eax,(%ecx)
 965:	fb                   	sti
 966:	0e                   	push   %cs
 967:	0d 00 01 01 01       	or     $0x1010100,%eax
 96c:	01 00                	add    %eax,(%eax)
 96e:	00 00                	add    %al,(%eax)
 970:	01 00                	add    %eax,(%eax)
 972:	00 01                	add    %al,(%ecx)
 974:	01 01                	add    %eax,(%ecx)
 976:	1f                   	pop    %ds
 977:	06                   	push   %es
 978:	0b 00                	or     (%eax),%eax
 97a:	00 00                	add    %al,(%eax)
 97c:	b0 00                	mov    $0x0,%al
 97e:	00 00                	add    %al,(%eax)
 980:	33 00                	xor    (%eax),%eax
 982:	00 00                	add    %al,(%eax)
 984:	00 02                	add    %al,(%edx)
 986:	00 00                	add    %al,(%eax)
 988:	b8 00 00 00 72       	mov    $0x72000000,%eax
 98d:	00 00                	add    %al,(%eax)
 98f:	00 02                	add    %al,(%edx)
 991:	01 1f                	add    %ebx,(%edi)
 993:	02 0f                	add    (%edi),%cl
 995:	07                   	pop    %es
 996:	f9                   	stc
 997:	01 00                	add    %eax,(%eax)
 999:	00 01                	add    %al,(%ecx)
 99b:	f9                   	stc
 99c:	01 00                	add    %eax,(%eax)
 99e:	00 01                	add    %al,(%ecx)
 9a0:	47                   	inc    %edi
 9a1:	02 00                	add    (%eax),%al
 9a3:	00 02                	add    %al,(%edx)
 9a5:	42                   	inc    %edx
 9a6:	02 00                	add    (%eax),%al
 9a8:	00 03                	add    %al,(%ebx)
 9aa:	2a 01                	sub    (%ecx),%al
 9ac:	00 00                	add    %al,(%eax)
 9ae:	01 31                	add    %esi,(%ecx)
 9b0:	01 00                	add    %eax,(%eax)
 9b2:	00 04 00             	add    %al,(%eax,%eax,1)
 9b5:	01 00                	add    %eax,(%eax)
 9b7:	00 05 05 1b 00 05    	add    %al,0x5001b05
 9bd:	02 d2                	add    %dl,%dl
 9bf:	66 40                	inc    %ax
 9c1:	f0 03 20             	lock add (%eax),%esp
 9c4:	01 05 17 69 91 05    	add    %eax,0x5916917
 9ca:	11 93 05 08 08 21    	adc    %edx,0x21080805(%ebx)
 9d0:	05 14 68 9f 05       	add    $0x59f6814,%eax
 9d5:	10 9f 05 11 77 05    	adc    %bl,0x5771105(%edi)
 9db:	08 4a 05             	or     %cl,0x5(%edx)
 9de:	30 4b 05             	xor    %cl,0x5(%ebx)
 9e1:	14 66                	adc    $0x66,%al
 9e3:	59                   	pop    %ecx
 9e4:	05 30 be 05 14       	add    $0x1405be30,%eax
 9e9:	66 59                	pop    %cx
 9eb:	05 0a a1 05 08       	add    $0x805a10a,%eax
 9f0:	00 02                	add    %al,(%edx)
 9f2:	04 01                	add    $0x1,%al
 9f4:	58                   	pop    %eax
 9f5:	05 14 4b 9f 05       	add    $0x59f4b14,%eax
 9fa:	10 9f 05 05 77 05    	adc    %bl,0x5770505(%edi)
 a00:	0c 59                	or     $0x59,%al
 a02:	05 01 59 05 24       	add    $0x24055901,%eax
 a07:	30 05 1f 67 05 08    	xor    %al,0x805671f
 a0d:	83 05 36 a2 05 17 66 	addl   $0x66,0x1705a236
 a14:	05 08 3d 05 0e       	add    $0xe053d08,%eax
 a19:	a2 05 1f 91 05       	mov    %al,0x5911f05
 a1e:	18 66 05             	sbb    %ah,0x5(%esi)
 a21:	0e                   	push   %cs
 a22:	3c 83                	cmp    $0x83,%al
 a24:	05 0b 69 05 0c       	add    $0xc05690b,%eax
 a29:	2f                   	das
 a2a:	05 16 49 05 19       	add    $0x19054916,%eax
 a2f:	00 02                	add    %al,(%edx)
 a31:	04 01                	add    $0x1,%al
 a33:	82 05 16 00 02 04 01 	addb   $0x1,0x4020016
 a3a:	08 4a 05             	or     %cl,0x5(%edx)
 a3d:	08 4d 05             	or     %cl,0x5(%ebp)
 a40:	14 00                	adc    $0x0,%al
 a42:	02 04 01             	add    (%ecx,%eax,1),%al
 a45:	ba 05 0f 03 12       	mov    $0x12030f05,%edx
 a4a:	ba 05 09 66 05       	mov    $0x5660905,%edx
 a4f:	08 3c 05 10 86 05 08 	or     %bh,0x8058610(,%eax,1)
 a56:	66 05 10 4b          	add    $0x4b10,%ax
 a5a:	05 0a 66 05 25       	add    $0x2505660a,%eax
 a5f:	00 02                	add    %al,(%edx)
 a61:	04 01                	add    $0x1,%al
 a63:	3b 05 22 4c 05 0a    	cmp    0xa054c22,%eax
 a69:	66 05 39 3b          	add    $0x3b39,%ax
 a6d:	05 10 4c 05 0a       	add    $0xa054c10,%eax
 a72:	66 05 31 3b          	add    $0x3b31,%ax
 a76:	05 0e 87 05 08       	add    $0x805870e,%eax
 a7b:	4a                   	dec    %edx
 a7c:	05 0a bf 05 26       	add    $0x2605bf0a,%eax
 a81:	66 05 06 3b          	add    $0x3b06,%ax
 a85:	05 08 94 05 09       	add    $0x9059408,%eax
 a8a:	86 05 08 66 05 09    	xchg   %al,0x9056608
 a90:	4b                   	dec    %ebx
 a91:	05 1b 4d 05 17       	add    $0x17054d1b,%eax
 a96:	90                   	nop
 a97:	05 1f 66 05 14       	add    $0x1405661f,%eax
 a9c:	3c 05                	cmp    $0x5,%al
 a9e:	09 67 05             	or     %esp,0x5(%edi)
 aa1:	08 66 05             	or     %ah,0x5(%esi)
 aa4:	09 4b 05             	or     %ecx,0x5(%ebx)
 aa7:	1b 4d 05             	sbb    0x5(%ebp),%ecx
 aaa:	17                   	pop    %ss
 aab:	90                   	nop
 aac:	05 1f 66 05 14       	add    $0x1405661f,%eax
 ab1:	3c 05                	cmp    $0x5,%al
 ab3:	1d 68 05 17 66       	sbb    $0x66170568,%eax
 ab8:	05 1d 67 05 17       	add    $0x1705671d,%eax
 abd:	66 05 09 03          	add    $0x309,%ax
 ac1:	bb 7f 82 41 03       	mov    $0x341827f,%ebx
 ac6:	0c 3c                	or     $0x3c,%al
 ac8:	03 12                	add    (%edx),%edx
 aca:	3c 43                	cmp    $0x43,%al
 acc:	40                   	inc    %eax
 acd:	44                   	inc    %esp
 ace:	05 01 03 10 20       	add    $0x20100301,%eax
 ad3:	05 20 30 05 0c       	add    $0xc053020,%eax
 ad8:	3d 05 17 58 00       	cmp    $0x581705,%eax
 add:	02 04 01             	add    (%ecx,%eax,1),%al
 ae0:	06                   	push   %es
 ae1:	4a                   	dec    %edx
 ae2:	00 02                	add    %al,(%edx)
 ae4:	04 03                	add    $0x3,%al
 ae6:	90                   	nop
 ae7:	58                   	pop    %eax
 ae8:	00 02                	add    %al,(%edx)
 aea:	04 04                	add    $0x4,%al
 aec:	2e 05 01 06 59 05    	cs add $0x5590601,%eax
 af2:	1f                   	pop    %ds
 af3:	30 05 09 67 05 08    	xor    %al,0x8056709
 af9:	74 05                	je     b00 <SEG_KERN_CS+0xaf8>
 afb:	10 59 05             	adc    %bl,0x5(%ecx)
 afe:	05 78 05 1b 02       	add    $0x21b0578,%eax
 b03:	24 13                	and    $0x13,%al
 b05:	05 08 74 05 09       	add    $0x9057408,%eax
 b0a:	59                   	pop    %ecx
 b0b:	05 0c 02 24 15       	add    $0x1524020c,%eax
 b10:	05 01 59 05 38       	add    $0x38055901,%eax
 b15:	30 05 0d 67 05 0e    	xor    %al,0xe05670d
 b1b:	4b                   	dec    %ebx
 b1c:	05 0b 68 05 14       	add    $0x1405680b,%eax
 b21:	2f                   	das
 b22:	05 10 90 05 0d       	add    $0xd059010,%eax
 b27:	3c 05                	cmp    $0x5,%al
 b29:	0f 3b                	(bad)
 b2b:	05 0c 90 4e 05       	add    $0x54e900c,%eax
 b30:	01 4b 05             	add    %ecx,0x5(%ebx)
 b33:	32 30                	xor    (%eax),%dh
 b35:	05 08 67 05 1e       	add    $0x1e056708,%eax
 b3a:	00 02                	add    %al,(%edx)
 b3c:	04 01                	add    $0x1,%al
 b3e:	66 05 12 00          	add    $0x12,%ax
 b42:	02 04 01             	add    (%ecx,%eax,1),%al
 b45:	3c 05                	cmp    $0x5,%al
 b47:	0f 00 02             	sldt   (%edx)
 b4a:	04 01                	add    $0x1,%al
 b4c:	08 2e                	or     %ch,(%esi)
 b4e:	05 10 4b 05 09       	add    $0x9054b10,%eax
 b53:	78 05                	js     b5a <SEG_KERN_CS+0xb52>
 b55:	08 00                	or     %al,(%eax)
 b57:	02 04 01             	add    (%ecx,%eax,1),%al
 b5a:	f2 05 10 4b 05 0d    	repnz add $0xd054b10,%eax
 b60:	77 05                	ja     b67 <SEG_KERN_CS+0xb5f>
 b62:	08 74 05 1a          	or     %dh,0x1a(%ebp,%eax,1)
 b66:	00 02                	add    %al,(%edx)
 b68:	04 01                	add    $0x1,%al
 b6a:	4a                   	dec    %edx
 b6b:	05 17 00 02 04       	add    $0x4020017,%eax
 b70:	01 08                	add    %ecx,(%eax)
 b72:	4a                   	dec    %edx
 b73:	05 10 4b 05 0c       	add    $0xc054b10,%eax
 b78:	77 05                	ja     b7f <SEG_KERN_CS+0xb77>
 b7a:	01 59 32             	add    %ebx,0x32(%ecx)
 b7d:	05 08 67 05 1d       	add    $0x1d056708,%eax
 b82:	00 02                	add    %al,(%edx)
 b84:	04 01                	add    $0x1,%al
 b86:	82 05 15 00 02 04 01 	addb   $0x1,0x4020015
 b8d:	66 05 10 59          	add    $0x5910,%ax
 b91:	05 0e 77 05 13       	add    $0x1305770e,%eax
 b96:	91                   	xchg   %eax,%ecx
 b97:	05 05 66 05 1c       	add    $0x1c056605,%eax
 b9c:	2f                   	das
 b9d:	05 0d 68 05 0c       	add    $0xc05680d,%eax
 ba2:	00 02                	add    %al,(%edx)
 ba4:	04 01                	add    $0x1,%al
 ba6:	d6                   	(bad)
 ba7:	05 10 4b 05 20       	add    $0x20054b10,%eax
 bac:	67 05 2f 74 05 1a    	addr16 add $0x1a05742f,%eax
 bb2:	74 05                	je     bb9 <SEG_KERN_CS+0xbb1>
 bb4:	14 5b                	adc    $0x5b,%al
 bb6:	05 2a 00 02 04       	add    $0x402002a,%eax
 bbb:	02 03                	add    (%ebx),%al
 bbd:	78 58                	js     c17 <SEG_KERN_CS+0xc0f>
 bbf:	05 20 00 02 04       	add    $0x4020020,%eax
 bc4:	01 4a 05             	add    %ecx,0x5(%edx)
 bc7:	0c 03                	or     $0x3,%al
 bc9:	0c 82                	or     $0x82,%al
 bcb:	05 01 59 05 2e       	add    $0x2e055901,%eax
 bd0:	30 05 0e 67 05 0b    	xor    %al,0xb05670e
 bd6:	67 05 05 78 05 09    	addr16 add $0x9057805,%eax
 bdc:	08 59 05             	or     %bl,0x5(%ecx)
 bdf:	08 4a 05             	or     %cl,0x5(%edx)
 be2:	0e                   	push   %cs
 be3:	59                   	pop    %ecx
 be4:	05 3d ad 05 12       	add    $0x1205ad3d,%eax
 be9:	ba 05 0c 08 ae       	mov    $0xae080c05,%edx
 bee:	05 14 67 05 0c       	add    $0xc056714,%eax
 bf3:	5c                   	pop    %esp
 bf4:	05 01 08 76 05       	add    $0x5760801,%eax
 bf9:	21 33                	and    %esi,(%ebx)
 bfb:	05 1d 67 05 17       	add    $0x1705671d,%eax
 c00:	58                   	pop    %eax
 c01:	05 15 3d 05 08       	add    $0x8053d15,%eax
 c06:	58                   	pop    %eax
 c07:	05 37 00 02 04       	add    $0x4020037,%eax
 c0c:	01 58 05             	add    %ebx,0x5(%eax)
 c0f:	2c 00                	sub    $0x0,%al
 c11:	02 04 01             	add    (%ecx,%eax,1),%al
 c14:	3c 05                	cmp    $0x5,%al
 c16:	29 00                	sub    %eax,(%eax)
 c18:	02 04 01             	add    (%ecx,%eax,1),%al
 c1b:	08 2e                	or     %ch,(%esi)
 c1d:	05 15 4b 05 5d       	add    $0x5d054b15,%eax
 c22:	00 02                	add    %al,(%edx)
 c24:	04 03                	add    $0x3,%al
 c26:	57                   	push   %edi
 c27:	05 37 59 05 2c       	add    $0x2c055937,%eax
 c2c:	3c 05                	cmp    $0x5,%al
 c2e:	29 00                	sub    %eax,(%eax)
 c30:	02 04 01             	add    (%ecx,%eax,1),%al
 c33:	08 2e                	or     %ch,(%esi)
 c35:	05 10 4c 05 0c       	add    $0xc054c10,%eax
 c3a:	77 05                	ja     c41 <SEG_KERN_CS+0xc39>
 c3c:	01 59 05             	add    %ebx,0x5(%ecx)
 c3f:	54                   	push   %esp
 c40:	30 05 0e 67 05 1a    	xor    %al,0x1a05670e
 c46:	91                   	xchg   %eax,%ecx
 c47:	05 20 66 05 3c       	add    $0x3c056620,%eax
 c4c:	3c 05                	cmp    $0x5,%al
 c4e:	0e                   	push   %cs
 c4f:	66 05 13 a0          	add    $0xa013,%ax
 c53:	05 05 74 05 2f       	add    $0x2f057405,%eax
 c58:	2f                   	das
 c59:	05 12 ac 05 1b       	add    $0x1b05ac12,%eax
 c5e:	83 05 18 76 05 0c 58 	addl   $0x58,0xc057618
 c65:	05 29 59 05 13       	add    $0x13055929,%eax
 c6a:	58                   	pop    %eax
 c6b:	05 29 5a 05 13       	add    $0x13055a29,%eax
 c70:	82 05 1a 3f 05 0d 3c 	addb   $0x3c,0xd053f1a
 c77:	05 0c 00 02 04       	add    $0x402000c,%eax
 c7c:	01 08                	add    %ecx,(%eax)
 c7e:	12 05 14 4b 05 25    	adc    0x25054b14,%al
 c84:	00 02                	add    %al,(%edx)
 c86:	04 02                	add    $0x2,%al
 c88:	03 75 58             	add    0x58(%ebp),%esi
 c8b:	05 1c 00 02 04       	add    $0x402001c,%eax
 c90:	01 4a 05             	add    %ecx,0x5(%edx)
 c93:	0c 03                	or     $0x3,%al
 c95:	0f 82 05 01 59 05    	jb     5590da0 <_mb_unpaged_end+0x518bda0>
 c9b:	3b 30                	cmp    (%eax),%esi
 c9d:	05 09 67 05 08       	add    $0x8056709,%eax
 ca2:	58                   	pop    %eax
 ca3:	05 10 4b 05 0c       	add    $0xc054b10,%eax
 ca8:	77 05                	ja     caf <SEG_KERN_CS+0xca7>
 caa:	01 08                	add    %ecx,(%eax)
 cac:	3f                   	aas
 cad:	05 2b 30 05 0c       	add    $0xc05302b,%eax
 cb2:	67 05 01 f3 05 2b    	addr16 add $0x2b05f301,%eax
 cb8:	30 05 0c 67 05 01    	xor    %al,0x105670c
 cbe:	f3 05 55 30 05 16    	repz add $0x16053055,%eax
 cc4:	67 05 0f 82 05 08    	addr16 add $0x805820f,%eax
 cca:	58                   	pop    %eax
 ccb:	05 1d 4b 05 14       	add    $0x14054b1d,%eax
 cd0:	00 02                	add    %al,(%edx)
 cd2:	04 01                	add    $0x1,%al
 cd4:	82 05 08 85 05 16 67 	addb   $0x67,0x16058508
 cdb:	05 09 9f 05 25       	add    $0x25059f09,%eax
 ce0:	31 05 12 66 05 01    	xor    %eax,0x1056612
 ce6:	67 05 5b 30 05 08    	addr16 add $0x805305b,%eax
 cec:	67 05 17 00 02 04    	addr16 add $0x4020017,%eax
 cf2:	01 66 05             	add    %esp,0x5(%esi)
 cf5:	0f 00 02             	sldt   (%edx)
 cf8:	04 01                	add    $0x1,%al
 cfa:	58                   	pop    %eax
 cfb:	05 10 4b 05 18       	add    $0x18054b10,%eax
 d00:	77 05                	ja     d07 <SEG_KERN_CS+0xcff>
 d02:	1d 83 05 0e 66       	sbb    $0x660e0583,%eax
 d07:	05 2a 67 05 0e       	add    $0xe05672a,%eax
 d0c:	66 05 0d 84          	add    $0x840d,%ax
 d10:	05 08 66 05 10       	add    $0x10056608,%eax
 d15:	59                   	pop    %ecx
 d16:	05 1d 77 05 08       	add    $0x805771d,%eax
 d1b:	91                   	xchg   %eax,%ecx
 d1c:	05 0f 67 05 09       	add    $0x905670f,%eax
 d21:	85 05 18 66 05 12    	test   %eax,0x12056618
 d27:	9e                   	sahf
 d28:	05 0c 83 05 01       	add    $0x105830c,%eax
 d2d:	59                   	pop    %ecx
 d2e:	02 02                	add    (%edx),%al
 d30:	00 01                	add    %al,(%ecx)
 d32:	01 6e 01             	add    %ebp,0x1(%esi)
 d35:	00 00                	add    %al,(%eax)
 d37:	05 00 04 00 37       	add    $0x37000400,%eax
 d3c:	00 00                	add    %al,(%eax)
 d3e:	00 01                	add    %al,(%ecx)
 d40:	01 01                	add    %eax,(%ecx)
 d42:	fb                   	sti
 d43:	0e                   	push   %cs
 d44:	0d 00 01 01 01       	or     $0x1010100,%eax
 d49:	01 00                	add    %eax,(%eax)
 d4b:	00 00                	add    %al,(%eax)
 d4d:	01 00                	add    %eax,(%eax)
 d4f:	00 01                	add    %al,(%ecx)
 d51:	01 01                	add    %eax,(%ecx)
 d53:	1f                   	pop    %ds
 d54:	03 5c 02 00          	add    0x0(%edx,%eax,1),%ebx
 d58:	00 2f                	add    %ch,(%edi)
 d5a:	00 00                	add    %al,(%eax)
 d5c:	00 33                	add    %dh,(%ebx)
 d5e:	00 00                	add    %al,(%eax)
 d60:	00 02                	add    %al,(%edx)
 d62:	01 1f                	add    %ebx,(%edi)
 d64:	02 0f                	add    (%edi),%cl
 d66:	03 53 02             	add    0x2(%ebx),%edx
 d69:	00 00                	add    %al,(%eax)
 d6b:	01 53 02             	add    %edx,0x2(%ebx)
 d6e:	00 00                	add    %al,(%eax)
 d70:	01 47 02             	add    %eax,0x2(%edi)
 d73:	00 00                	add    %al,(%eax)
 d75:	02 05 32 00 05 02    	add    0x2050032,%al
 d7b:	66 6d                	insw   (%dx),%es:(%edi)
 d7d:	40                   	inc    %eax
 d7e:	f0 14 05             	lock adc $0x5,%al
 d81:	0e                   	push   %cs
 d82:	bb 05 12 76 05       	mov    $0x5761205,%ebx
 d87:	21 3c 05 1c 67 05 21 	and    %edi,0x2105671c(,%eax,1)
 d8e:	66 05 1c 67          	add    $0x671c,%ax
 d92:	05 21 66 05 1c       	add    $0x1c056621,%eax
 d97:	67 05 21 66 05 0e    	addr16 add $0xe056621,%eax
 d9d:	68 05 0c 67 05       	push   $0x5670c05
 da2:	05 76 05 1e 2f       	add    $0x2f1e0576,%eax
 da7:	05 24 82 05 17       	add    $0x17058224,%eax
 dac:	00 02                	add    %al,(%edx)
 dae:	04 02                	add    $0x2,%al
 db0:	57                   	push   %edi
 db1:	05 0e 00 02 04       	add    $0x402000e,%eax
 db6:	01 4a 05             	add    %ecx,0x5(%edx)
 db9:	05 86 05 12 2f       	add    $0x2f120586,%eax
 dbe:	05 17 82 05 14       	add    $0x14058217,%eax
 dc3:	00 02                	add    %al,(%edx)
 dc5:	04 02                	add    $0x2,%al
 dc7:	65 05 0d 00 02 04    	gs add $0x402000d,%eax
 dcd:	01 4a 05             	add    %ecx,0x5(%edx)
 dd0:	01 85 05 36 4c 05    	add    %eax,0x54c3605(%ebp)
 dd6:	0f 67 67 05          	packuswb 0x5(%edi),%mm4
 dda:	0a 68 05             	or     0x5(%eax),%ch
 ddd:	1e                   	push   %ds
 dde:	2f                   	das
 ddf:	05 11 90 05 16       	add    $0x16059011,%eax
 de4:	90                   	nop
 de5:	05 14 2e 05 0d       	add    $0xd052e14,%eax
 dea:	2f                   	das
 deb:	05 0f 48 05 0e       	add    $0xe05480f,%eax
 df0:	6b 67 05 0a          	imul   $0xa,0x5(%edi),%esp
 df4:	68 05 1c 2f 05       	push   $0x52f1c05
 df9:	10 90 05 15 90 05    	adc    %dl,0x5901505(%eax)
 dff:	13 3c 05 0c 2f 05 0b 	adc    0xb052f0c(,%eax,1),%edi
 e06:	48                   	dec    %eax
 e07:	05 01 6a 05 37       	add    $0x37056a01,%eax
 e0c:	4c                   	dec    %esp
 e0d:	05 08 67 6a 05       	add    $0x56a6708,%eax
 e12:	09 83 08 13 05 0f    	or     %eax,0xf051308(%ebx)
 e18:	31 ad 05 0b ad 05    	xor    %ebp,0x5ad0b05(%ebp)
 e1e:	16                   	push   %ss
 e1f:	2f                   	das
 e20:	05 18 82 05 16       	add    $0x16058218,%eax
 e25:	58                   	pop    %eax
 e26:	05 0d 59 05 10       	add    $0x1005590d,%eax
 e2b:	48                   	dec    %eax
 e2c:	05 0e 6b 67 05       	add    $0x5676b0e,%eax
 e31:	0a 67 05             	or     0x5(%edi),%ah
 e34:	15 2f 05 17 82       	adc    $0x8217052f,%eax
 e39:	05 15 66 05 0c       	add    $0xc056615,%eax
 e3e:	59                   	pop    %ecx
 e3f:	05 0b 48 05 09       	add    $0x905480b,%eax
 e44:	03 6f 82             	add    -0x7e(%edi),%ebp
 e47:	05 01 03 15 20       	add    $0x20150301,%eax
 e4c:	05 42 30 05 0e       	add    $0xe053042,%eax
 e51:	67 67 05 0d 67 05 0b 	addr16 addr16 add $0xb05670d,%eax
 e58:	76 05                	jbe    e5f <SEG_KERN_CS+0xe57>
 e5a:	1f                   	pop    %ds
 e5b:	2f                   	das
 e5c:	05 11 90 05 20       	add    $0x20059011,%eax
 e61:	59                   	pop    %ecx
 e62:	05 11 90 59 05       	add    $0x5599011,%eax
 e67:	0c 90                	or     $0x90,%al
 e69:	05 0d 6a 05 10       	add    $0x10056a0d,%eax
 e6e:	03 79 4a             	add    0x4a(%ecx),%edi
 e71:	05 0d 86 05 0e       	add    $0xe05860d,%eax
 e76:	26 67 05 0b 68 05 1e 	es addr16 add $0x1e05680b,%eax
 e7d:	2f                   	das
 e7e:	05 16 90 05 11       	add    $0x11059016,%eax
 e83:	3c 05                	cmp    $0x5,%al
 e85:	1f                   	pop    %ds
 e86:	67 05 16 90 05 11    	addr16 add $0x11059016,%eax
 e8c:	3c 67                	cmp    $0x67,%al
 e8e:	05 0c 90 05 14       	add    $0x1405900c,%eax
 e93:	67 05 0c 5b 03 79    	addr16 add $0x79035b0c,%eax
 e99:	4a                   	dec    %edx
 e9a:	03 0a                	add    (%edx),%ecx
 e9c:	66 05 01 59          	add    $0x5901,%ax
 ea0:	02 02                	add    (%edx),%al
 ea2:	00 01                	add    %al,(%ecx)
 ea4:	01 57 00             	add    %edx,0x0(%edi)
 ea7:	00 00                	add    %al,(%eax)
 ea9:	05 00 04 00 37       	add    $0x37000400,%eax
 eae:	00 00                	add    %al,(%eax)
 eb0:	00 01                	add    %al,(%ecx)
 eb2:	01 01                	add    %eax,(%ecx)
 eb4:	fb                   	sti
 eb5:	0e                   	push   %cs
 eb6:	0d 00 01 01 01       	or     $0x1010100,%eax
 ebb:	01 00                	add    %eax,(%eax)
 ebd:	00 00                	add    %al,(%eax)
 ebf:	01 00                	add    %eax,(%eax)
 ec1:	00 01                	add    %al,(%ecx)
 ec3:	01 01                	add    %eax,(%ecx)
 ec5:	1f                   	pop    %ds
 ec6:	03 77 02             	add    0x2(%edi),%esi
 ec9:	00 00                	add    %al,(%eax)
 ecb:	2f                   	das
 ecc:	00 00                	add    %al,(%eax)
 ece:	00 33                	add    %dh,(%ebx)
 ed0:	00 00                	add    %al,(%eax)
 ed2:	00 02                	add    %al,(%edx)
 ed4:	01 1f                	add    %ebx,(%edi)
 ed6:	02 0f                	add    (%edi),%cl
 ed8:	03 91 02 00 00 01    	add    0x1000002(%ecx),%edx
 ede:	91                   	xchg   %eax,%ecx
 edf:	02 00                	add    (%eax),%al
 ee1:	00 01                	add    %al,(%ecx)
 ee3:	47                   	inc    %edi
 ee4:	02 00                	add    (%eax),%al
 ee6:	00 02                	add    %al,(%edx)
 ee8:	05 19 00 05 02       	add    $0x2050019,%eax
 eed:	8a 6f 40             	mov    0x40(%edi),%ch
 ef0:	f0 14 05             	lock adc $0x5,%al
 ef3:	0f 67 05 0a 76 05 01 	packuswb 0x105760a,%mm0
 efa:	83 02 03             	addl   $0x3,(%edx)
 efd:	00 01                	add    %al,(%ecx)
 eff:	01                   	.byte 0x1

Disassembly of section .debug_frame:

00000000 <.debug_frame>:
   0:	10 00                	adc    %al,(%eax)
   2:	00 00                	add    %al,(%eax)
   4:	ff                   	(bad)
   5:	ff                   	(bad)
   6:	ff                   	(bad)
   7:	ff 01                	incl   (%ecx)
   9:	00 01                	add    %al,(%ecx)
   b:	7c 08                	jl     15 <SEG_KERN_CS+0xd>
   d:	0c 04                	or     $0x4,%al
   f:	04 88                	add    $0x88,%al
  11:	01 00                	add    %eax,(%eax)
  13:	00 1c 00             	add    %bl,(%eax,%eax,1)
  16:	00 00                	add    %al,(%eax)
  18:	00 00                	add    %al,(%eax)
  1a:	00 00                	add    %al,(%eax)
  1c:	00 50 40             	add    %dl,0x40(%eax)
  1f:	f0 36 00 00          	lock add %al,%ss:(%eax)
  23:	00 41 0e             	add    %al,0xe(%ecx)
  26:	08 85 02 42 0d 05    	or     %al,0x50d4202(%ebp)
  2c:	72 c5                	jb     fffffff3 <_mb_end+0xfbedb97>
  2e:	0c 04                	or     $0x4,%al
  30:	04 00                	add    $0x0,%al
  32:	00 00                	add    %al,(%eax)
  34:	1c 00                	sbb    $0x0,%al
  36:	00 00                	add    %al,(%eax)
  38:	00 00                	add    %al,(%eax)
  3a:	00 00                	add    %al,(%eax)
  3c:	36 50                	ss push %eax
  3e:	40                   	inc    %eax
  3f:	f0 9c                	lock pushf
  41:	00 00                	add    %al,(%eax)
  43:	00 41 0e             	add    %al,0xe(%ecx)
  46:	08 85 02 42 0d 05    	or     %al,0x50d4202(%ebp)
  4c:	02 98 c5 0c 04 04    	add    0x4040cc5(%eax),%bl
  52:	00 00                	add    %al,(%eax)
  54:	10 00                	adc    %al,(%eax)
  56:	00 00                	add    %al,(%eax)
  58:	ff                   	(bad)
  59:	ff                   	(bad)
  5a:	ff                   	(bad)
  5b:	ff 01                	incl   (%ecx)
  5d:	00 01                	add    %al,(%ecx)
  5f:	7c 08                	jl     69 <SEG_KERN_CS+0x61>
  61:	0c 04                	or     $0x4,%al
  63:	04 88                	add    $0x88,%al
  65:	01 00                	add    %eax,(%eax)
  67:	00 1c 00             	add    %bl,(%eax,%eax,1)
  6a:	00 00                	add    %al,(%eax)
  6c:	54                   	push   %esp
  6d:	00 00                	add    %al,(%eax)
  6f:	00 0b                	add    %cl,(%ebx)
  71:	51                   	push   %ecx
  72:	40                   	inc    %eax
  73:	f0 78 02             	lock js 78 <SEG_KERN_CS+0x70>
  76:	00 00                	add    %al,(%eax)
  78:	41                   	inc    %ecx
  79:	0e                   	push   %cs
  7a:	08 85 02 42 0d 05    	or     %al,0x50d4202(%ebp)
  80:	03 74 02 c5          	add    -0x3b(%edx,%eax,1),%esi
  84:	0c 04                	or     $0x4,%al
  86:	04 00                	add    $0x0,%al
  88:	10 00                	adc    %al,(%eax)
  8a:	00 00                	add    %al,(%eax)
  8c:	ff                   	(bad)
  8d:	ff                   	(bad)
  8e:	ff                   	(bad)
  8f:	ff 01                	incl   (%ecx)
  91:	00 01                	add    %al,(%ecx)
  93:	7c 08                	jl     9d <SEG_KERN_CS+0x95>
  95:	0c 04                	or     $0x4,%al
  97:	04 88                	add    $0x88,%al
  99:	01 00                	add    %eax,(%eax)
  9b:	00 1c 00             	add    %bl,(%eax,%eax,1)
  9e:	00 00                	add    %al,(%eax)
  a0:	88 00                	mov    %al,(%eax)
  a2:	00 00                	add    %al,(%eax)
  a4:	9e                   	sahf
  a5:	58                   	pop    %eax
  a6:	40                   	inc    %eax
  a7:	f0 43                	lock inc %ebx
  a9:	00 00                	add    %al,(%eax)
  ab:	00 41 0e             	add    %al,0xe(%ecx)
  ae:	08 85 02 42 0d 05    	or     %al,0x50d4202(%ebp)
  b4:	7f c5                	jg     7b <SEG_KERN_CS+0x73>
  b6:	0c 04                	or     $0x4,%al
  b8:	04 00                	add    $0x0,%al
  ba:	00 00                	add    %al,(%eax)
  bc:	1c 00                	sbb    $0x0,%al
  be:	00 00                	add    %al,(%eax)
  c0:	88 00                	mov    %al,(%eax)
  c2:	00 00                	add    %al,(%eax)
  c4:	e1 58                	loope  11e <SEG_KERN_CS+0x116>
  c6:	40                   	inc    %eax
  c7:	f0 52                	lock push %edx
  c9:	00 00                	add    %al,(%eax)
  cb:	00 41 0e             	add    %al,0xe(%ecx)
  ce:	08 85 02 42 0d 05    	or     %al,0x50d4202(%ebp)
  d4:	02 4e c5             	add    -0x3b(%esi),%cl
  d7:	0c 04                	or     $0x4,%al
  d9:	04 00                	add    $0x0,%al
  db:	00 1c 00             	add    %bl,(%eax,%eax,1)
  de:	00 00                	add    %al,(%eax)
  e0:	88 00                	mov    %al,(%eax)
  e2:	00 00                	add    %al,(%eax)
  e4:	33 59 40             	xor    0x40(%ecx),%ebx
  e7:	f0 42                	lock inc %edx
  e9:	00 00                	add    %al,(%eax)
  eb:	00 41 0e             	add    %al,0xe(%ecx)
  ee:	08 85 02 42 0d 05    	or     %al,0x50d4202(%ebp)
  f4:	7e c5                	jle    bb <SEG_KERN_CS+0xb3>
  f6:	0c 04                	or     $0x4,%al
  f8:	04 00                	add    $0x0,%al
  fa:	00 00                	add    %al,(%eax)
  fc:	1c 00                	sbb    $0x0,%al
  fe:	00 00                	add    %al,(%eax)
 100:	88 00                	mov    %al,(%eax)
 102:	00 00                	add    %al,(%eax)
 104:	75 59                	jne    15f <SEG_KERN_CS+0x157>
 106:	40                   	inc    %eax
 107:	f0 4c                	lock dec %esp
 109:	00 00                	add    %al,(%eax)
 10b:	00 41 0e             	add    %al,0xe(%ecx)
 10e:	08 85 02 42 0d 05    	or     %al,0x50d4202(%ebp)
 114:	02 48 c5             	add    -0x3b(%eax),%cl
 117:	0c 04                	or     $0x4,%al
 119:	04 00                	add    $0x0,%al
 11b:	00 10                	add    %dl,(%eax)
 11d:	00 00                	add    %al,(%eax)
 11f:	00 ff                	add    %bh,%bh
 121:	ff                   	(bad)
 122:	ff                   	(bad)
 123:	ff 01                	incl   (%ecx)
 125:	00 01                	add    %al,(%ecx)
 127:	7c 08                	jl     131 <SEG_KERN_CS+0x129>
 129:	0c 04                	or     $0x4,%al
 12b:	04 88                	add    $0x88,%al
 12d:	01 00                	add    %eax,(%eax)
 12f:	00 1c 00             	add    %bl,(%eax,%eax,1)
 132:	00 00                	add    %al,(%eax)
 134:	1c 01                	sbb    $0x1,%al
 136:	00 00                	add    %al,(%eax)
 138:	c1 59 40 f0          	rcrl   $0xf0,0x40(%ecx)
 13c:	99                   	cltd
 13d:	00 00                	add    %al,(%eax)
 13f:	00 41 0e             	add    %al,0xe(%ecx)
 142:	08 85 02 42 0d 05    	or     %al,0x50d4202(%ebp)
 148:	02 95 c5 0c 04 04    	add    0x4040cc5(%ebp),%dl
 14e:	00 00                	add    %al,(%eax)
 150:	1c 00                	sbb    $0x0,%al
 152:	00 00                	add    %al,(%eax)
 154:	1c 01                	sbb    $0x1,%al
 156:	00 00                	add    %al,(%eax)
 158:	5a                   	pop    %edx
 159:	5a                   	pop    %edx
 15a:	40                   	inc    %eax
 15b:	f0 19 00             	lock sbb %eax,(%eax)
 15e:	00 00                	add    %al,(%eax)
 160:	41                   	inc    %ecx
 161:	0e                   	push   %cs
 162:	08 85 02 42 0d 05    	or     %al,0x50d4202(%ebp)
 168:	55                   	push   %ebp
 169:	c5 0c 04             	lds    (%esp,%eax,1),%ecx
 16c:	04 00                	add    $0x0,%al
 16e:	00 00                	add    %al,(%eax)
 170:	1c 00                	sbb    $0x0,%al
 172:	00 00                	add    %al,(%eax)
 174:	1c 01                	sbb    $0x1,%al
 176:	00 00                	add    %al,(%eax)
 178:	73 5a                	jae    1d4 <SEG_KERN_CS+0x1cc>
 17a:	40                   	inc    %eax
 17b:	f0 27                	lock daa
 17d:	00 00                	add    %al,(%eax)
 17f:	00 41 0e             	add    %al,0xe(%ecx)
 182:	08 85 02 42 0d 05    	or     %al,0x50d4202(%ebp)
 188:	63 c5                	arpl   %eax,%ebp
 18a:	0c 04                	or     $0x4,%al
 18c:	04 00                	add    $0x0,%al
 18e:	00 00                	add    %al,(%eax)
 190:	1c 00                	sbb    $0x0,%al
 192:	00 00                	add    %al,(%eax)
 194:	1c 01                	sbb    $0x1,%al
 196:	00 00                	add    %al,(%eax)
 198:	9a 5a 40 f0 87 00 00 	lcall  $0x0,$0x87f0405a
 19f:	00 41 0e             	add    %al,0xe(%ecx)
 1a2:	08 85 02 42 0d 05    	or     %al,0x50d4202(%ebp)
 1a8:	02 83 c5 0c 04 04    	add    0x4040cc5(%ebx),%al
 1ae:	00 00                	add    %al,(%eax)
 1b0:	1c 00                	sbb    $0x0,%al
 1b2:	00 00                	add    %al,(%eax)
 1b4:	1c 01                	sbb    $0x1,%al
 1b6:	00 00                	add    %al,(%eax)
 1b8:	21 5b 40             	and    %ebx,0x40(%ebx)
 1bb:	f0 28 00             	lock sub %al,(%eax)
 1be:	00 00                	add    %al,(%eax)
 1c0:	41                   	inc    %ecx
 1c1:	0e                   	push   %cs
 1c2:	08 85 02 42 0d 05    	or     %al,0x50d4202(%ebp)
 1c8:	64 c5 0c 04          	lds    %fs:(%esp,%eax,1),%ecx
 1cc:	04 00                	add    $0x0,%al
 1ce:	00 00                	add    %al,(%eax)
 1d0:	1c 00                	sbb    $0x0,%al
 1d2:	00 00                	add    %al,(%eax)
 1d4:	1c 01                	sbb    $0x1,%al
 1d6:	00 00                	add    %al,(%eax)
 1d8:	49                   	dec    %ecx
 1d9:	5b                   	pop    %ebx
 1da:	40                   	inc    %eax
 1db:	f0 28 00             	lock sub %al,(%eax)
 1de:	00 00                	add    %al,(%eax)
 1e0:	41                   	inc    %ecx
 1e1:	0e                   	push   %cs
 1e2:	08 85 02 42 0d 05    	or     %al,0x50d4202(%ebp)
 1e8:	64 c5 0c 04          	lds    %fs:(%esp,%eax,1),%ecx
 1ec:	04 00                	add    $0x0,%al
 1ee:	00 00                	add    %al,(%eax)
 1f0:	10 00                	adc    %al,(%eax)
 1f2:	00 00                	add    %al,(%eax)
 1f4:	ff                   	(bad)
 1f5:	ff                   	(bad)
 1f6:	ff                   	(bad)
 1f7:	ff 01                	incl   (%ecx)
 1f9:	00 01                	add    %al,(%ecx)
 1fb:	7c 08                	jl     205 <SEG_KERN_CS+0x1fd>
 1fd:	0c 04                	or     $0x4,%al
 1ff:	04 88                	add    $0x88,%al
 201:	01 00                	add    %eax,(%eax)
 203:	00 1c 00             	add    %bl,(%eax,%eax,1)
 206:	00 00                	add    %al,(%eax)
 208:	f0 01 00             	lock add %eax,(%eax)
 20b:	00 71 5b             	add    %dh,0x5b(%ecx)
 20e:	40                   	inc    %eax
 20f:	f0 78 00             	lock js 212 <SEG_KERN_CS+0x20a>
 212:	00 00                	add    %al,(%eax)
 214:	41                   	inc    %ecx
 215:	0e                   	push   %cs
 216:	08 85 02 42 0d 05    	or     %al,0x50d4202(%ebp)
 21c:	02 74 c5 0c          	add    0xc(%ebp,%eax,8),%dh
 220:	04 04                	add    $0x4,%al
 222:	00 00                	add    %al,(%eax)
 224:	1c 00                	sbb    $0x0,%al
 226:	00 00                	add    %al,(%eax)
 228:	f0 01 00             	lock add %eax,(%eax)
 22b:	00 e9                	add    %ch,%cl
 22d:	5b                   	pop    %ebx
 22e:	40                   	inc    %eax
 22f:	f0 16                	lock push %ss
 231:	00 00                	add    %al,(%eax)
 233:	00 41 0e             	add    %al,0xe(%ecx)
 236:	08 85 02 42 0d 05    	or     %al,0x50d4202(%ebp)
 23c:	52                   	push   %edx
 23d:	c5 0c 04             	lds    (%esp,%eax,1),%ecx
 240:	04 00                	add    $0x0,%al
 242:	00 00                	add    %al,(%eax)
 244:	10 00                	adc    %al,(%eax)
 246:	00 00                	add    %al,(%eax)
 248:	ff                   	(bad)
 249:	ff                   	(bad)
 24a:	ff                   	(bad)
 24b:	ff 01                	incl   (%ecx)
 24d:	00 01                	add    %al,(%ecx)
 24f:	7c 08                	jl     259 <SEG_KERN_CS+0x251>
 251:	0c 04                	or     $0x4,%al
 253:	04 88                	add    $0x88,%al
 255:	01 00                	add    %eax,(%eax)
 257:	00 1c 00             	add    %bl,(%eax,%eax,1)
 25a:	00 00                	add    %al,(%eax)
 25c:	44                   	inc    %esp
 25d:	02 00                	add    (%eax),%al
 25f:	00 f0                	add    %dh,%al
 261:	5e                   	pop    %esi
 262:	40                   	inc    %eax
 263:	f0 5a                	lock pop %edx
 265:	00 00                	add    %al,(%eax)
 267:	00 41 0e             	add    %al,0xe(%ecx)
 26a:	08 85 02 42 0d 05    	or     %al,0x50d4202(%ebp)
 270:	02 56 c5             	add    -0x3b(%esi),%dl
 273:	0c 04                	or     $0x4,%al
 275:	04 00                	add    $0x0,%al
 277:	00 1c 00             	add    %bl,(%eax,%eax,1)
 27a:	00 00                	add    %al,(%eax)
 27c:	44                   	inc    %esp
 27d:	02 00                	add    (%eax),%al
 27f:	00 4a 5f             	add    %cl,0x5f(%edx)
 282:	40                   	inc    %eax
 283:	f0 ae                	lock scas %es:(%edi),%al
 285:	00 00                	add    %al,(%eax)
 287:	00 41 0e             	add    %al,0xe(%ecx)
 28a:	08 85 02 42 0d 05    	or     %al,0x50d4202(%ebp)
 290:	02 aa c5 0c 04 04    	add    0x4040cc5(%edx),%ch
 296:	00 00                	add    %al,(%eax)
 298:	20 00                	and    %al,(%eax)
 29a:	00 00                	add    %al,(%eax)
 29c:	44                   	inc    %esp
 29d:	02 00                	add    (%eax),%al
 29f:	00 f8                	add    %bh,%al
 2a1:	5f                   	pop    %edi
 2a2:	40                   	inc    %eax
 2a3:	f0 81 00 00 00 41 0e 	lock addl $0xe410000,(%eax)
 2aa:	08 85 02 42 0d 05    	or     %al,0x50d4202(%ebp)
 2b0:	44                   	inc    %esp
 2b1:	83 03 02             	addl   $0x2,(%ebx)
 2b4:	79 c5                	jns    27b <SEG_KERN_CS+0x273>
 2b6:	c3                   	ret
 2b7:	0c 04                	or     $0x4,%al
 2b9:	04 00                	add    $0x0,%al
 2bb:	00 1c 00             	add    %bl,(%eax,%eax,1)
 2be:	00 00                	add    %al,(%eax)
 2c0:	44                   	inc    %esp
 2c1:	02 00                	add    (%eax),%al
 2c3:	00 79 60             	add    %bh,0x60(%ecx)
 2c6:	40                   	inc    %eax
 2c7:	f0 82 00 00          	lock addb $0x0,(%eax)
 2cb:	00 41 0e             	add    %al,0xe(%ecx)
 2ce:	08 85 02 42 0d 05    	or     %al,0x50d4202(%ebp)
 2d4:	02 7e c5             	add    -0x3b(%esi),%bh
 2d7:	0c 04                	or     $0x4,%al
 2d9:	04 00                	add    $0x0,%al
 2db:	00 1c 00             	add    %bl,(%eax,%eax,1)
 2de:	00 00                	add    %al,(%eax)
 2e0:	44                   	inc    %esp
 2e1:	02 00                	add    (%eax),%al
 2e3:	00 fb                	add    %bh,%bl
 2e5:	60                   	pusha
 2e6:	40                   	inc    %eax
 2e7:	f0 3d 00 00 00 41    	lock cmp $0x41000000,%eax
 2ed:	0e                   	push   %cs
 2ee:	08 85 02 42 0d 05    	or     %al,0x50d4202(%ebp)
 2f4:	79 c5                	jns    2bb <SEG_KERN_CS+0x2b3>
 2f6:	0c 04                	or     $0x4,%al
 2f8:	04 00                	add    $0x0,%al
 2fa:	00 00                	add    %al,(%eax)
 2fc:	1c 00                	sbb    $0x0,%al
 2fe:	00 00                	add    %al,(%eax)
 300:	44                   	inc    %esp
 301:	02 00                	add    (%eax),%al
 303:	00 38                	add    %bh,(%eax)
 305:	61                   	popa
 306:	40                   	inc    %eax
 307:	f0 41                	lock inc %ecx
 309:	00 00                	add    %al,(%eax)
 30b:	00 41 0e             	add    %al,0xe(%ecx)
 30e:	08 85 02 42 0d 05    	or     %al,0x50d4202(%ebp)
 314:	7d c5                	jge    2db <SEG_KERN_CS+0x2d3>
 316:	0c 04                	or     $0x4,%al
 318:	04 00                	add    $0x0,%al
 31a:	00 00                	add    %al,(%eax)
 31c:	1c 00                	sbb    $0x0,%al
 31e:	00 00                	add    %al,(%eax)
 320:	44                   	inc    %esp
 321:	02 00                	add    (%eax),%al
 323:	00 79 61             	add    %bh,0x61(%ecx)
 326:	40                   	inc    %eax
 327:	f0 4c                	lock dec %esp
 329:	00 00                	add    %al,(%eax)
 32b:	00 41 0e             	add    %al,0xe(%ecx)
 32e:	08 85 02 42 0d 05    	or     %al,0x50d4202(%ebp)
 334:	02 48 c5             	add    -0x3b(%eax),%cl
 337:	0c 04                	or     $0x4,%al
 339:	04 00                	add    $0x0,%al
 33b:	00 1c 00             	add    %bl,(%eax,%eax,1)
 33e:	00 00                	add    %al,(%eax)
 340:	44                   	inc    %esp
 341:	02 00                	add    (%eax),%al
 343:	00 c5                	add    %al,%ch
 345:	61                   	popa
 346:	40                   	inc    %eax
 347:	f0 3c 00             	lock cmp $0x0,%al
 34a:	00 00                	add    %al,(%eax)
 34c:	41                   	inc    %ecx
 34d:	0e                   	push   %cs
 34e:	08 85 02 42 0d 05    	or     %al,0x50d4202(%ebp)
 354:	78 c5                	js     31b <SEG_KERN_CS+0x313>
 356:	0c 04                	or     $0x4,%al
 358:	04 00                	add    $0x0,%al
 35a:	00 00                	add    %al,(%eax)
 35c:	1c 00                	sbb    $0x0,%al
 35e:	00 00                	add    %al,(%eax)
 360:	44                   	inc    %esp
 361:	02 00                	add    (%eax),%al
 363:	00 01                	add    %al,(%ecx)
 365:	62 40 f0             	bound  %eax,-0x10(%eax)
 368:	5a                   	pop    %edx
 369:	00 00                	add    %al,(%eax)
 36b:	00 41 0e             	add    %al,0xe(%ecx)
 36e:	08 85 02 42 0d 05    	or     %al,0x50d4202(%ebp)
 374:	02 56 c5             	add    -0x3b(%esi),%dl
 377:	0c 04                	or     $0x4,%al
 379:	04 00                	add    $0x0,%al
 37b:	00 10                	add    %dl,(%eax)
 37d:	00 00                	add    %al,(%eax)
 37f:	00 ff                	add    %bh,%bh
 381:	ff                   	(bad)
 382:	ff                   	(bad)
 383:	ff 01                	incl   (%ecx)
 385:	00 01                	add    %al,(%ecx)
 387:	7c 08                	jl     391 <SEG_KERN_CS+0x389>
 389:	0c 04                	or     $0x4,%al
 38b:	04 88                	add    $0x88,%al
 38d:	01 00                	add    %eax,(%eax)
 38f:	00 1c 00             	add    %bl,(%eax,%eax,1)
 392:	00 00                	add    %al,(%eax)
 394:	7c 03                	jl     399 <SEG_KERN_CS+0x391>
 396:	00 00                	add    %al,(%eax)
 398:	5b                   	pop    %ebx
 399:	62 40 f0             	bound  %eax,-0x10(%eax)
 39c:	33 00                	xor    (%eax),%eax
 39e:	00 00                	add    %al,(%eax)
 3a0:	41                   	inc    %ecx
 3a1:	0e                   	push   %cs
 3a2:	08 85 02 42 0d 05    	or     %al,0x50d4202(%ebp)
 3a8:	6f                   	outsl  %ds:(%esi),(%dx)
 3a9:	c5 0c 04             	lds    (%esp,%eax,1),%ecx
 3ac:	04 00                	add    $0x0,%al
 3ae:	00 00                	add    %al,(%eax)
 3b0:	1c 00                	sbb    $0x0,%al
 3b2:	00 00                	add    %al,(%eax)
 3b4:	7c 03                	jl     3b9 <SEG_KERN_CS+0x3b1>
 3b6:	00 00                	add    %al,(%eax)
 3b8:	8e 62 40             	mov    0x40(%edx),%fs
 3bb:	f0 19 00             	lock sbb %eax,(%eax)
 3be:	00 00                	add    %al,(%eax)
 3c0:	41                   	inc    %ecx
 3c1:	0e                   	push   %cs
 3c2:	08 85 02 42 0d 05    	or     %al,0x50d4202(%ebp)
 3c8:	55                   	push   %ebp
 3c9:	c5 0c 04             	lds    (%esp,%eax,1),%ecx
 3cc:	04 00                	add    $0x0,%al
 3ce:	00 00                	add    %al,(%eax)
 3d0:	1c 00                	sbb    $0x0,%al
 3d2:	00 00                	add    %al,(%eax)
 3d4:	7c 03                	jl     3d9 <SEG_KERN_CS+0x3d1>
 3d6:	00 00                	add    %al,(%eax)
 3d8:	a7                   	cmpsl  %es:(%edi),%ds:(%esi)
 3d9:	62 40 f0             	bound  %eax,-0x10(%eax)
 3dc:	4c                   	dec    %esp
 3dd:	00 00                	add    %al,(%eax)
 3df:	00 41 0e             	add    %al,0xe(%ecx)
 3e2:	08 85 02 42 0d 05    	or     %al,0x50d4202(%ebp)
 3e8:	02 48 c5             	add    -0x3b(%eax),%cl
 3eb:	0c 04                	or     $0x4,%al
 3ed:	04 00                	add    $0x0,%al
 3ef:	00 20                	add    %ah,(%eax)
 3f1:	00 00                	add    %al,(%eax)
 3f3:	00 7c 03 00          	add    %bh,0x0(%ebx,%eax,1)
 3f7:	00 f3                	add    %dh,%bl
 3f9:	62 40 f0             	bound  %eax,-0x10(%eax)
 3fc:	63 00                	arpl   %eax,(%eax)
 3fe:	00 00                	add    %al,(%eax)
 400:	41                   	inc    %ecx
 401:	0e                   	push   %cs
 402:	08 85 02 42 0d 05    	or     %al,0x50d4202(%ebp)
 408:	44                   	inc    %esp
 409:	83 03 02             	addl   $0x2,(%ebx)
 40c:	5b                   	pop    %ebx
 40d:	c5 c3 0c             	(bad)
 410:	04 04                	add    $0x4,%al
 412:	00 00                	add    %al,(%eax)
 414:	10 00                	adc    %al,(%eax)
 416:	00 00                	add    %al,(%eax)
 418:	ff                   	(bad)
 419:	ff                   	(bad)
 41a:	ff                   	(bad)
 41b:	ff 01                	incl   (%ecx)
 41d:	00 01                	add    %al,(%ecx)
 41f:	7c 08                	jl     429 <SEG_KERN_CS+0x421>
 421:	0c 04                	or     $0x4,%al
 423:	04 88                	add    $0x88,%al
 425:	01 00                	add    %eax,(%eax)
 427:	00 1c 00             	add    %bl,(%eax,%eax,1)
 42a:	00 00                	add    %al,(%eax)
 42c:	14 04                	adc    $0x4,%al
 42e:	00 00                	add    %al,(%eax)
 430:	56                   	push   %esi
 431:	63 40 f0             	arpl   %eax,-0x10(%eax)
 434:	3a 00                	cmp    (%eax),%al
 436:	00 00                	add    %al,(%eax)
 438:	41                   	inc    %ecx
 439:	0e                   	push   %cs
 43a:	08 85 02 42 0d 05    	or     %al,0x50d4202(%ebp)
 440:	76 c5                	jbe    407 <SEG_KERN_CS+0x3ff>
 442:	0c 04                	or     $0x4,%al
 444:	04 00                	add    $0x0,%al
 446:	00 00                	add    %al,(%eax)
 448:	1c 00                	sbb    $0x0,%al
 44a:	00 00                	add    %al,(%eax)
 44c:	14 04                	adc    $0x4,%al
 44e:	00 00                	add    %al,(%eax)
 450:	90                   	nop
 451:	63 40 f0             	arpl   %eax,-0x10(%eax)
 454:	64 00 00             	add    %al,%fs:(%eax)
 457:	00 41 0e             	add    %al,0xe(%ecx)
 45a:	08 85 02 42 0d 05    	or     %al,0x50d4202(%ebp)
 460:	02 60 c5             	add    -0x3b(%eax),%ah
 463:	0c 04                	or     $0x4,%al
 465:	04 00                	add    $0x0,%al
 467:	00 1c 00             	add    %bl,(%eax,%eax,1)
 46a:	00 00                	add    %al,(%eax)
 46c:	14 04                	adc    $0x4,%al
 46e:	00 00                	add    %al,(%eax)
 470:	f4                   	hlt
 471:	63 40 f0             	arpl   %eax,-0x10(%eax)
 474:	65 00 00             	add    %al,%gs:(%eax)
 477:	00 41 0e             	add    %al,0xe(%ecx)
 47a:	08 85 02 42 0d 05    	or     %al,0x50d4202(%ebp)
 480:	02 61 c5             	add    -0x3b(%ecx),%ah
 483:	0c 04                	or     $0x4,%al
 485:	04 00                	add    $0x0,%al
 487:	00 10                	add    %dl,(%eax)
 489:	00 00                	add    %al,(%eax)
 48b:	00 ff                	add    %bh,%bh
 48d:	ff                   	(bad)
 48e:	ff                   	(bad)
 48f:	ff 01                	incl   (%ecx)
 491:	00 01                	add    %al,(%ecx)
 493:	7c 08                	jl     49d <SEG_KERN_CS+0x495>
 495:	0c 04                	or     $0x4,%al
 497:	04 88                	add    $0x88,%al
 499:	01 00                	add    %eax,(%eax)
 49b:	00 1c 00             	add    %bl,(%eax,%eax,1)
 49e:	00 00                	add    %al,(%eax)
 4a0:	88 04 00             	mov    %al,(%eax,%eax,1)
 4a3:	00 59 64             	add    %bl,0x64(%ecx)
 4a6:	40                   	inc    %eax
 4a7:	f0 9f                	lock lahf
 4a9:	00 00                	add    %al,(%eax)
 4ab:	00 41 0e             	add    %al,0xe(%ecx)
 4ae:	08 85 02 42 0d 05    	or     %al,0x50d4202(%ebp)
 4b4:	02 9b c5 0c 04 04    	add    0x4040cc5(%ebx),%bl
 4ba:	00 00                	add    %al,(%eax)
 4bc:	1c 00                	sbb    $0x0,%al
 4be:	00 00                	add    %al,(%eax)
 4c0:	88 04 00             	mov    %al,(%eax,%eax,1)
 4c3:	00 f8                	add    %bh,%al
 4c5:	64 40                	fs inc %eax
 4c7:	f0 27                	lock daa
 4c9:	00 00                	add    %al,(%eax)
 4cb:	00 41 0e             	add    %al,0xe(%ecx)
 4ce:	08 85 02 42 0d 05    	or     %al,0x50d4202(%ebp)
 4d4:	63 c5                	arpl   %eax,%ebp
 4d6:	0c 04                	or     $0x4,%al
 4d8:	04 00                	add    $0x0,%al
 4da:	00 00                	add    %al,(%eax)
 4dc:	1c 00                	sbb    $0x0,%al
 4de:	00 00                	add    %al,(%eax)
 4e0:	88 04 00             	mov    %al,(%eax,%eax,1)
 4e3:	00 1f                	add    %bl,(%edi)
 4e5:	65 40                	gs inc %eax
 4e7:	f0 b3 01             	lock mov $0x1,%bl
 4ea:	00 00                	add    %al,(%eax)
 4ec:	41                   	inc    %ecx
 4ed:	0e                   	push   %cs
 4ee:	08 85 02 42 0d 05    	or     %al,0x50d4202(%ebp)
 4f4:	03 af 01 c5 0c 04    	add    0x40cc501(%edi),%ebp
 4fa:	04 00                	add    $0x0,%al
 4fc:	10 00                	adc    %al,(%eax)
 4fe:	00 00                	add    %al,(%eax)
 500:	ff                   	(bad)
 501:	ff                   	(bad)
 502:	ff                   	(bad)
 503:	ff 01                	incl   (%ecx)
 505:	00 01                	add    %al,(%ecx)
 507:	7c 08                	jl     511 <SEG_KERN_CS+0x509>
 509:	0c 04                	or     $0x4,%al
 50b:	04 88                	add    $0x88,%al
 50d:	01 00                	add    %eax,(%eax)
 50f:	00 1c 00             	add    %bl,(%eax,%eax,1)
 512:	00 00                	add    %al,(%eax)
 514:	fc                   	cld
 515:	04 00                	add    $0x0,%al
 517:	00 d2                	add    %dl,%dl
 519:	66 40                	inc    %ax
 51b:	f0 af                	lock scas %es:(%edi),%eax
 51d:	00 00                	add    %al,(%eax)
 51f:	00 41 0e             	add    %al,0xe(%ecx)
 522:	08 85 02 42 0d 05    	or     %al,0x50d4202(%ebp)
 528:	02 ab c5 0c 04 04    	add    0x4040cc5(%ebx),%ch
 52e:	00 00                	add    %al,(%eax)
 530:	1c 00                	sbb    $0x0,%al
 532:	00 00                	add    %al,(%eax)
 534:	fc                   	cld
 535:	04 00                	add    $0x0,%al
 537:	00 81 67 40 f0 75    	add    %al,0x75f04067(%ecx)
 53d:	01 00                	add    %eax,(%eax)
 53f:	00 41 0e             	add    %al,0xe(%ecx)
 542:	08 85 02 42 0d 05    	or     %al,0x50d4202(%ebp)
 548:	03 71 01             	add    0x1(%ecx),%esi
 54b:	c5 0c 04             	lds    (%esp,%eax,1),%ecx
 54e:	04 00                	add    $0x0,%al
 550:	1c 00                	sbb    $0x0,%al
 552:	00 00                	add    %al,(%eax)
 554:	fc                   	cld
 555:	04 00                	add    $0x0,%al
 557:	00 f6                	add    %dh,%dh
 559:	68 40 f0 23 00       	push   $0x23f040
 55e:	00 00                	add    %al,(%eax)
 560:	41                   	inc    %ecx
 561:	0e                   	push   %cs
 562:	08 85 02 42 0d 05    	or     %al,0x50d4202(%ebp)
 568:	5f                   	pop    %edi
 569:	c5 0c 04             	lds    (%esp,%eax,1),%ecx
 56c:	04 00                	add    $0x0,%al
 56e:	00 00                	add    %al,(%eax)
 570:	1c 00                	sbb    $0x0,%al
 572:	00 00                	add    %al,(%eax)
 574:	fc                   	cld
 575:	04 00                	add    $0x0,%al
 577:	00 19                	add    %bl,(%ecx)
 579:	69 40 f0 74 00 00 00 	imul   $0x74,-0x10(%eax),%eax
 580:	41                   	inc    %ecx
 581:	0e                   	push   %cs
 582:	08 85 02 42 0d 05    	or     %al,0x50d4202(%ebp)
 588:	02 70 c5             	add    -0x3b(%eax),%dh
 58b:	0c 04                	or     $0x4,%al
 58d:	04 00                	add    $0x0,%al
 58f:	00 1c 00             	add    %bl,(%eax,%eax,1)
 592:	00 00                	add    %al,(%eax)
 594:	fc                   	cld
 595:	04 00                	add    $0x0,%al
 597:	00 8d 69 40 f0 34    	add    %cl,0x34f04069(%ebp)
 59d:	00 00                	add    %al,(%eax)
 59f:	00 41 0e             	add    %al,0xe(%ecx)
 5a2:	08 85 02 42 0d 05    	or     %al,0x50d4202(%ebp)
 5a8:	70 c5                	jo     56f <SEG_KERN_CS+0x567>
 5aa:	0c 04                	or     $0x4,%al
 5ac:	04 00                	add    $0x0,%al
 5ae:	00 00                	add    %al,(%eax)
 5b0:	1c 00                	sbb    $0x0,%al
 5b2:	00 00                	add    %al,(%eax)
 5b4:	fc                   	cld
 5b5:	04 00                	add    $0x0,%al
 5b7:	00 c1                	add    %al,%cl
 5b9:	69 40 f0 7a 00 00 00 	imul   $0x7a,-0x10(%eax),%eax
 5c0:	41                   	inc    %ecx
 5c1:	0e                   	push   %cs
 5c2:	08 85 02 42 0d 05    	or     %al,0x50d4202(%ebp)
 5c8:	02 76 c5             	add    -0x3b(%esi),%dh
 5cb:	0c 04                	or     $0x4,%al
 5cd:	04 00                	add    $0x0,%al
 5cf:	00 1c 00             	add    %bl,(%eax,%eax,1)
 5d2:	00 00                	add    %al,(%eax)
 5d4:	fc                   	cld
 5d5:	04 00                	add    $0x0,%al
 5d7:	00 3b                	add    %bh,(%ebx)
 5d9:	6a 40                	push   $0x40
 5db:	f0 7a 00             	lock jp 5de <SEG_KERN_CS+0x5d6>
 5de:	00 00                	add    %al,(%eax)
 5e0:	41                   	inc    %ecx
 5e1:	0e                   	push   %cs
 5e2:	08 85 02 42 0d 05    	or     %al,0x50d4202(%ebp)
 5e8:	02 76 c5             	add    -0x3b(%esi),%dh
 5eb:	0c 04                	or     $0x4,%al
 5ed:	04 00                	add    $0x0,%al
 5ef:	00 1c 00             	add    %bl,(%eax,%eax,1)
 5f2:	00 00                	add    %al,(%eax)
 5f4:	fc                   	cld
 5f5:	04 00                	add    $0x0,%al
 5f7:	00 b5 6a 40 f0 8a    	add    %dh,-0x750fbf96(%ebp)
 5fd:	00 00                	add    %al,(%eax)
 5ff:	00 41 0e             	add    %al,0xe(%ecx)
 602:	08 85 02 42 0d 05    	or     %al,0x50d4202(%ebp)
 608:	02 86 c5 0c 04 04    	add    0x4040cc5(%esi),%al
 60e:	00 00                	add    %al,(%eax)
 610:	1c 00                	sbb    $0x0,%al
 612:	00 00                	add    %al,(%eax)
 614:	fc                   	cld
 615:	04 00                	add    $0x0,%al
 617:	00 3f                	add    %bh,(%edi)
 619:	6b 40 f0 64          	imul   $0x64,-0x10(%eax),%eax
 61d:	00 00                	add    %al,(%eax)
 61f:	00 41 0e             	add    %al,0xe(%ecx)
 622:	08 85 02 42 0d 05    	or     %al,0x50d4202(%ebp)
 628:	02 60 c5             	add    -0x3b(%eax),%ah
 62b:	0c 04                	or     $0x4,%al
 62d:	04 00                	add    $0x0,%al
 62f:	00 1c 00             	add    %bl,(%eax,%eax,1)
 632:	00 00                	add    %al,(%eax)
 634:	fc                   	cld
 635:	04 00                	add    $0x0,%al
 637:	00 a3 6b 40 f0 9a    	add    %ah,-0x650fbf95(%ebx)
 63d:	00 00                	add    %al,(%eax)
 63f:	00 41 0e             	add    %al,0xe(%ecx)
 642:	08 85 02 42 0d 05    	or     %al,0x50d4202(%ebp)
 648:	02 96 c5 0c 04 04    	add    0x4040cc5(%esi),%dl
 64e:	00 00                	add    %al,(%eax)
 650:	1c 00                	sbb    $0x0,%al
 652:	00 00                	add    %al,(%eax)
 654:	fc                   	cld
 655:	04 00                	add    $0x0,%al
 657:	00 3d 6c 40 f0 2c    	add    %bh,0x2cf0406c
 65d:	00 00                	add    %al,(%eax)
 65f:	00 41 0e             	add    %al,0xe(%ecx)
 662:	08 85 02 42 0d 05    	or     %al,0x50d4202(%ebp)
 668:	68 c5 0c 04 04       	push   $0x4040cc5
 66d:	00 00                	add    %al,(%eax)
 66f:	00 1c 00             	add    %bl,(%eax,%eax,1)
 672:	00 00                	add    %al,(%eax)
 674:	fc                   	cld
 675:	04 00                	add    $0x0,%al
 677:	00 69 6c             	add    %ch,0x6c(%ecx)
 67a:	40                   	inc    %eax
 67b:	f0 18 00             	lock sbb %al,(%eax)
 67e:	00 00                	add    %al,(%eax)
 680:	41                   	inc    %ecx
 681:	0e                   	push   %cs
 682:	08 85 02 42 0d 05    	or     %al,0x50d4202(%ebp)
 688:	54                   	push   %esp
 689:	c5 0c 04             	lds    (%esp,%eax,1),%ecx
 68c:	04 00                	add    $0x0,%al
 68e:	00 00                	add    %al,(%eax)
 690:	1c 00                	sbb    $0x0,%al
 692:	00 00                	add    %al,(%eax)
 694:	fc                   	cld
 695:	04 00                	add    $0x0,%al
 697:	00 81 6c 40 f0 18    	add    %al,0x18f0406c(%ecx)
 69d:	00 00                	add    %al,(%eax)
 69f:	00 41 0e             	add    %al,0xe(%ecx)
 6a2:	08 85 02 42 0d 05    	or     %al,0x50d4202(%ebp)
 6a8:	54                   	push   %esp
 6a9:	c5 0c 04             	lds    (%esp,%eax,1),%ecx
 6ac:	04 00                	add    $0x0,%al
 6ae:	00 00                	add    %al,(%eax)
 6b0:	1c 00                	sbb    $0x0,%al
 6b2:	00 00                	add    %al,(%eax)
 6b4:	fc                   	cld
 6b5:	04 00                	add    $0x0,%al
 6b7:	00 99 6c 40 f0 47    	add    %bl,0x47f0406c(%ecx)
 6bd:	00 00                	add    %al,(%eax)
 6bf:	00 41 0e             	add    %al,0xe(%ecx)
 6c2:	08 85 02 42 0d 05    	or     %al,0x50d4202(%ebp)
 6c8:	02 43 c5             	add    -0x3b(%ebx),%al
 6cb:	0c 04                	or     $0x4,%al
 6cd:	04 00                	add    $0x0,%al
 6cf:	00 1c 00             	add    %bl,(%eax,%eax,1)
 6d2:	00 00                	add    %al,(%eax)
 6d4:	fc                   	cld
 6d5:	04 00                	add    $0x0,%al
 6d7:	00 e0                	add    %ah,%al
 6d9:	6c                   	insb   (%dx),%es:(%edi)
 6da:	40                   	inc    %eax
 6db:	f0 86 00             	lock xchg %al,(%eax)
 6de:	00 00                	add    %al,(%eax)
 6e0:	41                   	inc    %ecx
 6e1:	0e                   	push   %cs
 6e2:	08 85 02 42 0d 05    	or     %al,0x50d4202(%ebp)
 6e8:	02 82 c5 0c 04 04    	add    0x4040cc5(%edx),%al
 6ee:	00 00                	add    %al,(%eax)
 6f0:	10 00                	adc    %al,(%eax)
 6f2:	00 00                	add    %al,(%eax)
 6f4:	ff                   	(bad)
 6f5:	ff                   	(bad)
 6f6:	ff                   	(bad)
 6f7:	ff 01                	incl   (%ecx)
 6f9:	00 01                	add    %al,(%ecx)
 6fb:	7c 08                	jl     705 <SEG_KERN_CS+0x6fd>
 6fd:	0c 04                	or     $0x4,%al
 6ff:	04 88                	add    $0x88,%al
 701:	01 00                	add    %eax,(%eax)
 703:	00 1c 00             	add    %bl,(%eax,%eax,1)
 706:	00 00                	add    %al,(%eax)
 708:	f0 06                	lock push %es
 70a:	00 00                	add    %al,(%eax)
 70c:	66 6d                	insw   (%dx),%es:(%edi)
 70e:	40                   	inc    %eax
 70f:	f0 88 00             	lock mov %al,(%eax)
 712:	00 00                	add    %al,(%eax)
 714:	41                   	inc    %ecx
 715:	0e                   	push   %cs
 716:	08 85 02 42 0d 05    	or     %al,0x50d4202(%ebp)
 71c:	02 84 c5 0c 04 04 00 	add    0x4040c(%ebp,%eax,8),%al
 723:	00 1c 00             	add    %bl,(%eax,%eax,1)
 726:	00 00                	add    %al,(%eax)
 728:	f0 06                	lock push %es
 72a:	00 00                	add    %al,(%eax)
 72c:	ee                   	out    %al,(%dx)
 72d:	6d                   	insl   (%dx),%es:(%edi)
 72e:	40                   	inc    %eax
 72f:	f0 67 00 00          	lock add %al,(%bx,%si)
 733:	00 41 0e             	add    %al,0xe(%ecx)
 736:	08 85 02 42 0d 05    	or     %al,0x50d4202(%ebp)
 73c:	02 63 c5             	add    -0x3b(%ebx),%ah
 73f:	0c 04                	or     $0x4,%al
 741:	04 00                	add    $0x0,%al
 743:	00 1c 00             	add    %bl,(%eax,%eax,1)
 746:	00 00                	add    %al,(%eax)
 748:	f0 06                	lock push %es
 74a:	00 00                	add    %al,(%eax)
 74c:	55                   	push   %ebp
 74d:	6e                   	outsb  %ds:(%esi),(%dx)
 74e:	40                   	inc    %eax
 74f:	f0 8b 00             	lock mov (%eax),%eax
 752:	00 00                	add    %al,(%eax)
 754:	41                   	inc    %ecx
 755:	0e                   	push   %cs
 756:	08 85 02 42 0d 05    	or     %al,0x50d4202(%ebp)
 75c:	02 87 c5 0c 04 04    	add    0x4040cc5(%edi),%al
 762:	00 00                	add    %al,(%eax)
 764:	1c 00                	sbb    $0x0,%al
 766:	00 00                	add    %al,(%eax)
 768:	f0 06                	lock push %es
 76a:	00 00                	add    %al,(%eax)
 76c:	e0 6e                	loopne 7dc <SEG_KERN_CS+0x7d4>
 76e:	40                   	inc    %eax
 76f:	f0 aa                	lock stos %al,%es:(%edi)
 771:	00 00                	add    %al,(%eax)
 773:	00 41 0e             	add    %al,0xe(%ecx)
 776:	08 85 02 42 0d 05    	or     %al,0x50d4202(%ebp)
 77c:	02 a6 c5 0c 04 04    	add    0x4040cc5(%esi),%ah
 782:	00 00                	add    %al,(%eax)
 784:	10 00                	adc    %al,(%eax)
 786:	00 00                	add    %al,(%eax)
 788:	ff                   	(bad)
 789:	ff                   	(bad)
 78a:	ff                   	(bad)
 78b:	ff 01                	incl   (%ecx)
 78d:	00 01                	add    %al,(%ecx)
 78f:	7c 08                	jl     799 <SEG_KERN_CS+0x791>
 791:	0c 04                	or     $0x4,%al
 793:	04 88                	add    $0x88,%al
 795:	01 00                	add    %eax,(%eax)
 797:	00 1c 00             	add    %bl,(%eax,%eax,1)
 79a:	00 00                	add    %al,(%eax)
 79c:	84 07                	test   %al,(%edi)
 79e:	00 00                	add    %al,(%eax)
 7a0:	8a 6f 40             	mov    0x40(%edi),%ch
 7a3:	f0 18 00             	lock sbb %al,(%eax)
 7a6:	00 00                	add    %al,(%eax)
 7a8:	41                   	inc    %ecx
 7a9:	0e                   	push   %cs
 7aa:	08 85 02 42 0d 05    	or     %al,0x50d4202(%ebp)
 7b0:	54                   	push   %esp
 7b1:	c5 0c 04             	lds    (%esp,%eax,1),%ecx
 7b4:	04 00                	add    $0x0,%al
	...

Disassembly of section .debug_str:

00000000 <.debug_str>:
       0:	6c                   	insb   (%dx),%es:(%edi)
       1:	6f                   	outsl  %ds:(%esi),(%dx)
       2:	61                   	popa
       3:	64 5f                	fs pop %edi
       5:	64 73 00             	fs jae 8 <SEG_KERN_CS>
       8:	6c                   	insb   (%dx),%es:(%edi)
       9:	6f                   	outsl  %ds:(%esi),(%dx)
       a:	61                   	popa
       b:	64 5f                	fs pop %edi
       d:	74 72                	je     81 <SEG_KERN_CS+0x79>
       f:	00 47 44             	add    %al,0x44(%edi)
      12:	54                   	push   %esp
      13:	5f                   	pop    %edi
      14:	4b                   	dec    %ebx
      15:	45                   	inc    %ebp
      16:	52                   	push   %edx
      17:	4e                   	dec    %esi
      18:	5f                   	pop    %edi
      19:	44                   	inc    %esp
      1a:	53                   	push   %ebx
      1b:	00 6b 69             	add    %ch,0x69(%ebx)
      1e:	6e                   	outsb  %ds:(%esi),(%dx)
      1f:	66 6f                	outsw  %ds:(%esi),(%dx)
      21:	00 6b 61             	add    %ch,0x61(%ebx)
      24:	72 63                	jb     89 <SEG_KERN_CS+0x81>
      26:	68 5f 69 6e 69       	push   $0x696e695f
      2b:	74 5f                	je     8c <SEG_KERN_CS+0x84>
      2d:	69 64 74 00 6b 62 6f 	imul   $0x6f6f626b,0x0(%esp,%esi,2),%esp
      34:	6f 
      35:	74 69                	je     a0 <SEG_KERN_CS+0x98>
      37:	6e                   	outsb  %ds:(%esi),(%dx)
      38:	66 6f                	outsw  %ds:(%esi),(%dx)
      3a:	5f                   	pop    %edi
      3b:	74 00                	je     3d <SEG_KERN_CS+0x35>
      3d:	73 68                	jae    a7 <SEG_KERN_CS+0x9f>
      3f:	6f                   	outsl  %ds:(%esi),(%dx)
      40:	72 74                	jb     b6 <SEG_KERN_CS+0xae>
      42:	20 75 6e             	and    %dh,0x6e(%ebp)
      45:	73 69                	jae    b0 <SEG_KERN_CS+0xa8>
      47:	67 6e                	outsb  %ds:(%si),(%dx)
      49:	65 64 20 69 6e       	gs and %ch,%fs:0x6e(%ecx)
      4e:	74 00                	je     50 <SEG_KERN_CS+0x48>
      50:	6d                   	insl   (%dx),%es:(%edi)
      51:	6d                   	insl   (%dx),%es:(%edi)
      52:	61                   	popa
      53:	70 00                	jo     55 <SEG_KERN_CS+0x4d>
      55:	6b 6d 65 6d          	imul   $0x6d,0x65(%ebp),%ebp
      59:	63 70 79             	arpl   %esi,0x79(%eax)
      5c:	00 75 69             	add    %dh,0x69(%ebp)
      5f:	6e                   	outsb  %ds:(%esi),(%dx)
      60:	74 36                	je     98 <SEG_KERN_CS+0x90>
      62:	34 5f                	xor    $0x5f,%al
      64:	74 00                	je     66 <SEG_KERN_CS+0x5e>
      66:	47                   	inc    %edi
      67:	44                   	inc    %esp
      68:	54                   	push   %esp
      69:	5f                   	pop    %edi
      6a:	54                   	push   %esp
      6b:	53                   	push   %ebx
      6c:	53                   	push   %ebx
      6d:	00 6b 61             	add    %ch,0x61(%ebx)
      70:	72 63                	jb     d5 <SEG_KERN_CS+0xcd>
      72:	68 5f 69 6e 69       	push   $0x696e695f
      77:	74 5f                	je     d8 <SEG_KERN_CS+0xd0>
      79:	69 38 32 35 39 00    	imul   $0x393532,(%eax),%edi
      7f:	6c                   	insb   (%dx),%es:(%edi)
      80:	6f                   	outsl  %ds:(%esi),(%dx)
      81:	61                   	popa
      82:	64 5f                	fs pop %edi
      84:	73 73                	jae    f9 <SEG_KERN_CS+0xf1>
      86:	00 47 44             	add    %al,0x44(%edi)
      89:	54                   	push   %esp
      8a:	5f                   	pop    %edi
      8b:	55                   	push   %ebp
      8c:	53                   	push   %ebx
      8d:	45                   	inc    %ebp
      8e:	52                   	push   %edx
      8f:	5f                   	pop    %edi
      90:	43                   	inc    %ebx
      91:	53                   	push   %ebx
      92:	00 70 61             	add    %dh,0x61(%eax)
      95:	67 65 64 69 72 00 6b 	gs imul $0x6372616b,%fs:0x0(%bp,%si),%esi
      9c:	61 72 63 
      9f:	68 5f 66 6c 75       	push   $0x756c665f
      a4:	73 68                	jae    10e <SEG_KERN_CS+0x106>
      a6:	5f                   	pop    %edi
      a7:	69 64 74 00 6b 65 72 	imul   $0x6e72656b,0x0(%esp,%esi,2),%esp
      ae:	6e 
      af:	5f                   	pop    %edi
      b0:	61                   	popa
      b1:	6c                   	insb   (%dx),%es:(%edi)
      b2:	6c                   	insb   (%dx),%es:(%edi)
      b3:	6f                   	outsl  %ds:(%esi),(%dx)
      b4:	63 00                	arpl   %eax,(%eax)
      b6:	47                   	inc    %edi
      b7:	44                   	inc    %esp
      b8:	54                   	push   %esp
      b9:	5f                   	pop    %edi
      ba:	4d                   	dec    %ebp
      bb:	41                   	inc    %ecx
      bc:	58                   	pop    %eax
      bd:	00 6b 61             	add    %ch,0x61(%ebx)
      c0:	72 63                	jb     125 <SEG_KERN_CS+0x11d>
      c2:	68 5f 66 6c 75       	push   $0x756c665f
      c7:	73 68                	jae    131 <SEG_KERN_CS+0x129>
      c9:	5f                   	pop    %edi
      ca:	67 64 74 00          	addr16 fs je ce <SEG_KERN_CS+0xc6>
      ce:	73 69                	jae    139 <SEG_KERN_CS+0x131>
      d0:	7a 65                	jp     137 <SEG_KERN_CS+0x12f>
      d2:	5f                   	pop    %edi
      d3:	74 00                	je     d5 <SEG_KERN_CS+0xcd>
      d5:	6b 61 72 63          	imul   $0x63,0x72(%ecx),%esp
      d9:	68 5f 69 6e 69       	push   $0x696e695f
      de:	74 5f                	je     13f <SEG_KERN_CS+0x137>
      e0:	61                   	popa
      e1:	63 70 69             	arpl   %esi,0x69(%eax)
      e4:	00 6b 61             	add    %ch,0x61(%ebx)
      e7:	72 63                	jb     14c <SEG_KERN_CS+0x144>
      e9:	68 5f 69 6e 69       	push   $0x696e695f
      ee:	74 5f                	je     14f <SEG_KERN_CS+0x147>
      f0:	70 61                	jo     153 <SEG_KERN_CS+0x14b>
      f2:	67 65 00 6c 6f       	add    %ch,%gs:0x6f(%si)
      f7:	61                   	popa
      f8:	64 5f                	fs pop %edi
      fa:	6c                   	insb   (%dx),%es:(%edi)
      fb:	64 74 00             	fs je  fe <SEG_KERN_CS+0xf6>
      fe:	62 6f 6f             	bound  %ebp,0x6f(%edi)
     101:	74 73                	je     176 <SEG_KERN_CS+0x16e>
     103:	74 72                	je     177 <SEG_KERN_CS+0x16f>
     105:	61                   	popa
     106:	70 00                	jo     108 <SEG_KERN_CS+0x100>
     108:	6b 61 72 63          	imul   $0x63,0x72(%ecx),%esp
     10c:	68 5f 61 63 70       	push   $0x7063615f
     111:	69 5f 70 6f 77 65 72 	imul   $0x7265776f,0x70(%edi),%ebx
     118:	6f                   	outsl  %ds:(%esi),(%dx)
     119:	66 66 00 6b 62       	data16 data16 add %ch,0x62(%ebx)
     11e:	6f                   	outsl  %ds:(%esi),(%dx)
     11f:	6f                   	outsl  %ds:(%esi),(%dx)
     120:	74 69                	je     18b <SEG_KERN_CS+0x183>
     122:	6e                   	outsb  %ds:(%esi),(%dx)
     123:	66 6f                	outsw  %ds:(%esi),(%dx)
     125:	5f                   	pop    %edi
     126:	6d                   	insl   (%dx),%es:(%edi)
     127:	6d                   	insl   (%dx),%es:(%edi)
     128:	61                   	popa
     129:	70 5f                	jo     18a <SEG_KERN_CS+0x182>
     12b:	74 00                	je     12d <SEG_KERN_CS+0x125>
     12d:	47                   	inc    %edi
     12e:	44                   	inc    %esp
     12f:	54                   	push   %esp
     130:	5f                   	pop    %edi
     131:	4b                   	dec    %ebx
     132:	45                   	inc    %ebp
     133:	52                   	push   %edx
     134:	4e                   	dec    %esi
     135:	5f                   	pop    %edi
     136:	43                   	inc    %ebx
     137:	53                   	push   %ebx
     138:	00 6c 6f 61          	add    %ch,0x61(%edi,%ebp,2)
     13c:	64 5f                	fs pop %edi
     13e:	67 73 00             	addr16 jae 141 <SEG_KERN_CS+0x139>
     141:	47                   	inc    %edi
     142:	44                   	inc    %esp
     143:	54                   	push   %esp
     144:	5f                   	pop    %edi
     145:	4c                   	dec    %esp
     146:	44                   	inc    %esp
     147:	54                   	push   %esp
     148:	00 47 44             	add    %al,0x44(%edi)
     14b:	54                   	push   %esp
     14c:	5f                   	pop    %edi
     14d:	4e                   	dec    %esi
     14e:	55                   	push   %ebp
     14f:	4c                   	dec    %esp
     150:	4c                   	dec    %esp
     151:	00 75 6e             	add    %dh,0x6e(%ebp)
     154:	73 69                	jae    1bf <SEG_KERN_CS+0x1b7>
     156:	67 6e                	outsb  %ds:(%si),(%dx)
     158:	65 64 20 63 68       	gs and %ah,%fs:0x68(%ebx)
     15d:	61                   	popa
     15e:	72 00                	jb     160 <SEG_KERN_CS+0x158>
     160:	6b 61 72 63          	imul   $0x63,0x72(%ecx),%esp
     164:	68 5f 65 61 72       	push   $0x7261655f
     169:	6c                   	insb   (%dx),%es:(%edi)
     16a:	79 5f                	jns    1cb <SEG_KERN_CS+0x1c3>
     16c:	69 6e 69 74 00 6c 6f 	imul   $0x6f6c0074,0x69(%esi),%ebp
     173:	6e                   	outsb  %ds:(%esi),(%dx)
     174:	67 20 6c 6f          	and    %ch,0x6f(%si)
     178:	6e                   	outsb  %ds:(%esi),(%dx)
     179:	67 20 75 6e          	and    %dh,0x6e(%di)
     17d:	73 69                	jae    1e8 <SEG_KERN_CS+0x1e0>
     17f:	67 6e                	outsb  %ds:(%si),(%dx)
     181:	65 64 20 69 6e       	gs and %ch,%fs:0x6e(%ecx)
     186:	74 00                	je     188 <SEG_KERN_CS+0x180>
     188:	75 69                	jne    1f3 <SEG_KERN_CS+0x1eb>
     18a:	6e                   	outsb  %ds:(%esi),(%dx)
     18b:	74 38                	je     1c5 <SEG_KERN_CS+0x1bd>
     18d:	5f                   	pop    %edi
     18e:	74 00                	je     190 <SEG_KERN_CS+0x188>
     190:	6b 65 72 6e          	imul   $0x6e,0x72(%ebp),%esp
     194:	5f                   	pop    %edi
     195:	76 69                	jbe    200 <SEG_KERN_CS+0x1f8>
     197:	72 74                	jb     20d <SEG_KERN_CS+0x205>
     199:	00 47 4e             	add    %al,0x4e(%edi)
     19c:	55                   	push   %ebp
     19d:	20 43 39             	and    %al,0x39(%ebx)
     1a0:	39 20                	cmp    %esp,(%eax)
     1a2:	31 33                	xor    %esi,(%ebx)
     1a4:	2e 32 2e             	xor    %cs:(%esi),%ch
     1a7:	30 20                	xor    %ah,(%eax)
     1a9:	2d 6d 74 75 6e       	sub    $0x6e75746d,%eax
     1ae:	65 3d 67 65 6e 65    	gs cmp $0x656e6567,%eax
     1b4:	72 69                	jb     21f <SEG_KERN_CS+0x217>
     1b6:	63 20                	arpl   %esp,(%eax)
     1b8:	2d 6d 61 72 63       	sub    $0x6372616d,%eax
     1bd:	68 3d 70 65 6e       	push   $0x6e65703d
     1c2:	74 69                	je     22d <SEG_KERN_CS+0x225>
     1c4:	75 6d                	jne    233 <SEG_KERN_CS+0x22b>
     1c6:	70 72                	jo     23a <SEG_KERN_CS+0x232>
     1c8:	6f                   	outsl  %ds:(%esi),(%dx)
     1c9:	20 2d 67 20 2d 73    	and    %ch,0x732d2067
     1cf:	74 64                	je     235 <SEG_KERN_CS+0x22d>
     1d1:	3d 67 6e 75 39       	cmp    $0x39756e67,%eax
     1d6:	39 20                	cmp    %esp,(%eax)
     1d8:	2d 66 66 72 65       	sub    $0x65726666,%eax
     1dd:	65 73 74             	gs jae 254 <SEG_KERN_CS+0x24c>
     1e0:	61                   	popa
     1e1:	6e                   	outsb  %ds:(%esi),(%dx)
     1e2:	64 69 6e 67 00 6d 65 	imul   $0x6d656d00,%fs:0x67(%esi),%ebp
     1e9:	6d 
     1ea:	5f                   	pop    %edi
     1eb:	68 69 67 68 5f       	push   $0x5f686769
     1f0:	70 68                	jo     25a <SEG_KERN_CS+0x252>
     1f2:	79 73                	jns    267 <SEG_KERN_CS+0x25f>
     1f4:	00 66 72             	add    %ah,0x72(%esi)
     1f7:	65 65 70 64          	gs gs jo 25f <SEG_KERN_CS+0x257>
     1fb:	65 00 6c 6f 61       	add    %ch,%gs:0x61(%edi,%ebp,2)
     200:	64 5f                	fs pop %edi
     202:	66 73 00             	data16 jae 205 <SEG_KERN_CS+0x1fd>
     205:	6b 61 72 63          	imul   $0x63,0x72(%ecx),%esp
     209:	68 5f 69 6e 69       	push   $0x696e695f
     20e:	74 5f                	je     26f <SEG_KERN_CS+0x267>
     210:	74 73                	je     285 <SEG_KERN_CS+0x27d>
     212:	73 00                	jae    214 <SEG_KERN_CS+0x20c>
     214:	6c                   	insb   (%dx),%es:(%edi)
     215:	6f                   	outsl  %ds:(%esi),(%dx)
     216:	6e                   	outsb  %ds:(%esi),(%dx)
     217:	67 20 6c 6f          	and    %ch,0x6f(%si)
     21b:	6e                   	outsb  %ds:(%esi),(%dx)
     21c:	67 20 69 6e          	and    %ch,0x6e(%bx,%di)
     220:	74 00                	je     222 <SEG_KERN_CS+0x21a>
     222:	6b 65 72 6e          	imul   $0x6e,0x72(%ebp),%esp
     226:	5f                   	pop    %edi
     227:	61                   	popa
     228:	6c                   	insb   (%dx),%es:(%edi)
     229:	6c                   	insb   (%dx),%es:(%edi)
     22a:	6f                   	outsl  %ds:(%esi),(%dx)
     22b:	63 5f 64             	arpl   %ebx,0x64(%edi)
     22e:	79 6e                	jns    29e <SEG_KERN_CS+0x296>
     230:	00 6b 61             	add    %ch,0x61(%ebx)
     233:	72 63                	jb     298 <SEG_KERN_CS+0x290>
     235:	68 5f 69 6e 69       	push   $0x696e695f
     23a:	74 5f                	je     29b <SEG_KERN_CS+0x293>
     23c:	65 78 63             	gs js  2a2 <SEG_KERN_CS+0x29a>
     23f:	65 70 74             	gs jo  2b6 <SEG_KERN_CS+0x2ae>
     242:	00 6c 6f 61          	add    %ch,0x61(%edi,%ebp,2)
     246:	64 5f                	fs pop %edi
     248:	6b 65 72 6e          	imul   $0x6e,0x72(%ebp),%esp
     24c:	5f                   	pop    %edi
     24d:	63 73 00             	arpl   %esi,0x0(%ebx)
     250:	73 68                	jae    2ba <SEG_KERN_CS+0x2b2>
     252:	6f                   	outsl  %ds:(%esi),(%dx)
     253:	72 74                	jb     2c9 <SEG_KERN_CS+0x2c1>
     255:	20 69 6e             	and    %ch,0x6e(%ecx)
     258:	74 00                	je     25a <SEG_KERN_CS+0x252>
     25a:	6b 62 6f 6f          	imul   $0x6f,0x6f(%edx),%esp
     25e:	74 6d                	je     2cd <SEG_KERN_CS+0x2c5>
     260:	65 6d                	gs insl (%dx),%es:(%edi)
     262:	5f                   	pop    %edi
     263:	74 00                	je     265 <SEG_KERN_CS+0x25d>
     265:	6b 65 72 6e          	imul   $0x6e,0x72(%ebp),%esp
     269:	5f                   	pop    %edi
     26a:	76 69                	jbe    2d5 <SEG_KERN_CS+0x2cd>
     26c:	72 74                	jb     2e2 <SEG_KERN_CS+0x2da>
     26e:	5f                   	pop    %edi
     26f:	62 61 73             	bound  %esp,0x73(%ecx)
     272:	65 00 6c 6f 61       	add    %ch,%gs:0x61(%edi,%ebp,2)
     277:	64 5f                	fs pop %edi
     279:	65 73 00             	gs jae 27c <SEG_KERN_CS+0x274>
     27c:	75 69                	jne    2e7 <SEG_KERN_CS+0x2df>
     27e:	6e                   	outsb  %ds:(%esi),(%dx)
     27f:	74 33                	je     2b4 <SEG_KERN_CS+0x2ac>
     281:	32 5f 74             	xor    0x74(%edi),%bl
     284:	00 6b 61             	add    %ch,0x61(%ebx)
     287:	72 63                	jb     2ec <SEG_KERN_CS+0x2e4>
     289:	68 5f 69 6e 69       	push   $0x696e695f
     28e:	74 00                	je     290 <SEG_KERN_CS+0x288>
     290:	6b 61 72 63          	imul   $0x63,0x72(%ecx),%esp
     294:	68 5f 69 6e 69       	push   $0x696e695f
     299:	74 5f                	je     2fa <SEG_KERN_CS+0x2f2>
     29b:	67 64 74 00          	addr16 fs je 29f <SEG_KERN_CS+0x297>
     29f:	6d                   	insl   (%dx),%es:(%edi)
     2a0:	6d                   	insl   (%dx),%es:(%edi)
     2a1:	61                   	popa
     2a2:	70 5f                	jo     303 <SEG_KERN_CS+0x2fb>
     2a4:	63 6e 74             	arpl   %ebp,0x74(%esi)
     2a7:	00 47 44             	add    %al,0x44(%edi)
     2aa:	54                   	push   %esp
     2ab:	5f                   	pop    %edi
     2ac:	55                   	push   %ebp
     2ad:	53                   	push   %ebx
     2ae:	45                   	inc    %ebp
     2af:	52                   	push   %edx
     2b0:	5f                   	pop    %edi
     2b1:	44                   	inc    %esp
     2b2:	53                   	push   %ebx
     2b3:	00 6b 63             	add    %ch,0x63(%ebx)
     2b6:	70 75                	jo     32d <SEG_KERN_CS+0x325>
     2b8:	69 6e 66 6f 00 4b 43 	imul   $0x434b006f,0x66(%esi),%ebp
     2bf:	50                   	push   %eax
     2c0:	55                   	push   %ebp
     2c1:	46                   	inc    %esi
     2c2:	5f                   	pop    %edi
     2c3:	48                   	dec    %eax
     2c4:	54                   	push   %esp
     2c5:	54                   	push   %esp
     2c6:	5f                   	pop    %edi
     2c7:	4d                   	dec    %ebp
     2c8:	41                   	inc    %ecx
     2c9:	58                   	pop    %eax
     2ca:	00 4b 43             	add    %cl,0x43(%ebx)
     2cd:	50                   	push   %eax
     2ce:	55                   	push   %ebp
     2cf:	46                   	inc    %esi
     2d0:	5f                   	pop    %edi
     2d1:	41                   	inc    %ecx
     2d2:	50                   	push   %eax
     2d3:	49                   	dec    %ecx
     2d4:	43                   	inc    %ebx
     2d5:	5f                   	pop    %edi
     2d6:	4f                   	dec    %edi
     2d7:	4e                   	dec    %esi
     2d8:	5f                   	pop    %edi
     2d9:	43                   	inc    %ebx
     2da:	48                   	dec    %eax
     2db:	49                   	dec    %ecx
     2dc:	50                   	push   %eax
     2dd:	00 4b 43             	add    %cl,0x43(%ebx)
     2e0:	50                   	push   %eax
     2e1:	55                   	push   %ebp
     2e2:	46                   	inc    %esi
     2e3:	5f                   	pop    %edi
     2e4:	50                   	push   %eax
     2e5:	47                   	inc    %edi
     2e6:	45                   	inc    %ebp
     2e7:	00 65 66             	add    %ah,0x66(%ebp)
     2ea:	5f                   	pop    %edi
     2eb:	65 61                	gs popa
     2ed:	78 00                	js     2ef <SEG_KERN_CS+0x2e7>
     2ef:	65 66 5f             	gs pop %di
     2f2:	65 63 78 00          	arpl   %edi,%gs:0x0(%eax)
     2f6:	73 74                	jae    36c <SEG_KERN_CS+0x364>
     2f8:	65 70 70             	gs jo  36b <SEG_KERN_CS+0x363>
     2fb:	69 6e 67 00 4b 43 50 	imul   $0x50434b00,0x67(%esi),%ebp
     302:	55                   	push   %ebp
     303:	46                   	inc    %esi
     304:	5f                   	pop    %edi
     305:	48                   	dec    %eax
     306:	54                   	push   %esp
     307:	54                   	push   %esp
     308:	00 5f 5f             	add    %bl,0x5f(%edi)
     30b:	76 65                	jbe    372 <SEG_KERN_CS+0x36a>
     30d:	6e                   	outsb  %ds:(%esi),(%dx)
     30e:	64 6f                	outsl  %fs:(%esi),(%dx)
     310:	72 5f                	jb     371 <SEG_KERN_CS+0x369>
     312:	69 6e 74 65 6c 00 4b 	imul   $0x4b006c65,0x74(%esi),%ebp
     319:	43                   	inc    %ebx
     31a:	50                   	push   %eax
     31b:	55                   	push   %ebp
     31c:	46                   	inc    %esi
     31d:	5f                   	pop    %edi
     31e:	53                   	push   %ebx
     31f:	53                   	push   %ebx
     320:	45                   	inc    %ebp
     321:	34 5f                	xor    $0x5f,%al
     323:	31 00                	xor    %eax,(%eax)
     325:	4b                   	dec    %ebx
     326:	43                   	inc    %ebx
     327:	50                   	push   %eax
     328:	55                   	push   %ebp
     329:	46                   	inc    %esi
     32a:	5f                   	pop    %edi
     32b:	53                   	push   %ebx
     32c:	53                   	push   %ebx
     32d:	45                   	inc    %ebp
     32e:	34 5f                	xor    $0x5f,%al
     330:	32 00                	xor    (%eax),%al
     332:	4b                   	dec    %ebx
     333:	43                   	inc    %ebx
     334:	50                   	push   %eax
     335:	55                   	push   %ebp
     336:	46                   	inc    %esi
     337:	5f                   	pop    %edi
     338:	53                   	push   %ebx
     339:	53                   	push   %ebx
     33a:	53                   	push   %ebx
     33b:	45                   	inc    %ebp
     33c:	33 00                	xor    (%eax),%eax
     33e:	4b                   	dec    %ebx
     33f:	43                   	inc    %ebx
     340:	50                   	push   %eax
     341:	55                   	push   %ebp
     342:	46                   	inc    %esi
     343:	5f                   	pop    %edi
     344:	50                   	push   %eax
     345:	53                   	push   %ebx
     346:	45                   	inc    %ebp
     347:	00 66 61             	add    %ah,0x61(%esi)
     34a:	6d                   	insl   (%dx),%es:(%edi)
     34b:	69 6c 79 00 4b 43 50 	imul   $0x5550434b,0x0(%ecx,%edi,2),%ebp
     352:	55 
     353:	46                   	inc    %esi
     354:	5f                   	pop    %edi
     355:	46                   	inc    %esi
     356:	58                   	pop    %eax
     357:	53                   	push   %ebx
     358:	52                   	push   %edx
     359:	00 4b 43             	add    %cl,0x43(%ebx)
     35c:	50                   	push   %eax
     35d:	55                   	push   %ebp
     35e:	46                   	inc    %esi
     35f:	5f                   	pop    %edi
     360:	46                   	inc    %esi
     361:	50                   	push   %eax
     362:	55                   	push   %ebp
     363:	00 5f 5f             	add    %bl,0x5f(%edi)
     366:	76 65                	jbe    3cd <SEG_KERN_CS+0x3c5>
     368:	6e                   	outsb  %ds:(%esi),(%dx)
     369:	64 6f                	outsl  %fs:(%esi),(%dx)
     36b:	72 5f                	jb     3cc <SEG_KERN_CS+0x3c4>
     36d:	61                   	popa
     36e:	6d                   	insl   (%dx),%es:(%edi)
     36f:	64 00 6b 61          	add    %ch,%fs:0x61(%ebx)
     373:	72 63                	jb     3d8 <SEG_KERN_CS+0x3d0>
     375:	68 5f 66 65 61       	push   $0x6165665f
     37a:	74 75                	je     3f1 <SEG_KERN_CS+0x3e9>
     37c:	72 65                	jb     3e3 <SEG_KERN_CS+0x3db>
     37e:	5f                   	pop    %edi
     37f:	74 00                	je     381 <SEG_KERN_CS+0x379>
     381:	65 66 5f             	gs pop %di
     384:	65 62 78 00          	bound  %edi,%gs:0x0(%eax)
     388:	6d                   	insl   (%dx),%es:(%edi)
     389:	6f                   	outsl  %ds:(%esi),(%dx)
     38a:	64 65 6c             	fs gs insb (%dx),%es:(%edi)
     38d:	00 65 66             	add    %ah,0x66(%ebp)
     390:	5f                   	pop    %edi
     391:	65 64 78 00          	gs fs js 395 <SEG_KERN_CS+0x38d>
     395:	4b                   	dec    %ebx
     396:	43                   	inc    %ebx
     397:	50                   	push   %eax
     398:	55                   	push   %ebp
     399:	46                   	inc    %esi
     39a:	5f                   	pop    %edi
     39b:	53                   	push   %ebx
     39c:	59                   	pop    %ecx
     39d:	53                   	push   %ebx
     39e:	45                   	inc    %ebp
     39f:	4e                   	dec    %esi
     3a0:	54                   	push   %esp
     3a1:	45                   	inc    %ebp
     3a2:	52                   	push   %edx
     3a3:	00 4b 43             	add    %cl,0x43(%ebx)
     3a6:	50                   	push   %eax
     3a7:	55                   	push   %ebp
     3a8:	46                   	inc    %esi
     3a9:	5f                   	pop    %edi
     3aa:	54                   	push   %esp
     3ab:	53                   	push   %ebx
     3ac:	43                   	inc    %ebx
     3ad:	00 66 65             	add    %ah,0x65(%esi)
     3b0:	61                   	popa
     3b1:	74 75                	je     428 <SEG_KERN_CS+0x420>
     3b3:	72 65                	jb     41a <SEG_KERN_CS+0x412>
     3b5:	00 4b 43             	add    %cl,0x43(%ebx)
     3b8:	50                   	push   %eax
     3b9:	55                   	push   %ebp
     3ba:	46                   	inc    %esi
     3bb:	5f                   	pop    %edi
     3bc:	53                   	push   %ebx
     3bd:	53                   	push   %ebx
     3be:	45                   	inc    %ebp
     3bf:	31 00                	xor    %eax,(%eax)
     3c1:	4b                   	dec    %ebx
     3c2:	43                   	inc    %ebx
     3c3:	50                   	push   %eax
     3c4:	55                   	push   %ebp
     3c5:	46                   	inc    %esi
     3c6:	5f                   	pop    %edi
     3c7:	53                   	push   %ebx
     3c8:	53                   	push   %ebx
     3c9:	45                   	inc    %ebp
     3ca:	32 00                	xor    (%eax),%al
     3cc:	4b                   	dec    %ebx
     3cd:	43                   	inc    %ebx
     3ce:	50                   	push   %eax
     3cf:	55                   	push   %ebp
     3d0:	46                   	inc    %esi
     3d1:	5f                   	pop    %edi
     3d2:	53                   	push   %ebx
     3d3:	53                   	push   %ebx
     3d4:	45                   	inc    %ebp
     3d5:	33 00                	xor    (%eax),%eax
     3d7:	72 65                	jb     43e <SEG_KERN_CS+0x436>
     3d9:	61                   	popa
     3da:	64 5f                	fs pop %edi
     3dc:	63 70 75             	arpl   %esi,0x75(%eax)
     3df:	69 64 00 4b 43 50 55 	imul   $0x46555043,0x4b(%eax,%eax,1),%esp
     3e6:	46 
     3e7:	5f                   	pop    %edi
     3e8:	53                   	push   %ebx
     3e9:	59                   	pop    %ecx
     3ea:	53                   	push   %ebx
     3eb:	43                   	inc    %ebx
     3ec:	41                   	inc    %ecx
     3ed:	4c                   	dec    %esp
     3ee:	4c                   	dec    %esp
     3ef:	00 4b 43             	add    %cl,0x43(%ebx)
     3f2:	50                   	push   %eax
     3f3:	55                   	push   %ebp
     3f4:	46                   	inc    %esi
     3f5:	5f                   	pop    %edi
     3f6:	53                   	push   %ebx
     3f7:	53                   	push   %ebx
     3f8:	45                   	inc    %ebp
     3f9:	5f                   	pop    %edi
     3fa:	46                   	inc    %esi
     3fb:	55                   	push   %ebp
     3fc:	4c                   	dec    %esp
     3fd:	4c                   	dec    %esp
     3fe:	00 4b 43             	add    %cl,0x43(%ebx)
     401:	50                   	push   %eax
     402:	55                   	push   %ebp
     403:	46                   	inc    %esi
     404:	5f                   	pop    %edi
     405:	50                   	push   %eax
     406:	41                   	inc    %ecx
     407:	45                   	inc    %ebp
     408:	00 70 72             	add    %dh,0x72(%eax)
     40b:	69 76 00 65 78 63 65 	imul   $0x65637865,0x0(%esi),%esi
     412:	70 74                	jo     488 <SEG_KERN_CS+0x480>
     414:	5f                   	pop    %edi
     415:	63 62 00             	arpl   %esp,0x0(%edx)
     418:	6b 61 72 63          	imul   $0x63,0x72(%ecx),%esp
     41c:	68 5f 73 65 74       	push   $0x7465735f
     421:	5f                   	pop    %edi
     422:	65 78 63             	gs js  488 <SEG_KERN_CS+0x480>
     425:	65 70 74             	gs jo  49c <SEG_KERN_CS+0x494>
     428:	00 67 76             	add    %ah,0x76(%edi)
     42b:	5f                   	pop    %edi
     42c:	65 78 63             	gs js  492 <SEG_KERN_CS+0x48a>
     42f:	65 70 74             	gs jo  4a6 <SEG_KERN_CS+0x49e>
     432:	00 6b 61             	add    %ch,0x61(%ebx)
     435:	72 63                	jb     49a <SEG_KERN_CS+0x492>
     437:	68 5f 6c 6f 61       	push   $0x616f6c5f
     43c:	64 5f                	fs pop %edi
     43e:	69 64 74 5f 67 61 74 	imul   $0x65746167,0x5f(%esp,%esi,2),%esp
     445:	65 
     446:	76 65                	jbe    4ad <SEG_KERN_CS+0x4a5>
     448:	63 00                	arpl   %eax,(%eax)
     44a:	65 78 63             	gs js  4b0 <SEG_KERN_CS+0x4a8>
     44d:	65 70 74             	gs jo  4c4 <SEG_KERN_CS+0x4bc>
     450:	5f                   	pop    %edi
     451:	74 00                	je     453 <SEG_KERN_CS+0x44b>
     453:	6b 61 72 63          	imul   $0x63,0x72(%ecx),%esp
     457:	68 5f 72 65 67       	push   $0x6765725f
     45c:	33 32                	xor    (%edx),%esi
     45e:	5f                   	pop    %edi
     45f:	74 00                	je     461 <SEG_KERN_CS+0x459>
     461:	6b 61 72 63          	imul   $0x63,0x72(%ecx),%esp
     465:	68 5f 65 78 63       	push   $0x6378655f
     46a:	65 70 74             	gs jo  4e1 <SEG_KERN_CS+0x4d9>
     46d:	5f                   	pop    %edi
     46e:	30 37                	xor    %dh,(%edi)
     470:	00 6b 6d             	add    %ch,0x6d(%ebx)
     473:	65 6d                	gs insl (%dx),%es:(%edi)
     475:	73 65                	jae    4dc <SEG_KERN_CS+0x4d4>
     477:	74 00                	je     479 <SEG_KERN_CS+0x471>
     479:	6b 61 72 63          	imul   $0x63,0x72(%ecx),%esp
     47d:	68 5f 65 78 63       	push   $0x6378655f
     482:	65 70 74             	gs jo  4f9 <SEG_KERN_CS+0x4f1>
     485:	5f                   	pop    %edi
     486:	66 72 61             	data16 jb 4ea <SEG_KERN_CS+0x4e2>
     489:	6d                   	insl   (%dx),%es:(%edi)
     48a:	65 5f                	gs pop %edi
     48c:	74 00                	je     48e <SEG_KERN_CS+0x486>
     48e:	66 72 61             	data16 jb 4f2 <SEG_KERN_CS+0x4ea>
     491:	6d                   	insl   (%dx),%es:(%edi)
     492:	65 00 6b 61          	add    %ch,%gs:0x61(%ebx)
     496:	72 63                	jb     4fb <SEG_KERN_CS+0x4f3>
     498:	68 5f 65 78 63       	push   $0x6378655f
     49d:	65 70 74             	gs jo  514 <SEG_KERN_CS+0x50c>
     4a0:	00 67 61             	add    %ah,0x61(%edi)
     4a3:	74 65                	je     50a <SEG_KERN_CS+0x502>
     4a5:	00 66 6c             	add    %ah,0x6c(%esi)
     4a8:	61                   	popa
     4a9:	67 73 00             	addr16 jae 4ac <SEG_KERN_CS+0x4a4>
     4ac:	6b 61 72 63          	imul   $0x63,0x72(%ecx),%esp
     4b0:	68 5f 78 38 36       	push   $0x3638785f
     4b5:	5f                   	pop    %edi
     4b6:	65 78 63             	gs js  51c <SEG_KERN_CS+0x514>
     4b9:	65 70 74             	gs jo  530 <SEG_KERN_CS+0x528>
     4bc:	5f                   	pop    %edi
     4bd:	66 72 61             	data16 jb 521 <SEG_KERN_CS+0x519>
     4c0:	6d                   	insl   (%dx),%es:(%edi)
     4c1:	65 5f                	gs pop %edi
     4c3:	74 00                	je     4c5 <SEG_KERN_CS+0x4bd>
     4c5:	6b 61 72 63          	imul   $0x63,0x72(%ecx),%esp
     4c9:	68 5f 65 78 63       	push   $0x6378655f
     4ce:	65 70 74             	gs jo  545 <SEG_KERN_CS+0x53d>
     4d1:	5f                   	pop    %edi
     4d2:	30 30                	xor    %dh,(%eax)
     4d4:	00 6b 61             	add    %ch,0x61(%ebx)
     4d7:	72 63                	jb     53c <SEG_KERN_CS+0x534>
     4d9:	68 5f 65 78 63       	push   $0x6378655f
     4de:	65 70 74             	gs jo  555 <SEG_KERN_CS+0x54d>
     4e1:	5f                   	pop    %edi
     4e2:	30 31                	xor    %dh,(%ecx)
     4e4:	00 6b 61             	add    %ch,0x61(%ebx)
     4e7:	72 63                	jb     54c <SEG_KERN_CS+0x544>
     4e9:	68 5f 65 78 63       	push   $0x6378655f
     4ee:	65 70 74             	gs jo  565 <SEG_KERN_CS+0x55d>
     4f1:	5f                   	pop    %edi
     4f2:	30 32                	xor    %dh,(%edx)
     4f4:	00 6b 61             	add    %ch,0x61(%ebx)
     4f7:	72 63                	jb     55c <SEG_KERN_CS+0x554>
     4f9:	68 5f 65 78 63       	push   $0x6378655f
     4fe:	65 70 74             	gs jo  575 <SEG_KERN_CS+0x56d>
     501:	5f                   	pop    %edi
     502:	30 33                	xor    %dh,(%ebx)
     504:	00 6b 61             	add    %ch,0x61(%ebx)
     507:	72 63                	jb     56c <SEG_KERN_CS+0x564>
     509:	68 5f 65 78 63       	push   $0x6378655f
     50e:	65 70 74             	gs jo  585 <SEG_KERN_CS+0x57d>
     511:	5f                   	pop    %edi
     512:	30 34 00             	xor    %dh,(%eax,%eax,1)
     515:	6b 61 72 63          	imul   $0x63,0x72(%ecx),%esp
     519:	68 5f 65 78 63       	push   $0x6378655f
     51e:	65 70 74             	gs jo  595 <SEG_KERN_CS+0x58d>
     521:	5f                   	pop    %edi
     522:	30 35 00 6b 61 72    	xor    %dh,0x72616b00
     528:	63 68 5f             	arpl   %ebp,0x5f(%eax)
     52b:	65 78 63             	gs js  591 <SEG_KERN_CS+0x589>
     52e:	65 70 74             	gs jo  5a5 <SEG_KERN_CS+0x59d>
     531:	5f                   	pop    %edi
     532:	30 36                	xor    %dh,(%esi)
     534:	00 6b 61             	add    %ch,0x61(%ebx)
     537:	72 63                	jb     59c <SEG_KERN_CS+0x594>
     539:	68 5f 65 78 63       	push   $0x6378655f
     53e:	65 70 74             	gs jo  5b5 <SEG_KERN_CS+0x5ad>
     541:	5f                   	pop    %edi
     542:	30 38                	xor    %bh,(%eax)
     544:	00 6b 61             	add    %ch,0x61(%ebx)
     547:	72 63                	jb     5ac <SEG_KERN_CS+0x5a4>
     549:	68 5f 65 78 63       	push   $0x6378655f
     54e:	65 70 74             	gs jo  5c5 <SEG_KERN_CS+0x5bd>
     551:	5f                   	pop    %edi
     552:	30 39                	xor    %bh,(%ecx)
     554:	00 65 78             	add    %ah,0x78(%ebp)
     557:	63 65 70             	arpl   %esp,0x70(%ebp)
     55a:	74 5f                	je     5bb <SEG_KERN_CS+0x5b3>
     55c:	63 62 5f             	arpl   %esp,0x5f(%edx)
     55f:	64 61                	fs popa
     561:	74 61                	je     5c4 <SEG_KERN_CS+0x5bc>
     563:	00 6b 61             	add    %ch,0x61(%ebx)
     566:	72 63                	jb     5cb <SEG_KERN_CS+0x5c3>
     568:	68 5f 65 78 63       	push   $0x6378655f
     56d:	65 70 74             	gs jo  5e4 <SEG_KERN_CS+0x5dc>
     570:	5f                   	pop    %edi
     571:	63 62 5f             	arpl   %esp,0x5f(%edx)
     574:	74 00                	je     576 <SEG_KERN_CS+0x56e>
     576:	6b 61 72 63          	imul   $0x63,0x72(%ecx),%esp
     57a:	68 5f 67 65 74       	push   $0x7465675f
     57f:	5f                   	pop    %edi
     580:	65 78 63             	gs js  5e6 <SEG_KERN_CS+0x5de>
     583:	65 70 74             	gs jo  5fa <SEG_KERN_CS+0x5f2>
     586:	00 6b 61             	add    %ch,0x61(%ebx)
     589:	72 63                	jb     5ee <SEG_KERN_CS+0x5e6>
     58b:	68 5f 65 78 63       	push   $0x6378655f
     590:	65 70 74             	gs jo  607 <SEG_KERN_CS+0x5ff>
     593:	5f                   	pop    %edi
     594:	31 30                	xor    %esi,(%eax)
     596:	00 6b 61             	add    %ch,0x61(%ebx)
     599:	72 63                	jb     5fe <SEG_KERN_CS+0x5f6>
     59b:	68 5f 65 78 63       	push   $0x6378655f
     5a0:	65 70 74             	gs jo  617 <SEG_KERN_CS+0x60f>
     5a3:	5f                   	pop    %edi
     5a4:	31 31                	xor    %esi,(%ecx)
     5a6:	00 6b 61             	add    %ch,0x61(%ebx)
     5a9:	72 63                	jb     60e <SEG_KERN_CS+0x606>
     5ab:	68 5f 65 78 63       	push   $0x6378655f
     5b0:	65 70 74             	gs jo  627 <SEG_KERN_CS+0x61f>
     5b3:	5f                   	pop    %edi
     5b4:	31 32                	xor    %esi,(%edx)
     5b6:	00 6b 61             	add    %ch,0x61(%ebx)
     5b9:	72 63                	jb     61e <SEG_KERN_CS+0x616>
     5bb:	68 5f 65 78 63       	push   $0x6378655f
     5c0:	65 70 74             	gs jo  637 <SEG_KERN_CS+0x62f>
     5c3:	5f                   	pop    %edi
     5c4:	31 33                	xor    %esi,(%ebx)
     5c6:	00 6b 61             	add    %ch,0x61(%ebx)
     5c9:	72 63                	jb     62e <SEG_KERN_CS+0x626>
     5cb:	68 5f 65 78 63       	push   $0x6378655f
     5d0:	65 70 74             	gs jo  647 <SEG_KERN_CS+0x63f>
     5d3:	5f                   	pop    %edi
     5d4:	31 34 00             	xor    %esi,(%eax,%eax,1)
     5d7:	6b 61 72 63          	imul   $0x63,0x72(%ecx),%esp
     5db:	68 5f 65 78 63       	push   $0x6378655f
     5e0:	65 70 74             	gs jo  657 <SEG_KERN_CS+0x64f>
     5e3:	5f                   	pop    %edi
     5e4:	31 36                	xor    %esi,(%esi)
     5e6:	00 6b 61             	add    %ch,0x61(%ebx)
     5e9:	72 63                	jb     64e <SEG_KERN_CS+0x646>
     5eb:	68 5f 65 78 63       	push   $0x6378655f
     5f0:	65 70 74             	gs jo  667 <SEG_KERN_CS+0x65f>
     5f3:	5f                   	pop    %edi
     5f4:	31 37                	xor    %esi,(%edi)
     5f6:	00 6b 61             	add    %ch,0x61(%ebx)
     5f9:	72 63                	jb     65e <SEG_KERN_CS+0x656>
     5fb:	68 5f 65 78 63       	push   $0x6378655f
     600:	65 70 74             	gs jo  677 <SEG_KERN_CS+0x66f>
     603:	5f                   	pop    %edi
     604:	31 38                	xor    %edi,(%eax)
     606:	00 6c 69 6d          	add    %ch,0x6d(%ecx,%ebp,2)
     60a:	69 74 00 62 61 73 65 	imul   $0x5f657361,0x62(%eax,%eax,1),%esi
     611:	5f 
     612:	6d                   	insl   (%dx),%es:(%edi)
     613:	69 64 00 6b 61 72 63 	imul   $0x68637261,0x6b(%eax,%eax,1),%esp
     61a:	68 
     61b:	5f                   	pop    %edi
     61c:	73 65                	jae    683 <SEG_KERN_CS+0x67b>
     61e:	67 5f                	addr16 pop %edi
     620:	74 00                	je     622 <SEG_KERN_CS+0x61a>
     622:	64 65 73 63          	fs gs jae 689 <SEG_KERN_CS+0x681>
     626:	5f                   	pop    %edi
     627:	67 64 74 00          	addr16 fs je 62b <SEG_KERN_CS+0x623>
     62b:	6b 61 72 63          	imul   $0x63,0x72(%ecx),%esp
     62f:	68 5f 73 65 74       	push   $0x7465735f
     634:	5f                   	pop    %edi
     635:	67 64 74 5f          	addr16 fs je 698 <SEG_KERN_CS+0x690>
     639:	63 6f 64             	arpl   %ebp,0x64(%edi)
     63c:	65 00 6b 61          	add    %ch,%gs:0x61(%ebx)
     640:	72 63                	jb     6a5 <SEG_KERN_CS+0x69d>
     642:	68 5f 73 65 74       	push   $0x7465735f
     647:	5f                   	pop    %edi
     648:	67 64 74 5f          	addr16 fs je 6ab <SEG_KERN_CS+0x6a3>
     64c:	64 61                	fs popa
     64e:	74 61                	je     6b1 <SEG_KERN_CS+0x6a9>
     650:	00 6b 61             	add    %ch,0x61(%ebx)
     653:	72 63                	jb     6b8 <SEG_KERN_CS+0x6b0>
     655:	68 5f 78 38 36       	push   $0x3638785f
     65a:	5f                   	pop    %edi
     65b:	64 65 73 63          	fs gs jae 6c2 <SEG_KERN_CS+0x6ba>
     65f:	5f                   	pop    %edi
     660:	74 00                	je     662 <SEG_KERN_CS+0x65a>
     662:	67 72 61             	addr16 jb 6c6 <SEG_KERN_CS+0x6be>
     665:	6e                   	outsb  %ds:(%esi),(%dx)
     666:	75 6c                	jne    6d4 <SEG_KERN_CS+0x6cc>
     668:	61                   	popa
     669:	72 69                	jb     6d4 <SEG_KERN_CS+0x6cc>
     66b:	74 79                	je     6e6 <SEG_KERN_CS+0x6de>
     66d:	00 6b 61             	add    %ch,0x61(%ebx)
     670:	72 63                	jb     6d5 <SEG_KERN_CS+0x6cd>
     672:	68 5f 67 65 74       	push   $0x7465675f
     677:	5f                   	pop    %edi
     678:	67 64 74 00          	addr16 fs je 67c <SEG_KERN_CS+0x674>
     67c:	6c                   	insb   (%dx),%es:(%edi)
     67d:	69 6d 69 74 5f 6c 6f 	imul   $0x6f6c5f74,0x69(%ebp),%ebp
     684:	77 00                	ja     686 <SEG_KERN_CS+0x67e>
     686:	61                   	popa
     687:	63 63 65             	arpl   %esp,0x65(%ebx)
     68a:	73 73                	jae    6ff <SEG_KERN_CS+0x6f7>
     68c:	00 75 69             	add    %dh,0x69(%ebp)
     68f:	6e                   	outsb  %ds:(%esi),(%dx)
     690:	74 31                	je     6c3 <SEG_KERN_CS+0x6bb>
     692:	36 5f                	ss pop %edi
     694:	74 00                	je     696 <SEG_KERN_CS+0x68e>
     696:	6b 61 72 63          	imul   $0x63,0x72(%ecx),%esp
     69a:	68 5f 64 65 73       	push   $0x7365645f
     69f:	63 5f 74             	arpl   %ebx,0x74(%edi)
     6a2:	00 62 61             	add    %ah,0x61(%edx)
     6a5:	73 65                	jae    70c <SEG_KERN_CS+0x704>
     6a7:	5f                   	pop    %edi
     6a8:	68 69 67 68 00       	push   $0x686769
     6ad:	6c                   	insb   (%dx),%es:(%edi)
     6ae:	6f                   	outsl  %ds:(%esi),(%dx)
     6af:	61                   	popa
     6b0:	64 5f                	fs pop %edi
     6b2:	67 64 74 00          	addr16 fs je 6b6 <SEG_KERN_CS+0x6ae>
     6b6:	62 61 73             	bound  %esp,0x73(%ecx)
     6b9:	65 5f                	gs pop %edi
     6bb:	6c                   	insb   (%dx),%es:(%edi)
     6bc:	6f                   	outsl  %ds:(%esi),(%dx)
     6bd:	77 00                	ja     6bf <SEG_KERN_CS+0x6b7>
     6bf:	6b 61 72 63          	imul   $0x63,0x72(%ecx),%esp
     6c3:	68 5f 73 65 74       	push   $0x7465735f
     6c8:	5f                   	pop    %edi
     6c9:	67 64 74 00          	addr16 fs je 6cd <SEG_KERN_CS+0x6c5>
     6cd:	6b 61 72 63          	imul   $0x63,0x72(%ecx),%esp
     6d1:	68 5f 78 38 36       	push   $0x3638785f
     6d6:	5f                   	pop    %edi
     6d7:	73 65                	jae    73e <SEG_KERN_CS+0x736>
     6d9:	67 5f                	addr16 pop %edi
     6db:	74 00                	je     6dd <SEG_KERN_CS+0x6d5>
     6dd:	6b 61 72 63          	imul   $0x63,0x72(%ecx),%esp
     6e1:	68 5f 64 65 69       	push   $0x6965645f
     6e6:	6e                   	outsb  %ds:(%esi),(%dx)
     6e7:	69 74 5f 69 38 32 35 	imul   $0x33353238,0x69(%edi,%ebx,2),%esi
     6ee:	33 
     6ef:	00 63 70             	add    %ah,0x70(%ebx)
     6f2:	75 5f                	jne    753 <SEG_KERN_CS+0x74b>
     6f4:	6f                   	outsl  %ds:(%esi),(%dx)
     6f5:	75 74                	jne    76b <SEG_KERN_CS+0x763>
     6f7:	38 00                	cmp    %al,(%eax)
     6f9:	66 72 65             	data16 jb 761 <SEG_KERN_CS+0x759>
     6fc:	71 00                	jno    6fe <SEG_KERN_CS+0x6f6>
     6fe:	6b 61 72 63          	imul   $0x63,0x72(%ecx),%esp
     702:	68 5f 69 6e 69       	push   $0x696e695f
     707:	74 5f                	je     768 <SEG_KERN_CS+0x760>
     709:	69 38 32 35 33 00    	imul   $0x333532,(%eax),%edi
     70f:	6b 61 72 63          	imul   $0x63,0x72(%ecx),%esp
     713:	68 5f 69 38 32       	push   $0x3238695f
     718:	35 39 5f 68 77       	xor    $0x77685f39,%eax
     71d:	69 6e 74 5f 30 30 00 	imul   $0x30305f,0x74(%esi),%ebp
     724:	6b 61 72 63          	imul   $0x63,0x72(%ecx),%esp
     728:	68 5f 69 38 32       	push   $0x3238695f
     72d:	35 39 5f 68 77       	xor    $0x77685f39,%eax
     732:	69 6e 74 5f 30 31 00 	imul   $0x31305f,0x74(%esi),%ebp
     739:	6b 61 72 63          	imul   $0x63,0x72(%ecx),%esp
     73d:	68 5f 69 38 32       	push   $0x3238695f
     742:	35 39 5f 68 77       	xor    $0x77685f39,%eax
     747:	69 6e 74 5f 30 32 00 	imul   $0x32305f,0x74(%esi),%ebp
     74e:	6b 61 72 63          	imul   $0x63,0x72(%ecx),%esp
     752:	68 5f 69 38 32       	push   $0x3238695f
     757:	35 39 5f 68 77       	xor    $0x77685f39,%eax
     75c:	69 6e 74 5f 30 33 00 	imul   $0x33305f,0x74(%esi),%ebp
     763:	6b 61 72 63          	imul   $0x63,0x72(%ecx),%esp
     767:	68 5f 69 38 32       	push   $0x3238695f
     76c:	35 39 5f 68 77       	xor    $0x77685f39,%eax
     771:	69 6e 74 5f 30 34 00 	imul   $0x34305f,0x74(%esi),%ebp
     778:	6b 61 72 63          	imul   $0x63,0x72(%ecx),%esp
     77c:	68 5f 69 38 32       	push   $0x3238695f
     781:	35 39 5f 68 77       	xor    $0x77685f39,%eax
     786:	69 6e 74 5f 30 35 00 	imul   $0x35305f,0x74(%esi),%ebp
     78d:	6b 61 72 63          	imul   $0x63,0x72(%ecx),%esp
     791:	68 5f 69 38 32       	push   $0x3238695f
     796:	35 39 5f 68 77       	xor    $0x77685f39,%eax
     79b:	69 6e 74 5f 30 36 00 	imul   $0x36305f,0x74(%esi),%ebp
     7a2:	6b 61 72 63          	imul   $0x63,0x72(%ecx),%esp
     7a6:	68 5f 69 38 32       	push   $0x3238695f
     7ab:	35 39 5f 68 77       	xor    $0x77685f39,%eax
     7b0:	69 6e 74 5f 30 37 00 	imul   $0x37305f,0x74(%esi),%ebp
     7b7:	6b 61 72 63          	imul   $0x63,0x72(%ecx),%esp
     7bb:	68 5f 69 38 32       	push   $0x3238695f
     7c0:	35 39 5f 68 77       	xor    $0x77685f39,%eax
     7c5:	69 6e 74 5f 30 38 00 	imul   $0x38305f,0x74(%esi),%ebp
     7cc:	6b 61 72 63          	imul   $0x63,0x72(%ecx),%esp
     7d0:	68 5f 69 38 32       	push   $0x3238695f
     7d5:	35 39 5f 68 77       	xor    $0x77685f39,%eax
     7da:	69 6e 74 5f 30 39 00 	imul   $0x39305f,0x74(%esi),%ebp
     7e1:	67 76 5f             	addr16 jbe 843 <SEG_KERN_CS+0x83b>
     7e4:	69 38 32 35 39 5f    	imul   $0x5f393532,(%eax),%edi
     7ea:	6d                   	insl   (%dx),%es:(%edi)
     7eb:	61                   	popa
     7ec:	73 74                	jae    862 <SEG_KERN_CS+0x85a>
     7ee:	65 72 00             	gs jb  7f1 <SEG_KERN_CS+0x7e9>
     7f1:	6b 61 72 63          	imul   $0x63,0x72(%ecx),%esp
     7f5:	68 5f 75 6e 6d       	push   $0x6d6e755f
     7fa:	61                   	popa
     7fb:	73 6b                	jae    868 <SEG_KERN_CS+0x860>
     7fd:	5f                   	pop    %edi
     7fe:	69 38 32 35 39 00    	imul   $0x393532,(%eax),%edi
     804:	6b 61 72 63          	imul   $0x63,0x72(%ecx),%esp
     808:	68 5f 64 69 73       	push   $0x7369645f
     80d:	61                   	popa
     80e:	62 6c 65 5f          	bound  %ebp,0x5f(%ebp,%eiz,2)
     812:	69 38 32 35 39 00    	imul   $0x393532,(%eax),%edi
     818:	6b 61 72 63          	imul   $0x63,0x72(%ecx),%esp
     81c:	68 5f 69 38 32       	push   $0x3238695f
     821:	35 39 5f 68 77       	xor    $0x77685f39,%eax
     826:	69 6e 74 5f 31 30 00 	imul   $0x30315f,0x74(%esi),%ebp
     82d:	6b 61 72 63          	imul   $0x63,0x72(%ecx),%esp
     831:	68 5f 69 38 32       	push   $0x3238695f
     836:	35 39 5f 68 77       	xor    $0x77685f39,%eax
     83b:	69 6e 74 5f 31 31 00 	imul   $0x31315f,0x74(%esi),%ebp
     842:	6b 61 72 63          	imul   $0x63,0x72(%ecx),%esp
     846:	68 5f 69 38 32       	push   $0x3238695f
     84b:	35 39 5f 68 77       	xor    $0x77685f39,%eax
     850:	69 6e 74 5f 31 32 00 	imul   $0x32315f,0x74(%esi),%ebp
     857:	6b 61 72 63          	imul   $0x63,0x72(%ecx),%esp
     85b:	68 5f 69 38 32       	push   $0x3238695f
     860:	35 39 5f 68 77       	xor    $0x77685f39,%eax
     865:	69 6e 74 5f 31 33 00 	imul   $0x33315f,0x74(%esi),%ebp
     86c:	6b 61 72 63          	imul   $0x63,0x72(%ecx),%esp
     870:	68 5f 69 38 32       	push   $0x3238695f
     875:	35 39 5f 68 77       	xor    $0x77685f39,%eax
     87a:	69 6e 74 5f 31 34 00 	imul   $0x34315f,0x74(%esi),%ebp
     881:	6b 61 72 63          	imul   $0x63,0x72(%ecx),%esp
     885:	68 5f 69 38 32       	push   $0x3238695f
     88a:	35 39 5f 68 77       	xor    $0x77685f39,%eax
     88f:	69 6e 74 5f 31 35 00 	imul   $0x35315f,0x74(%esi),%ebp
     896:	6b 61 72 63          	imul   $0x63,0x72(%ecx),%esp
     89a:	68 5f 67 65 74       	push   $0x7465675f
     89f:	5f                   	pop    %edi
     8a0:	68 77 69 6e 74       	push   $0x746e6977
     8a5:	5f                   	pop    %edi
     8a6:	69 38 32 35 39 00    	imul   $0x393532,(%eax),%edi
     8ac:	6e                   	outsb  %ds:(%esi),(%dx)
     8ad:	65 77 76             	gs ja  926 <SEG_KERN_CS+0x91e>
     8b0:	61                   	popa
     8b1:	6c                   	insb   (%dx),%es:(%edi)
     8b2:	00 69 38             	add    %ch,0x38(%ecx)
     8b5:	32 35 36 5f 74 00    	xor    0x745f36,%dh
     8bb:	63 74 6c 6d          	arpl   %esi,0x6d(%esp,%ebp,2)
     8bf:	61                   	popa
     8c0:	73 6b                	jae    92d <SEG_KERN_CS+0x925>
     8c2:	00 6b 61             	add    %ch,0x61(%ebx)
     8c5:	72 63                	jb     92a <SEG_KERN_CS+0x922>
     8c7:	68 5f 69 38 32       	push   $0x3238695f
     8cc:	35 39 5f 65 6f       	xor    $0x6f655f39,%eax
     8d1:	69 00 69 38 32 35    	imul   $0x35323869,(%eax),%eax
     8d7:	39 5f 63             	cmp    %ebx,0x63(%edi)
     8da:	62 00                	bound  %eax,(%eax)
     8dc:	6b 61 72 63          	imul   $0x63,0x72(%ecx),%esp
     8e0:	68 5f 78 38 36       	push   $0x3638785f
     8e5:	5f                   	pop    %edi
     8e6:	69 6e 74 72 5f 66 72 	imul   $0x72665f72,0x74(%esi),%ebp
     8ed:	61                   	popa
     8ee:	6d                   	insl   (%dx),%es:(%edi)
     8ef:	65 5f                	gs pop %edi
     8f1:	74 00                	je     8f3 <SEG_KERN_CS+0x8eb>
     8f3:	6b 61 72 63          	imul   $0x63,0x72(%ecx),%esp
     8f7:	68 5f 69 38 32       	push   $0x3238695f
     8fc:	35 39 5f 63 62       	xor    $0x62635f39,%eax
     901:	5f                   	pop    %edi
     902:	74 00                	je     904 <SEG_KERN_CS+0x8fc>
     904:	6c                   	insb   (%dx),%es:(%edi)
     905:	61                   	popa
     906:	73 74                	jae    97c <SEG_KERN_CS+0x974>
     908:	00 69 38             	add    %ch,0x38(%ecx)
     90b:	32 35 39 5f 63 62    	xor    0x62635f39,%dh
     911:	5f                   	pop    %edi
     912:	64 61                	fs popa
     914:	74 61                	je     977 <SEG_KERN_CS+0x96f>
     916:	00 6b 61             	add    %ch,0x61(%ebx)
     919:	72 63                	jb     97e <SEG_KERN_CS+0x976>
     91b:	68 5f 70 72 6f       	push   $0x6f72705f
     920:	67 72 61             	addr16 jb 984 <SEG_KERN_CS+0x97c>
     923:	6d                   	insl   (%dx),%es:(%edi)
     924:	5f                   	pop    %edi
     925:	69 38 32 35 39 00    	imul   $0x393532,(%eax),%edi
     92b:	6b 61 72 63          	imul   $0x63,0x72(%ecx),%esp
     92f:	68 5f 69 6e 74       	push   $0x746e695f
     934:	72 5f                	jb     995 <SEG_KERN_CS+0x98d>
     936:	66 72 61             	data16 jb 99a <SEG_KERN_CS+0x992>
     939:	6d                   	insl   (%dx),%es:(%edi)
     93a:	65 5f                	gs pop %edi
     93c:	74 00                	je     93e <SEG_KERN_CS+0x936>
     93e:	6b 61 72 63          	imul   $0x63,0x72(%ecx),%esp
     942:	68 5f 6d 61 73       	push   $0x73616d5f
     947:	6b 5f 69 38          	imul   $0x38,0x69(%edi),%ebx
     94b:	32 35 39 00 6b 61    	xor    0x616b0039,%dh
     951:	72 63                	jb     9b6 <SEG_KERN_CS+0x9ae>
     953:	68 5f 69 38 32       	push   $0x3238695f
     958:	35 39 5f 68 77       	xor    $0x77685f39,%eax
     95d:	69 6e 74 00 6b 61 72 	imul   $0x72616b00,0x74(%esi),%ebp
     964:	63 68 5f             	arpl   %ebp,0x5f(%eax)
     967:	73 65                	jae    9ce <SEG_KERN_CS+0x9c6>
     969:	74 5f                	je     9ca <SEG_KERN_CS+0x9c2>
     96b:	68 77 69 6e 74       	push   $0x746e6977
     970:	5f                   	pop    %edi
     971:	69 38 32 35 39 00    	imul   $0x393532,(%eax),%edi
     977:	63 70 75             	arpl   %esi,0x75(%eax)
     97a:	5f                   	pop    %edi
     97b:	69 6e 38 00 67 76 5f 	imul   $0x5f766700,0x38(%esi),%ebp
     982:	69 38 32 35 39 5f    	imul   $0x5f393532,(%eax),%edi
     988:	73 6c                	jae    9f6 <SEG_KERN_CS+0x9ee>
     98a:	61                   	popa
     98b:	76 65                	jbe    9f2 <SEG_KERN_CS+0x9ea>
     98d:	00 6f 66             	add    %ch,0x66(%edi)
     990:	66 5f                	pop    %di
     992:	6c                   	insb   (%dx),%es:(%edi)
     993:	6f                   	outsl  %ds:(%esi),(%dx)
     994:	77 00                	ja     996 <SEG_KERN_CS+0x98e>
     996:	6b 61 72 63          	imul   $0x63,0x72(%ecx),%esp
     99a:	68 5f 67 61 74       	push   $0x7461675f
     99f:	65 5f                	gs pop %edi
     9a1:	74 00                	je     9a3 <SEG_KERN_CS+0x99b>
     9a3:	74 61                	je     a06 <SEG_KERN_CS+0x9fe>
     9a5:	62 6c 65 00          	bound  %ebp,0x0(%ebp,%eiz,2)
     9a9:	76 65                	jbe    a10 <SEG_KERN_CS+0xa08>
     9ab:	63 5f 62             	arpl   %ebx,0x62(%edi)
     9ae:	61                   	popa
     9af:	73 65                	jae    a16 <SEG_KERN_CS+0xa0e>
     9b1:	00 6c 6f 61          	add    %ch,0x61(%edi,%ebp,2)
     9b5:	64 5f                	fs pop %edi
     9b7:	69 64 74 00 6b 61 72 	imul   $0x6372616b,0x0(%esp,%esi,2),%esp
     9be:	63 
     9bf:	68 5f 73 65 74       	push   $0x7465735f
     9c4:	5f                   	pop    %edi
     9c5:	69 64 74 00 70 5f 64 	imul   $0x70645f70,0x0(%esp,%esi,2),%esp
     9cc:	70 
     9cd:	6c                   	insb   (%dx),%es:(%edi)
     9ce:	5f                   	pop    %edi
     9cf:	74 79                	je     a4a <SEG_KERN_CS+0xa42>
     9d1:	70 65                	jo     a38 <SEG_KERN_CS+0xa30>
     9d3:	00 64 65 73          	add    %ah,0x73(%ebp,%eiz,2)
     9d7:	63 5f 69             	arpl   %ebx,0x69(%edi)
     9da:	64 74 00             	fs je  9dd <SEG_KERN_CS+0x9d5>
     9dd:	6b 61 72 63          	imul   $0x63,0x72(%ecx),%esp
     9e1:	68 5f 78 38 36       	push   $0x3638785f
     9e6:	5f                   	pop    %edi
     9e7:	67 61                	addr16 popa
     9e9:	74 65                	je     a50 <SEG_KERN_CS+0xa48>
     9eb:	5f                   	pop    %edi
     9ec:	74 00                	je     9ee <SEG_KERN_CS+0x9e6>
     9ee:	6f                   	outsl  %ds:(%esi),(%dx)
     9ef:	66 66 5f             	data16 pop %di
     9f2:	68 69 67 68 00       	push   $0x686769
     9f7:	5f                   	pop    %edi
     9f8:	6d                   	insl   (%dx),%es:(%edi)
     9f9:	62 5f 76             	bound  %ebx,0x76(%edi)
     9fc:	69 72 74 5f 62 61 73 	imul   $0x7361625f,0x74(%edx),%esi
     a03:	65 00 6b 61          	add    %ch,%gs:0x61(%ebx)
     a07:	72 63                	jb     a6c <SEG_KERN_CS+0xa64>
     a09:	68 5f 70 61 67       	push   $0x6761705f
     a0e:	65 5f                	gs pop %edi
     a10:	69 64 65 6e 74 69 74 	imul   $0x79746974,0x6e(%ebp,%eiz,2),%esp
     a17:	79 
     a18:	00 5f 6d             	add    %bl,0x6d(%edi)
     a1b:	62 5f 73             	bound  %ebx,0x73(%edi)
     a1e:	69 7a 65 00 6b 61 72 	imul   $0x72616b00,0x65(%edx),%edi
     a25:	63 68 5f             	arpl   %ebp,0x5f(%eax)
     a28:	70 61                	jo     a8b <SEG_KERN_CS+0xa83>
     a2a:	67 65 5f             	addr16 gs pop %edi
     a2d:	72 65                	jb     a94 <SEG_KERN_CS+0xa8c>
     a2f:	6d                   	insl   (%dx),%es:(%edi)
     a30:	61                   	popa
     a31:	70 5f                	jo     a92 <SEG_KERN_CS+0xa8a>
     a33:	6b 65 72 6e          	imul   $0x6e,0x72(%ebp),%esp
     a37:	65 6c                	gs insb (%dx),%es:(%edi)
     a39:	00 5f 6d             	add    %bl,0x6d(%edi)
     a3c:	62 5f 70             	bound  %ebx,0x70(%edi)
     a3f:	68 79 73 5f 62       	push   $0x625f7379
     a44:	61                   	popa
     a45:	73 65                	jae    aac <SEG_KERN_CS+0xaa4>
     a47:	00 77 72             	add    %dh,0x72(%edi)
     a4a:	69 74 65 5f 63 72 33 	imul   $0x337263,0x5f(%ebp,%eiz,2),%esi
     a51:	00 
     a52:	6d                   	insl   (%dx),%es:(%edi)
     a53:	61                   	popa
     a54:	70 70                	jo     ac6 <SEG_KERN_CS+0xabe>
     a56:	65 64 00 6b 61       	gs add %ch,%fs:0x61(%ebx)
     a5b:	72 63                	jb     ac0 <SEG_KERN_CS+0xab8>
     a5d:	68 5f 73 74 61       	push   $0x6174735f
     a62:	63 6b 6d             	arpl   %ebp,0x6d(%ebx)
     a65:	61                   	popa
     a66:	72 6b                	jb     ad3 <SEG_KERN_CS+0xacb>
     a68:	5f                   	pop    %edi
     a69:	74 00                	je     a6b <SEG_KERN_CS+0xa63>
     a6b:	6b 61 72 63          	imul   $0x63,0x72(%ecx),%esp
     a6f:	68 5f 73 65 74       	push   $0x7465735f
     a74:	75 70                	jne    ae6 <SEG_KERN_CS+0xade>
     a76:	5f                   	pop    %edi
     a77:	74 73                	je     aec <SEG_KERN_CS+0xae4>
     a79:	73 00                	jae    a7b <SEG_KERN_CS+0xa73>
     a7b:	6b 61 72 63          	imul   $0x63,0x72(%ecx),%esp
     a7f:	68 5f 72 65 67       	push   $0x6765725f
     a84:	31 36                	xor    %esi,(%esi)
     a86:	5f                   	pop    %edi
     a87:	74 00                	je     a89 <SEG_KERN_CS+0xa81>
     a89:	72 65                	jb     af0 <SEG_KERN_CS+0xae8>
     a8b:	61                   	popa
     a8c:	64 5f                	fs pop %edi
     a8e:	6d                   	insl   (%dx),%es:(%edi)
     a8f:	73 72                	jae    b03 <SEG_KERN_CS+0xafb>
     a91:	00 69 6f             	add    %ch,0x6f(%ecx)
     a94:	62 61 73             	bound  %esp,0x73(%ecx)
     a97:	65 00 62 61          	add    %ah,%gs:0x61(%edx)
     a9b:	63 6b 6c             	arpl   %ebp,0x6c(%ebx)
     a9e:	69 6e 6b 00 6d 73 72 	imul   $0x72736d00,0x6b(%esi),%ebp
     aa5:	5f                   	pop    %edi
     aa6:	68 69 00 73 74       	push   $0x74730069
     aab:	61                   	popa
     aac:	63 6b 6d             	arpl   %ebp,0x6d(%ebx)
     aaf:	61                   	popa
     ab0:	72 6b                	jb     b1d <SEG_KERN_CS+0xb15>
     ab2:	00 6b 61             	add    %ch,0x61(%ebx)
     ab5:	72 63                	jb     b1a <SEG_KERN_CS+0xb12>
     ab7:	68 5f 78 38 36       	push   $0x3638785f
     abc:	5f                   	pop    %edi
     abd:	74 73                	je     b32 <SEG_KERN_CS+0xb2a>
     abf:	73 5f                	jae    b20 <SEG_KERN_CS+0xb18>
     ac1:	74 00                	je     ac3 <SEG_KERN_CS+0xabb>
     ac3:	5f                   	pop    %edi
     ac4:	6b 61 72 63          	imul   $0x63,0x72(%ecx),%esp
     ac8:	68 5f 74 73 73       	push   $0x7373745f
     acd:	30 5f 73             	xor    %bl,0x73(%edi)
     ad0:	74 61                	je     b33 <SEG_KERN_CS+0xb2b>
     ad2:	63 6b 00             	arpl   %ebp,0x0(%ebx)
     ad5:	6b 61 72 63          	imul   $0x63,0x72(%ecx),%esp
     ad9:	68 5f 74 73 73       	push   $0x7373745f
     ade:	5f                   	pop    %edi
     adf:	74 00                	je     ae1 <SEG_KERN_CS+0xad9>
     ae1:	6b 61 72 63          	imul   $0x63,0x72(%ecx),%esp
     ae5:	68 5f 78 38 36       	push   $0x3638785f
     aea:	5f                   	pop    %edi
     aeb:	73 74                	jae    b61 <SEG_KERN_CS+0xb59>
     aed:	61                   	popa
     aee:	63 6b 6d             	arpl   %ebp,0x6d(%ebx)
     af1:	61                   	popa
     af2:	72 6b                	jb     b5f <SEG_KERN_CS+0xb57>
     af4:	5f                   	pop    %edi
     af5:	74 00                	je     af7 <SEG_KERN_CS+0xaef>
     af7:	73 79                	jae    b72 <SEG_KERN_CS+0xb6a>
     af9:	73 63                	jae    b5e <SEG_KERN_CS+0xb56>
     afb:	61                   	popa
     afc:	6c                   	insb   (%dx),%es:(%edi)
     afd:	6c                   	insb   (%dx),%es:(%edi)
     afe:	5f                   	pop    %edi
     aff:	69 6d 70 6c 00 6d 73 	imul   $0x736d006c,0x70(%ebp),%ebp
     b06:	72 5f                	jb     b67 <SEG_KERN_CS+0xb5f>
     b08:	6c                   	insb   (%dx),%es:(%edi)
     b09:	6f                   	outsl  %ds:(%esi),(%dx)
     b0a:	00 70 72             	add    %dh,0x72(%eax)
     b0d:	6f                   	outsl  %ds:(%esi),(%dx)
     b0e:	63 00                	arpl   %eax,(%eax)
     b10:	77 72                	ja     b84 <SEG_KERN_CS+0xb7c>
     b12:	69 74 65 5f 6d 73 72 	imul   $0x72736d,0x5f(%ebp,%eiz,2),%esi
     b19:	00 
     b1a:	73 74                	jae    b90 <SEG_KERN_CS+0xb88>
     b1c:	61                   	popa
     b1d:	63 6b 5f             	arpl   %ebp,0x5f(%ebx)
     b20:	74 6f                	je     b91 <SEG_KERN_CS+0xb89>
     b22:	70 00                	jo     b24 <SEG_KERN_CS+0xb1c>
     b24:	55                   	push   %ebp
     b25:	53                   	push   %ebx
     b26:	45                   	inc    %ebp
     b27:	5f                   	pop    %edi
     b28:	53                   	push   %ebx
     b29:	59                   	pop    %ecx
     b2a:	53                   	push   %ebx
     b2b:	43                   	inc    %ebx
     b2c:	41                   	inc    %ecx
     b2d:	4c                   	dec    %esp
     b2e:	4c                   	dec    %esp
     b2f:	00 6b 61             	add    %ch,0x61(%ebx)
     b32:	72 63                	jb     b97 <SEG_KERN_CS+0xb8f>
     b34:	68 5f 67 65 74       	push   $0x7465675f
     b39:	5f                   	pop    %edi
     b3a:	74 73                	je     baf <SEG_KERN_CS+0xba7>
     b3c:	73 00                	jae    b3e <SEG_KERN_CS+0xb36>
     b3e:	55                   	push   %ebp
     b3f:	53                   	push   %ebx
     b40:	45                   	inc    %ebp
     b41:	5f                   	pop    %edi
     b42:	53                   	push   %ebx
     b43:	59                   	pop    %ecx
     b44:	53                   	push   %ebx
     b45:	45                   	inc    %ebp
     b46:	4e                   	dec    %esi
     b47:	54                   	push   %esp
     b48:	45                   	inc    %ebp
     b49:	52                   	push   %edx
     b4a:	00 6b 61             	add    %ch,0x61(%ebx)
     b4d:	72 63                	jb     bb2 <SEG_KERN_CS+0xbaa>
     b4f:	68 5f 78 38 36       	push   $0x3638785f
     b54:	5f                   	pop    %edi
     b55:	61                   	popa
     b56:	63 70 69             	arpl   %esi,0x69(%eax)
     b59:	5f                   	pop    %edi
     b5a:	66 61                	popaw
     b5c:	64 74 00             	fs je  b5f <SEG_KERN_CS+0xb57>
     b5f:	78 70                	js     bd1 <SEG_KERN_CS+0xbc9>
     b61:	6d                   	insl   (%dx),%es:(%edi)
     b62:	31 62 5f             	xor    %esp,0x5f(%edx)
     b65:	65 76 74             	gs jbe bdc <SEG_KERN_CS+0xbd4>
     b68:	5f                   	pop    %edi
     b69:	62 6c 6b 00          	bound  %ebp,0x0(%ebx,%ebp,2)
     b6d:	6b 61 72 63          	imul   $0x63,0x72(%ecx),%esp
     b71:	68 5f 78 38 36       	push   $0x3638785f
     b76:	5f                   	pop    %edi
     b77:	61                   	popa
     b78:	63 70 69             	arpl   %esi,0x69(%eax)
     b7b:	5f                   	pop    %edi
     b7c:	72 73                	jb     bf1 <SEG_KERN_CS+0xbe9>
     b7e:	64 70 00             	fs jo  b81 <SEG_KERN_CS+0xb79>
     b81:	6b 61 72 63          	imul   $0x63,0x72(%ecx),%esp
     b85:	68 5f 61 63 70       	push   $0x7063615f
     b8a:	69 5f 70 72 65 70 61 	imul   $0x61706572,0x70(%edi),%ebx
     b91:	72 65                	jb     bf8 <SEG_KERN_CS+0xbf0>
     b93:	5f                   	pop    %edi
     b94:	70 6f                	jo     c05 <SEG_KERN_CS+0xbfd>
     b96:	77 65                	ja     bfd <SEG_KERN_CS+0xbf5>
     b98:	72 6f                	jb     c09 <SEG_KERN_CS+0xc01>
     b9a:	66 66 00 76 65       	data16 data16 add %dh,0x65(%esi)
     b9f:	72 73                	jb     c14 <SEG_KERN_CS+0xc0c>
     ba1:	69 6f 6e 00 6b 61 72 	imul   $0x72616b00,0x6e(%edi),%ebp
     ba8:	63 68 5f             	arpl   %ebp,0x5f(%eax)
     bab:	78 38                	js     be5 <SEG_KERN_CS+0xbdd>
     bad:	36 5f                	ss pop %edi
     baf:	61                   	popa
     bb0:	63 70 69             	arpl   %esi,0x69(%eax)
     bb3:	5f                   	pop    %edi
     bb4:	67 61                	addr16 popa
     bb6:	64 64 72 00          	fs fs jb bba <SEG_KERN_CS+0xbb2>
     bba:	6b 61 72 63          	imul   $0x63,0x72(%ecx),%esp
     bbe:	68 5f 61 63 70       	push   $0x7063615f
     bc3:	69 5f 63 68 65 63 6b 	imul   $0x6b636568,0x63(%edi),%ebx
     bca:	5f                   	pop    %edi
     bcb:	72 73                	jb     c40 <SEG_KERN_CS+0xc38>
     bcd:	64 74 00             	fs je  bd0 <SEG_KERN_CS+0xbc8>
     bd0:	6b 61 72 63          	imul   $0x63,0x72(%ecx),%esp
     bd4:	68 5f 61 63 70       	push   $0x7063615f
     bd9:	69 5f 66 69 6e 64 5f 	imul   $0x5f646e69,0x66(%edi),%ebx
     be0:	6d                   	insl   (%dx),%es:(%edi)
     be1:	61                   	popa
     be2:	64 74 00             	fs je  be5 <SEG_KERN_CS+0xbdd>
     be5:	6b 6d 65 6d          	imul   $0x6d,0x65(%ebp),%ebp
     be9:	63 6d 70             	arpl   %ebp,0x70(%ebp)
     bec:	00 70 5f             	add    %dh,0x5f(%eax)
     bef:	6c                   	insb   (%dx),%es:(%edi)
     bf0:	76 6c                	jbe    c5e <SEG_KERN_CS+0xc56>
     bf2:	32 5f 6c             	xor    0x6c(%edi),%bl
     bf5:	61                   	popa
     bf6:	74 00                	je     bf8 <SEG_KERN_CS+0xbf0>
     bf8:	72 65                	jb     c5f <SEG_KERN_CS+0xc57>
     bfa:	73 76                	jae    c72 <SEG_KERN_CS+0xc6a>
     bfc:	31 00                	xor    %eax,(%eax)
     bfe:	63 73 74             	arpl   %esi,0x74(%ebx)
     c01:	5f                   	pop    %edi
     c02:	63 6e 74             	arpl   %ebp,0x74(%esi)
     c05:	00 65 6e             	add    %ah,0x6e(%ebp)
     c08:	74 72                	je     c7c <SEG_KERN_CS+0xc74>
     c0a:	79 5f                	jns    c6b <SEG_KERN_CS+0xc63>
     c0c:	70 74                	jo     c82 <SEG_KERN_CS+0xc7a>
     c0e:	72 00                	jb     c10 <SEG_KERN_CS+0xc08>
     c10:	6b 61 72 63          	imul   $0x63,0x72(%ecx),%esp
     c14:	68 5f 61 63 70       	push   $0x7063615f
     c19:	69 5f 6d 61 64 74 5f 	imul   $0x5f746461,0x6d(%edi),%ebx
     c20:	69 74 65 72 61 74 65 	imul   $0x657461,0x72(%ebp,%eiz,2),%esi
     c27:	00 
     c28:	73 63                	jae    c8d <SEG_KERN_CS+0xc85>
     c2a:	69 5f 69 6e 74 00 63 	imul   $0x6300746e,0x69(%edi),%ebx
     c31:	70 75                	jo     ca8 <SEG_KERN_CS+0xca0>
     c33:	5f                   	pop    %edi
     c34:	6f                   	outsl  %ds:(%esi),(%dx)
     c35:	75 74                	jne    cab <SEG_KERN_CS+0xca3>
     c37:	31 36                	xor    %esi,(%esi)
     c39:	00 73 6d             	add    %dh,0x6d(%ebx)
     c3c:	69 5f 63 6d 64 00 6b 	imul   $0x6b00646d,0x63(%edi),%ebx
     c43:	61                   	popa
     c44:	72 63                	jb     ca9 <SEG_KERN_CS+0xca1>
     c46:	68 5f 61 63 70       	push   $0x7063615f
     c4b:	69 5f 6d 61 64 74 5f 	imul   $0x5f746461,0x6d(%edi),%ebx
     c52:	6e                   	outsb  %ds:(%esi),(%dx)
     c53:	65 78 74             	gs js  cca <SEG_KERN_CS+0xcc2>
     c56:	00 72 65             	add    %dh,0x65(%edx)
     c59:	74 76                	je     cd1 <SEG_KERN_CS+0xcc9>
     c5b:	61                   	popa
     c5c:	6c                   	insb   (%dx),%es:(%edi)
     c5d:	00 6b 61             	add    %ch,0x61(%ebx)
     c60:	72 63                	jb     cc5 <SEG_KERN_CS+0xcbd>
     c62:	68 5f 78 38 36       	push   $0x3638785f
     c67:	5f                   	pop    %edi
     c68:	61                   	popa
     c69:	63 70 69             	arpl   %esi,0x69(%eax)
     c6c:	5f                   	pop    %edi
     c6d:	6d                   	insl   (%dx),%es:(%edi)
     c6e:	61                   	popa
     c6f:	64 74 5f             	fs je  cd1 <SEG_KERN_CS+0xcc9>
     c72:	69 74 65 6d 00 65 6e 	imul   $0x646e6500,0x6d(%ebp,%eiz,2),%esi
     c79:	64 
     c7a:	5f                   	pop    %edi
     c7b:	72 00                	jb     c7d <SEG_KERN_CS+0xc75>
     c7d:	6b 61 72 63          	imul   $0x63,0x72(%ecx),%esp
     c81:	68 5f 61 63 70       	push   $0x7063615f
     c86:	69 5f 66 69 6e 64 5f 	imul   $0x5f646e69,0x66(%edi),%ebx
     c8d:	65 6e                	outsb  %gs:(%esi),(%dx)
     c8f:	74 72                	je     d03 <SEG_KERN_CS+0xcfb>
     c91:	79 00                	jns    c93 <SEG_KERN_CS+0xc8b>
     c93:	73 74                	jae    d09 <SEG_KERN_CS+0xd01>
     c95:	61                   	popa
     c96:	72 74                	jb     d0c <SEG_KERN_CS+0xd04>
     c98:	00 6b 61             	add    %ch,0x61(%ebx)
     c9b:	72 63                	jb     d00 <SEG_KERN_CS+0xcf8>
     c9d:	68 5f 61 63 70       	push   $0x7063615f
     ca2:	69 5f 6d 61 64 74 5f 	imul   $0x5f746461,0x6d(%edi),%ebx
     ca9:	69 74 65 72 5f 74 00 	imul   $0x6b00745f,0x72(%ebp,%eiz,2),%esi
     cb0:	6b 
     cb1:	61                   	popa
     cb2:	72 63                	jb     d17 <SEG_KERN_CS+0xd0f>
     cb4:	68 5f 61 63 70       	push   $0x7063615f
     cb9:	69 5f 66 61 64 74 5f 	imul   $0x5f746461,0x66(%edi),%ebx
     cc0:	74 00                	je     cc2 <SEG_KERN_CS+0xcba>
     cc2:	78 67                	js     d2b <SEG_KERN_CS+0xd23>
     cc4:	70 65                	jo     d2b <SEG_KERN_CS+0xd23>
     cc6:	30 5f 62             	xor    %bl,0x62(%edi)
     cc9:	6c                   	insb   (%dx),%es:(%edi)
     cca:	6b 00 72             	imul   $0x72,(%eax),%eax
     ccd:	65 73 65             	gs jae d35 <SEG_KERN_CS+0xd2d>
     cd0:	74 5f                	je     d31 <SEG_KERN_CS+0xd29>
     cd2:	72 65                	jb     d39 <SEG_KERN_CS+0xd31>
     cd4:	67 00 6b 61          	add    %ch,0x61(%bp,%di)
     cd8:	72 63                	jb     d3d <SEG_KERN_CS+0xd35>
     cda:	68 5f 78 38 36       	push   $0x3638785f
     cdf:	5f                   	pop    %edi
     ce0:	61                   	popa
     ce1:	63 70 69             	arpl   %esi,0x69(%eax)
     ce4:	5f                   	pop    %edi
     ce5:	73 64                	jae    d4b <SEG_KERN_CS+0xd43>
     ce7:	74 00                	je     ce9 <SEG_KERN_CS+0xce1>
     ce9:	67 70 65             	addr16 jo d51 <SEG_KERN_CS+0xd49>
     cec:	31 5f 62             	xor    %ebx,0x62(%edi)
     cef:	61                   	popa
     cf0:	73 65                	jae    d57 <SEG_KERN_CS+0xd4f>
     cf2:	00 70 6d             	add    %dh,0x6d(%eax)
     cf5:	31 5f 65             	xor    %ebx,0x65(%edi)
     cf8:	76 74                	jbe    d6e <SEG_KERN_CS+0xd66>
     cfa:	5f                   	pop    %edi
     cfb:	6c                   	insb   (%dx),%es:(%edi)
     cfc:	65 6e                	outsb  %gs:(%esi),(%dx)
     cfe:	00 6b 61             	add    %ch,0x61(%ebx)
     d01:	72 63                	jb     d66 <SEG_KERN_CS+0xd5e>
     d03:	68 5f 61 63 70       	push   $0x7063615f
     d08:	69 5f 67 61 64 64 72 	imul   $0x72646461,0x67(%edi),%ebx
     d0f:	5f                   	pop    %edi
     d10:	74 00                	je     d12 <SEG_KERN_CS+0xd0a>
     d12:	63 74 6f 72          	arpl   %esi,0x72(%edi,%ebp,2)
     d16:	5f                   	pop    %edi
     d17:	69 64 00 61 63 70 69 	imul   $0x5f697063,0x61(%eax,%eax,1),%esp
     d1e:	5f 
     d1f:	64 69 73 61 62 6c 65 	imul   $0x656c62,%fs:0x61(%ebx),%esi
     d26:	00 
     d27:	6b 61 72 63          	imul   $0x63,0x72(%ecx),%esp
     d2b:	68 5f 61 63 70       	push   $0x7063615f
     d30:	69 5f 73 64 74 5f 74 	imul   $0x745f7464,0x73(%edi),%ebx
     d37:	00 61 63             	add    %ah,0x63(%ecx)
     d3a:	63 65 73             	arpl   %esp,0x73(%ebp)
     d3d:	73 5f                	jae    d9e <SEG_KERN_CS+0xd96>
     d3f:	73 69                	jae    daa <SEG_KERN_CS+0xda2>
     d41:	7a 65                	jp     da8 <SEG_KERN_CS+0xda0>
     d43:	00 72 65             	add    %dh,0x65(%edx)
     d46:	67 5f                	addr16 pop %edi
     d48:	62 69 74             	bound  %ebp,0x74(%ecx)
     d4b:	5f                   	pop    %edi
     d4c:	77 69                	ja     db7 <SEG_KERN_CS+0xdaf>
     d4e:	64 74 68             	fs je  db9 <SEG_KERN_CS+0xdb1>
     d51:	00 6b 61             	add    %ch,0x61(%ebx)
     d54:	72 63                	jb     db9 <SEG_KERN_CS+0xdb1>
     d56:	68 5f 61 63 70       	push   $0x7063615f
     d5b:	69 5f 6d 61 64 74 5f 	imul   $0x5f746461,0x6d(%edi),%ebx
     d62:	74 00                	je     d64 <SEG_KERN_CS+0xd5c>
     d64:	72 65                	jb     dcb <SEG_KERN_CS+0xdc3>
     d66:	67 5f                	addr16 pop %edi
     d68:	62 69 74             	bound  %ebp,0x74(%ecx)
     d6b:	5f                   	pop    %edi
     d6c:	6f                   	outsl  %ds:(%esi),(%dx)
     d6d:	66 66 73 65          	data16 data16 jae dd6 <SEG_KERN_CS+0xdce>
     d71:	74 00                	je     d73 <SEG_KERN_CS+0xd6b>
     d73:	78 64                	js     dd9 <SEG_KERN_CS+0xdd1>
     d75:	73 64                	jae    ddb <SEG_KERN_CS+0xdd3>
     d77:	74 00                	je     d79 <SEG_KERN_CS+0xd71>
     d79:	6b 61 72 63          	imul   $0x63,0x72(%ecx),%esp
     d7d:	68 5f 61 63 70       	push   $0x7063615f
     d82:	69 5f 6d 61 64 74 5f 	imul   $0x5f746461,0x6d(%edi),%ebx
     d89:	69 74 65 6d 5f 74 00 	imul   $0x6700745f,0x6d(%ebp,%eiz,2),%esi
     d90:	67 
     d91:	70 65                	jo     df8 <SEG_KERN_CS+0xdf0>
     d93:	30 5f 62             	xor    %bl,0x62(%edi)
     d96:	6c                   	insb   (%dx),%es:(%edi)
     d97:	6b 5f 6c 65          	imul   $0x65,0x6c(%edi),%ebx
     d9b:	6e                   	outsb  %ds:(%esi),(%dx)
     d9c:	00 6d 6f             	add    %ch,0x6f(%ebp)
     d9f:	6e                   	outsb  %ds:(%esi),(%dx)
     da0:	5f                   	pop    %edi
     da1:	61                   	popa
     da2:	6c                   	insb   (%dx),%es:(%edi)
     da3:	72 6d                	jb     e12 <SEG_KERN_CS+0xe0a>
     da5:	00 78 70             	add    %bh,0x70(%eax)
     da8:	6d                   	insl   (%dx),%es:(%edi)
     da9:	31 61 5f             	xor    %esp,0x5f(%ecx)
     dac:	63 6e 74             	arpl   %ebp,0x74(%esi)
     daf:	5f                   	pop    %edi
     db0:	62 6c 6b 00          	bound  %ebp,0x0(%ebx,%ebp,2)
     db4:	61                   	popa
     db5:	63 70 69             	arpl   %esi,0x69(%eax)
     db8:	5f                   	pop    %edi
     db9:	72 78                	jb     e33 <SEG_KERN_CS+0xe2b>
     dbb:	73 64                	jae    e21 <SEG_KERN_CS+0xe19>
     dbd:	74 00                	je     dbf <SEG_KERN_CS+0xdb7>
     dbf:	67 70 65             	addr16 jo e27 <SEG_KERN_CS+0xe1f>
     dc2:	31 5f 62             	xor    %ebx,0x62(%edi)
     dc5:	6c                   	insb   (%dx),%es:(%edi)
     dc6:	6b 5f 6c 65          	imul   $0x65,0x6c(%edi),%ebx
     dca:	6e                   	outsb  %ds:(%esi),(%dx)
     dcb:	00 70 73             	add    %dh,0x73(%eax)
     dce:	74 61                	je     e31 <SEG_KERN_CS+0xe29>
     dd0:	74 65                	je     e37 <SEG_KERN_CS+0xe2f>
     dd2:	5f                   	pop    %edi
     dd3:	63 6e 74             	arpl   %ebp,0x74(%esi)
     dd6:	00 78 70             	add    %bh,0x70(%eax)
     dd9:	6d                   	insl   (%dx),%es:(%edi)
     dda:	31 62 5f             	xor    %esp,0x5f(%edx)
     ddd:	63 6e 74             	arpl   %ebp,0x74(%esi)
     de0:	5f                   	pop    %edi
     de1:	62 6c 6b 00          	bound  %ebp,0x0(%ebx,%ebp,2)
     de5:	63 75 72             	arpl   %esi,0x72(%ebp)
     de8:	73 6f                	jae    e59 <SEG_KERN_CS+0xe51>
     dea:	72 00                	jb     dec <SEG_KERN_CS+0xde4>
     dec:	78 70                	js     e5e <SEG_KERN_CS+0xe56>
     dee:	6d                   	insl   (%dx),%es:(%edi)
     def:	32 5f 63             	xor    0x63(%edi),%bl
     df2:	6e                   	outsb  %ds:(%esi),(%dx)
     df3:	74 5f                	je     e54 <SEG_KERN_CS+0xe4c>
     df5:	62 6c 6b 00          	bound  %ebp,0x0(%ebx,%ebp,2)
     df9:	63 65 6e             	arpl   %esp,0x6e(%ebp)
     dfc:	74 75                	je     e73 <SEG_KERN_CS+0xe6b>
     dfe:	72 79                	jb     e79 <SEG_KERN_CS+0xe71>
     e00:	00 61 63             	add    %ah,0x63(%ecx)
     e03:	70 69                	jo     e6e <SEG_KERN_CS+0xe66>
     e05:	5f                   	pop    %edi
     e06:	73 63                	jae    e6b <SEG_KERN_CS+0xe63>
     e08:	61                   	popa
     e09:	6c                   	insb   (%dx),%es:(%edi)
     e0a:	65 00 6b 61          	add    %ch,%gs:0x61(%ebx)
     e0e:	72 63                	jb     e73 <SEG_KERN_CS+0xe6b>
     e10:	68 5f 61 63 70       	push   $0x7063615f
     e15:	69 5f 73 75 70 70 6f 	imul   $0x6f707075,0x73(%edi),%ebx
     e1c:	72 74                	jb     e92 <SEG_KERN_CS+0xe8a>
     e1e:	65 64 00 65 62       	gs add %ah,%fs:0x62(%ebp)
     e23:	64 61                	fs popa
     e25:	00 6b 61             	add    %ch,0x61(%ebx)
     e28:	72 63                	jb     e8d <SEG_KERN_CS+0xe85>
     e2a:	68 5f 61 63 70       	push   $0x7063615f
     e2f:	69 5f 72 73 64 70 5f 	imul   $0x5f706473,0x72(%edi),%ebx
     e36:	74 00                	je     e38 <SEG_KERN_CS+0xe30>
     e38:	61                   	popa
     e39:	63 70 69             	arpl   %esi,0x69(%eax)
     e3c:	5f                   	pop    %edi
     e3d:	65 6e                	outsb  %gs:(%esi),(%dx)
     e3f:	61                   	popa
     e40:	62 6c 65 00          	bound  %ebp,0x0(%ebp,%eiz,2)
     e44:	78 67                	js     ead <SEG_KERN_CS+0xea5>
     e46:	70 65                	jo     ead <SEG_KERN_CS+0xea5>
     e48:	31 5f 62             	xor    %ebx,0x62(%edi)
     e4b:	6c                   	insb   (%dx),%es:(%edi)
     e4c:	6b 00 6b             	imul   $0x6b,(%eax),%eax
     e4f:	61                   	popa
     e50:	72 63                	jb     eb5 <SEG_KERN_CS+0xead>
     e52:	68 5f 61 63 70       	push   $0x7063615f
     e57:	69 5f 66 69 6e 64 5f 	imul   $0x5f646e69,0x66(%edi),%ebx
     e5e:	72 73                	jb     ed3 <SEG_KERN_CS+0xecb>
     e60:	64 70 5f             	fs jo  ec2 <SEG_KERN_CS+0xeba>
     e63:	72 00                	jb     e65 <SEG_KERN_CS+0xe5d>
     e65:	6f                   	outsl  %ds:(%esi),(%dx)
     e66:	65 6d                	gs insl (%dx),%es:(%edi)
     e68:	5f                   	pop    %edi
     e69:	72 65                	jb     ed0 <SEG_KERN_CS+0xec8>
     e6b:	76 00                	jbe    e6d <SEG_KERN_CS+0xe65>
     e6d:	65 6e                	outsb  %gs:(%esi),(%dx)
     e6f:	74 72                	je     ee3 <SEG_KERN_CS+0xedb>
     e71:	79 5f                	jns    ed2 <SEG_KERN_CS+0xeca>
     e73:	62 65 67             	bound  %esp,0x67(%ebp)
     e76:	69 6e 00 64 61 79 5f 	imul   $0x5f796164,0x0(%esi),%ebp
     e7d:	61                   	popa
     e7e:	6c                   	insb   (%dx),%es:(%edi)
     e7f:	72 6d                	jb     eee <SEG_KERN_CS+0xee6>
     e81:	00 6b 61             	add    %ch,0x61(%ebx)
     e84:	72 63                	jb     ee9 <SEG_KERN_CS+0xee1>
     e86:	68 5f 61 63 70       	push   $0x7063615f
     e8b:	69 5f 63 68 65 63 6b 	imul   $0x6b636568,0x63(%edi),%ebx
     e92:	73 75                	jae    f09 <SEG_KERN_CS+0xf01>
     e94:	6d                   	insl   (%dx),%es:(%edi)
     e95:	00 70 6d             	add    %dh,0x6d(%eax)
     e98:	31 5f 63             	xor    %ebx,0x63(%edi)
     e9b:	6e                   	outsb  %ds:(%esi),(%dx)
     e9c:	74 5f                	je     efd <SEG_KERN_CS+0xef5>
     e9e:	6c                   	insb   (%dx),%es:(%edi)
     e9f:	65 6e                	outsb  %gs:(%esi),(%dx)
     ea1:	00 61 63             	add    %ah,0x63(%ecx)
     ea4:	70 69                	jo     f0f <SEG_KERN_CS+0xf07>
     ea6:	5f                   	pop    %edi
     ea7:	70 6f                	jo     f18 <SEG_KERN_CS+0xf10>
     ea9:	66 66 5f             	data16 pop %di
     eac:	74 79                	je     f27 <SEG_KERN_CS+0xf1f>
     eae:	70 62                	jo     f12 <SEG_KERN_CS+0xf0a>
     eb0:	00 63 74             	add    %ah,0x74(%ebx)
     eb3:	6f                   	outsl  %ds:(%esi),(%dx)
     eb4:	72 5f                	jb     f15 <SEG_KERN_CS+0xf0d>
     eb6:	72 65                	jb     f1d <SEG_KERN_CS+0xf15>
     eb8:	76 00                	jbe    eba <SEG_KERN_CS+0xeb2>
     eba:	64 75 74             	fs jne f31 <SEG_KERN_CS+0xf29>
     ebd:	79 5f                	jns    f1e <SEG_KERN_CS+0xf16>
     ebf:	77 69                	ja     f2a <SEG_KERN_CS+0xf22>
     ec1:	64 74 68             	fs je  f2c <SEG_KERN_CS+0xf24>
     ec4:	00 73 34             	add    %dh,0x34(%ebx)
     ec7:	62 69 6f             	bound  %ebp,0x6f(%ecx)
     eca:	73 5f                	jae    f2b <SEG_KERN_CS+0xf23>
     ecc:	72 65                	jb     f33 <SEG_KERN_CS+0xf2b>
     ece:	71 00                	jno    ed0 <SEG_KERN_CS+0xec8>
     ed0:	70 6d                	jo     f3f <SEG_KERN_CS+0xf37>
     ed2:	32 5f 63             	xor    0x63(%edi),%bl
     ed5:	6e                   	outsb  %ds:(%esi),(%dx)
     ed6:	74 5f                	je     f37 <SEG_KERN_CS+0xf2f>
     ed8:	6c                   	insb   (%dx),%es:(%edi)
     ed9:	65 6e                	outsb  %gs:(%esi),(%dx)
     edb:	00 78 66             	add    %bh,0x66(%eax)
     ede:	61                   	popa
     edf:	63 73 00             	arpl   %esi,0x0(%ebx)
     ee2:	61                   	popa
     ee3:	63 70 69             	arpl   %esi,0x69(%eax)
     ee6:	5f                   	pop    %edi
     ee7:	70 6f                	jo     f58 <SEG_KERN_CS+0xf50>
     ee9:	66 66 5f             	data16 pop %di
     eec:	74 79                	je     f67 <SEG_KERN_CS+0xf5f>
     eee:	70 61                	jo     f51 <SEG_KERN_CS+0xf49>
     ef0:	00 73 69             	add    %dh,0x69(%ebx)
     ef3:	67 34 00             	addr16 xor $0x0,%al
     ef6:	6b 61 72 63          	imul   $0x63,0x72(%ecx),%esp
     efa:	68 5f 61 63 70       	push   $0x7063615f
     eff:	69 5f 74 65 73 74 00 	imul   $0x747365,0x74(%edi),%ebx
     f06:	6b 61 72 63          	imul   $0x63,0x72(%ecx),%esp
     f0a:	68 5f 61 63 70       	push   $0x7063615f
     f0f:	69 5f 66 69 6e 64 5f 	imul   $0x5f646e69,0x66(%edi),%ebx
     f16:	66 61                	popaw
     f18:	64 74 00             	fs je  f1b <SEG_KERN_CS+0xf13>
     f1b:	6b 61 72 63          	imul   $0x63,0x72(%ecx),%esp
     f1f:	68 5f 61 63 70       	push   $0x7063615f
     f24:	69 5f 66 69 6e 64 5f 	imul   $0x5f646e69,0x66(%edi),%ebx
     f2b:	72 73                	jb     fa0 <SEG_KERN_CS+0xf98>
     f2d:	64 70 00             	fs jo  f30 <SEG_KERN_CS+0xf28>
     f30:	61                   	popa
     f31:	63 70 69             	arpl   %esi,0x69(%eax)
     f34:	5f                   	pop    %edi
     f35:	70 6d                	jo     fa4 <SEG_KERN_CS+0xf9c>
     f37:	31 62 5f             	xor    %esp,0x5f(%edx)
     f3a:	63 6e 74             	arpl   %ebp,0x74(%esi)
     f3d:	5f                   	pop    %edi
     f3e:	62 6c 6b 00          	bound  %ebp,0x0(%ebx,%ebp,2)
     f42:	78 70                	js     fb4 <SEG_KERN_CS+0xfac>
     f44:	6d                   	insl   (%dx),%es:(%edi)
     f45:	5f                   	pop    %edi
     f46:	74 6d                	je     fb5 <SEG_KERN_CS+0xfad>
     f48:	72 5f                	jb     fa9 <SEG_KERN_CS+0xfa1>
     f4a:	62 6c 6b 00          	bound  %ebp,0x0(%ebx,%ebp,2)
     f4e:	63 6f 75             	arpl   %ebp,0x75(%edi)
     f51:	6e                   	outsb  %ds:(%esi),(%dx)
     f52:	74 00                	je     f54 <SEG_KERN_CS+0xf4c>
     f54:	6b 61 72 63          	imul   $0x63,0x72(%ecx),%esp
     f58:	68 5f 78 38 36       	push   $0x3638785f
     f5d:	5f                   	pop    %edi
     f5e:	61                   	popa
     f5f:	63 70 69             	arpl   %esi,0x69(%eax)
     f62:	5f                   	pop    %edi
     f63:	6d                   	insl   (%dx),%es:(%edi)
     f64:	61                   	popa
     f65:	64 74 00             	fs je  f68 <SEG_KERN_CS+0xf60>
     f68:	64 75 74             	fs jne fdf <SEG_KERN_CS+0xfd7>
     f6b:	79 5f                	jns    fcc <SEG_KERN_CS+0xfc4>
     f6d:	6f                   	outsl  %ds:(%esi),(%dx)
     f6e:	66 66 73 65          	data16 data16 jae fd7 <SEG_KERN_CS+0xfcf>
     f72:	74 00                	je     f74 <SEG_KERN_CS+0xf6c>
     f74:	72 65                	jb     fdb <SEG_KERN_CS+0xfd3>
     f76:	73 76                	jae    fee <SEG_KERN_CS+0xfe6>
     f78:	32 00                	xor    (%eax),%al
     f7a:	6b 61 72 63          	imul   $0x63,0x72(%ecx),%esp
     f7e:	68 5f 61 63 70       	push   $0x7063615f
     f83:	69 5f 66 69 6e 64 5f 	imul   $0x5f646e69,0x66(%edi),%ebx
     f8a:	65 6e                	outsb  %gs:(%esi),(%dx)
     f8c:	74 72                	je     1000 <SEG_KERN_CS+0xff8>
     f8e:	79 5f                	jns    fef <SEG_KERN_CS+0xfe7>
     f90:	72 00                	jb     f92 <SEG_KERN_CS+0xf8a>
     f92:	69 74 65 72 00 70 5f 	imul   $0x6c5f7000,0x72(%ebp,%eiz,2),%esi
     f99:	6c 
     f9a:	76 6c                	jbe    1008 <SEG_KERN_CS+0x1000>
     f9c:	33 5f 6c             	xor    0x6c(%edi),%ebx
     f9f:	61                   	popa
     fa0:	74 00                	je     fa2 <SEG_KERN_CS+0xf9a>
     fa2:	66 6c                	data16 insb (%dx),%es:(%edi)
     fa4:	75 73                	jne    1019 <SEG_KERN_CS+0x1011>
     fa6:	68 5f 73 69 7a       	push   $0x7a69735f
     fab:	65 00 6f 65          	add    %ch,%gs:0x65(%edi)
     faf:	6d                   	insl   (%dx),%es:(%edi)
     fb0:	74 69                	je     101b <SEG_KERN_CS+0x1013>
     fb2:	00 61 63             	add    %ah,0x63(%ecx)
     fb5:	70 69                	jo     1020 <SEG_KERN_CS+0x1018>
     fb7:	5f                   	pop    %edi
     fb8:	70 6d                	jo     1027 <SEG_KERN_CS+0x101f>
     fba:	31 61 5f             	xor    %esp,0x5f(%ecx)
     fbd:	63 6e 74             	arpl   %ebp,0x74(%esi)
     fc0:	5f                   	pop    %edi
     fc1:	62 6c 6b 00          	bound  %ebp,0x0(%ebx,%ebp,2)
     fc5:	61                   	popa
     fc6:	64 64 72 5f          	fs fs jb 1029 <SEG_KERN_CS+0x1021>
     fca:	73 70                	jae    103c <SEG_KERN_CS+0x1034>
     fcc:	61                   	popa
     fcd:	63 65 5f             	arpl   %esp,0x5f(%ebp)
     fd0:	69 64 00 66 6c 75 73 	imul   $0x6873756c,0x66(%eax,%eax,1),%esp
     fd7:	68 
     fd8:	5f                   	pop    %edi
     fd9:	73 74                	jae    104f <SEG_KERN_CS+0x1047>
     fdb:	72 69                	jb     1046 <SEG_KERN_CS+0x103e>
     fdd:	64 65 00 69 61       	fs add %ch,%gs:0x61(%ecx)
     fe2:	70 63                	jo     1047 <SEG_KERN_CS+0x103f>
     fe4:	5f                   	pop    %edi
     fe5:	62 6f 6f             	bound  %ebp,0x6f(%edi)
     fe8:	74 5f                	je     1049 <SEG_KERN_CS+0x1041>
     fea:	61                   	popa
     feb:	72 63                	jb     1050 <SEG_KERN_CS+0x1048>
     fed:	68 00 70 6d 5f       	push   $0x5f6d7000
     ff2:	74 6d                	je     1061 <SEG_KERN_CS+0x1059>
     ff4:	72 5f                	jb     1055 <SEG_KERN_CS+0x104d>
     ff6:	6c                   	insb   (%dx),%es:(%edi)
     ff7:	65 6e                	outsb  %gs:(%esi),(%dx)
     ff9:	00 78 70             	add    %bh,0x70(%eax)
     ffc:	6d                   	insl   (%dx),%es:(%edi)
     ffd:	31 61 5f             	xor    %esp,0x5f(%ecx)
    1000:	65 76 74             	gs jbe 1077 <SEG_KERN_CS+0x106f>
    1003:	5f                   	pop    %edi
    1004:	62 6c 6b 00          	bound  %ebp,0x0(%ebx,%ebp,2)
    1008:	72 65                	jb     106f <SEG_KERN_CS+0x1067>
    100a:	73 65                	jae    1071 <SEG_KERN_CS+0x1069>
    100c:	74 5f                	je     106d <SEG_KERN_CS+0x1065>
    100e:	76 61                	jbe    1071 <SEG_KERN_CS+0x1069>
    1010:	6c                   	insb   (%dx),%es:(%edi)
    1011:	75 65                	jne    1078 <SEG_KERN_CS+0x1070>
    1013:	00 75 38             	add    %dh,0x38(%ebp)
    1016:	5f                   	pop    %edi
    1017:	73 72                	jae    108b <SEG_KERN_CS+0x1083>
    1019:	63 00                	arpl   %eax,(%eax)
    101b:	73 33                	jae    1050 <SEG_KERN_CS+0x1048>
    101d:	32 5f 72             	xor    0x72(%edi),%bl
    1020:	69 67 68 74 00 6b 6d 	imul   $0x6d6b0074,0x68(%edi),%esp
    1027:	65 6d                	gs insl (%dx),%es:(%edi)
    1029:	6d                   	insl   (%dx),%es:(%edi)
    102a:	6f                   	outsl  %ds:(%esi),(%dx)
    102b:	76 65                	jbe    1092 <SEG_KERN_CS+0x108a>
    102d:	00 73 33             	add    %dh,0x33(%ebx)
    1030:	32 5f 6c             	xor    0x6c(%edi),%bl
    1033:	65 66 74 00          	gs data16 je 1037 <SEG_KERN_CS+0x102f>
    1037:	75 38                	jne    1071 <SEG_KERN_CS+0x1069>
    1039:	5f                   	pop    %edi
    103a:	6c                   	insb   (%dx),%es:(%edi)
    103b:	65 66 74 00          	gs data16 je 103f <SEG_KERN_CS+0x1037>
    103f:	75 33                	jne    1074 <SEG_KERN_CS+0x106c>
    1041:	32 5f 64             	xor    0x64(%edi),%bl
    1044:	73 74                	jae    10ba <SEG_KERN_CS+0x10b2>
    1046:	00 75 38             	add    %dh,0x38(%ebp)
    1049:	5f                   	pop    %edi
    104a:	72 69                	jb     10b5 <SEG_KERN_CS+0x10ad>
    104c:	67 68 74 00 75 38    	addr16 push $0x38750074
    1052:	5f                   	pop    %edi
    1053:	70 74                	jo     10c9 <SEG_KERN_CS+0x10c1>
    1055:	72 00                	jb     1057 <SEG_KERN_CS+0x104f>
    1057:	75 38                	jne    1091 <SEG_KERN_CS+0x1089>
    1059:	5f                   	pop    %edi
    105a:	64 73 74             	fs jae 10d1 <SEG_KERN_CS+0x10c9>
    105d:	00 75 33             	add    %dh,0x33(%ebp)
    1060:	32 5f 73             	xor    0x73(%edi),%bl
    1063:	72 63                	jb     10c8 <SEG_KERN_CS+0x10c0>
    1065:	00 75 33             	add    %dh,0x33(%ebp)
    1068:	32 5f 76             	xor    0x76(%edi),%bl
    106b:	61                   	popa
    106c:	6c                   	insb   (%dx),%es:(%edi)
    106d:	00 47 4e             	add    %al,0x4e(%edi)
    1070:	55                   	push   %ebp
    1071:	20 43 2b             	and    %al,0x2b(%ebx)
    1074:	2b 31                	sub    (%ecx),%esi
    1076:	37                   	aaa
    1077:	20 31                	and    %dh,(%ecx)
    1079:	33 2e                	xor    (%esi),%ebp
    107b:	32 2e                	xor    (%esi),%ch
    107d:	30 20                	xor    %ah,(%eax)
    107f:	2d 6d 74 75 6e       	sub    $0x6e75746d,%eax
    1084:	65 3d 67 65 6e 65    	gs cmp $0x656e6567,%eax
    108a:	72 69                	jb     10f5 <SEG_KERN_CS+0x10ed>
    108c:	63 20                	arpl   %esp,(%eax)
    108e:	2d 6d 61 72 63       	sub    $0x6372616d,%eax
    1093:	68 3d 70 65 6e       	push   $0x6e65703d
    1098:	74 69                	je     1103 <SEG_KERN_CS+0x10fb>
    109a:	75 6d                	jne    1109 <SEG_KERN_CS+0x1101>
    109c:	70 72                	jo     1110 <SEG_KERN_CS+0x1108>
    109e:	6f                   	outsl  %ds:(%esi),(%dx)
    109f:	20 2d 67 20 2d 66    	and    %ch,0x662d2067
    10a5:	66 72 65             	data16 jb 110d <SEG_KERN_CS+0x1105>
    10a8:	65 73 74             	gs jae 111f <SEG_KERN_CS+0x1117>
    10ab:	61                   	popa
    10ac:	6e                   	outsb  %ds:(%esi),(%dx)
    10ad:	64 69 6e 67 20 2d 66 	imul   $0x6e662d20,%fs:0x67(%esi),%ebp
    10b4:	6e 
    10b5:	6f                   	outsl  %ds:(%esi),(%dx)
    10b6:	2d 65 78 63 65       	sub    $0x65637865,%eax
    10bb:	70 74                	jo     1131 <SEG_KERN_CS+0x1129>
    10bd:	69 6f 6e 73 20 2d 66 	imul   $0x662d2073,0x6e(%edi),%ebp
    10c4:	6e                   	outsb  %ds:(%esi),(%dx)
    10c5:	6f                   	outsl  %ds:(%esi),(%dx)
    10c6:	2d 72 74 74 69       	sub    $0x69747472,%eax
    10cb:	00 6b 6d             	add    %ch,0x6d(%ebx)
    10ce:	61                   	popa
    10cf:	69                   	.byte 0x69
    10d0:	6e                   	outsb  %ds:(%esi),(%dx)
	...

Disassembly of section .debug_line_str:

00000000 <.debug_line_str>:
   0:	73 72                	jae    74 <SEG_KERN_CS+0x6c>
   2:	63 2f                	arpl   %ebp,(%edi)
   4:	61                   	popa
   5:	72 63                	jb     6a <SEG_KERN_CS+0x62>
   7:	68 2e 63 00 2f       	push   $0x2f00632e
   c:	6f                   	outsl  %ds:(%esi),(%dx)
   d:	73 64                	jae    73 <SEG_KERN_CS+0x6b>
   f:	65 76 2f             	gs jbe 41 <SEG_KERN_CS+0x39>
  12:	7a 65                	jp     79 <SEG_KERN_CS+0x71>
  14:	72 6f                	jb     85 <SEG_KERN_CS+0x7d>
  16:	6e                   	outsb  %ds:(%esi),(%dx)
  17:	69 78 2f 6b 65 72 6e 	imul   $0x6e72656b,0x2f(%eax),%edi
  1e:	65 6c                	gs insb (%dx),%es:(%edi)
  20:	2f                   	das
  21:	61                   	popa
  22:	72 63                	jb     87 <SEG_KERN_CS+0x7f>
  24:	68 2f 78 38 36       	push   $0x3638782f
  29:	2f                   	das
  2a:	69 6d 70 6c 00 73 72 	imul   $0x7273006c,0x70(%ebp),%ebp
  31:	63 00                	arpl   %eax,(%eax)
  33:	2f                   	das
  34:	6f                   	outsl  %ds:(%esi),(%dx)
  35:	73 64                	jae    9b <SEG_KERN_CS+0x93>
  37:	65 76 2f             	gs jbe 69 <SEG_KERN_CS+0x61>
  3a:	7a 65                	jp     a1 <SEG_KERN_CS+0x99>
  3c:	72 6f                	jb     ad <SEG_KERN_CS+0xa5>
  3e:	6e                   	outsb  %ds:(%esi),(%dx)
  3f:	69 78 2f 6b 65 72 6e 	imul   $0x6e72656b,0x2f(%eax),%edi
  46:	65 6c                	gs insb (%dx),%es:(%edi)
  48:	2f                   	das
  49:	61                   	popa
  4a:	72 63                	jb     af <SEG_KERN_CS+0xa7>
  4c:	68 2f 78 38 36       	push   $0x3638782f
  51:	2f                   	das
  52:	2e 2e 2f             	cs cs das
  55:	2e 2e 2f             	cs cs das
  58:	69 6e 63 6c 75 64 65 	imul   $0x6564756c,0x63(%esi),%ebp
  5f:	2f                   	das
  60:	7a 65                	jp     c7 <SEG_KERN_CS+0xbf>
  62:	72 6f                	jb     d3 <SEG_KERN_CS+0xcb>
  64:	6e                   	outsb  %ds:(%esi),(%dx)
  65:	69 78 00 73 72 63 2f 	imul   $0x2f637273,0x0(%eax),%edi
  6c:	6d                   	insl   (%dx),%es:(%edi)
  6d:	69 6e 38 36 00 2f 6f 	imul   $0x6f2f0036,0x38(%esi),%ebp
  74:	73 64                	jae    da <SEG_KERN_CS+0xd2>
  76:	65 76 2f             	gs jbe a8 <SEG_KERN_CS+0xa0>
  79:	7a 65                	jp     e0 <SEG_KERN_CS+0xd8>
  7b:	72 6f                	jb     ec <SEG_KERN_CS+0xe4>
  7d:	6e                   	outsb  %ds:(%esi),(%dx)
  7e:	69 78 2f 6b 65 72 6e 	imul   $0x6e72656b,0x2f(%eax),%edi
  85:	65 6c                	gs insb (%dx),%es:(%edi)
  87:	2f                   	das
  88:	61                   	popa
  89:	72 63                	jb     ee <SEG_KERN_CS+0xe6>
  8b:	68 2f 78 38 36       	push   $0x3638782f
  90:	2f                   	das
  91:	2e 2e 2f             	cs cs das
  94:	2e 2e 2f             	cs cs das
  97:	69 6e 63 6c 75 64 65 	imul   $0x6564756c,0x63(%esi),%ebp
  9e:	2f                   	das
  9f:	7a 65                	jp     106 <SEG_KERN_CS+0xfe>
  a1:	72 6f                	jb     112 <SEG_KERN_CS+0x10a>
  a3:	6e                   	outsb  %ds:(%esi),(%dx)
  a4:	69 78 2f 61 72 63 68 	imul   $0x68637261,0x2f(%eax),%edi
  ab:	2f                   	das
  ac:	78 38                	js     e6 <SEG_KERN_CS+0xde>
  ae:	36 00 73 72          	add    %dh,%ss:0x72(%ebx)
  b2:	63 2f                	arpl   %ebp,(%edi)
  b4:	73 6d                	jae    123 <SEG_KERN_CS+0x11b>
  b6:	70 00                	jo     b8 <SEG_KERN_CS+0xb0>
  b8:	2f                   	das
  b9:	6f                   	outsl  %ds:(%esi),(%dx)
  ba:	73 64                	jae    120 <SEG_KERN_CS+0x118>
  bc:	65 76 2f             	gs jbe ee <SEG_KERN_CS+0xe6>
  bf:	7a 65                	jp     126 <SEG_KERN_CS+0x11e>
  c1:	72 6f                	jb     132 <SEG_KERN_CS+0x12a>
  c3:	6e                   	outsb  %ds:(%esi),(%dx)
  c4:	69 78 2f 6b 65 72 6e 	imul   $0x6e72656b,0x2f(%eax),%edi
  cb:	65 6c                	gs insb (%dx),%es:(%edi)
  cd:	2f                   	das
  ce:	61                   	popa
  cf:	72 63                	jb     134 <SEG_KERN_CS+0x12c>
  d1:	68 2f 78 38 36       	push   $0x3638782f
  d6:	2f                   	das
  d7:	2e 2e 2f             	cs cs das
  da:	2e 2e 2f             	cs cs das
  dd:	69 6e 63 6c 75 64 65 	imul   $0x6564756c,0x63(%esi),%ebp
  e4:	2f                   	das
  e5:	7a 65                	jp     14c <SEG_KERN_CS+0x144>
  e7:	72 6f                	jb     158 <SEG_KERN_CS+0x150>
  e9:	6e                   	outsb  %ds:(%esi),(%dx)
  ea:	69 78 2f 6b 63 72 74 	imul   $0x7472636b,0x2f(%eax),%edi
  f1:	00 62 6f             	add    %ah,0x6f(%edx)
  f4:	6f                   	outsl  %ds:(%esi),(%dx)
  f5:	74 2e                	je     125 <SEG_KERN_CS+0x11d>
  f7:	68 00 70 61 67       	push   $0x67617000
  fc:	65 2e 68 00 6b 6c 69 	gs cs push $0x696c6b00
 103:	62 2e                	bound  %ebp,(%esi)
 105:	68 00 69 64 74       	push   $0x74646900
 10a:	2e 68 00 65 78 63    	cs push $0x63786500
 110:	65 70 74             	gs jo  187 <SEG_KERN_CS+0x17f>
 113:	2e 68 00 69 38 32    	cs push $0x32386900
 119:	35 39 2e 68 00       	xor    $0x682e39,%eax
 11e:	67 64 74 2e          	addr16 fs je 150 <SEG_KERN_CS+0x148>
 122:	68 00 74 73 73       	push   $0x73737400
 127:	2e 68 00 61 63 70    	cs push $0x70636100
 12d:	69 2e 68 00 73 74    	imul   $0x74730068,(%esi),%ebp
 133:	72 69                	jb     19e <SEG_KERN_CS+0x196>
 135:	6e                   	outsb  %ds:(%esi),(%dx)
 136:	67 2e 68 00 6c 61 79 	addr16 cs push $0x79616c00
 13d:	6f                   	outsl  %ds:(%esi),(%dx)
 13e:	75 74                	jne    1b4 <SEG_KERN_CS+0x1ac>
 140:	2e 68 00 73 72 63    	cs push $0x63727300
 146:	2f                   	das
 147:	68 65 6c 70 65       	push   $0x65706c65
 14c:	72 73                	jb     1c1 <SEG_KERN_CS+0x1b9>
 14e:	2f                   	das
 14f:	63 70 75             	arpl   %esi,0x75(%eax)
 152:	69 6e 66 6f 2e 63 00 	imul   $0x632e6f,0x66(%esi),%ebp
 159:	73 72                	jae    1cd <SEG_KERN_CS+0x1c5>
 15b:	63 2f                	arpl   %ebp,(%edi)
 15d:	68 65 6c 70 65       	push   $0x65706c65
 162:	72 73                	jb     1d7 <SEG_KERN_CS+0x1cf>
 164:	00 63 70             	add    %ah,0x70(%ebx)
 167:	75 69                	jne    1d2 <SEG_KERN_CS+0x1ca>
 169:	6e                   	outsb  %ds:(%esi),(%dx)
 16a:	66 6f                	outsw  %ds:(%esi),(%dx)
 16c:	2e 68 00 73 72 63    	cs push $0x63727300
 172:	2f                   	das
 173:	6d                   	insl   (%dx),%es:(%edi)
 174:	69 6e 38 36 2f 65 78 	imul   $0x78652f36,0x38(%esi),%ebp
 17b:	63 65 70             	arpl   %esp,0x70(%ebp)
 17e:	74 2e                	je     1ae <SEG_KERN_CS+0x1a6>
 180:	63 00                	arpl   %eax,(%eax)
 182:	73 72                	jae    1f6 <SEG_KERN_CS+0x1ee>
 184:	63 2f                	arpl   %ebp,(%edi)
 186:	6d                   	insl   (%dx),%es:(%edi)
 187:	69 6e 38 36 2f 67 64 	imul   $0x64672f36,0x38(%esi),%ebp
 18e:	74 2e                	je     1be <SEG_KERN_CS+0x1b6>
 190:	63 00                	arpl   %eax,(%eax)
 192:	73 72                	jae    206 <SEG_KERN_CS+0x1fe>
 194:	63 2f                	arpl   %ebp,(%edi)
 196:	6d                   	insl   (%dx),%es:(%edi)
 197:	69 6e 38 36 2f 69 38 	imul   $0x38692f36,0x38(%esi),%ebp
 19e:	32 35 33 2e 63 00    	xor    0x632e33,%dh
 1a4:	73 72                	jae    218 <SEG_KERN_CS+0x210>
 1a6:	63 2f                	arpl   %ebp,(%edi)
 1a8:	6d                   	insl   (%dx),%es:(%edi)
 1a9:	69 6e 38 36 2f 69 38 	imul   $0x38692f36,0x38(%esi),%ebp
 1b0:	32 35 39 2e 63 00    	xor    0x632e39,%dh
 1b6:	73 72                	jae    22a <SEG_KERN_CS+0x222>
 1b8:	63 2f                	arpl   %ebp,(%edi)
 1ba:	6d                   	insl   (%dx),%es:(%edi)
 1bb:	69 6e 38 36 2f 69 64 	imul   $0x64692f36,0x38(%esi),%ebp
 1c2:	74 2e                	je     1f2 <SEG_KERN_CS+0x1ea>
 1c4:	63 00                	arpl   %eax,(%eax)
 1c6:	73 72                	jae    23a <SEG_KERN_CS+0x232>
 1c8:	63 2f                	arpl   %ebp,(%edi)
 1ca:	6d                   	insl   (%dx),%es:(%edi)
 1cb:	69 6e 38 36 2f 70 61 	imul   $0x61702f36,0x38(%esi),%ebp
 1d2:	67 65 2e 63 00       	gs arpl %eax,%cs:(%bx,%si)
 1d7:	62 6f 6f             	bound  %ebp,0x6f(%edi)
 1da:	74 65                	je     241 <SEG_KERN_CS+0x239>
 1dc:	6e                   	outsb  %ds:(%esi),(%dx)
 1dd:	76 2e                	jbe    20d <SEG_KERN_CS+0x205>
 1df:	68 00 73 72 63       	push   $0x63727300
 1e4:	2f                   	das
 1e5:	6d                   	insl   (%dx),%es:(%edi)
 1e6:	69 6e 38 36 2f 74 73 	imul   $0x73742f36,0x38(%esi),%ebp
 1ed:	73 2e                	jae    21d <SEG_KERN_CS+0x215>
 1ef:	63 00                	arpl   %eax,(%eax)
 1f1:	73 72                	jae    265 <SEG_KERN_CS+0x25d>
 1f3:	63 2f                	arpl   %ebp,(%edi)
 1f5:	73 6d                	jae    264 <SEG_KERN_CS+0x25c>
 1f7:	70 2f                	jo     228 <SEG_KERN_CS+0x220>
 1f9:	61                   	popa
 1fa:	63 70 69             	arpl   %esi,0x69(%eax)
 1fd:	2e 63 00             	arpl   %eax,%cs:(%eax)
 200:	2f                   	das
 201:	6f                   	outsl  %ds:(%esi),(%dx)
 202:	73 64                	jae    268 <SEG_KERN_CS+0x260>
 204:	65 76 2f             	gs jbe 236 <SEG_KERN_CS+0x22e>
 207:	7a 65                	jp     26e <SEG_KERN_CS+0x266>
 209:	72 6f                	jb     27a <SEG_KERN_CS+0x272>
 20b:	6e                   	outsb  %ds:(%esi),(%dx)
 20c:	69 78 2f 6b 65 72 6e 	imul   $0x6e72656b,0x2f(%eax),%edi
 213:	65 6c                	gs insb (%dx),%es:(%edi)
 215:	2f                   	das
 216:	61                   	popa
 217:	72 63                	jb     27c <SEG_KERN_CS+0x274>
 219:	68 2f 78 38 36       	push   $0x3638782f
 21e:	2f                   	das
 21f:	2e 2e 2f             	cs cs das
 222:	2e 2e 2f             	cs cs das
 225:	69 6e 63 6c 75 64 65 	imul   $0x6564756c,0x63(%esi),%ebp
 22c:	2f                   	das
 22d:	7a 65                	jp     294 <SEG_KERN_CS+0x28c>
 22f:	72 6f                	jb     2a0 <SEG_KERN_CS+0x298>
 231:	6e                   	outsb  %ds:(%esi),(%dx)
 232:	69 78 2f 61 72 63 68 	imul   $0x68637261,0x2f(%eax),%edi
 239:	2f                   	das
 23a:	78 38                	js     274 <SEG_KERN_CS+0x26c>
 23c:	36 2f                	ss das
 23e:	73 6d                	jae    2ad <SEG_KERN_CS+0x2a5>
 240:	70 00                	jo     242 <SEG_KERN_CS+0x23a>
 242:	61                   	popa
 243:	63 70 69             	arpl   %esi,0x69(%eax)
 246:	2d 74 79 70 65       	sub    $0x65707974,%eax
 24b:	73 2e                	jae    27b <SEG_KERN_CS+0x273>
 24d:	68 00 73 72 63       	push   $0x63727300
 252:	2f                   	das
 253:	73 74                	jae    2c9 <SEG_KERN_CS+0x2c1>
 255:	72 69                	jb     2c0 <SEG_KERN_CS+0x2b8>
 257:	6e                   	outsb  %ds:(%esi),(%dx)
 258:	67 2e 63 00          	arpl   %eax,%cs:(%bx,%si)
 25c:	2f                   	das
 25d:	6f                   	outsl  %ds:(%esi),(%dx)
 25e:	73 64                	jae    2c4 <SEG_KERN_CS+0x2bc>
 260:	65 76 2f             	gs jbe 292 <SEG_KERN_CS+0x28a>
 263:	7a 65                	jp     2ca <SEG_KERN_CS+0x2c2>
 265:	72 6f                	jb     2d6 <SEG_KERN_CS+0x2ce>
 267:	6e                   	outsb  %ds:(%esi),(%dx)
 268:	69 78 2f 6b 65 72 6e 	imul   $0x6e72656b,0x2f(%eax),%edi
 26f:	65 6c                	gs insb (%dx),%es:(%edi)
 271:	2f                   	das
 272:	6b 63 72 74          	imul   $0x74,0x72(%ebx),%esp
 276:	00 2f                	add    %ch,(%edi)
 278:	6f                   	outsl  %ds:(%esi),(%dx)
 279:	73 64                	jae    2df <SEG_KERN_CS+0x2d7>
 27b:	65 76 2f             	gs jbe 2ad <SEG_KERN_CS+0x2a5>
 27e:	7a 65                	jp     2e5 <SEG_KERN_CS+0x2dd>
 280:	72 6f                	jb     2f1 <SEG_KERN_CS+0x2e9>
 282:	6e                   	outsb  %ds:(%esi),(%dx)
 283:	69 78 2f 6b 65 72 6e 	imul   $0x6e72656b,0x2f(%eax),%edi
 28a:	65 6c                	gs insb (%dx),%es:(%edi)
 28c:	00 73 72             	add    %dh,0x72(%ebx)
 28f:	63 2f                	arpl   %ebp,(%edi)
 291:	6d                   	insl   (%dx),%es:(%edi)
 292:	61                   	popa
 293:	69 6e 2e 63 70 70 00 	imul   $0x707063,0x2e(%esi),%ebp

Disassembly of section .debug_rnglists:

00000000 <.debug_rnglists>:
   0:	13 00                	adc    (%eax),%eax
   2:	00 00                	add    %al,(%eax)
   4:	05 00 04 00 00       	add    $0x400,%eax
   9:	00 00                	add    %al,(%eax)
   b:	00 04 95 03 c4 03 04 	add    %al,0x403c403(,%edx,4)
  12:	cc                   	int3
  13:	03 cd                	add    %ebp,%ecx
  15:	03 00                	add    (%eax),%eax
