
/osdev/zeronix/kernel/kernel.elf:     file format elf32-i386


Disassembly of section .multiboot:

00400000 <_mb_unpaged_start-0x10>:
  400000:	02 b0 ad 1b 03 00    	add    0x31bad(%eax),%dh
  400006:	00 00                	add    %al,(%eax)
  400008:	fb                   	sti
  400009:	4f                   	dec    %edi
  40000a:	52                   	push   %edx
  40000b:	e4 00                	in     $0x0,%al
  40000d:	00 00                	add    %al,(%eax)
	...

Disassembly of section .unpaged.text:

00401000 <kboot>:
  401000:	55                   	push   %ebp
  401001:	89 e5                	mov    %esp,%ebp
  401003:	83 ec 18             	sub    $0x18,%esp
  401006:	81 7d 08 02 b0 ad 2b 	cmpl   $0x2badb002,0x8(%ebp)
  40100d:	74 10                	je     40101f <kboot+0x1f>
  40100f:	83 ec 0c             	sub    $0xc,%esp
  401012:	68 a8 71 40 f0       	push   $0xf04071a8
  401017:	e8 57 00 00 00       	call   401073 <kboot_panic>
  40101c:	83 c4 10             	add    $0x10,%esp
  40101f:	c7 45 f4 00 30 40 00 	movl   $0x403000,-0xc(%ebp)
  401026:	8b 45 0c             	mov    0xc(%ebp),%eax
  401029:	83 ec 08             	sub    $0x8,%esp
  40102c:	50                   	push   %eax
  40102d:	ff 75 f4             	push   -0xc(%ebp)
  401030:	e8 80 00 00 00       	call   4010b5 <kboot_read_mbinfo>
  401035:	83 c4 10             	add    $0x10,%esp
  401038:	83 ec 0c             	sub    $0xc,%esp
  40103b:	ff 75 f4             	push   -0xc(%ebp)
  40103e:	e8 7d 03 00 00       	call   4013c0 <kboot_tpg_identity>
  401043:	83 c4 10             	add    $0x10,%esp
  401046:	83 ec 0c             	sub    $0xc,%esp
  401049:	ff 75 f4             	push   -0xc(%ebp)
  40104c:	e8 d3 03 00 00       	call   401424 <kboot_tpg_map_kernel>
  401051:	83 c4 10             	add    $0x10,%esp
  401054:	8b 45 f4             	mov    -0xc(%ebp),%eax
  401057:	8b 80 24 03 00 00    	mov    0x324(%eax),%eax
  40105d:	83 ec 0c             	sub    $0xc,%esp
  401060:	50                   	push   %eax
  401061:	e8 9f 05 00 00       	call   401605 <tpg_write_cr3>
  401066:	83 c4 10             	add    $0x10,%esp
  401069:	e8 97 04 00 00       	call   401505 <kboot_tpg_enable_paging>
  40106e:	8b 45 f4             	mov    -0xc(%ebp),%eax
  401071:	c9                   	leave
  401072:	c3                   	ret

00401073 <kboot_panic>:
  401073:	55                   	push   %ebp
  401074:	89 e5                	mov    %esp,%ebp
  401076:	83 ec 10             	sub    $0x10,%esp
  401079:	c7 45 fc 00 80 0b 00 	movl   $0xb8000,-0x4(%ebp)
  401080:	eb 1f                	jmp    4010a1 <kboot_panic+0x2e>
  401082:	8b 45 08             	mov    0x8(%ebp),%eax
  401085:	0f b6 00             	movzbl (%eax),%eax
  401088:	66 98                	cbtw
  40108a:	80 cc 0f             	or     $0xf,%ah
  40108d:	89 c1                	mov    %eax,%ecx
  40108f:	8b 45 fc             	mov    -0x4(%ebp),%eax
  401092:	8d 50 02             	lea    0x2(%eax),%edx
  401095:	89 55 fc             	mov    %edx,-0x4(%ebp)
  401098:	89 ca                	mov    %ecx,%edx
  40109a:	66 89 10             	mov    %dx,(%eax)
  40109d:	83 45 08 01          	addl   $0x1,0x8(%ebp)
  4010a1:	83 7d 08 00          	cmpl   $0x0,0x8(%ebp)
  4010a5:	74 0c                	je     4010b3 <kboot_panic+0x40>
  4010a7:	8b 45 08             	mov    0x8(%ebp),%eax
  4010aa:	0f b6 00             	movzbl (%eax),%eax
  4010ad:	84 c0                	test   %al,%al
  4010af:	75 d1                	jne    401082 <kboot_panic+0xf>
  4010b1:	eb 00                	jmp    4010b3 <kboot_panic+0x40>
  4010b3:	eb fe                	jmp    4010b3 <kboot_panic+0x40>

004010b5 <kboot_read_mbinfo>:
  4010b5:	55                   	push   %ebp
  4010b6:	89 e5                	mov    %esp,%ebp
  4010b8:	53                   	push   %ebx
  4010b9:	83 ec 14             	sub    $0x14,%esp
  4010bc:	8b 45 08             	mov    0x8(%ebp),%eax
  4010bf:	c7 00 00 00 00 00    	movl   $0x0,(%eax)
  4010c5:	8b 45 08             	mov    0x8(%ebp),%eax
  4010c8:	c7 80 24 03 00 00 00 	movl   $0x404000,0x324(%eax)
  4010cf:	40 40 00 
  4010d2:	8b 45 08             	mov    0x8(%ebp),%eax
  4010d5:	c7 80 28 03 00 00 00 	movl   $0x0,0x328(%eax)
  4010dc:	00 00 00 
  4010df:	ba 00 00 40 f0       	mov    $0xf0400000,%edx
  4010e4:	8b 45 08             	mov    0x8(%ebp),%eax
  4010e7:	89 50 04             	mov    %edx,0x4(%eax)
  4010ea:	ba 00 50 40 f0       	mov    $0xf0405000,%edx
  4010ef:	8b 45 08             	mov    0x8(%ebp),%eax
  4010f2:	89 50 08             	mov    %edx,0x8(%eax)
  4010f5:	ba 49 24 41 f0       	mov    $0xf0412449,%edx
  4010fa:	8b 45 08             	mov    0x8(%ebp),%eax
  4010fd:	89 50 0c             	mov    %edx,0xc(%eax)
  401100:	ba 10 00 40 00       	mov    $0x400010,%edx
  401105:	8b 45 08             	mov    0x8(%ebp),%eax
  401108:	89 50 10             	mov    %edx,0x10(%eax)
  40110b:	ba 00 50 40 00       	mov    $0x405000,%edx
  401110:	b8 10 00 40 00       	mov    $0x400010,%eax
  401115:	29 c2                	sub    %eax,%edx
  401117:	8b 45 08             	mov    0x8(%ebp),%eax
  40111a:	89 50 14             	mov    %edx,0x14(%eax)
  40111d:	ba 49 24 01 00       	mov    $0x12449,%edx
  401122:	8b 45 08             	mov    0x8(%ebp),%eax
  401125:	8b 40 14             	mov    0x14(%eax),%eax
  401128:	29 c2                	sub    %eax,%edx
  40112a:	8b 45 08             	mov    0x8(%ebp),%eax
  40112d:	89 50 18             	mov    %edx,0x18(%eax)
  401130:	8b 45 08             	mov    0x8(%ebp),%eax
  401133:	c7 40 1c 00 00 00 00 	movl   $0x0,0x1c(%eax)
  40113a:	8b 45 08             	mov    0x8(%ebp),%eax
  40113d:	c7 80 20 03 00 00 00 	movl   $0x0,0x320(%eax)
  401144:	00 00 00 
  401147:	8b 45 0c             	mov    0xc(%ebp),%eax
  40114a:	8b 00                	mov    (%eax),%eax
  40114c:	83 e0 40             	and    $0x40,%eax
  40114f:	85 c0                	test   %eax,%eax
  401151:	74 73                	je     4011c6 <kboot_read_mbinfo+0x111>
  401153:	8b 45 0c             	mov    0xc(%ebp),%eax
  401156:	8b 40 30             	mov    0x30(%eax),%eax
  401159:	89 45 f4             	mov    %eax,-0xc(%ebp)
  40115c:	eb 51                	jmp    4011af <kboot_read_mbinfo+0xfa>
  40115e:	8b 45 f4             	mov    -0xc(%ebp),%eax
  401161:	8b 40 14             	mov    0x14(%eax),%eax
  401164:	83 f8 01             	cmp    $0x1,%eax
  401167:	74 12                	je     40117b <kboot_read_mbinfo+0xc6>
  401169:	8b 45 f4             	mov    -0xc(%ebp),%eax
  40116c:	8b 10                	mov    (%eax),%edx
  40116e:	8b 45 f4             	mov    -0xc(%ebp),%eax
  401171:	01 d0                	add    %edx,%eax
  401173:	83 c0 04             	add    $0x4,%eax
  401176:	89 45 f4             	mov    %eax,-0xc(%ebp)
  401179:	eb 34                	jmp    4011af <kboot_read_mbinfo+0xfa>
  40117b:	8b 45 f4             	mov    -0xc(%ebp),%eax
  40117e:	8b 48 0c             	mov    0xc(%eax),%ecx
  401181:	8b 58 10             	mov    0x10(%eax),%ebx
  401184:	8b 45 f4             	mov    -0xc(%ebp),%eax
  401187:	8b 50 08             	mov    0x8(%eax),%edx
  40118a:	8b 40 04             	mov    0x4(%eax),%eax
  40118d:	83 ec 0c             	sub    $0xc,%esp
  401190:	53                   	push   %ebx
  401191:	51                   	push   %ecx
  401192:	52                   	push   %edx
  401193:	50                   	push   %eax
  401194:	ff 75 08             	push   0x8(%ebp)
  401197:	e8 b8 00 00 00       	call   401254 <kboot_add_mmap>
  40119c:	83 c4 20             	add    $0x20,%esp
  40119f:	8b 45 f4             	mov    -0xc(%ebp),%eax
  4011a2:	8b 10                	mov    (%eax),%edx
  4011a4:	8b 45 f4             	mov    -0xc(%ebp),%eax
  4011a7:	01 d0                	add    %edx,%eax
  4011a9:	83 c0 04             	add    $0x4,%eax
  4011ac:	89 45 f4             	mov    %eax,-0xc(%ebp)
  4011af:	8b 45 0c             	mov    0xc(%ebp),%eax
  4011b2:	8b 50 30             	mov    0x30(%eax),%edx
  4011b5:	8b 45 0c             	mov    0xc(%ebp),%eax
  4011b8:	8b 40 2c             	mov    0x2c(%eax),%eax
  4011bb:	01 d0                	add    %edx,%eax
  4011bd:	8b 55 f4             	mov    -0xc(%ebp),%edx
  4011c0:	39 c2                	cmp    %eax,%edx
  4011c2:	72 9a                	jb     40115e <kboot_read_mbinfo+0xa9>
  4011c4:	eb 47                	jmp    40120d <kboot_read_mbinfo+0x158>
  4011c6:	8b 45 0c             	mov    0xc(%ebp),%eax
  4011c9:	8b 40 04             	mov    0x4(%eax),%eax
  4011cc:	c1 e0 0a             	shl    $0xa,%eax
  4011cf:	ba 00 00 00 00       	mov    $0x0,%edx
  4011d4:	83 ec 0c             	sub    $0xc,%esp
  4011d7:	52                   	push   %edx
  4011d8:	50                   	push   %eax
  4011d9:	6a 00                	push   $0x0
  4011db:	6a 00                	push   $0x0
  4011dd:	ff 75 08             	push   0x8(%ebp)
  4011e0:	e8 6f 00 00 00       	call   401254 <kboot_add_mmap>
  4011e5:	83 c4 20             	add    $0x20,%esp
  4011e8:	8b 45 0c             	mov    0xc(%ebp),%eax
  4011eb:	8b 40 08             	mov    0x8(%eax),%eax
  4011ee:	c1 e0 0a             	shl    $0xa,%eax
  4011f1:	ba 00 00 00 00       	mov    $0x0,%edx
  4011f6:	83 ec 0c             	sub    $0xc,%esp
  4011f9:	52                   	push   %edx
  4011fa:	50                   	push   %eax
  4011fb:	6a 00                	push   $0x0
  4011fd:	68 00 00 10 00       	push   $0x100000
  401202:	ff 75 08             	push   0x8(%ebp)
  401205:	e8 4a 00 00 00       	call   401254 <kboot_add_mmap>
  40120a:	83 c4 20             	add    $0x20,%esp
  40120d:	90                   	nop
  40120e:	8b 5d fc             	mov    -0x4(%ebp),%ebx
  401211:	c9                   	leave
  401212:	c3                   	ret

00401213 <kboot_round_up>:
  401213:	55                   	push   %ebp
  401214:	89 e5                	mov    %esp,%ebp
  401216:	8b 45 08             	mov    0x8(%ebp),%eax
  401219:	ba 00 00 00 00       	mov    $0x0,%edx
  40121e:	f7 75 0c             	divl   0xc(%ebp)
  401221:	89 d0                	mov    %edx,%eax
  401223:	85 c0                	test   %eax,%eax
  401225:	74 14                	je     40123b <kboot_round_up+0x28>
  401227:	8b 45 08             	mov    0x8(%ebp),%eax
  40122a:	ba 00 00 00 00       	mov    $0x0,%edx
  40122f:	f7 75 0c             	divl   0xc(%ebp)
  401232:	83 c0 01             	add    $0x1,%eax
  401235:	0f af 45 0c          	imul   0xc(%ebp),%eax
  401239:	eb 03                	jmp    40123e <kboot_round_up+0x2b>
  40123b:	8b 45 08             	mov    0x8(%ebp),%eax
  40123e:	5d                   	pop    %ebp
  40123f:	c3                   	ret

00401240 <kboot_round_down>:
  401240:	55                   	push   %ebp
  401241:	89 e5                	mov    %esp,%ebp
  401243:	8b 45 08             	mov    0x8(%ebp),%eax
  401246:	ba 00 00 00 00       	mov    $0x0,%edx
  40124b:	f7 75 0c             	divl   0xc(%ebp)
  40124e:	0f af 45 0c          	imul   0xc(%ebp),%eax
  401252:	5d                   	pop    %ebp
  401253:	c3                   	ret

00401254 <kboot_add_mmap>:
  401254:	55                   	push   %ebp
  401255:	89 e5                	mov    %esp,%ebp
  401257:	53                   	push   %ebx
  401258:	83 ec 24             	sub    $0x24,%esp
  40125b:	8b 45 0c             	mov    0xc(%ebp),%eax
  40125e:	89 45 e0             	mov    %eax,-0x20(%ebp)
  401261:	8b 45 10             	mov    0x10(%ebp),%eax
  401264:	89 45 e4             	mov    %eax,-0x1c(%ebp)
  401267:	8b 45 14             	mov    0x14(%ebp),%eax
  40126a:	89 45 d8             	mov    %eax,-0x28(%ebp)
  40126d:	8b 45 18             	mov    0x18(%ebp),%eax
  401270:	89 45 dc             	mov    %eax,-0x24(%ebp)
  401273:	ba 00 f0 ff ff       	mov    $0xfffff000,%edx
  401278:	b8 00 00 00 00       	mov    $0x0,%eax
  40127d:	3b 55 e0             	cmp    -0x20(%ebp),%edx
  401280:	1b 45 e4             	sbb    -0x1c(%ebp),%eax
  401283:	0f 82 2e 01 00 00    	jb     4013b7 <kboot_add_mmap+0x163>
  401289:	8b 4d e0             	mov    -0x20(%ebp),%ecx
  40128c:	8b 5d e4             	mov    -0x1c(%ebp),%ebx
  40128f:	8b 45 d8             	mov    -0x28(%ebp),%eax
  401292:	8b 55 dc             	mov    -0x24(%ebp),%edx
  401295:	01 c8                	add    %ecx,%eax
  401297:	11 da                	adc    %ebx,%edx
  401299:	bb 00 f0 ff ff       	mov    $0xfffff000,%ebx
  40129e:	b9 00 00 00 00       	mov    $0x0,%ecx
  4012a3:	39 c3                	cmp    %eax,%ebx
  4012a5:	19 d1                	sbb    %edx,%ecx
  4012a7:	73 28                	jae    4012d1 <kboot_add_mmap+0x7d>
  4012a9:	8b 4d e0             	mov    -0x20(%ebp),%ecx
  4012ac:	8b 5d e4             	mov    -0x1c(%ebp),%ebx
  4012af:	8b 45 d8             	mov    -0x28(%ebp),%eax
  4012b2:	8b 55 dc             	mov    -0x24(%ebp),%edx
  4012b5:	01 c1                	add    %eax,%ecx
  4012b7:	11 d3                	adc    %edx,%ebx
  4012b9:	8b 45 d8             	mov    -0x28(%ebp),%eax
  4012bc:	8b 55 dc             	mov    -0x24(%ebp),%edx
  4012bf:	29 c8                	sub    %ecx,%eax
  4012c1:	19 da                	sbb    %ebx,%edx
  4012c3:	05 00 f0 ff ff       	add    $0xfffff000,%eax
  4012c8:	83 d2 00             	adc    $0x0,%edx
  4012cb:	89 45 d8             	mov    %eax,-0x28(%ebp)
  4012ce:	89 55 dc             	mov    %edx,-0x24(%ebp)
  4012d1:	8b 45 d8             	mov    -0x28(%ebp),%eax
  4012d4:	0b 45 dc             	or     -0x24(%ebp),%eax
  4012d7:	0f 84 dd 00 00 00    	je     4013ba <kboot_add_mmap+0x166>
  4012dd:	8b 45 e0             	mov    -0x20(%ebp),%eax
  4012e0:	68 00 10 00 00       	push   $0x1000
  4012e5:	50                   	push   %eax
  4012e6:	e8 28 ff ff ff       	call   401213 <kboot_round_up>
  4012eb:	83 c4 08             	add    $0x8,%esp
  4012ee:	89 45 e0             	mov    %eax,-0x20(%ebp)
  4012f1:	c7 45 e4 00 00 00 00 	movl   $0x0,-0x1c(%ebp)
  4012f8:	8b 45 e0             	mov    -0x20(%ebp),%eax
  4012fb:	68 00 10 00 00       	push   $0x1000
  401300:	50                   	push   %eax
  401301:	e8 3a ff ff ff       	call   401240 <kboot_round_down>
  401306:	83 c4 08             	add    $0x8,%esp
  401309:	89 45 d8             	mov    %eax,-0x28(%ebp)
  40130c:	c7 45 dc 00 00 00 00 	movl   $0x0,-0x24(%ebp)
  401313:	8b 45 08             	mov    0x8(%ebp),%eax
  401316:	8b 80 20 03 00 00    	mov    0x320(%eax),%eax
  40131c:	8d 48 01             	lea    0x1(%eax),%ecx
  40131f:	8b 55 08             	mov    0x8(%ebp),%edx
  401322:	89 8a 20 03 00 00    	mov    %ecx,0x320(%edx)
  401328:	89 45 f4             	mov    %eax,-0xc(%ebp)
  40132b:	83 7d f4 1f          	cmpl   $0x1f,-0xc(%ebp)
  40132f:	76 0d                	jbe    40133e <kboot_add_mmap+0xea>
  401331:	68 cc 71 40 f0       	push   $0xf04071cc
  401336:	e8 38 fd ff ff       	call   401073 <kboot_panic>
  40133b:	83 c4 04             	add    $0x4,%esp
  40133e:	8b 4d 08             	mov    0x8(%ebp),%ecx
  401341:	8b 55 f4             	mov    -0xc(%ebp),%edx
  401344:	89 d0                	mov    %edx,%eax
  401346:	01 c0                	add    %eax,%eax
  401348:	01 d0                	add    %edx,%eax
  40134a:	c1 e0 03             	shl    $0x3,%eax
  40134d:	01 c8                	add    %ecx,%eax
  40134f:	8d 48 20             	lea    0x20(%eax),%ecx
  401352:	8b 45 e0             	mov    -0x20(%ebp),%eax
  401355:	8b 55 e4             	mov    -0x1c(%ebp),%edx
  401358:	89 41 04             	mov    %eax,0x4(%ecx)
  40135b:	89 51 08             	mov    %edx,0x8(%ecx)
  40135e:	8b 4d 08             	mov    0x8(%ebp),%ecx
  401361:	8b 55 f4             	mov    -0xc(%ebp),%edx
  401364:	89 d0                	mov    %edx,%eax
  401366:	01 c0                	add    %eax,%eax
  401368:	01 d0                	add    %edx,%eax
  40136a:	c1 e0 03             	shl    $0x3,%eax
  40136d:	01 c8                	add    %ecx,%eax
  40136f:	8d 48 20             	lea    0x20(%eax),%ecx
  401372:	8b 45 d8             	mov    -0x28(%ebp),%eax
  401375:	8b 55 dc             	mov    -0x24(%ebp),%edx
  401378:	89 41 0c             	mov    %eax,0xc(%ecx)
  40137b:	89 51 10             	mov    %edx,0x10(%ecx)
  40137e:	8b 4d 08             	mov    0x8(%ebp),%ecx
  401381:	8b 55 f4             	mov    -0xc(%ebp),%edx
  401384:	89 d0                	mov    %edx,%eax
  401386:	01 c0                	add    %eax,%eax
  401388:	01 d0                	add    %edx,%eax
  40138a:	c1 e0 03             	shl    $0x3,%eax
  40138d:	01 c8                	add    %ecx,%eax
  40138f:	83 c0 34             	add    $0x34,%eax
  401392:	c7 00 01 00 00 00    	movl   $0x1,(%eax)
  401398:	8b 55 e0             	mov    -0x20(%ebp),%edx
  40139b:	8b 45 d8             	mov    -0x28(%ebp),%eax
  40139e:	01 d0                	add    %edx,%eax
  4013a0:	89 45 f0             	mov    %eax,-0x10(%ebp)
  4013a3:	8b 45 08             	mov    0x8(%ebp),%eax
  4013a6:	8b 00                	mov    (%eax),%eax
  4013a8:	3b 45 f0             	cmp    -0x10(%ebp),%eax
  4013ab:	73 0e                	jae    4013bb <kboot_add_mmap+0x167>
  4013ad:	8b 45 08             	mov    0x8(%ebp),%eax
  4013b0:	8b 55 f0             	mov    -0x10(%ebp),%edx
  4013b3:	89 10                	mov    %edx,(%eax)
  4013b5:	eb 04                	jmp    4013bb <kboot_add_mmap+0x167>
  4013b7:	90                   	nop
  4013b8:	eb 01                	jmp    4013bb <kboot_add_mmap+0x167>
  4013ba:	90                   	nop
  4013bb:	8b 5d fc             	mov    -0x4(%ebp),%ebx
  4013be:	c9                   	leave
  4013bf:	c3                   	ret

004013c0 <kboot_tpg_identity>:
  4013c0:	55                   	push   %ebp
  4013c1:	89 e5                	mov    %esp,%ebp
  4013c3:	83 ec 10             	sub    $0x10,%esp
  4013c6:	c7 45 fc 00 00 00 00 	movl   $0x0,-0x4(%ebp)
  4013cd:	eb 48                	jmp    401417 <kboot_tpg_identity+0x57>
  4013cf:	c7 45 f8 87 00 00 00 	movl   $0x87,-0x8(%ebp)
  4013d6:	8b 45 fc             	mov    -0x4(%ebp),%eax
  4013d9:	c1 e0 16             	shl    $0x16,%eax
  4013dc:	89 45 f4             	mov    %eax,-0xc(%ebp)
  4013df:	8b 45 08             	mov    0x8(%ebp),%eax
  4013e2:	8b 00                	mov    (%eax),%eax
  4013e4:	25 00 00 c0 ff       	and    $0xffc00000,%eax
  4013e9:	8b 55 f4             	mov    -0xc(%ebp),%edx
  4013ec:	81 e2 00 00 c0 ff    	and    $0xffc00000,%edx
  4013f2:	39 c2                	cmp    %eax,%edx
  4013f4:	72 04                	jb     4013fa <kboot_tpg_identity+0x3a>
  4013f6:	83 4d f8 18          	orl    $0x18,-0x8(%ebp)
  4013fa:	8b 45 08             	mov    0x8(%ebp),%eax
  4013fd:	8b 80 24 03 00 00    	mov    0x324(%eax),%eax
  401403:	8b 55 fc             	mov    -0x4(%ebp),%edx
  401406:	c1 e2 02             	shl    $0x2,%edx
  401409:	01 c2                	add    %eax,%edx
  40140b:	8b 45 f4             	mov    -0xc(%ebp),%eax
  40140e:	0b 45 f8             	or     -0x8(%ebp),%eax
  401411:	89 02                	mov    %eax,(%edx)
  401413:	83 45 fc 01          	addl   $0x1,-0x4(%ebp)
  401417:	81 7d fc ff 03 00 00 	cmpl   $0x3ff,-0x4(%ebp)
  40141e:	76 af                	jbe    4013cf <kboot_tpg_identity+0xf>
  401420:	90                   	nop
  401421:	90                   	nop
  401422:	c9                   	leave
  401423:	c3                   	ret

00401424 <kboot_tpg_map_kernel>:
  401424:	55                   	push   %ebp
  401425:	89 e5                	mov    %esp,%ebp
  401427:	83 ec 10             	sub    $0x10,%esp
  40142a:	c7 45 fc 00 00 00 00 	movl   $0x0,-0x4(%ebp)
  401431:	c7 45 f8 00 00 40 00 	movl   $0x400000,-0x8(%ebp)
  401438:	b8 00 00 40 f0       	mov    $0xf0400000,%eax
  40143d:	c1 e8 16             	shr    $0x16,%eax
  401440:	89 45 f4             	mov    %eax,-0xc(%ebp)
  401443:	eb 2b                	jmp    401470 <kboot_tpg_map_kernel+0x4c>
  401445:	8b 45 08             	mov    0x8(%ebp),%eax
  401448:	8b 80 24 03 00 00    	mov    0x324(%eax),%eax
  40144e:	8b 55 f4             	mov    -0xc(%ebp),%edx
  401451:	c1 e2 02             	shl    $0x2,%edx
  401454:	01 d0                	add    %edx,%eax
  401456:	8b 55 f8             	mov    -0x8(%ebp),%edx
  401459:	80 ca 83             	or     $0x83,%dl
  40145c:	89 10                	mov    %edx,(%eax)
  40145e:	81 45 fc 00 00 40 00 	addl   $0x400000,-0x4(%ebp)
  401465:	81 45 f8 00 00 40 00 	addl   $0x400000,-0x8(%ebp)
  40146c:	83 45 f4 01          	addl   $0x1,-0xc(%ebp)
  401470:	b8 49 24 01 00       	mov    $0x12449,%eax
  401475:	39 45 fc             	cmp    %eax,-0x4(%ebp)
  401478:	72 cb                	jb     401445 <kboot_tpg_map_kernel+0x21>
  40147a:	8b 45 08             	mov    0x8(%ebp),%eax
  40147d:	8b 55 f4             	mov    -0xc(%ebp),%edx
  401480:	89 90 28 03 00 00    	mov    %edx,0x328(%eax)
  401486:	90                   	nop
  401487:	c9                   	leave
  401488:	c3                   	ret

00401489 <kboot_tpg_check_cpuf>:
  401489:	55                   	push   %ebp
  40148a:	89 e5                	mov    %esp,%ebp
  40148c:	83 ec 28             	sub    $0x28,%esp
  40148f:	c7 45 f0 00 00 00 00 	movl   $0x0,-0x10(%ebp)
  401496:	8d 45 e4             	lea    -0x1c(%ebp),%eax
  401499:	50                   	push   %eax
  40149a:	8d 45 e8             	lea    -0x18(%ebp),%eax
  40149d:	50                   	push   %eax
  40149e:	8d 45 ec             	lea    -0x14(%ebp),%eax
  4014a1:	50                   	push   %eax
  4014a2:	8d 45 f0             	lea    -0x10(%ebp),%eax
  4014a5:	50                   	push   %eax
  4014a6:	e8 74 01 00 00       	call   40161f <tpg_cpuid>
  4014ab:	83 c4 10             	add    $0x10,%esp
  4014ae:	8b 45 f0             	mov    -0x10(%ebp),%eax
  4014b1:	85 c0                	test   %eax,%eax
  4014b3:	75 07                	jne    4014bc <kboot_tpg_check_cpuf+0x33>
  4014b5:	b8 00 00 00 00       	mov    $0x0,%eax
  4014ba:	eb 47                	jmp    401503 <kboot_tpg_check_cpuf+0x7a>
  4014bc:	c7 45 f0 01 00 00 00 	movl   $0x1,-0x10(%ebp)
  4014c3:	8d 45 e4             	lea    -0x1c(%ebp),%eax
  4014c6:	50                   	push   %eax
  4014c7:	8d 45 e8             	lea    -0x18(%ebp),%eax
  4014ca:	50                   	push   %eax
  4014cb:	8d 45 ec             	lea    -0x14(%ebp),%eax
  4014ce:	50                   	push   %eax
  4014cf:	8d 45 f0             	lea    -0x10(%ebp),%eax
  4014d2:	50                   	push   %eax
  4014d3:	e8 47 01 00 00       	call   40161f <tpg_cpuid>
  4014d8:	83 c4 10             	add    $0x10,%esp
  4014db:	c7 45 f4 00 00 00 00 	movl   $0x0,-0xc(%ebp)
  4014e2:	8b 45 e8             	mov    -0x18(%ebp),%eax
  4014e5:	25 00 20 00 00       	and    $0x2000,%eax
  4014ea:	85 c0                	test   %eax,%eax
  4014ec:	74 04                	je     4014f2 <kboot_tpg_check_cpuf+0x69>
  4014ee:	83 4d f4 02          	orl    $0x2,-0xc(%ebp)
  4014f2:	8b 45 e8             	mov    -0x18(%ebp),%eax
  4014f5:	83 e0 40             	and    $0x40,%eax
  4014f8:	85 c0                	test   %eax,%eax
  4014fa:	74 04                	je     401500 <kboot_tpg_check_cpuf+0x77>
  4014fc:	83 4d f4 01          	orl    $0x1,-0xc(%ebp)
  401500:	8b 45 f4             	mov    -0xc(%ebp),%eax
  401503:	c9                   	leave
  401504:	c3                   	ret

00401505 <kboot_tpg_enable_paging>:
  401505:	55                   	push   %ebp
  401506:	89 e5                	mov    %esp,%ebp
  401508:	83 ec 18             	sub    $0x18,%esp
  40150b:	e8 79 ff ff ff       	call   401489 <kboot_tpg_check_cpuf>
  401510:	89 45 f0             	mov    %eax,-0x10(%ebp)
  401513:	e8 c8 00 00 00       	call   4015e0 <tpg_read_cr0>
  401518:	89 45 ec             	mov    %eax,-0x14(%ebp)
  40151b:	e8 d0 00 00 00       	call   4015f0 <tpg_read_cr4>
  401520:	89 45 f4             	mov    %eax,-0xc(%ebp)
  401523:	8b 45 ec             	mov    -0x14(%ebp),%eax
  401526:	25 ff ff ff 7f       	and    $0x7fffffff,%eax
  40152b:	83 ec 0c             	sub    $0xc,%esp
  40152e:	50                   	push   %eax
  40152f:	e8 c4 00 00 00       	call   4015f8 <tpg_write_cr0>
  401534:	83 c4 10             	add    $0x10,%esp
  401537:	8b 45 f4             	mov    -0xc(%ebp),%eax
  40153a:	24 6f                	and    $0x6f,%al
  40153c:	83 ec 0c             	sub    $0xc,%esp
  40153f:	50                   	push   %eax
  401540:	e8 cd 00 00 00       	call   401612 <tpg_write_cr4>
  401545:	83 c4 10             	add    $0x10,%esp
  401548:	e8 93 00 00 00       	call   4015e0 <tpg_read_cr0>
  40154d:	89 45 ec             	mov    %eax,-0x14(%ebp)
  401550:	e8 9b 00 00 00       	call   4015f0 <tpg_read_cr4>
  401555:	89 45 f4             	mov    %eax,-0xc(%ebp)
  401558:	83 4d f4 10          	orl    $0x10,-0xc(%ebp)
  40155c:	83 ec 0c             	sub    $0xc,%esp
  40155f:	ff 75 f4             	push   -0xc(%ebp)
  401562:	e8 ab 00 00 00       	call   401612 <tpg_write_cr4>
  401567:	83 c4 10             	add    $0x10,%esp
  40156a:	81 4d ec 00 00 00 80 	orl    $0x80000000,-0x14(%ebp)
  401571:	83 ec 0c             	sub    $0xc,%esp
  401574:	ff 75 ec             	push   -0x14(%ebp)
  401577:	e8 7c 00 00 00       	call   4015f8 <tpg_write_cr0>
  40157c:	83 c4 10             	add    $0x10,%esp
  40157f:	81 4d ec 00 00 01 00 	orl    $0x10000,-0x14(%ebp)
  401586:	83 ec 0c             	sub    $0xc,%esp
  401589:	ff 75 ec             	push   -0x14(%ebp)
  40158c:	e8 67 00 00 00       	call   4015f8 <tpg_write_cr0>
  401591:	83 c4 10             	add    $0x10,%esp
  401594:	8b 45 f0             	mov    -0x10(%ebp),%eax
  401597:	83 e0 02             	and    $0x2,%eax
  40159a:	85 c0                	test   %eax,%eax
  40159c:	74 07                	je     4015a5 <kboot_tpg_enable_paging+0xa0>
  40159e:	81 4d f4 80 00 00 00 	orl    $0x80,-0xc(%ebp)
  4015a5:	83 ec 0c             	sub    $0xc,%esp
  4015a8:	ff 75 f4             	push   -0xc(%ebp)
  4015ab:	e8 62 00 00 00       	call   401612 <tpg_write_cr4>
  4015b0:	83 c4 10             	add    $0x10,%esp
  4015b3:	90                   	nop
  4015b4:	c9                   	leave
  4015b5:	c3                   	ret
  4015b6:	66 90                	xchg   %ax,%ax
  4015b8:	66 90                	xchg   %ax,%ax
  4015ba:	66 90                	xchg   %ax,%ax
  4015bc:	66 90                	xchg   %ax,%ax
  4015be:	66 90                	xchg   %ax,%ax

004015c0 <_start>:
  4015c0:	fa                   	cli
  4015c1:	bc 00 24 40 00       	mov    $0x402400,%esp
  4015c6:	89 e5                	mov    %esp,%ebp
  4015c8:	53                   	push   %ebx
  4015c9:	50                   	push   %eax
  4015ca:	e8 31 fa ff ff       	call   401000 <kboot>
  4015cf:	83 c4 08             	add    $0x8,%esp
  4015d2:	e9 19 3b 00 f0       	jmp    f04050f0 <__karch_init>
  4015d7:	66 90                	xchg   %ax,%ax
  4015d9:	66 90                	xchg   %ax,%ax
  4015db:	66 90                	xchg   %ax,%ax
  4015dd:	66 90                	xchg   %ax,%ax
  4015df:	90                   	nop

004015e0 <tpg_read_cr0>:
  4015e0:	55                   	push   %ebp
  4015e1:	89 e5                	mov    %esp,%ebp
  4015e3:	0f 20 c0             	mov    %cr0,%eax
  4015e6:	5d                   	pop    %ebp
  4015e7:	c3                   	ret

004015e8 <tpg_read_cr3>:
  4015e8:	55                   	push   %ebp
  4015e9:	89 e5                	mov    %esp,%ebp
  4015eb:	0f 20 d8             	mov    %cr3,%eax
  4015ee:	5d                   	pop    %ebp
  4015ef:	c3                   	ret

004015f0 <tpg_read_cr4>:
  4015f0:	55                   	push   %ebp
  4015f1:	89 e5                	mov    %esp,%ebp
  4015f3:	0f 20 e0             	mov    %cr4,%eax
  4015f6:	5d                   	pop    %ebp
  4015f7:	c3                   	ret

004015f8 <tpg_write_cr0>:
  4015f8:	55                   	push   %ebp
  4015f9:	89 e5                	mov    %esp,%ebp
  4015fb:	8b 45 08             	mov    0x8(%ebp),%eax
  4015fe:	0f 22 c0             	mov    %eax,%cr0
  401601:	eb 00                	jmp    401603 <tpg_write_cr0.done>

00401603 <tpg_write_cr0.done>:
  401603:	5d                   	pop    %ebp
  401604:	c3                   	ret

00401605 <tpg_write_cr3>:
  401605:	55                   	push   %ebp
  401606:	89 e5                	mov    %esp,%ebp
  401608:	8b 45 08             	mov    0x8(%ebp),%eax
  40160b:	0f 22 d8             	mov    %eax,%cr3
  40160e:	eb 00                	jmp    401610 <tpg_write_cr3.done>

00401610 <tpg_write_cr3.done>:
  401610:	5d                   	pop    %ebp
  401611:	c3                   	ret

00401612 <tpg_write_cr4>:
  401612:	55                   	push   %ebp
  401613:	89 e5                	mov    %esp,%ebp
  401615:	8b 45 08             	mov    0x8(%ebp),%eax
  401618:	0f 22 e0             	mov    %eax,%cr4
  40161b:	eb 00                	jmp    40161d <tpg_write_cr4.done>

0040161d <tpg_write_cr4.done>:
  40161d:	5d                   	pop    %ebp
  40161e:	c3                   	ret

0040161f <tpg_cpuid>:
  40161f:	55                   	push   %ebp
  401620:	53                   	push   %ebx
  401621:	8b 6c 24 0c          	mov    0xc(%esp),%ebp
  401625:	8b 45 00             	mov    0x0(%ebp),%eax
  401628:	8b 6c 24 10          	mov    0x10(%esp),%ebp
  40162c:	8b 5d 00             	mov    0x0(%ebp),%ebx
  40162f:	8b 6c 24 14          	mov    0x14(%esp),%ebp
  401633:	8b 4d 00             	mov    0x0(%ebp),%ecx
  401636:	8b 6c 24 18          	mov    0x18(%esp),%ebp
  40163a:	8b 55 00             	mov    0x0(%ebp),%edx
  40163d:	0f a2                	cpuid
  40163f:	8b 6c 24 0c          	mov    0xc(%esp),%ebp
  401643:	89 45 00             	mov    %eax,0x0(%ebp)
  401646:	8b 6c 24 10          	mov    0x10(%esp),%ebp
  40164a:	89 5d 00             	mov    %ebx,0x0(%ebp)
  40164d:	8b 6c 24 14          	mov    0x14(%esp),%ebp
  401651:	89 4d 00             	mov    %ecx,0x0(%ebp)
  401654:	8b 6c 24 18          	mov    0x18(%esp),%ebp
  401658:	89 55 00             	mov    %edx,0x0(%ebp)
  40165b:	5b                   	pop    %ebx
  40165c:	5d                   	pop    %ebp
  40165d:	c3                   	ret

Disassembly of section .unpaged.bss:

00402000 <_kstack_head>:
	...

00402400 <_kstack_tail>:
	...

00403000 <temp_bootinfo>:
	...

00404000 <pagedir>:
	...

Disassembly of section .text:

f0405000 <karch_timer_test>:
f0405000:	55                   	push   %ebp
f0405001:	89 e5                	mov    %esp,%ebp
f0405003:	83 ec 10             	sub    $0x10,%esp
f0405006:	0f b6 05 2c 13 41 f0 	movzbl 0xf041132c,%eax
f040500d:	8d 50 01             	lea    0x1(%eax),%edx
f0405010:	88 15 2c 13 41 f0    	mov    %dl,0xf041132c
f0405016:	88 45 ff             	mov    %al,-0x1(%ebp)
f0405019:	0f b6 4d ff          	movzbl -0x1(%ebp),%ecx
f040501d:	ba 29 00 00 00       	mov    $0x29,%edx
f0405022:	89 d0                	mov    %edx,%eax
f0405024:	f6 e1                	mul    %cl
f0405026:	66 c1 e8 08          	shr    $0x8,%ax
f040502a:	89 c2                	mov    %eax,%edx
f040502c:	c0 ea 02             	shr    $0x2,%dl
f040502f:	89 d0                	mov    %edx,%eax
f0405031:	c1 e0 02             	shl    $0x2,%eax
f0405034:	01 d0                	add    %edx,%eax
f0405036:	8d 14 85 00 00 00 00 	lea    0x0(,%eax,4),%edx
f040503d:	01 d0                	add    %edx,%eax
f040503f:	29 c1                	sub    %eax,%ecx
f0405041:	89 ca                	mov    %ecx,%edx
f0405043:	8d 42 61             	lea    0x61(%edx),%eax
f0405046:	88 45 fe             	mov    %al,-0x2(%ebp)
f0405049:	c7 45 f8 00 80 0b 00 	movl   $0xb8000,-0x8(%ebp)
f0405050:	66 0f be 45 fe       	movsbw -0x2(%ebp),%ax
f0405055:	80 cc 0f             	or     $0xf,%ah
f0405058:	89 c2                	mov    %eax,%edx
f040505a:	8b 45 f8             	mov    -0x8(%ebp),%eax
f040505d:	66 89 10             	mov    %dx,(%eax)
f0405060:	90                   	nop
f0405061:	c9                   	leave
f0405062:	c3                   	ret

f0405063 <karch_init>:
f0405063:	55                   	push   %ebp
f0405064:	89 e5                	mov    %esp,%ebp
f0405066:	83 ec 08             	sub    $0x8,%esp
f0405069:	83 ec 04             	sub    $0x4,%esp
f040506c:	68 2c 03 00 00       	push   $0x32c
f0405071:	ff 75 08             	push   0x8(%ebp)
f0405074:	68 00 10 41 f0       	push   $0xf0411000
f0405079:	e8 7e 16 00 00       	call   f04066fc <kmemcpy>
f040507e:	83 c4 10             	add    $0x10,%esp
f0405081:	e8 cb 08 00 00       	call   f0405951 <karch_init_gdt>
f0405086:	e8 70 13 00 00       	call   f04063fb <karch_init_tss>
f040508b:	e8 5a 09 00 00       	call   f04059ea <karch_flush_gdt>
f0405090:	e8 68 11 00 00       	call   f04061fd <karch_init_idt>
f0405095:	e8 e6 0d 00 00       	call   f0405e80 <karch_init_i8259>
f040509a:	e8 8f 07 00 00       	call   f040582e <karch_init_except>
f040509f:	e8 8c 11 00 00       	call   f0406230 <karch_flush_idt>
f04050a4:	83 ec 0c             	sub    $0xc,%esp
f04050a7:	68 00 10 41 f0       	push   $0xf0411000
f04050ac:	e8 47 12 00 00       	call   f04062f8 <karch_init_page>
f04050b1:	83 c4 10             	add    $0x10,%esp
f04050b4:	83 ec 04             	sub    $0x4,%esp
f04050b7:	6a 00                	push   $0x0
f04050b9:	68 00 50 40 f0       	push   $0xf0405000
f04050be:	6a 00                	push   $0x0
f04050c0:	e8 90 10 00 00       	call   f0406155 <karch_set_hwint_i8259>
f04050c5:	83 c4 10             	add    $0x10,%esp
f04050c8:	83 ec 0c             	sub    $0xc,%esp
f04050cb:	6a 00                	push   $0x0
f04050cd:	e8 b6 0e 00 00       	call   f0405f88 <karch_unmask_i8259>
f04050d2:	83 c4 10             	add    $0x10,%esp
f04050d5:	e8 96 03 00 00       	call   f0405470 <cpu_sti>
f04050da:	83 ec 0c             	sub    $0xc,%esp
f04050dd:	68 70 17 00 00       	push   $0x1770
f04050e2:	e8 1a 0a 00 00       	call   f0405b01 <karch_init_i8253>
f04050e7:	83 c4 10             	add    $0x10,%esp
f04050ea:	90                   	nop
f04050eb:	eb fd                	jmp    f04050ea <karch_init+0x87>
f04050ed:	66 90                	xchg   %ax,%ax
f04050ef:	90                   	nop

f04050f0 <__karch_init>:
f04050f0:	bc 00 d0 40 f0       	mov    $0xf040d000,%esp
f04050f5:	89 e5                	mov    %esp,%ebp
f04050f7:	6a 00                	push   $0x0
f04050f9:	50                   	push   %eax
f04050fa:	e8 64 ff ff ff       	call   f0405063 <karch_init>
f04050ff:	bb 00 90 40 f0       	mov    $0xf0409000,%ebx
f0405104:	eb 05                	jmp    f040510b <__karch_init.p2>

f0405106 <__karch_init.p1>:
f0405106:	ff 13                	call   *(%ebx)
f0405108:	83 c3 04             	add    $0x4,%ebx

f040510b <__karch_init.p2>:
f040510b:	81 fb 00 90 40 f0    	cmp    $0xf0409000,%ebx
f0405111:	72 f3                	jb     f0405106 <__karch_init.p1>
f0405113:	e8 80 17 00 00       	call   f0406898 <kmain>

f0405118 <__karch_init.hang>:
f0405118:	f4                   	hlt
f0405119:	eb fd                	jmp    f0405118 <__karch_init.hang>

f040511b <kcpuinfo>:
f040511b:	55                   	push   %ebp
f040511c:	89 e5                	mov    %esp,%ebp
f040511e:	83 ec 38             	sub    $0x38,%esp
f0405121:	83 7d 08 00          	cmpl   $0x0,0x8(%ebp)
f0405125:	75 0a                	jne    f0405131 <kcpuinfo+0x16>
f0405127:	b8 00 00 00 00       	mov    $0x0,%eax
f040512c:	e9 60 02 00 00       	jmp    f0405391 <kcpuinfo+0x276>
f0405131:	c7 45 e4 00 00 00 00 	movl   $0x0,-0x1c(%ebp)
f0405138:	c7 45 d4 00 00 00 00 	movl   $0x0,-0x2c(%ebp)
f040513f:	c7 45 d0 00 00 00 00 	movl   $0x0,-0x30(%ebp)
f0405146:	c7 45 cc 00 00 00 00 	movl   $0x0,-0x34(%ebp)
f040514d:	c7 45 c8 00 00 00 00 	movl   $0x0,-0x38(%ebp)
f0405154:	8d 45 d8             	lea    -0x28(%ebp),%eax
f0405157:	50                   	push   %eax
f0405158:	8d 45 dc             	lea    -0x24(%ebp),%eax
f040515b:	50                   	push   %eax
f040515c:	8d 45 e0             	lea    -0x20(%ebp),%eax
f040515f:	50                   	push   %eax
f0405160:	8d 45 e4             	lea    -0x1c(%ebp),%eax
f0405163:	50                   	push   %eax
f0405164:	e8 82 02 00 00       	call   f04053eb <read_cpuid>
f0405169:	83 c4 10             	add    $0x10,%esp
f040516c:	8b 45 e4             	mov    -0x1c(%ebp),%eax
f040516f:	85 c0                	test   %eax,%eax
f0405171:	75 0a                	jne    f040517d <kcpuinfo+0x62>
f0405173:	b8 00 00 00 00       	mov    $0x0,%eax
f0405178:	e9 14 02 00 00       	jmp    f0405391 <kcpuinfo+0x276>
f040517d:	a1 00 80 40 f0       	mov    0xf0408000,%eax
f0405182:	8b 10                	mov    (%eax),%edx
f0405184:	8b 45 d8             	mov    -0x28(%ebp),%eax
f0405187:	39 c2                	cmp    %eax,%edx
f0405189:	0f 94 c0             	sete   %al
f040518c:	88 45 ef             	mov    %al,-0x11(%ebp)
f040518f:	a1 04 80 40 f0       	mov    0xf0408004,%eax
f0405194:	8b 10                	mov    (%eax),%edx
f0405196:	8b 45 d8             	mov    -0x28(%ebp),%eax
f0405199:	39 c2                	cmp    %eax,%edx
f040519b:	0f 94 c0             	sete   %al
f040519e:	88 45 ee             	mov    %al,-0x12(%ebp)
f04051a1:	c7 45 e4 01 00 00 00 	movl   $0x1,-0x1c(%ebp)
f04051a8:	8d 45 d8             	lea    -0x28(%ebp),%eax
f04051ab:	50                   	push   %eax
f04051ac:	8d 45 dc             	lea    -0x24(%ebp),%eax
f04051af:	50                   	push   %eax
f04051b0:	8d 45 e0             	lea    -0x20(%ebp),%eax
f04051b3:	50                   	push   %eax
f04051b4:	8d 45 e4             	lea    -0x1c(%ebp),%eax
f04051b7:	50                   	push   %eax
f04051b8:	e8 2e 02 00 00       	call   f04053eb <read_cpuid>
f04051bd:	83 c4 10             	add    $0x10,%esp
f04051c0:	8b 45 e4             	mov    -0x1c(%ebp),%eax
f04051c3:	83 e0 0f             	and    $0xf,%eax
f04051c6:	89 45 e8             	mov    %eax,-0x18(%ebp)
f04051c9:	8b 45 e4             	mov    -0x1c(%ebp),%eax
f04051cc:	c1 e8 04             	shr    $0x4,%eax
f04051cf:	83 e0 0f             	and    $0xf,%eax
f04051d2:	89 45 f4             	mov    %eax,-0xc(%ebp)
f04051d5:	83 7d f4 0f          	cmpl   $0xf,-0xc(%ebp)
f04051d9:	74 06                	je     f04051e1 <kcpuinfo+0xc6>
f04051db:	83 7d f4 06          	cmpl   $0x6,-0xc(%ebp)
f04051df:	75 0f                	jne    f04051f0 <kcpuinfo+0xd5>
f04051e1:	8b 45 e4             	mov    -0x1c(%ebp),%eax
f04051e4:	c1 e8 10             	shr    $0x10,%eax
f04051e7:	c1 e0 04             	shl    $0x4,%eax
f04051ea:	0f b6 c0             	movzbl %al,%eax
f04051ed:	01 45 f4             	add    %eax,-0xc(%ebp)
f04051f0:	8b 45 e4             	mov    -0x1c(%ebp),%eax
f04051f3:	c1 e8 08             	shr    $0x8,%eax
f04051f6:	83 e0 0f             	and    $0xf,%eax
f04051f9:	89 45 f0             	mov    %eax,-0x10(%ebp)
f04051fc:	83 7d f0 0f          	cmpl   $0xf,-0x10(%ebp)
f0405200:	75 0c                	jne    f040520e <kcpuinfo+0xf3>
f0405202:	8b 45 e4             	mov    -0x1c(%ebp),%eax
f0405205:	c1 e8 14             	shr    $0x14,%eax
f0405208:	0f b6 c0             	movzbl %al,%eax
f040520b:	01 45 f0             	add    %eax,-0x10(%ebp)
f040520e:	80 7d ee 00          	cmpb   $0x0,-0x12(%ebp)
f0405212:	74 1f                	je     f0405233 <kcpuinfo+0x118>
f0405214:	c7 45 d4 01 00 00 80 	movl   $0x80000001,-0x2c(%ebp)
f040521b:	8d 45 cc             	lea    -0x34(%ebp),%eax
f040521e:	50                   	push   %eax
f040521f:	8d 45 c8             	lea    -0x38(%ebp),%eax
f0405222:	50                   	push   %eax
f0405223:	8d 45 d0             	lea    -0x30(%ebp),%eax
f0405226:	50                   	push   %eax
f0405227:	8d 45 d4             	lea    -0x2c(%ebp),%eax
f040522a:	50                   	push   %eax
f040522b:	e8 bb 01 00 00       	call   f04053eb <read_cpuid>
f0405230:	83 c4 10             	add    $0x10,%esp
f0405233:	83 7d 08 12          	cmpl   $0x12,0x8(%ebp)
f0405237:	0f 87 4f 01 00 00    	ja     f040538c <kcpuinfo+0x271>
f040523d:	8b 45 08             	mov    0x8(%ebp),%eax
f0405240:	c1 e0 02             	shl    $0x2,%eax
f0405243:	05 0c 70 40 f0       	add    $0xf040700c,%eax
f0405248:	8b 00                	mov    (%eax),%eax
f040524a:	ff e0                	jmp    *%eax
f040524c:	8b 45 dc             	mov    -0x24(%ebp),%eax
f040524f:	83 e0 08             	and    $0x8,%eax
f0405252:	e9 3a 01 00 00       	jmp    f0405391 <kcpuinfo+0x276>
f0405257:	8b 45 dc             	mov    -0x24(%ebp),%eax
f040525a:	83 e0 40             	and    $0x40,%eax
f040525d:	e9 2f 01 00 00       	jmp    f0405391 <kcpuinfo+0x276>
f0405262:	8b 45 dc             	mov    -0x24(%ebp),%eax
f0405265:	25 00 02 00 00       	and    $0x200,%eax
f040526a:	e9 22 01 00 00       	jmp    f0405391 <kcpuinfo+0x276>
f040526f:	8b 45 dc             	mov    -0x24(%ebp),%eax
f0405272:	83 e0 10             	and    $0x10,%eax
f0405275:	e9 17 01 00 00       	jmp    f0405391 <kcpuinfo+0x276>
f040527a:	8b 45 dc             	mov    -0x24(%ebp),%eax
f040527d:	83 e0 01             	and    $0x1,%eax
f0405280:	e9 0c 01 00 00       	jmp    f0405391 <kcpuinfo+0x276>
f0405285:	8b 45 dc             	mov    -0x24(%ebp),%eax
f0405288:	25 00 00 00 07       	and    $0x7000000,%eax
f040528d:	3d 00 00 00 07       	cmp    $0x7000000,%eax
f0405292:	75 19                	jne    f04052ad <kcpuinfo+0x192>
f0405294:	8b 45 d8             	mov    -0x28(%ebp),%eax
f0405297:	25 01 02 18 00       	and    $0x180201,%eax
f040529c:	3d 01 02 18 00       	cmp    $0x180201,%eax
f04052a1:	75 0a                	jne    f04052ad <kcpuinfo+0x192>
f04052a3:	b8 01 00 00 00       	mov    $0x1,%eax
f04052a8:	e9 e4 00 00 00       	jmp    f0405391 <kcpuinfo+0x276>
f04052ad:	b8 00 00 00 00       	mov    $0x0,%eax
f04052b2:	e9 da 00 00 00       	jmp    f0405391 <kcpuinfo+0x276>
f04052b7:	8b 45 dc             	mov    -0x24(%ebp),%eax
f04052ba:	25 00 00 00 01       	and    $0x1000000,%eax
f04052bf:	e9 cd 00 00 00       	jmp    f0405391 <kcpuinfo+0x276>
f04052c4:	8b 45 dc             	mov    -0x24(%ebp),%eax
f04052c7:	25 00 00 00 02       	and    $0x2000000,%eax
f04052cc:	e9 c0 00 00 00       	jmp    f0405391 <kcpuinfo+0x276>
f04052d1:	8b 45 dc             	mov    -0x24(%ebp),%eax
f04052d4:	25 00 00 00 04       	and    $0x4000000,%eax
f04052d9:	e9 b3 00 00 00       	jmp    f0405391 <kcpuinfo+0x276>
f04052de:	8b 45 d8             	mov    -0x28(%ebp),%eax
f04052e1:	83 e0 01             	and    $0x1,%eax
f04052e4:	e9 a8 00 00 00       	jmp    f0405391 <kcpuinfo+0x276>
f04052e9:	8b 45 d8             	mov    -0x28(%ebp),%eax
f04052ec:	25 00 02 00 00       	and    $0x200,%eax
f04052f1:	e9 9b 00 00 00       	jmp    f0405391 <kcpuinfo+0x276>
f04052f6:	8b 45 d8             	mov    -0x28(%ebp),%eax
f04052f9:	25 00 00 08 00       	and    $0x80000,%eax
f04052fe:	e9 8e 00 00 00       	jmp    f0405391 <kcpuinfo+0x276>
f0405303:	8b 45 d8             	mov    -0x28(%ebp),%eax
f0405306:	25 00 00 10 00       	and    $0x100000,%eax
f040530b:	e9 81 00 00 00       	jmp    f0405391 <kcpuinfo+0x276>
f0405310:	8b 45 dc             	mov    -0x24(%ebp),%eax
f0405313:	25 00 00 00 10       	and    $0x10000000,%eax
f0405318:	eb 77                	jmp    f0405391 <kcpuinfo+0x276>
f040531a:	8b 45 e0             	mov    -0x20(%ebp),%eax
f040531d:	c1 e8 10             	shr    $0x10,%eax
f0405320:	0f b6 c0             	movzbl %al,%eax
f0405323:	eb 6c                	jmp    f0405391 <kcpuinfo+0x276>
f0405325:	80 7d ef 00          	cmpb   $0x0,-0x11(%ebp)
f0405329:	75 07                	jne    f0405332 <kcpuinfo+0x217>
f040532b:	b8 00 00 00 00       	mov    $0x0,%eax
f0405330:	eb 5f                	jmp    f0405391 <kcpuinfo+0x276>
f0405332:	8b 45 dc             	mov    -0x24(%ebp),%eax
f0405335:	25 00 08 00 00       	and    $0x800,%eax
f040533a:	85 c0                	test   %eax,%eax
f040533c:	75 07                	jne    f0405345 <kcpuinfo+0x22a>
f040533e:	b8 00 00 00 00       	mov    $0x0,%eax
f0405343:	eb 4c                	jmp    f0405391 <kcpuinfo+0x276>
f0405345:	83 7d f0 06          	cmpl   $0x6,-0x10(%ebp)
f0405349:	75 13                	jne    f040535e <kcpuinfo+0x243>
f040534b:	83 7d f4 02          	cmpl   $0x2,-0xc(%ebp)
f040534f:	77 0d                	ja     f040535e <kcpuinfo+0x243>
f0405351:	83 7d e8 02          	cmpl   $0x2,-0x18(%ebp)
f0405355:	77 07                	ja     f040535e <kcpuinfo+0x243>
f0405357:	b8 00 00 00 00       	mov    $0x0,%eax
f040535c:	eb 33                	jmp    f0405391 <kcpuinfo+0x276>
f040535e:	b8 01 00 00 00       	mov    $0x1,%eax
f0405363:	eb 2c                	jmp    f0405391 <kcpuinfo+0x276>
f0405365:	80 7d ee 00          	cmpb   $0x0,-0x12(%ebp)
f0405369:	75 07                	jne    f0405372 <kcpuinfo+0x257>
f040536b:	b8 00 00 00 00       	mov    $0x0,%eax
f0405370:	eb 1f                	jmp    f0405391 <kcpuinfo+0x276>
f0405372:	8b 45 cc             	mov    -0x34(%ebp),%eax
f0405375:	25 00 08 00 00       	and    $0x800,%eax
f040537a:	85 c0                	test   %eax,%eax
f040537c:	75 07                	jne    f0405385 <kcpuinfo+0x26a>
f040537e:	b8 00 00 00 00       	mov    $0x0,%eax
f0405383:	eb 0c                	jmp    f0405391 <kcpuinfo+0x276>
f0405385:	b8 01 00 00 00       	mov    $0x1,%eax
f040538a:	eb 05                	jmp    f0405391 <kcpuinfo+0x276>
f040538c:	b8 00 00 00 00       	mov    $0x0,%eax
f0405391:	c9                   	leave
f0405392:	c3                   	ret
f0405393:	66 90                	xchg   %ax,%ax
f0405395:	66 90                	xchg   %ax,%ax
f0405397:	66 90                	xchg   %ax,%ax
f0405399:	66 90                	xchg   %ax,%ax
f040539b:	66 90                	xchg   %ax,%ax
f040539d:	66 90                	xchg   %ax,%ax
f040539f:	90                   	nop

f04053a0 <read_cr0>:
f04053a0:	55                   	push   %ebp
f04053a1:	89 e5                	mov    %esp,%ebp
f04053a3:	0f 20 c0             	mov    %cr0,%eax
f04053a6:	89 ec                	mov    %ebp,%esp
f04053a8:	5d                   	pop    %ebp
f04053a9:	c3                   	ret

f04053aa <read_cr3>:
f04053aa:	55                   	push   %ebp
f04053ab:	89 e5                	mov    %esp,%ebp
f04053ad:	0f 20 d8             	mov    %cr3,%eax
f04053b0:	89 ec                	mov    %ebp,%esp
f04053b2:	5d                   	pop    %ebp
f04053b3:	c3                   	ret

f04053b4 <read_cr4>:
f04053b4:	55                   	push   %ebp
f04053b5:	89 e5                	mov    %esp,%ebp
f04053b7:	0f 20 e0             	mov    %cr4,%eax
f04053ba:	89 ec                	mov    %ebp,%esp
f04053bc:	5d                   	pop    %ebp
f04053bd:	c3                   	ret

f04053be <write_cr0>:
f04053be:	55                   	push   %ebp
f04053bf:	89 e5                	mov    %esp,%ebp
f04053c1:	8b 45 08             	mov    0x8(%ebp),%eax
f04053c4:	0f 22 c0             	mov    %eax,%cr0
f04053c7:	eb 00                	jmp    f04053c9 <write_cr0.done>

f04053c9 <write_cr0.done>:
f04053c9:	89 ec                	mov    %ebp,%esp
f04053cb:	5d                   	pop    %ebp
f04053cc:	c3                   	ret

f04053cd <write_cr3>:
f04053cd:	55                   	push   %ebp
f04053ce:	89 e5                	mov    %esp,%ebp
f04053d0:	8b 45 08             	mov    0x8(%ebp),%eax
f04053d3:	0f 22 d8             	mov    %eax,%cr3
f04053d6:	eb 00                	jmp    f04053d8 <write_cr3.done>

f04053d8 <write_cr3.done>:
f04053d8:	89 ec                	mov    %ebp,%esp
f04053da:	5d                   	pop    %ebp
f04053db:	c3                   	ret

f04053dc <write_cr4>:
f04053dc:	55                   	push   %ebp
f04053dd:	89 e5                	mov    %esp,%ebp
f04053df:	8b 45 08             	mov    0x8(%ebp),%eax
f04053e2:	0f 22 e0             	mov    %eax,%cr4
f04053e5:	eb 00                	jmp    f04053e7 <write_cr4.done>

f04053e7 <write_cr4.done>:
f04053e7:	89 ec                	mov    %ebp,%esp
f04053e9:	5d                   	pop    %ebp
f04053ea:	c3                   	ret

f04053eb <read_cpuid>:
f04053eb:	55                   	push   %ebp
f04053ec:	53                   	push   %ebx
f04053ed:	8b 6c 24 0c          	mov    0xc(%esp),%ebp
f04053f1:	8b 45 00             	mov    0x0(%ebp),%eax
f04053f4:	8b 6c 24 10          	mov    0x10(%esp),%ebp
f04053f8:	8b 5d 00             	mov    0x0(%ebp),%ebx
f04053fb:	8b 6c 24 14          	mov    0x14(%esp),%ebp
f04053ff:	8b 4d 00             	mov    0x0(%ebp),%ecx
f0405402:	8b 6c 24 18          	mov    0x18(%esp),%ebp
f0405406:	8b 55 00             	mov    0x0(%ebp),%edx
f0405409:	0f a2                	cpuid
f040540b:	8b 6c 24 0c          	mov    0xc(%esp),%ebp
f040540f:	89 45 00             	mov    %eax,0x0(%ebp)
f0405412:	8b 6c 24 10          	mov    0x10(%esp),%ebp
f0405416:	89 5d 00             	mov    %ebx,0x0(%ebp)
f0405419:	8b 6c 24 14          	mov    0x14(%esp),%ebp
f040541d:	89 4d 00             	mov    %ecx,0x0(%ebp)
f0405420:	8b 6c 24 18          	mov    0x18(%esp),%ebp
f0405424:	89 55 00             	mov    %edx,0x0(%ebp)
f0405427:	5b                   	pop    %ebx
f0405428:	5d                   	pop    %ebp
f0405429:	c3                   	ret

f040542a <read_msr>:
f040542a:	55                   	push   %ebp
f040542b:	89 e5                	mov    %esp,%ebp
f040542d:	8b 4d 08             	mov    0x8(%ebp),%ecx
f0405430:	0f 32                	rdmsr
f0405432:	8b 4d 0c             	mov    0xc(%ebp),%ecx
f0405435:	89 11                	mov    %edx,(%ecx)
f0405437:	8b 4d 10             	mov    0x10(%ebp),%ecx
f040543a:	89 01                	mov    %eax,(%ecx)
f040543c:	89 ec                	mov    %ebp,%esp
f040543e:	5d                   	pop    %ebp
f040543f:	c3                   	ret

f0405440 <write_msr>:
f0405440:	55                   	push   %ebp
f0405441:	89 e5                	mov    %esp,%ebp
f0405443:	8b 55 0c             	mov    0xc(%ebp),%edx
f0405446:	8b 45 10             	mov    0x10(%ebp),%eax
f0405449:	8b 4d 08             	mov    0x8(%ebp),%ecx
f040544c:	0f 30                	wrmsr
f040544e:	89 ec                	mov    %ebp,%esp
f0405450:	5d                   	pop    %ebp
f0405451:	c3                   	ret

f0405452 <load_gdt>:
f0405452:	55                   	push   %ebp
f0405453:	89 e5                	mov    %esp,%ebp
f0405455:	8b 45 08             	mov    0x8(%ebp),%eax
f0405458:	0f 01 10             	lgdtl  (%eax)
f040545b:	89 ec                	mov    %ebp,%esp
f040545d:	5d                   	pop    %ebp
f040545e:	c3                   	ret

f040545f <load_idt>:
f040545f:	55                   	push   %ebp
f0405460:	89 e5                	mov    %esp,%ebp
f0405462:	8b 45 08             	mov    0x8(%ebp),%eax
f0405465:	0f 01 18             	lidtl  (%eax)
f0405468:	89 ec                	mov    %ebp,%esp
f040546a:	5d                   	pop    %ebp
f040546b:	c3                   	ret

f040546c <cpu_hlt>:
f040546c:	f4                   	hlt
f040546d:	c3                   	ret

f040546e <cpu_cli>:
f040546e:	fa                   	cli
f040546f:	c3                   	ret

f0405470 <cpu_sti>:
f0405470:	fb                   	sti
f0405471:	c3                   	ret

f0405472 <cpu_stihlt>:
f0405472:	fb                   	sti
f0405473:	f4                   	hlt
f0405474:	c3                   	ret

f0405475 <cpu_in8>:
f0405475:	55                   	push   %ebp
f0405476:	89 e5                	mov    %esp,%ebp
f0405478:	52                   	push   %edx
f0405479:	8b 55 08             	mov    0x8(%ebp),%edx
f040547c:	b8 00 00 00 00       	mov    $0x0,%eax
f0405481:	ec                   	in     (%dx),%al
f0405482:	5a                   	pop    %edx
f0405483:	89 ec                	mov    %ebp,%esp
f0405485:	5d                   	pop    %ebp
f0405486:	c3                   	ret

f0405487 <cpu_in16>:
f0405487:	55                   	push   %ebp
f0405488:	89 e5                	mov    %esp,%ebp
f040548a:	52                   	push   %edx
f040548b:	8b 55 08             	mov    0x8(%ebp),%edx
f040548e:	b8 00 00 00 00       	mov    $0x0,%eax
f0405493:	66 ed                	in     (%dx),%ax
f0405495:	5a                   	pop    %edx
f0405496:	89 ec                	mov    %ebp,%esp
f0405498:	5d                   	pop    %ebp
f0405499:	c3                   	ret

f040549a <cpu_in32>:
f040549a:	55                   	push   %ebp
f040549b:	89 e5                	mov    %esp,%ebp
f040549d:	52                   	push   %edx
f040549e:	8b 55 08             	mov    0x8(%ebp),%edx
f04054a1:	b8 00 00 00 00       	mov    $0x0,%eax
f04054a6:	ed                   	in     (%dx),%eax
f04054a7:	5a                   	pop    %edx
f04054a8:	89 ec                	mov    %ebp,%esp
f04054aa:	5d                   	pop    %ebp
f04054ab:	c3                   	ret

f04054ac <cpu_out8>:
f04054ac:	55                   	push   %ebp
f04054ad:	89 e5                	mov    %esp,%ebp
f04054af:	52                   	push   %edx
f04054b0:	8b 55 08             	mov    0x8(%ebp),%edx
f04054b3:	8a 45 0c             	mov    0xc(%ebp),%al
f04054b6:	ee                   	out    %al,(%dx)
f04054b7:	5a                   	pop    %edx
f04054b8:	89 ec                	mov    %ebp,%esp
f04054ba:	5d                   	pop    %ebp
f04054bb:	c3                   	ret

f04054bc <cpu_out16>:
f04054bc:	55                   	push   %ebp
f04054bd:	89 e5                	mov    %esp,%ebp
f04054bf:	52                   	push   %edx
f04054c0:	8b 55 08             	mov    0x8(%ebp),%edx
f04054c3:	66 8b 45 0c          	mov    0xc(%ebp),%ax
f04054c7:	66 ef                	out    %ax,(%dx)
f04054c9:	5a                   	pop    %edx
f04054ca:	89 ec                	mov    %ebp,%esp
f04054cc:	5d                   	pop    %ebp
f04054cd:	c3                   	ret

f04054ce <cpu_out32>:
f04054ce:	55                   	push   %ebp
f04054cf:	89 e5                	mov    %esp,%ebp
f04054d1:	52                   	push   %edx
f04054d2:	8b 55 08             	mov    0x8(%ebp),%edx
f04054d5:	8b 45 0c             	mov    0xc(%ebp),%eax
f04054d8:	ef                   	out    %eax,(%dx)
f04054d9:	5a                   	pop    %edx
f04054da:	89 ec                	mov    %ebp,%esp
f04054dc:	5d                   	pop    %ebp
f04054dd:	c3                   	ret
f04054de:	66 90                	xchg   %ax,%ax

f04054e0 <karch_except_00>:
f04054e0:	55                   	push   %ebp
f04054e1:	53                   	push   %ebx
f04054e2:	50                   	push   %eax
f04054e3:	89 e5                	mov    %esp,%ebp
f04054e5:	83 7d 10 08          	cmpl   $0x8,0x10(%ebp)
f04054e9:	74 1d                	je     f0405508 <karch_except_00.kern>
f04054eb:	bb 00 00 00 00       	mov    $0x0,%ebx

f04054f0 <karch_except_00.all>:
f04054f0:	89 e8                	mov    %ebp,%eax
f04054f2:	83 e8 0c             	sub    $0xc,%eax
f04054f5:	50                   	push   %eax
f04054f6:	53                   	push   %ebx
f04054f7:	b8 00 00 00 00       	mov    $0x0,%eax
f04054fc:	50                   	push   %eax
f04054fd:	e8 03 04 00 00       	call   f0405905 <karch_except>
f0405502:	89 ec                	mov    %ebp,%esp
f0405504:	58                   	pop    %eax
f0405505:	5b                   	pop    %ebx
f0405506:	5d                   	pop    %ebp
f0405507:	cf                   	iret

f0405508 <karch_except_00.kern>:
f0405508:	bb 01 00 00 00       	mov    $0x1,%ebx
f040550d:	eb e1                	jmp    f04054f0 <karch_except_00.all>

f040550f <karch_except_01>:
f040550f:	55                   	push   %ebp
f0405510:	53                   	push   %ebx
f0405511:	50                   	push   %eax
f0405512:	89 e5                	mov    %esp,%ebp
f0405514:	83 7d 10 08          	cmpl   $0x8,0x10(%ebp)
f0405518:	74 1d                	je     f0405537 <karch_except_01.kern>
f040551a:	bb 00 00 00 00       	mov    $0x0,%ebx

f040551f <karch_except_01.all>:
f040551f:	89 e8                	mov    %ebp,%eax
f0405521:	83 e8 0c             	sub    $0xc,%eax
f0405524:	50                   	push   %eax
f0405525:	53                   	push   %ebx
f0405526:	b8 01 00 00 00       	mov    $0x1,%eax
f040552b:	50                   	push   %eax
f040552c:	e8 d4 03 00 00       	call   f0405905 <karch_except>
f0405531:	89 ec                	mov    %ebp,%esp
f0405533:	58                   	pop    %eax
f0405534:	5b                   	pop    %ebx
f0405535:	5d                   	pop    %ebp
f0405536:	cf                   	iret

f0405537 <karch_except_01.kern>:
f0405537:	bb 01 00 00 00       	mov    $0x1,%ebx
f040553c:	eb e1                	jmp    f040551f <karch_except_01.all>

f040553e <karch_except_02>:
f040553e:	55                   	push   %ebp
f040553f:	53                   	push   %ebx
f0405540:	50                   	push   %eax
f0405541:	89 e5                	mov    %esp,%ebp
f0405543:	83 7d 10 08          	cmpl   $0x8,0x10(%ebp)
f0405547:	74 1d                	je     f0405566 <karch_except_02.kern>
f0405549:	bb 00 00 00 00       	mov    $0x0,%ebx

f040554e <karch_except_02.all>:
f040554e:	89 e8                	mov    %ebp,%eax
f0405550:	83 e8 0c             	sub    $0xc,%eax
f0405553:	50                   	push   %eax
f0405554:	53                   	push   %ebx
f0405555:	b8 02 00 00 00       	mov    $0x2,%eax
f040555a:	50                   	push   %eax
f040555b:	e8 a5 03 00 00       	call   f0405905 <karch_except>
f0405560:	89 ec                	mov    %ebp,%esp
f0405562:	58                   	pop    %eax
f0405563:	5b                   	pop    %ebx
f0405564:	5d                   	pop    %ebp
f0405565:	cf                   	iret

f0405566 <karch_except_02.kern>:
f0405566:	bb 01 00 00 00       	mov    $0x1,%ebx
f040556b:	eb e1                	jmp    f040554e <karch_except_02.all>

f040556d <karch_except_03>:
f040556d:	55                   	push   %ebp
f040556e:	53                   	push   %ebx
f040556f:	50                   	push   %eax
f0405570:	89 e5                	mov    %esp,%ebp
f0405572:	83 7d 10 08          	cmpl   $0x8,0x10(%ebp)
f0405576:	74 1d                	je     f0405595 <karch_except_03.kern>
f0405578:	bb 00 00 00 00       	mov    $0x0,%ebx

f040557d <karch_except_03.all>:
f040557d:	89 e8                	mov    %ebp,%eax
f040557f:	83 e8 0c             	sub    $0xc,%eax
f0405582:	50                   	push   %eax
f0405583:	53                   	push   %ebx
f0405584:	b8 03 00 00 00       	mov    $0x3,%eax
f0405589:	50                   	push   %eax
f040558a:	e8 76 03 00 00       	call   f0405905 <karch_except>
f040558f:	89 ec                	mov    %ebp,%esp
f0405591:	58                   	pop    %eax
f0405592:	5b                   	pop    %ebx
f0405593:	5d                   	pop    %ebp
f0405594:	cf                   	iret

f0405595 <karch_except_03.kern>:
f0405595:	bb 01 00 00 00       	mov    $0x1,%ebx
f040559a:	eb e1                	jmp    f040557d <karch_except_03.all>

f040559c <karch_except_04>:
f040559c:	55                   	push   %ebp
f040559d:	53                   	push   %ebx
f040559e:	50                   	push   %eax
f040559f:	89 e5                	mov    %esp,%ebp
f04055a1:	83 7d 10 08          	cmpl   $0x8,0x10(%ebp)
f04055a5:	74 1d                	je     f04055c4 <karch_except_04.kern>
f04055a7:	bb 00 00 00 00       	mov    $0x0,%ebx

f04055ac <karch_except_04.all>:
f04055ac:	89 e8                	mov    %ebp,%eax
f04055ae:	83 e8 0c             	sub    $0xc,%eax
f04055b1:	50                   	push   %eax
f04055b2:	53                   	push   %ebx
f04055b3:	b8 04 00 00 00       	mov    $0x4,%eax
f04055b8:	50                   	push   %eax
f04055b9:	e8 47 03 00 00       	call   f0405905 <karch_except>
f04055be:	89 ec                	mov    %ebp,%esp
f04055c0:	58                   	pop    %eax
f04055c1:	5b                   	pop    %ebx
f04055c2:	5d                   	pop    %ebp
f04055c3:	cf                   	iret

f04055c4 <karch_except_04.kern>:
f04055c4:	bb 01 00 00 00       	mov    $0x1,%ebx
f04055c9:	eb e1                	jmp    f04055ac <karch_except_04.all>

f04055cb <karch_except_05>:
f04055cb:	55                   	push   %ebp
f04055cc:	53                   	push   %ebx
f04055cd:	50                   	push   %eax
f04055ce:	89 e5                	mov    %esp,%ebp
f04055d0:	83 7d 10 08          	cmpl   $0x8,0x10(%ebp)
f04055d4:	74 1d                	je     f04055f3 <karch_except_05.kern>
f04055d6:	bb 00 00 00 00       	mov    $0x0,%ebx

f04055db <karch_except_05.all>:
f04055db:	89 e8                	mov    %ebp,%eax
f04055dd:	83 e8 0c             	sub    $0xc,%eax
f04055e0:	50                   	push   %eax
f04055e1:	53                   	push   %ebx
f04055e2:	b8 05 00 00 00       	mov    $0x5,%eax
f04055e7:	50                   	push   %eax
f04055e8:	e8 18 03 00 00       	call   f0405905 <karch_except>
f04055ed:	89 ec                	mov    %ebp,%esp
f04055ef:	58                   	pop    %eax
f04055f0:	5b                   	pop    %ebx
f04055f1:	5d                   	pop    %ebp
f04055f2:	cf                   	iret

f04055f3 <karch_except_05.kern>:
f04055f3:	bb 01 00 00 00       	mov    $0x1,%ebx
f04055f8:	eb e1                	jmp    f04055db <karch_except_05.all>

f04055fa <karch_except_06>:
f04055fa:	55                   	push   %ebp
f04055fb:	53                   	push   %ebx
f04055fc:	50                   	push   %eax
f04055fd:	89 e5                	mov    %esp,%ebp
f04055ff:	83 7d 10 08          	cmpl   $0x8,0x10(%ebp)
f0405603:	74 1d                	je     f0405622 <karch_except_06.kern>
f0405605:	bb 00 00 00 00       	mov    $0x0,%ebx

f040560a <karch_except_06.all>:
f040560a:	89 e8                	mov    %ebp,%eax
f040560c:	83 e8 0c             	sub    $0xc,%eax
f040560f:	50                   	push   %eax
f0405610:	53                   	push   %ebx
f0405611:	b8 06 00 00 00       	mov    $0x6,%eax
f0405616:	50                   	push   %eax
f0405617:	e8 e9 02 00 00       	call   f0405905 <karch_except>
f040561c:	89 ec                	mov    %ebp,%esp
f040561e:	58                   	pop    %eax
f040561f:	5b                   	pop    %ebx
f0405620:	5d                   	pop    %ebp
f0405621:	cf                   	iret

f0405622 <karch_except_06.kern>:
f0405622:	bb 01 00 00 00       	mov    $0x1,%ebx
f0405627:	eb e1                	jmp    f040560a <karch_except_06.all>

f0405629 <karch_except_07>:
f0405629:	55                   	push   %ebp
f040562a:	53                   	push   %ebx
f040562b:	50                   	push   %eax
f040562c:	89 e5                	mov    %esp,%ebp
f040562e:	83 7d 10 08          	cmpl   $0x8,0x10(%ebp)
f0405632:	74 1d                	je     f0405651 <karch_except_07.kern>
f0405634:	bb 00 00 00 00       	mov    $0x0,%ebx

f0405639 <karch_except_07.all>:
f0405639:	89 e8                	mov    %ebp,%eax
f040563b:	83 e8 0c             	sub    $0xc,%eax
f040563e:	50                   	push   %eax
f040563f:	53                   	push   %ebx
f0405640:	b8 07 00 00 00       	mov    $0x7,%eax
f0405645:	50                   	push   %eax
f0405646:	e8 ba 02 00 00       	call   f0405905 <karch_except>
f040564b:	89 ec                	mov    %ebp,%esp
f040564d:	58                   	pop    %eax
f040564e:	5b                   	pop    %ebx
f040564f:	5d                   	pop    %ebp
f0405650:	cf                   	iret

f0405651 <karch_except_07.kern>:
f0405651:	bb 01 00 00 00       	mov    $0x1,%ebx
f0405656:	eb e1                	jmp    f0405639 <karch_except_07.all>

f0405658 <karch_except_08>:
f0405658:	55                   	push   %ebp
f0405659:	53                   	push   %ebx
f040565a:	50                   	push   %eax
f040565b:	89 e5                	mov    %esp,%ebp
f040565d:	83 7d 10 08          	cmpl   $0x8,0x10(%ebp)
f0405661:	74 1d                	je     f0405680 <karch_except_08.kern>
f0405663:	bb 00 00 00 00       	mov    $0x0,%ebx

f0405668 <karch_except_08.all>:
f0405668:	89 e8                	mov    %ebp,%eax
f040566a:	83 e8 0c             	sub    $0xc,%eax
f040566d:	50                   	push   %eax
f040566e:	53                   	push   %ebx
f040566f:	b8 08 00 00 00       	mov    $0x8,%eax
f0405674:	50                   	push   %eax
f0405675:	e8 8b 02 00 00       	call   f0405905 <karch_except>
f040567a:	89 ec                	mov    %ebp,%esp
f040567c:	58                   	pop    %eax
f040567d:	5b                   	pop    %ebx
f040567e:	5d                   	pop    %ebp
f040567f:	cf                   	iret

f0405680 <karch_except_08.kern>:
f0405680:	bb 01 00 00 00       	mov    $0x1,%ebx
f0405685:	eb e1                	jmp    f0405668 <karch_except_08.all>

f0405687 <karch_except_09>:
f0405687:	55                   	push   %ebp
f0405688:	53                   	push   %ebx
f0405689:	50                   	push   %eax
f040568a:	89 e5                	mov    %esp,%ebp
f040568c:	83 7d 10 08          	cmpl   $0x8,0x10(%ebp)
f0405690:	74 1d                	je     f04056af <karch_except_09.kern>
f0405692:	bb 00 00 00 00       	mov    $0x0,%ebx

f0405697 <karch_except_09.all>:
f0405697:	89 e8                	mov    %ebp,%eax
f0405699:	83 e8 0c             	sub    $0xc,%eax
f040569c:	50                   	push   %eax
f040569d:	53                   	push   %ebx
f040569e:	b8 09 00 00 00       	mov    $0x9,%eax
f04056a3:	50                   	push   %eax
f04056a4:	e8 5c 02 00 00       	call   f0405905 <karch_except>
f04056a9:	89 ec                	mov    %ebp,%esp
f04056ab:	58                   	pop    %eax
f04056ac:	5b                   	pop    %ebx
f04056ad:	5d                   	pop    %ebp
f04056ae:	cf                   	iret

f04056af <karch_except_09.kern>:
f04056af:	bb 01 00 00 00       	mov    $0x1,%ebx
f04056b4:	eb e1                	jmp    f0405697 <karch_except_09.all>

f04056b6 <karch_except_10>:
f04056b6:	55                   	push   %ebp
f04056b7:	53                   	push   %ebx
f04056b8:	50                   	push   %eax
f04056b9:	89 e5                	mov    %esp,%ebp
f04056bb:	83 7d 10 08          	cmpl   $0x8,0x10(%ebp)
f04056bf:	74 1d                	je     f04056de <karch_except_10.kern>
f04056c1:	bb 00 00 00 00       	mov    $0x0,%ebx

f04056c6 <karch_except_10.all>:
f04056c6:	89 e8                	mov    %ebp,%eax
f04056c8:	83 e8 0c             	sub    $0xc,%eax
f04056cb:	50                   	push   %eax
f04056cc:	53                   	push   %ebx
f04056cd:	b8 0a 00 00 00       	mov    $0xa,%eax
f04056d2:	50                   	push   %eax
f04056d3:	e8 2d 02 00 00       	call   f0405905 <karch_except>
f04056d8:	89 ec                	mov    %ebp,%esp
f04056da:	58                   	pop    %eax
f04056db:	5b                   	pop    %ebx
f04056dc:	5d                   	pop    %ebp
f04056dd:	cf                   	iret

f04056de <karch_except_10.kern>:
f04056de:	bb 01 00 00 00       	mov    $0x1,%ebx
f04056e3:	eb e1                	jmp    f04056c6 <karch_except_10.all>

f04056e5 <karch_except_11>:
f04056e5:	55                   	push   %ebp
f04056e6:	53                   	push   %ebx
f04056e7:	50                   	push   %eax
f04056e8:	89 e5                	mov    %esp,%ebp
f04056ea:	83 7d 10 08          	cmpl   $0x8,0x10(%ebp)
f04056ee:	74 1d                	je     f040570d <karch_except_11.kern>
f04056f0:	bb 00 00 00 00       	mov    $0x0,%ebx

f04056f5 <karch_except_11.all>:
f04056f5:	89 e8                	mov    %ebp,%eax
f04056f7:	83 e8 0c             	sub    $0xc,%eax
f04056fa:	50                   	push   %eax
f04056fb:	53                   	push   %ebx
f04056fc:	b8 0b 00 00 00       	mov    $0xb,%eax
f0405701:	50                   	push   %eax
f0405702:	e8 fe 01 00 00       	call   f0405905 <karch_except>
f0405707:	89 ec                	mov    %ebp,%esp
f0405709:	58                   	pop    %eax
f040570a:	5b                   	pop    %ebx
f040570b:	5d                   	pop    %ebp
f040570c:	cf                   	iret

f040570d <karch_except_11.kern>:
f040570d:	bb 01 00 00 00       	mov    $0x1,%ebx
f0405712:	eb e1                	jmp    f04056f5 <karch_except_11.all>

f0405714 <karch_except_12>:
f0405714:	55                   	push   %ebp
f0405715:	53                   	push   %ebx
f0405716:	50                   	push   %eax
f0405717:	89 e5                	mov    %esp,%ebp
f0405719:	83 7d 10 08          	cmpl   $0x8,0x10(%ebp)
f040571d:	74 1d                	je     f040573c <karch_except_12.kern>
f040571f:	bb 00 00 00 00       	mov    $0x0,%ebx

f0405724 <karch_except_12.all>:
f0405724:	89 e8                	mov    %ebp,%eax
f0405726:	83 e8 0c             	sub    $0xc,%eax
f0405729:	50                   	push   %eax
f040572a:	53                   	push   %ebx
f040572b:	b8 0c 00 00 00       	mov    $0xc,%eax
f0405730:	50                   	push   %eax
f0405731:	e8 cf 01 00 00       	call   f0405905 <karch_except>
f0405736:	89 ec                	mov    %ebp,%esp
f0405738:	58                   	pop    %eax
f0405739:	5b                   	pop    %ebx
f040573a:	5d                   	pop    %ebp
f040573b:	cf                   	iret

f040573c <karch_except_12.kern>:
f040573c:	bb 01 00 00 00       	mov    $0x1,%ebx
f0405741:	eb e1                	jmp    f0405724 <karch_except_12.all>

f0405743 <karch_except_13>:
f0405743:	55                   	push   %ebp
f0405744:	53                   	push   %ebx
f0405745:	50                   	push   %eax
f0405746:	89 e5                	mov    %esp,%ebp
f0405748:	83 7d 10 08          	cmpl   $0x8,0x10(%ebp)
f040574c:	74 1d                	je     f040576b <karch_except_13.kern>
f040574e:	bb 00 00 00 00       	mov    $0x0,%ebx

f0405753 <karch_except_13.all>:
f0405753:	89 e8                	mov    %ebp,%eax
f0405755:	83 e8 0c             	sub    $0xc,%eax
f0405758:	50                   	push   %eax
f0405759:	53                   	push   %ebx
f040575a:	b8 0d 00 00 00       	mov    $0xd,%eax
f040575f:	50                   	push   %eax
f0405760:	e8 a0 01 00 00       	call   f0405905 <karch_except>
f0405765:	89 ec                	mov    %ebp,%esp
f0405767:	58                   	pop    %eax
f0405768:	5b                   	pop    %ebx
f0405769:	5d                   	pop    %ebp
f040576a:	cf                   	iret

f040576b <karch_except_13.kern>:
f040576b:	bb 01 00 00 00       	mov    $0x1,%ebx
f0405770:	eb e1                	jmp    f0405753 <karch_except_13.all>

f0405772 <karch_except_14>:
f0405772:	55                   	push   %ebp
f0405773:	53                   	push   %ebx
f0405774:	50                   	push   %eax
f0405775:	89 e5                	mov    %esp,%ebp
f0405777:	83 7d 10 08          	cmpl   $0x8,0x10(%ebp)
f040577b:	74 1d                	je     f040579a <karch_except_14.kern>
f040577d:	bb 00 00 00 00       	mov    $0x0,%ebx

f0405782 <karch_except_14.all>:
f0405782:	89 e8                	mov    %ebp,%eax
f0405784:	83 e8 0c             	sub    $0xc,%eax
f0405787:	50                   	push   %eax
f0405788:	53                   	push   %ebx
f0405789:	b8 0e 00 00 00       	mov    $0xe,%eax
f040578e:	50                   	push   %eax
f040578f:	e8 71 01 00 00       	call   f0405905 <karch_except>
f0405794:	89 ec                	mov    %ebp,%esp
f0405796:	58                   	pop    %eax
f0405797:	5b                   	pop    %ebx
f0405798:	5d                   	pop    %ebp
f0405799:	cf                   	iret

f040579a <karch_except_14.kern>:
f040579a:	bb 01 00 00 00       	mov    $0x1,%ebx
f040579f:	eb e1                	jmp    f0405782 <karch_except_14.all>

f04057a1 <karch_except_16>:
f04057a1:	55                   	push   %ebp
f04057a2:	53                   	push   %ebx
f04057a3:	50                   	push   %eax
f04057a4:	89 e5                	mov    %esp,%ebp
f04057a6:	83 7d 10 08          	cmpl   $0x8,0x10(%ebp)
f04057aa:	74 1d                	je     f04057c9 <karch_except_16.kern>
f04057ac:	bb 00 00 00 00       	mov    $0x0,%ebx

f04057b1 <karch_except_16.all>:
f04057b1:	89 e8                	mov    %ebp,%eax
f04057b3:	83 e8 0c             	sub    $0xc,%eax
f04057b6:	50                   	push   %eax
f04057b7:	53                   	push   %ebx
f04057b8:	b8 10 00 00 00       	mov    $0x10,%eax
f04057bd:	50                   	push   %eax
f04057be:	e8 42 01 00 00       	call   f0405905 <karch_except>
f04057c3:	89 ec                	mov    %ebp,%esp
f04057c5:	58                   	pop    %eax
f04057c6:	5b                   	pop    %ebx
f04057c7:	5d                   	pop    %ebp
f04057c8:	cf                   	iret

f04057c9 <karch_except_16.kern>:
f04057c9:	bb 01 00 00 00       	mov    $0x1,%ebx
f04057ce:	eb e1                	jmp    f04057b1 <karch_except_16.all>

f04057d0 <karch_except_17>:
f04057d0:	55                   	push   %ebp
f04057d1:	53                   	push   %ebx
f04057d2:	50                   	push   %eax
f04057d3:	89 e5                	mov    %esp,%ebp
f04057d5:	83 7d 10 08          	cmpl   $0x8,0x10(%ebp)
f04057d9:	74 1d                	je     f04057f8 <karch_except_17.kern>
f04057db:	bb 00 00 00 00       	mov    $0x0,%ebx

f04057e0 <karch_except_17.all>:
f04057e0:	89 e8                	mov    %ebp,%eax
f04057e2:	83 e8 0c             	sub    $0xc,%eax
f04057e5:	50                   	push   %eax
f04057e6:	53                   	push   %ebx
f04057e7:	b8 11 00 00 00       	mov    $0x11,%eax
f04057ec:	50                   	push   %eax
f04057ed:	e8 13 01 00 00       	call   f0405905 <karch_except>
f04057f2:	89 ec                	mov    %ebp,%esp
f04057f4:	58                   	pop    %eax
f04057f5:	5b                   	pop    %ebx
f04057f6:	5d                   	pop    %ebp
f04057f7:	cf                   	iret

f04057f8 <karch_except_17.kern>:
f04057f8:	bb 01 00 00 00       	mov    $0x1,%ebx
f04057fd:	eb e1                	jmp    f04057e0 <karch_except_17.all>

f04057ff <karch_except_18>:
f04057ff:	55                   	push   %ebp
f0405800:	53                   	push   %ebx
f0405801:	50                   	push   %eax
f0405802:	89 e5                	mov    %esp,%ebp
f0405804:	83 7d 10 08          	cmpl   $0x8,0x10(%ebp)
f0405808:	74 1d                	je     f0405827 <karch_except_18.kern>
f040580a:	bb 00 00 00 00       	mov    $0x0,%ebx

f040580f <karch_except_18.all>:
f040580f:	89 e8                	mov    %ebp,%eax
f0405811:	83 e8 0c             	sub    $0xc,%eax
f0405814:	50                   	push   %eax
f0405815:	53                   	push   %ebx
f0405816:	b8 12 00 00 00       	mov    $0x12,%eax
f040581b:	50                   	push   %eax
f040581c:	e8 e4 00 00 00       	call   f0405905 <karch_except>
f0405821:	89 ec                	mov    %ebp,%esp
f0405823:	58                   	pop    %eax
f0405824:	5b                   	pop    %ebx
f0405825:	5d                   	pop    %ebp
f0405826:	cf                   	iret

f0405827 <karch_except_18.kern>:
f0405827:	bb 01 00 00 00       	mov    $0x1,%ebx
f040582c:	eb e1                	jmp    f040580f <karch_except_18.all>

f040582e <karch_init_except>:
f040582e:	55                   	push   %ebp
f040582f:	89 e5                	mov    %esp,%ebp
f0405831:	83 ec 08             	sub    $0x8,%esp
f0405834:	83 ec 04             	sub    $0x4,%esp
f0405837:	6a 4c                	push   $0x4c
f0405839:	6a 00                	push   $0x0
f040583b:	68 40 13 41 f0       	push   $0xf0411340
f0405840:	e8 2f 0e 00 00       	call   f0406674 <kmemset>
f0405845:	83 c4 10             	add    $0x10,%esp
f0405848:	83 ec 04             	sub    $0x4,%esp
f040584b:	6a 4c                	push   $0x4c
f040584d:	6a 00                	push   $0x0
f040584f:	68 a0 13 41 f0       	push   $0xf04113a0
f0405854:	e8 1b 0e 00 00       	call   f0406674 <kmemset>
f0405859:	83 c4 10             	add    $0x10,%esp
f040585c:	83 ec 08             	sub    $0x8,%esp
f040585f:	6a 00                	push   $0x0
f0405861:	68 60 70 40 f0       	push   $0xf0407060
f0405866:	e8 2a 0a 00 00       	call   f0406295 <karch_load_idt_gatevec>
f040586b:	83 c4 10             	add    $0x10,%esp
f040586e:	90                   	nop
f040586f:	c9                   	leave
f0405870:	c3                   	ret

f0405871 <karch_get_except>:
f0405871:	55                   	push   %ebp
f0405872:	89 e5                	mov    %esp,%ebp
f0405874:	83 ec 04             	sub    $0x4,%esp
f0405877:	8b 45 08             	mov    0x8(%ebp),%eax
f040587a:	88 45 fc             	mov    %al,-0x4(%ebp)
f040587d:	80 7d fc 13          	cmpb   $0x13,-0x4(%ebp)
f0405881:	77 06                	ja     f0405889 <karch_get_except+0x18>
f0405883:	80 7d fc 0f          	cmpb   $0xf,-0x4(%ebp)
f0405887:	75 07                	jne    f0405890 <karch_get_except+0x1f>
f0405889:	b8 00 00 00 00       	mov    $0x0,%eax
f040588e:	eb 31                	jmp    f04058c1 <karch_get_except+0x50>
f0405890:	83 7d 0c 00          	cmpl   $0x0,0xc(%ebp)
f0405894:	74 10                	je     f04058a6 <karch_get_except+0x35>
f0405896:	0f b6 45 fc          	movzbl -0x4(%ebp),%eax
f040589a:	8b 14 85 40 13 41 f0 	mov    -0xfbeecc0(,%eax,4),%edx
f04058a1:	8b 45 0c             	mov    0xc(%ebp),%eax
f04058a4:	89 10                	mov    %edx,(%eax)
f04058a6:	83 7d 10 00          	cmpl   $0x0,0x10(%ebp)
f04058aa:	74 10                	je     f04058bc <karch_get_except+0x4b>
f04058ac:	0f b6 45 fc          	movzbl -0x4(%ebp),%eax
f04058b0:	8b 14 85 a0 13 41 f0 	mov    -0xfbeec60(,%eax,4),%edx
f04058b7:	8b 45 10             	mov    0x10(%ebp),%eax
f04058ba:	89 10                	mov    %edx,(%eax)
f04058bc:	b8 01 00 00 00       	mov    $0x1,%eax
f04058c1:	c9                   	leave
f04058c2:	c3                   	ret

f04058c3 <karch_set_except>:
f04058c3:	55                   	push   %ebp
f04058c4:	89 e5                	mov    %esp,%ebp
f04058c6:	83 ec 04             	sub    $0x4,%esp
f04058c9:	8b 45 08             	mov    0x8(%ebp),%eax
f04058cc:	88 45 fc             	mov    %al,-0x4(%ebp)
f04058cf:	80 7d fc 13          	cmpb   $0x13,-0x4(%ebp)
f04058d3:	77 06                	ja     f04058db <karch_set_except+0x18>
f04058d5:	80 7d fc 0f          	cmpb   $0xf,-0x4(%ebp)
f04058d9:	75 07                	jne    f04058e2 <karch_set_except+0x1f>
f04058db:	b8 00 00 00 00       	mov    $0x0,%eax
f04058e0:	eb 21                	jmp    f0405903 <karch_set_except+0x40>
f04058e2:	0f b6 45 fc          	movzbl -0x4(%ebp),%eax
f04058e6:	8b 55 0c             	mov    0xc(%ebp),%edx
f04058e9:	89 14 85 40 13 41 f0 	mov    %edx,-0xfbeecc0(,%eax,4)
f04058f0:	0f b6 45 fc          	movzbl -0x4(%ebp),%eax
f04058f4:	8b 55 10             	mov    0x10(%ebp),%edx
f04058f7:	89 14 85 a0 13 41 f0 	mov    %edx,-0xfbeec60(,%eax,4)
f04058fe:	b8 01 00 00 00       	mov    $0x1,%eax
f0405903:	c9                   	leave
f0405904:	c3                   	ret

f0405905 <karch_except>:
f0405905:	55                   	push   %ebp
f0405906:	89 e5                	mov    %esp,%ebp
f0405908:	83 ec 18             	sub    $0x18,%esp
f040590b:	8b 45 08             	mov    0x8(%ebp),%eax
f040590e:	8b 04 85 40 13 41 f0 	mov    -0xfbeecc0(,%eax,4),%eax
f0405915:	85 c0                	test   %eax,%eax
f0405917:	74 35                	je     f040594e <karch_except+0x49>
f0405919:	8b 45 08             	mov    0x8(%ebp),%eax
f040591c:	89 45 e8             	mov    %eax,-0x18(%ebp)
f040591f:	8b 45 0c             	mov    0xc(%ebp),%eax
f0405922:	89 45 ec             	mov    %eax,-0x14(%ebp)
f0405925:	8b 45 10             	mov    0x10(%ebp),%eax
f0405928:	89 45 f0             	mov    %eax,-0x10(%ebp)
f040592b:	8b 45 08             	mov    0x8(%ebp),%eax
f040592e:	8b 04 85 a0 13 41 f0 	mov    -0xfbeec60(,%eax,4),%eax
f0405935:	89 45 f4             	mov    %eax,-0xc(%ebp)
f0405938:	8b 45 08             	mov    0x8(%ebp),%eax
f040593b:	8b 04 85 40 13 41 f0 	mov    -0xfbeecc0(,%eax,4),%eax
f0405942:	83 ec 0c             	sub    $0xc,%esp
f0405945:	8d 55 e8             	lea    -0x18(%ebp),%edx
f0405948:	52                   	push   %edx
f0405949:	ff d0                	call   *%eax
f040594b:	83 c4 10             	add    $0x10,%esp
f040594e:	90                   	nop
f040594f:	c9                   	leave
f0405950:	c3                   	ret

f0405951 <karch_init_gdt>:
f0405951:	55                   	push   %ebp
f0405952:	89 e5                	mov    %esp,%ebp
f0405954:	83 ec 08             	sub    $0x8,%esp
f0405957:	83 ec 04             	sub    $0x4,%esp
f040595a:	68 b0 00 00 00       	push   $0xb0
f040595f:	6a 00                	push   $0x0
f0405961:	68 f8 13 41 f0       	push   $0xf04113f8
f0405966:	e8 09 0d 00 00       	call   f0406674 <kmemset>
f040596b:	83 c4 10             	add    $0x10,%esp
f040596e:	b8 f8 13 41 f0       	mov    $0xf04113f8,%eax
f0405973:	a3 f2 13 41 f0       	mov    %eax,0xf04113f2
f0405978:	66 c7 05 f0 13 41 f0 	movw   $0xaf,0xf04113f0
f040597f:	af 00 
f0405981:	6a 00                	push   $0x0
f0405983:	6a 00                	push   $0x0
f0405985:	6a 00                	push   $0x0
f0405987:	68 20 14 41 f0       	push   $0xf0411420
f040598c:	e8 20 01 00 00       	call   f0405ab1 <karch_set_gdt_data>
f0405991:	83 c4 10             	add    $0x10,%esp
f0405994:	c6 05 25 14 41 f0 82 	movb   $0x82,0xf0411425
f040599b:	6a 00                	push   $0x0
f040599d:	6a ff                	push   $0xffffffff
f040599f:	6a 00                	push   $0x0
f04059a1:	68 00 14 41 f0       	push   $0xf0411400
f04059a6:	e8 2e 01 00 00       	call   f0405ad9 <karch_set_gdt_code>
f04059ab:	83 c4 10             	add    $0x10,%esp
f04059ae:	6a 00                	push   $0x0
f04059b0:	6a ff                	push   $0xffffffff
f04059b2:	6a 00                	push   $0x0
f04059b4:	68 08 14 41 f0       	push   $0xf0411408
f04059b9:	e8 f3 00 00 00       	call   f0405ab1 <karch_set_gdt_data>
f04059be:	83 c4 10             	add    $0x10,%esp
f04059c1:	6a 03                	push   $0x3
f04059c3:	6a ff                	push   $0xffffffff
f04059c5:	6a 00                	push   $0x0
f04059c7:	68 00 14 41 f0       	push   $0xf0411400
f04059cc:	e8 08 01 00 00       	call   f0405ad9 <karch_set_gdt_code>
f04059d1:	83 c4 10             	add    $0x10,%esp
f04059d4:	6a 03                	push   $0x3
f04059d6:	6a ff                	push   $0xffffffff
f04059d8:	6a 00                	push   $0x0
f04059da:	68 08 14 41 f0       	push   $0xf0411408
f04059df:	e8 cd 00 00 00       	call   f0405ab1 <karch_set_gdt_data>
f04059e4:	83 c4 10             	add    $0x10,%esp
f04059e7:	90                   	nop
f04059e8:	c9                   	leave
f04059e9:	c3                   	ret

f04059ea <karch_flush_gdt>:
f04059ea:	55                   	push   %ebp
f04059eb:	89 e5                	mov    %esp,%ebp
f04059ed:	83 ec 08             	sub    $0x8,%esp
f04059f0:	83 ec 0c             	sub    $0xc,%esp
f04059f3:	68 f0 13 41 f0       	push   $0xf04113f0
f04059f8:	e8 55 fa ff ff       	call   f0405452 <load_gdt>
f04059fd:	83 c4 10             	add    $0x10,%esp
f0405a00:	90                   	nop
f0405a01:	c9                   	leave
f0405a02:	c3                   	ret

f0405a03 <karch_get_gdt>:
f0405a03:	55                   	push   %ebp
f0405a04:	89 e5                	mov    %esp,%ebp
f0405a06:	83 ec 04             	sub    $0x4,%esp
f0405a09:	8b 45 08             	mov    0x8(%ebp),%eax
f0405a0c:	88 45 fc             	mov    %al,-0x4(%ebp)
f0405a0f:	80 7d fc 15          	cmpb   $0x15,-0x4(%ebp)
f0405a13:	76 07                	jbe    f0405a1c <karch_get_gdt+0x19>
f0405a15:	b8 00 00 00 00       	mov    $0x0,%eax
f0405a1a:	eb 0c                	jmp    f0405a28 <karch_get_gdt+0x25>
f0405a1c:	0f b6 45 fc          	movzbl -0x4(%ebp),%eax
f0405a20:	c1 e0 03             	shl    $0x3,%eax
f0405a23:	05 f8 13 41 f0       	add    $0xf04113f8,%eax
f0405a28:	c9                   	leave
f0405a29:	c3                   	ret

f0405a2a <karch_set_gdt>:
f0405a2a:	55                   	push   %ebp
f0405a2b:	89 e5                	mov    %esp,%ebp
f0405a2d:	8b 45 0c             	mov    0xc(%ebp),%eax
f0405a30:	89 c2                	mov    %eax,%edx
f0405a32:	8b 45 08             	mov    0x8(%ebp),%eax
f0405a35:	66 89 50 02          	mov    %dx,0x2(%eax)
f0405a39:	8b 45 0c             	mov    0xc(%ebp),%eax
f0405a3c:	c1 e8 10             	shr    $0x10,%eax
f0405a3f:	89 c2                	mov    %eax,%edx
f0405a41:	8b 45 08             	mov    0x8(%ebp),%eax
f0405a44:	88 50 04             	mov    %dl,0x4(%eax)
f0405a47:	8b 45 0c             	mov    0xc(%ebp),%eax
f0405a4a:	c1 e8 18             	shr    $0x18,%eax
f0405a4d:	89 c2                	mov    %eax,%edx
f0405a4f:	8b 45 08             	mov    0x8(%ebp),%eax
f0405a52:	88 50 07             	mov    %dl,0x7(%eax)
f0405a55:	83 6d 10 01          	subl   $0x1,0x10(%ebp)
f0405a59:	81 7d 10 ff ff 0f 00 	cmpl   $0xfffff,0x10(%ebp)
f0405a60:	76 21                	jbe    f0405a83 <karch_set_gdt+0x59>
f0405a62:	8b 45 10             	mov    0x10(%ebp),%eax
f0405a65:	c1 e8 10             	shr    $0x10,%eax
f0405a68:	89 c2                	mov    %eax,%edx
f0405a6a:	8b 45 08             	mov    0x8(%ebp),%eax
f0405a6d:	66 89 10             	mov    %dx,(%eax)
f0405a70:	8b 45 10             	mov    0x10(%ebp),%eax
f0405a73:	c1 e8 0c             	shr    $0xc,%eax
f0405a76:	83 c8 80             	or     $0xffffff80,%eax
f0405a79:	89 c2                	mov    %eax,%edx
f0405a7b:	8b 45 08             	mov    0x8(%ebp),%eax
f0405a7e:	88 50 06             	mov    %dl,0x6(%eax)
f0405a81:	eb 19                	jmp    f0405a9c <karch_set_gdt+0x72>
f0405a83:	8b 45 10             	mov    0x10(%ebp),%eax
f0405a86:	89 c2                	mov    %eax,%edx
f0405a88:	8b 45 08             	mov    0x8(%ebp),%eax
f0405a8b:	66 89 10             	mov    %dx,(%eax)
f0405a8e:	8b 45 10             	mov    0x10(%ebp),%eax
f0405a91:	c1 e8 10             	shr    $0x10,%eax
f0405a94:	89 c2                	mov    %eax,%edx
f0405a96:	8b 45 08             	mov    0x8(%ebp),%eax
f0405a99:	88 50 06             	mov    %dl,0x6(%eax)
f0405a9c:	8b 45 08             	mov    0x8(%ebp),%eax
f0405a9f:	0f b6 40 06          	movzbl 0x6(%eax),%eax
f0405aa3:	83 c8 40             	or     $0x40,%eax
f0405aa6:	89 c2                	mov    %eax,%edx
f0405aa8:	8b 45 08             	mov    0x8(%ebp),%eax
f0405aab:	88 50 06             	mov    %dl,0x6(%eax)
f0405aae:	90                   	nop
f0405aaf:	5d                   	pop    %ebp
f0405ab0:	c3                   	ret

f0405ab1 <karch_set_gdt_data>:
f0405ab1:	55                   	push   %ebp
f0405ab2:	89 e5                	mov    %esp,%ebp
f0405ab4:	ff 75 10             	push   0x10(%ebp)
f0405ab7:	ff 75 0c             	push   0xc(%ebp)
f0405aba:	ff 75 08             	push   0x8(%ebp)
f0405abd:	e8 68 ff ff ff       	call   f0405a2a <karch_set_gdt>
f0405ac2:	83 c4 0c             	add    $0xc,%esp
f0405ac5:	8b 45 14             	mov    0x14(%ebp),%eax
f0405ac8:	c1 e8 05             	shr    $0x5,%eax
f0405acb:	83 c8 93             	or     $0xffffff93,%eax
f0405ace:	89 c2                	mov    %eax,%edx
f0405ad0:	8b 45 08             	mov    0x8(%ebp),%eax
f0405ad3:	88 50 05             	mov    %dl,0x5(%eax)
f0405ad6:	90                   	nop
f0405ad7:	c9                   	leave
f0405ad8:	c3                   	ret

f0405ad9 <karch_set_gdt_code>:
f0405ad9:	55                   	push   %ebp
f0405ada:	89 e5                	mov    %esp,%ebp
f0405adc:	ff 75 10             	push   0x10(%ebp)
f0405adf:	ff 75 0c             	push   0xc(%ebp)
f0405ae2:	ff 75 08             	push   0x8(%ebp)
f0405ae5:	e8 40 ff ff ff       	call   f0405a2a <karch_set_gdt>
f0405aea:	83 c4 0c             	add    $0xc,%esp
f0405aed:	8b 45 14             	mov    0x14(%ebp),%eax
f0405af0:	c1 e8 05             	shr    $0x5,%eax
f0405af3:	83 c8 9a             	or     $0xffffff9a,%eax
f0405af6:	89 c2                	mov    %eax,%edx
f0405af8:	8b 45 08             	mov    0x8(%ebp),%eax
f0405afb:	88 50 05             	mov    %dl,0x5(%eax)
f0405afe:	90                   	nop
f0405aff:	c9                   	leave
f0405b00:	c3                   	ret

f0405b01 <karch_init_i8253>:
f0405b01:	55                   	push   %ebp
f0405b02:	89 e5                	mov    %esp,%ebp
f0405b04:	83 ec 08             	sub    $0x8,%esp
f0405b07:	83 ec 08             	sub    $0x8,%esp
f0405b0a:	6a 36                	push   $0x36
f0405b0c:	6a 43                	push   $0x43
f0405b0e:	e8 99 f9 ff ff       	call   f04054ac <cpu_out8>
f0405b13:	83 c4 10             	add    $0x10,%esp
f0405b16:	83 7d 08 00          	cmpl   $0x0,0x8(%ebp)
f0405b1a:	75 20                	jne    f0405b3c <karch_init_i8253+0x3b>
f0405b1c:	83 ec 08             	sub    $0x8,%esp
f0405b1f:	6a 00                	push   $0x0
f0405b21:	6a 40                	push   $0x40
f0405b23:	e8 84 f9 ff ff       	call   f04054ac <cpu_out8>
f0405b28:	83 c4 10             	add    $0x10,%esp
f0405b2b:	83 ec 08             	sub    $0x8,%esp
f0405b2e:	6a 00                	push   $0x0
f0405b30:	6a 40                	push   $0x40
f0405b32:	e8 75 f9 ff ff       	call   f04054ac <cpu_out8>
f0405b37:	83 c4 10             	add    $0x10,%esp
f0405b3a:	eb 3b                	jmp    f0405b77 <karch_init_i8253+0x76>
f0405b3c:	b8 de 34 12 00       	mov    $0x1234de,%eax
f0405b41:	ba 00 00 00 00       	mov    $0x0,%edx
f0405b46:	f7 75 08             	divl   0x8(%ebp)
f0405b49:	89 45 08             	mov    %eax,0x8(%ebp)
f0405b4c:	8b 45 08             	mov    0x8(%ebp),%eax
f0405b4f:	0f b6 c0             	movzbl %al,%eax
f0405b52:	83 ec 08             	sub    $0x8,%esp
f0405b55:	50                   	push   %eax
f0405b56:	6a 40                	push   $0x40
f0405b58:	e8 4f f9 ff ff       	call   f04054ac <cpu_out8>
f0405b5d:	83 c4 10             	add    $0x10,%esp
f0405b60:	8b 45 08             	mov    0x8(%ebp),%eax
f0405b63:	c1 e8 08             	shr    $0x8,%eax
f0405b66:	0f b6 c0             	movzbl %al,%eax
f0405b69:	83 ec 08             	sub    $0x8,%esp
f0405b6c:	50                   	push   %eax
f0405b6d:	6a 40                	push   $0x40
f0405b6f:	e8 38 f9 ff ff       	call   f04054ac <cpu_out8>
f0405b74:	83 c4 10             	add    $0x10,%esp
f0405b77:	c9                   	leave
f0405b78:	c3                   	ret

f0405b79 <karch_deinit_i8253>:
f0405b79:	55                   	push   %ebp
f0405b7a:	89 e5                	mov    %esp,%ebp
f0405b7c:	83 ec 08             	sub    $0x8,%esp
f0405b7f:	83 ec 0c             	sub    $0xc,%esp
f0405b82:	6a 00                	push   $0x0
f0405b84:	e8 78 ff ff ff       	call   f0405b01 <karch_init_i8253>
f0405b89:	83 c4 10             	add    $0x10,%esp
f0405b8c:	90                   	nop
f0405b8d:	c9                   	leave
f0405b8e:	c3                   	ret
f0405b8f:	90                   	nop

f0405b90 <karch_i8259_hwint_00>:
f0405b90:	55                   	push   %ebp
f0405b91:	53                   	push   %ebx
f0405b92:	50                   	push   %eax
f0405b93:	89 e5                	mov    %esp,%ebp
f0405b95:	83 7d 10 08          	cmpl   $0x8,0x10(%ebp)
f0405b99:	74 1d                	je     f0405bb8 <karch_i8259_hwint_00.kern>
f0405b9b:	bb 00 00 00 00       	mov    $0x0,%ebx

f0405ba0 <karch_i8259_hwint_00.all>:
f0405ba0:	89 e8                	mov    %ebp,%eax
f0405ba2:	83 e8 0c             	sub    $0xc,%eax
f0405ba5:	50                   	push   %eax
f0405ba6:	53                   	push   %ebx
f0405ba7:	b8 00 00 00 00       	mov    $0x0,%eax
f0405bac:	50                   	push   %eax
f0405bad:	e8 df 05 00 00       	call   f0406191 <karch_i8259_hwint>
f0405bb2:	89 ec                	mov    %ebp,%esp
f0405bb4:	58                   	pop    %eax
f0405bb5:	5b                   	pop    %ebx
f0405bb6:	5d                   	pop    %ebp
f0405bb7:	cf                   	iret

f0405bb8 <karch_i8259_hwint_00.kern>:
f0405bb8:	bb 01 00 00 00       	mov    $0x1,%ebx
f0405bbd:	eb e1                	jmp    f0405ba0 <karch_i8259_hwint_00.all>

f0405bbf <karch_i8259_hwint_01>:
f0405bbf:	55                   	push   %ebp
f0405bc0:	53                   	push   %ebx
f0405bc1:	50                   	push   %eax
f0405bc2:	89 e5                	mov    %esp,%ebp
f0405bc4:	83 7d 10 08          	cmpl   $0x8,0x10(%ebp)
f0405bc8:	74 1d                	je     f0405be7 <karch_i8259_hwint_01.kern>
f0405bca:	bb 00 00 00 00       	mov    $0x0,%ebx

f0405bcf <karch_i8259_hwint_01.all>:
f0405bcf:	89 e8                	mov    %ebp,%eax
f0405bd1:	83 e8 0c             	sub    $0xc,%eax
f0405bd4:	50                   	push   %eax
f0405bd5:	53                   	push   %ebx
f0405bd6:	b8 01 00 00 00       	mov    $0x1,%eax
f0405bdb:	50                   	push   %eax
f0405bdc:	e8 b0 05 00 00       	call   f0406191 <karch_i8259_hwint>
f0405be1:	89 ec                	mov    %ebp,%esp
f0405be3:	58                   	pop    %eax
f0405be4:	5b                   	pop    %ebx
f0405be5:	5d                   	pop    %ebp
f0405be6:	cf                   	iret

f0405be7 <karch_i8259_hwint_01.kern>:
f0405be7:	bb 01 00 00 00       	mov    $0x1,%ebx
f0405bec:	eb e1                	jmp    f0405bcf <karch_i8259_hwint_01.all>

f0405bee <karch_i8259_hwint_02>:
f0405bee:	55                   	push   %ebp
f0405bef:	53                   	push   %ebx
f0405bf0:	50                   	push   %eax
f0405bf1:	89 e5                	mov    %esp,%ebp
f0405bf3:	83 7d 10 08          	cmpl   $0x8,0x10(%ebp)
f0405bf7:	74 1d                	je     f0405c16 <karch_i8259_hwint_02.kern>
f0405bf9:	bb 00 00 00 00       	mov    $0x0,%ebx

f0405bfe <karch_i8259_hwint_02.all>:
f0405bfe:	89 e8                	mov    %ebp,%eax
f0405c00:	83 e8 0c             	sub    $0xc,%eax
f0405c03:	50                   	push   %eax
f0405c04:	53                   	push   %ebx
f0405c05:	b8 02 00 00 00       	mov    $0x2,%eax
f0405c0a:	50                   	push   %eax
f0405c0b:	e8 81 05 00 00       	call   f0406191 <karch_i8259_hwint>
f0405c10:	89 ec                	mov    %ebp,%esp
f0405c12:	58                   	pop    %eax
f0405c13:	5b                   	pop    %ebx
f0405c14:	5d                   	pop    %ebp
f0405c15:	cf                   	iret

f0405c16 <karch_i8259_hwint_02.kern>:
f0405c16:	bb 01 00 00 00       	mov    $0x1,%ebx
f0405c1b:	eb e1                	jmp    f0405bfe <karch_i8259_hwint_02.all>

f0405c1d <karch_i8259_hwint_03>:
f0405c1d:	55                   	push   %ebp
f0405c1e:	53                   	push   %ebx
f0405c1f:	50                   	push   %eax
f0405c20:	89 e5                	mov    %esp,%ebp
f0405c22:	83 7d 10 08          	cmpl   $0x8,0x10(%ebp)
f0405c26:	74 1d                	je     f0405c45 <karch_i8259_hwint_03.kern>
f0405c28:	bb 00 00 00 00       	mov    $0x0,%ebx

f0405c2d <karch_i8259_hwint_03.all>:
f0405c2d:	89 e8                	mov    %ebp,%eax
f0405c2f:	83 e8 0c             	sub    $0xc,%eax
f0405c32:	50                   	push   %eax
f0405c33:	53                   	push   %ebx
f0405c34:	b8 03 00 00 00       	mov    $0x3,%eax
f0405c39:	50                   	push   %eax
f0405c3a:	e8 52 05 00 00       	call   f0406191 <karch_i8259_hwint>
f0405c3f:	89 ec                	mov    %ebp,%esp
f0405c41:	58                   	pop    %eax
f0405c42:	5b                   	pop    %ebx
f0405c43:	5d                   	pop    %ebp
f0405c44:	cf                   	iret

f0405c45 <karch_i8259_hwint_03.kern>:
f0405c45:	bb 01 00 00 00       	mov    $0x1,%ebx
f0405c4a:	eb e1                	jmp    f0405c2d <karch_i8259_hwint_03.all>

f0405c4c <karch_i8259_hwint_04>:
f0405c4c:	55                   	push   %ebp
f0405c4d:	53                   	push   %ebx
f0405c4e:	50                   	push   %eax
f0405c4f:	89 e5                	mov    %esp,%ebp
f0405c51:	83 7d 10 08          	cmpl   $0x8,0x10(%ebp)
f0405c55:	74 1d                	je     f0405c74 <karch_i8259_hwint_04.kern>
f0405c57:	bb 00 00 00 00       	mov    $0x0,%ebx

f0405c5c <karch_i8259_hwint_04.all>:
f0405c5c:	89 e8                	mov    %ebp,%eax
f0405c5e:	83 e8 0c             	sub    $0xc,%eax
f0405c61:	50                   	push   %eax
f0405c62:	53                   	push   %ebx
f0405c63:	b8 04 00 00 00       	mov    $0x4,%eax
f0405c68:	50                   	push   %eax
f0405c69:	e8 23 05 00 00       	call   f0406191 <karch_i8259_hwint>
f0405c6e:	89 ec                	mov    %ebp,%esp
f0405c70:	58                   	pop    %eax
f0405c71:	5b                   	pop    %ebx
f0405c72:	5d                   	pop    %ebp
f0405c73:	cf                   	iret

f0405c74 <karch_i8259_hwint_04.kern>:
f0405c74:	bb 01 00 00 00       	mov    $0x1,%ebx
f0405c79:	eb e1                	jmp    f0405c5c <karch_i8259_hwint_04.all>

f0405c7b <karch_i8259_hwint_05>:
f0405c7b:	55                   	push   %ebp
f0405c7c:	53                   	push   %ebx
f0405c7d:	50                   	push   %eax
f0405c7e:	89 e5                	mov    %esp,%ebp
f0405c80:	83 7d 10 08          	cmpl   $0x8,0x10(%ebp)
f0405c84:	74 1d                	je     f0405ca3 <karch_i8259_hwint_05.kern>
f0405c86:	bb 00 00 00 00       	mov    $0x0,%ebx

f0405c8b <karch_i8259_hwint_05.all>:
f0405c8b:	89 e8                	mov    %ebp,%eax
f0405c8d:	83 e8 0c             	sub    $0xc,%eax
f0405c90:	50                   	push   %eax
f0405c91:	53                   	push   %ebx
f0405c92:	b8 05 00 00 00       	mov    $0x5,%eax
f0405c97:	50                   	push   %eax
f0405c98:	e8 f4 04 00 00       	call   f0406191 <karch_i8259_hwint>
f0405c9d:	89 ec                	mov    %ebp,%esp
f0405c9f:	58                   	pop    %eax
f0405ca0:	5b                   	pop    %ebx
f0405ca1:	5d                   	pop    %ebp
f0405ca2:	cf                   	iret

f0405ca3 <karch_i8259_hwint_05.kern>:
f0405ca3:	bb 01 00 00 00       	mov    $0x1,%ebx
f0405ca8:	eb e1                	jmp    f0405c8b <karch_i8259_hwint_05.all>

f0405caa <karch_i8259_hwint_06>:
f0405caa:	55                   	push   %ebp
f0405cab:	53                   	push   %ebx
f0405cac:	50                   	push   %eax
f0405cad:	89 e5                	mov    %esp,%ebp
f0405caf:	83 7d 10 08          	cmpl   $0x8,0x10(%ebp)
f0405cb3:	74 1d                	je     f0405cd2 <karch_i8259_hwint_06.kern>
f0405cb5:	bb 00 00 00 00       	mov    $0x0,%ebx

f0405cba <karch_i8259_hwint_06.all>:
f0405cba:	89 e8                	mov    %ebp,%eax
f0405cbc:	83 e8 0c             	sub    $0xc,%eax
f0405cbf:	50                   	push   %eax
f0405cc0:	53                   	push   %ebx
f0405cc1:	b8 06 00 00 00       	mov    $0x6,%eax
f0405cc6:	50                   	push   %eax
f0405cc7:	e8 c5 04 00 00       	call   f0406191 <karch_i8259_hwint>
f0405ccc:	89 ec                	mov    %ebp,%esp
f0405cce:	58                   	pop    %eax
f0405ccf:	5b                   	pop    %ebx
f0405cd0:	5d                   	pop    %ebp
f0405cd1:	cf                   	iret

f0405cd2 <karch_i8259_hwint_06.kern>:
f0405cd2:	bb 01 00 00 00       	mov    $0x1,%ebx
f0405cd7:	eb e1                	jmp    f0405cba <karch_i8259_hwint_06.all>

f0405cd9 <karch_i8259_hwint_07>:
f0405cd9:	55                   	push   %ebp
f0405cda:	53                   	push   %ebx
f0405cdb:	50                   	push   %eax
f0405cdc:	89 e5                	mov    %esp,%ebp
f0405cde:	83 7d 10 08          	cmpl   $0x8,0x10(%ebp)
f0405ce2:	74 1d                	je     f0405d01 <karch_i8259_hwint_07.kern>
f0405ce4:	bb 00 00 00 00       	mov    $0x0,%ebx

f0405ce9 <karch_i8259_hwint_07.all>:
f0405ce9:	89 e8                	mov    %ebp,%eax
f0405ceb:	83 e8 0c             	sub    $0xc,%eax
f0405cee:	50                   	push   %eax
f0405cef:	53                   	push   %ebx
f0405cf0:	b8 07 00 00 00       	mov    $0x7,%eax
f0405cf5:	50                   	push   %eax
f0405cf6:	e8 96 04 00 00       	call   f0406191 <karch_i8259_hwint>
f0405cfb:	89 ec                	mov    %ebp,%esp
f0405cfd:	58                   	pop    %eax
f0405cfe:	5b                   	pop    %ebx
f0405cff:	5d                   	pop    %ebp
f0405d00:	cf                   	iret

f0405d01 <karch_i8259_hwint_07.kern>:
f0405d01:	bb 01 00 00 00       	mov    $0x1,%ebx
f0405d06:	eb e1                	jmp    f0405ce9 <karch_i8259_hwint_07.all>

f0405d08 <karch_i8259_hwint_08>:
f0405d08:	55                   	push   %ebp
f0405d09:	53                   	push   %ebx
f0405d0a:	50                   	push   %eax
f0405d0b:	89 e5                	mov    %esp,%ebp
f0405d0d:	83 7d 10 08          	cmpl   $0x8,0x10(%ebp)
f0405d11:	74 1d                	je     f0405d30 <karch_i8259_hwint_08.kern>
f0405d13:	bb 00 00 00 00       	mov    $0x0,%ebx

f0405d18 <karch_i8259_hwint_08.all>:
f0405d18:	89 e8                	mov    %ebp,%eax
f0405d1a:	83 e8 0c             	sub    $0xc,%eax
f0405d1d:	50                   	push   %eax
f0405d1e:	53                   	push   %ebx
f0405d1f:	b8 08 00 00 00       	mov    $0x8,%eax
f0405d24:	50                   	push   %eax
f0405d25:	e8 67 04 00 00       	call   f0406191 <karch_i8259_hwint>
f0405d2a:	89 ec                	mov    %ebp,%esp
f0405d2c:	58                   	pop    %eax
f0405d2d:	5b                   	pop    %ebx
f0405d2e:	5d                   	pop    %ebp
f0405d2f:	cf                   	iret

f0405d30 <karch_i8259_hwint_08.kern>:
f0405d30:	bb 01 00 00 00       	mov    $0x1,%ebx
f0405d35:	eb e1                	jmp    f0405d18 <karch_i8259_hwint_08.all>

f0405d37 <karch_i8259_hwint_09>:
f0405d37:	55                   	push   %ebp
f0405d38:	53                   	push   %ebx
f0405d39:	50                   	push   %eax
f0405d3a:	89 e5                	mov    %esp,%ebp
f0405d3c:	83 7d 10 08          	cmpl   $0x8,0x10(%ebp)
f0405d40:	74 1d                	je     f0405d5f <karch_i8259_hwint_09.kern>
f0405d42:	bb 00 00 00 00       	mov    $0x0,%ebx

f0405d47 <karch_i8259_hwint_09.all>:
f0405d47:	89 e8                	mov    %ebp,%eax
f0405d49:	83 e8 0c             	sub    $0xc,%eax
f0405d4c:	50                   	push   %eax
f0405d4d:	53                   	push   %ebx
f0405d4e:	b8 09 00 00 00       	mov    $0x9,%eax
f0405d53:	50                   	push   %eax
f0405d54:	e8 38 04 00 00       	call   f0406191 <karch_i8259_hwint>
f0405d59:	89 ec                	mov    %ebp,%esp
f0405d5b:	58                   	pop    %eax
f0405d5c:	5b                   	pop    %ebx
f0405d5d:	5d                   	pop    %ebp
f0405d5e:	cf                   	iret

f0405d5f <karch_i8259_hwint_09.kern>:
f0405d5f:	bb 01 00 00 00       	mov    $0x1,%ebx
f0405d64:	eb e1                	jmp    f0405d47 <karch_i8259_hwint_09.all>

f0405d66 <karch_i8259_hwint_10>:
f0405d66:	55                   	push   %ebp
f0405d67:	53                   	push   %ebx
f0405d68:	50                   	push   %eax
f0405d69:	89 e5                	mov    %esp,%ebp
f0405d6b:	83 7d 10 08          	cmpl   $0x8,0x10(%ebp)
f0405d6f:	74 1d                	je     f0405d8e <karch_i8259_hwint_10.kern>
f0405d71:	bb 00 00 00 00       	mov    $0x0,%ebx

f0405d76 <karch_i8259_hwint_10.all>:
f0405d76:	89 e8                	mov    %ebp,%eax
f0405d78:	83 e8 0c             	sub    $0xc,%eax
f0405d7b:	50                   	push   %eax
f0405d7c:	53                   	push   %ebx
f0405d7d:	b8 0a 00 00 00       	mov    $0xa,%eax
f0405d82:	50                   	push   %eax
f0405d83:	e8 09 04 00 00       	call   f0406191 <karch_i8259_hwint>
f0405d88:	89 ec                	mov    %ebp,%esp
f0405d8a:	58                   	pop    %eax
f0405d8b:	5b                   	pop    %ebx
f0405d8c:	5d                   	pop    %ebp
f0405d8d:	cf                   	iret

f0405d8e <karch_i8259_hwint_10.kern>:
f0405d8e:	bb 01 00 00 00       	mov    $0x1,%ebx
f0405d93:	eb e1                	jmp    f0405d76 <karch_i8259_hwint_10.all>

f0405d95 <karch_i8259_hwint_11>:
f0405d95:	55                   	push   %ebp
f0405d96:	53                   	push   %ebx
f0405d97:	50                   	push   %eax
f0405d98:	89 e5                	mov    %esp,%ebp
f0405d9a:	83 7d 10 08          	cmpl   $0x8,0x10(%ebp)
f0405d9e:	74 1d                	je     f0405dbd <karch_i8259_hwint_11.kern>
f0405da0:	bb 00 00 00 00       	mov    $0x0,%ebx

f0405da5 <karch_i8259_hwint_11.all>:
f0405da5:	89 e8                	mov    %ebp,%eax
f0405da7:	83 e8 0c             	sub    $0xc,%eax
f0405daa:	50                   	push   %eax
f0405dab:	53                   	push   %ebx
f0405dac:	b8 0b 00 00 00       	mov    $0xb,%eax
f0405db1:	50                   	push   %eax
f0405db2:	e8 da 03 00 00       	call   f0406191 <karch_i8259_hwint>
f0405db7:	89 ec                	mov    %ebp,%esp
f0405db9:	58                   	pop    %eax
f0405dba:	5b                   	pop    %ebx
f0405dbb:	5d                   	pop    %ebp
f0405dbc:	cf                   	iret

f0405dbd <karch_i8259_hwint_11.kern>:
f0405dbd:	bb 01 00 00 00       	mov    $0x1,%ebx
f0405dc2:	eb e1                	jmp    f0405da5 <karch_i8259_hwint_11.all>

f0405dc4 <karch_i8259_hwint_12>:
f0405dc4:	55                   	push   %ebp
f0405dc5:	53                   	push   %ebx
f0405dc6:	50                   	push   %eax
f0405dc7:	89 e5                	mov    %esp,%ebp
f0405dc9:	83 7d 10 08          	cmpl   $0x8,0x10(%ebp)
f0405dcd:	74 1d                	je     f0405dec <karch_i8259_hwint_12.kern>
f0405dcf:	bb 00 00 00 00       	mov    $0x0,%ebx

f0405dd4 <karch_i8259_hwint_12.all>:
f0405dd4:	89 e8                	mov    %ebp,%eax
f0405dd6:	83 e8 0c             	sub    $0xc,%eax
f0405dd9:	50                   	push   %eax
f0405dda:	53                   	push   %ebx
f0405ddb:	b8 0c 00 00 00       	mov    $0xc,%eax
f0405de0:	50                   	push   %eax
f0405de1:	e8 ab 03 00 00       	call   f0406191 <karch_i8259_hwint>
f0405de6:	89 ec                	mov    %ebp,%esp
f0405de8:	58                   	pop    %eax
f0405de9:	5b                   	pop    %ebx
f0405dea:	5d                   	pop    %ebp
f0405deb:	cf                   	iret

f0405dec <karch_i8259_hwint_12.kern>:
f0405dec:	bb 01 00 00 00       	mov    $0x1,%ebx
f0405df1:	eb e1                	jmp    f0405dd4 <karch_i8259_hwint_12.all>

f0405df3 <karch_i8259_hwint_13>:
f0405df3:	55                   	push   %ebp
f0405df4:	53                   	push   %ebx
f0405df5:	50                   	push   %eax
f0405df6:	89 e5                	mov    %esp,%ebp
f0405df8:	83 7d 10 08          	cmpl   $0x8,0x10(%ebp)
f0405dfc:	74 1d                	je     f0405e1b <karch_i8259_hwint_13.kern>
f0405dfe:	bb 00 00 00 00       	mov    $0x0,%ebx

f0405e03 <karch_i8259_hwint_13.all>:
f0405e03:	89 e8                	mov    %ebp,%eax
f0405e05:	83 e8 0c             	sub    $0xc,%eax
f0405e08:	50                   	push   %eax
f0405e09:	53                   	push   %ebx
f0405e0a:	b8 0d 00 00 00       	mov    $0xd,%eax
f0405e0f:	50                   	push   %eax
f0405e10:	e8 7c 03 00 00       	call   f0406191 <karch_i8259_hwint>
f0405e15:	89 ec                	mov    %ebp,%esp
f0405e17:	58                   	pop    %eax
f0405e18:	5b                   	pop    %ebx
f0405e19:	5d                   	pop    %ebp
f0405e1a:	cf                   	iret

f0405e1b <karch_i8259_hwint_13.kern>:
f0405e1b:	bb 01 00 00 00       	mov    $0x1,%ebx
f0405e20:	eb e1                	jmp    f0405e03 <karch_i8259_hwint_13.all>

f0405e22 <karch_i8259_hwint_14>:
f0405e22:	55                   	push   %ebp
f0405e23:	53                   	push   %ebx
f0405e24:	50                   	push   %eax
f0405e25:	89 e5                	mov    %esp,%ebp
f0405e27:	83 7d 10 08          	cmpl   $0x8,0x10(%ebp)
f0405e2b:	74 1d                	je     f0405e4a <karch_i8259_hwint_14.kern>
f0405e2d:	bb 00 00 00 00       	mov    $0x0,%ebx

f0405e32 <karch_i8259_hwint_14.all>:
f0405e32:	89 e8                	mov    %ebp,%eax
f0405e34:	83 e8 0c             	sub    $0xc,%eax
f0405e37:	50                   	push   %eax
f0405e38:	53                   	push   %ebx
f0405e39:	b8 0e 00 00 00       	mov    $0xe,%eax
f0405e3e:	50                   	push   %eax
f0405e3f:	e8 4d 03 00 00       	call   f0406191 <karch_i8259_hwint>
f0405e44:	89 ec                	mov    %ebp,%esp
f0405e46:	58                   	pop    %eax
f0405e47:	5b                   	pop    %ebx
f0405e48:	5d                   	pop    %ebp
f0405e49:	cf                   	iret

f0405e4a <karch_i8259_hwint_14.kern>:
f0405e4a:	bb 01 00 00 00       	mov    $0x1,%ebx
f0405e4f:	eb e1                	jmp    f0405e32 <karch_i8259_hwint_14.all>

f0405e51 <karch_i8259_hwint_15>:
f0405e51:	55                   	push   %ebp
f0405e52:	53                   	push   %ebx
f0405e53:	50                   	push   %eax
f0405e54:	89 e5                	mov    %esp,%ebp
f0405e56:	83 7d 10 08          	cmpl   $0x8,0x10(%ebp)
f0405e5a:	74 1d                	je     f0405e79 <karch_i8259_hwint_15.kern>
f0405e5c:	bb 00 00 00 00       	mov    $0x0,%ebx

f0405e61 <karch_i8259_hwint_15.all>:
f0405e61:	89 e8                	mov    %ebp,%eax
f0405e63:	83 e8 0c             	sub    $0xc,%eax
f0405e66:	50                   	push   %eax
f0405e67:	53                   	push   %ebx
f0405e68:	b8 0f 00 00 00       	mov    $0xf,%eax
f0405e6d:	50                   	push   %eax
f0405e6e:	e8 1e 03 00 00       	call   f0406191 <karch_i8259_hwint>
f0405e73:	89 ec                	mov    %ebp,%esp
f0405e75:	58                   	pop    %eax
f0405e76:	5b                   	pop    %ebx
f0405e77:	5d                   	pop    %ebp
f0405e78:	cf                   	iret

f0405e79 <karch_i8259_hwint_15.kern>:
f0405e79:	bb 01 00 00 00       	mov    $0x1,%ebx
f0405e7e:	eb e1                	jmp    f0405e61 <karch_i8259_hwint_15.all>

f0405e80 <karch_init_i8259>:
f0405e80:	55                   	push   %ebp
f0405e81:	89 e5                	mov    %esp,%ebp
f0405e83:	83 ec 08             	sub    $0x8,%esp
f0405e86:	83 ec 04             	sub    $0x4,%esp
f0405e89:	6a 40                	push   $0x40
f0405e8b:	6a 00                	push   $0x0
f0405e8d:	68 c0 14 41 f0       	push   $0xf04114c0
f0405e92:	e8 dd 07 00 00       	call   f0406674 <kmemset>
f0405e97:	83 c4 10             	add    $0x10,%esp
f0405e9a:	83 ec 04             	sub    $0x4,%esp
f0405e9d:	6a 40                	push   $0x40
f0405e9f:	6a 00                	push   $0x0
f0405ea1:	68 00 15 41 f0       	push   $0xf0411500
f0405ea6:	e8 c9 07 00 00       	call   f0406674 <kmemset>
f0405eab:	83 c4 10             	add    $0x10,%esp
f0405eae:	83 ec 08             	sub    $0x8,%esp
f0405eb1:	6a 50                	push   $0x50
f0405eb3:	68 00 71 40 f0       	push   $0xf0407100
f0405eb8:	e8 d8 03 00 00       	call   f0406295 <karch_load_idt_gatevec>
f0405ebd:	83 c4 10             	add    $0x10,%esp
f0405ec0:	83 ec 08             	sub    $0x8,%esp
f0405ec3:	6a 70                	push   $0x70
f0405ec5:	68 60 71 40 f0       	push   $0xf0407160
f0405eca:	e8 c6 03 00 00       	call   f0406295 <karch_load_idt_gatevec>
f0405ecf:	83 c4 10             	add    $0x10,%esp
f0405ed2:	e8 03 00 00 00       	call   f0405eda <karch_program_i8259>
f0405ed7:	90                   	nop
f0405ed8:	c9                   	leave
f0405ed9:	c3                   	ret

f0405eda <karch_program_i8259>:
f0405eda:	55                   	push   %ebp
f0405edb:	89 e5                	mov    %esp,%ebp
f0405edd:	83 ec 08             	sub    $0x8,%esp
f0405ee0:	83 ec 08             	sub    $0x8,%esp
f0405ee3:	6a 11                	push   $0x11
f0405ee5:	6a 20                	push   $0x20
f0405ee7:	e8 c0 f5 ff ff       	call   f04054ac <cpu_out8>
f0405eec:	83 c4 10             	add    $0x10,%esp
f0405eef:	83 ec 08             	sub    $0x8,%esp
f0405ef2:	6a 50                	push   $0x50
f0405ef4:	6a 21                	push   $0x21
f0405ef6:	e8 b1 f5 ff ff       	call   f04054ac <cpu_out8>
f0405efb:	83 c4 10             	add    $0x10,%esp
f0405efe:	83 ec 08             	sub    $0x8,%esp
f0405f01:	6a 04                	push   $0x4
f0405f03:	6a 21                	push   $0x21
f0405f05:	e8 a2 f5 ff ff       	call   f04054ac <cpu_out8>
f0405f0a:	83 c4 10             	add    $0x10,%esp
f0405f0d:	83 ec 08             	sub    $0x8,%esp
f0405f10:	6a 05                	push   $0x5
f0405f12:	6a 21                	push   $0x21
f0405f14:	e8 93 f5 ff ff       	call   f04054ac <cpu_out8>
f0405f19:	83 c4 10             	add    $0x10,%esp
f0405f1c:	83 ec 08             	sub    $0x8,%esp
f0405f1f:	6a ff                	push   $0xffffffff
f0405f21:	6a 21                	push   $0x21
f0405f23:	e8 84 f5 ff ff       	call   f04054ac <cpu_out8>
f0405f28:	83 c4 10             	add    $0x10,%esp
f0405f2b:	83 ec 08             	sub    $0x8,%esp
f0405f2e:	6a 11                	push   $0x11
f0405f30:	68 a0 00 00 00       	push   $0xa0
f0405f35:	e8 72 f5 ff ff       	call   f04054ac <cpu_out8>
f0405f3a:	83 c4 10             	add    $0x10,%esp
f0405f3d:	83 ec 08             	sub    $0x8,%esp
f0405f40:	6a 70                	push   $0x70
f0405f42:	68 a1 00 00 00       	push   $0xa1
f0405f47:	e8 60 f5 ff ff       	call   f04054ac <cpu_out8>
f0405f4c:	83 c4 10             	add    $0x10,%esp
f0405f4f:	83 ec 08             	sub    $0x8,%esp
f0405f52:	6a 02                	push   $0x2
f0405f54:	68 a1 00 00 00       	push   $0xa1
f0405f59:	e8 4e f5 ff ff       	call   f04054ac <cpu_out8>
f0405f5e:	83 c4 10             	add    $0x10,%esp
f0405f61:	83 ec 08             	sub    $0x8,%esp
f0405f64:	6a 01                	push   $0x1
f0405f66:	68 a1 00 00 00       	push   $0xa1
f0405f6b:	e8 3c f5 ff ff       	call   f04054ac <cpu_out8>
f0405f70:	83 c4 10             	add    $0x10,%esp
f0405f73:	83 ec 08             	sub    $0x8,%esp
f0405f76:	6a ff                	push   $0xffffffff
f0405f78:	68 a1 00 00 00       	push   $0xa1
f0405f7d:	e8 2a f5 ff ff       	call   f04054ac <cpu_out8>
f0405f82:	83 c4 10             	add    $0x10,%esp
f0405f85:	90                   	nop
f0405f86:	c9                   	leave
f0405f87:	c3                   	ret

f0405f88 <karch_unmask_i8259>:
f0405f88:	55                   	push   %ebp
f0405f89:	89 e5                	mov    %esp,%ebp
f0405f8b:	53                   	push   %ebx
f0405f8c:	83 ec 24             	sub    $0x24,%esp
f0405f8f:	8b 45 08             	mov    0x8(%ebp),%eax
f0405f92:	88 45 e4             	mov    %al,-0x1c(%ebp)
f0405f95:	80 7d e4 07          	cmpb   $0x7,-0x1c(%ebp)
f0405f99:	77 07                	ja     f0405fa2 <karch_unmask_i8259+0x1a>
f0405f9b:	b8 21 00 00 00       	mov    $0x21,%eax
f0405fa0:	eb 05                	jmp    f0405fa7 <karch_unmask_i8259+0x1f>
f0405fa2:	b8 a1 ff ff ff       	mov    $0xffffffa1,%eax
f0405fa7:	88 45 f7             	mov    %al,-0x9(%ebp)
f0405faa:	0f b6 45 f7          	movzbl -0x9(%ebp),%eax
f0405fae:	83 ec 0c             	sub    $0xc,%esp
f0405fb1:	50                   	push   %eax
f0405fb2:	e8 be f4 ff ff       	call   f0405475 <cpu_in8>
f0405fb7:	83 c4 10             	add    $0x10,%esp
f0405fba:	88 45 f6             	mov    %al,-0xa(%ebp)
f0405fbd:	0f b6 45 f6          	movzbl -0xa(%ebp),%eax
f0405fc1:	0f b6 55 e4          	movzbl -0x1c(%ebp),%edx
f0405fc5:	83 e2 07             	and    $0x7,%edx
f0405fc8:	bb 01 00 00 00       	mov    $0x1,%ebx
f0405fcd:	89 d1                	mov    %edx,%ecx
f0405fcf:	d3 e3                	shl    %cl,%ebx
f0405fd1:	89 da                	mov    %ebx,%edx
f0405fd3:	f7 d2                	not    %edx
f0405fd5:	21 d0                	and    %edx,%eax
f0405fd7:	89 c2                	mov    %eax,%edx
f0405fd9:	0f b6 45 f7          	movzbl -0x9(%ebp),%eax
f0405fdd:	83 ec 08             	sub    $0x8,%esp
f0405fe0:	52                   	push   %edx
f0405fe1:	50                   	push   %eax
f0405fe2:	e8 c5 f4 ff ff       	call   f04054ac <cpu_out8>
f0405fe7:	83 c4 10             	add    $0x10,%esp
f0405fea:	80 7d e4 07          	cmpb   $0x7,-0x1c(%ebp)
f0405fee:	76 13                	jbe    f0406003 <karch_unmask_i8259+0x7b>
f0405ff0:	80 7d f6 ff          	cmpb   $0xff,-0xa(%ebp)
f0405ff4:	75 0d                	jne    f0406003 <karch_unmask_i8259+0x7b>
f0405ff6:	83 ec 0c             	sub    $0xc,%esp
f0405ff9:	6a 02                	push   $0x2
f0405ffb:	e8 88 ff ff ff       	call   f0405f88 <karch_unmask_i8259>
f0406000:	83 c4 10             	add    $0x10,%esp
f0406003:	90                   	nop
f0406004:	8b 5d fc             	mov    -0x4(%ebp),%ebx
f0406007:	c9                   	leave
f0406008:	c3                   	ret

f0406009 <karch_mask_i8259>:
f0406009:	55                   	push   %ebp
f040600a:	89 e5                	mov    %esp,%ebp
f040600c:	83 ec 28             	sub    $0x28,%esp
f040600f:	8b 45 08             	mov    0x8(%ebp),%eax
f0406012:	88 45 e4             	mov    %al,-0x1c(%ebp)
f0406015:	80 7d e4 07          	cmpb   $0x7,-0x1c(%ebp)
f0406019:	77 07                	ja     f0406022 <karch_mask_i8259+0x19>
f040601b:	b8 21 00 00 00       	mov    $0x21,%eax
f0406020:	eb 05                	jmp    f0406027 <karch_mask_i8259+0x1e>
f0406022:	b8 a1 ff ff ff       	mov    $0xffffffa1,%eax
f0406027:	88 45 f7             	mov    %al,-0x9(%ebp)
f040602a:	0f b6 45 f7          	movzbl -0x9(%ebp),%eax
f040602e:	83 ec 0c             	sub    $0xc,%esp
f0406031:	50                   	push   %eax
f0406032:	e8 3e f4 ff ff       	call   f0405475 <cpu_in8>
f0406037:	83 c4 10             	add    $0x10,%esp
f040603a:	88 45 f6             	mov    %al,-0xa(%ebp)
f040603d:	0f b6 45 e4          	movzbl -0x1c(%ebp),%eax
f0406041:	83 e0 07             	and    $0x7,%eax
f0406044:	ba 01 00 00 00       	mov    $0x1,%edx
f0406049:	89 c1                	mov    %eax,%ecx
f040604b:	d3 e2                	shl    %cl,%edx
f040604d:	89 d0                	mov    %edx,%eax
f040604f:	89 c2                	mov    %eax,%edx
f0406051:	0f b6 45 f6          	movzbl -0xa(%ebp),%eax
f0406055:	09 d0                	or     %edx,%eax
f0406057:	88 45 f5             	mov    %al,-0xb(%ebp)
f040605a:	0f b6 55 f5          	movzbl -0xb(%ebp),%edx
f040605e:	0f b6 45 f7          	movzbl -0x9(%ebp),%eax
f0406062:	83 ec 08             	sub    $0x8,%esp
f0406065:	52                   	push   %edx
f0406066:	50                   	push   %eax
f0406067:	e8 40 f4 ff ff       	call   f04054ac <cpu_out8>
f040606c:	83 c4 10             	add    $0x10,%esp
f040606f:	80 7d e4 07          	cmpb   $0x7,-0x1c(%ebp)
f0406073:	76 13                	jbe    f0406088 <karch_mask_i8259+0x7f>
f0406075:	80 7d f5 ff          	cmpb   $0xff,-0xb(%ebp)
f0406079:	75 0d                	jne    f0406088 <karch_mask_i8259+0x7f>
f040607b:	83 ec 0c             	sub    $0xc,%esp
f040607e:	6a 02                	push   $0x2
f0406080:	e8 84 ff ff ff       	call   f0406009 <karch_mask_i8259>
f0406085:	83 c4 10             	add    $0x10,%esp
f0406088:	90                   	nop
f0406089:	c9                   	leave
f040608a:	c3                   	ret

f040608b <karch_disable_i8259>:
f040608b:	55                   	push   %ebp
f040608c:	89 e5                	mov    %esp,%ebp
f040608e:	83 ec 08             	sub    $0x8,%esp
f0406091:	83 ec 08             	sub    $0x8,%esp
f0406094:	68 ff 00 00 00       	push   $0xff
f0406099:	68 a1 00 00 00       	push   $0xa1
f040609e:	e8 09 f4 ff ff       	call   f04054ac <cpu_out8>
f04060a3:	83 c4 10             	add    $0x10,%esp
f04060a6:	83 ec 08             	sub    $0x8,%esp
f04060a9:	68 ff 00 00 00       	push   $0xff
f04060ae:	6a 21                	push   $0x21
f04060b0:	e8 f7 f3 ff ff       	call   f04054ac <cpu_out8>
f04060b5:	83 c4 10             	add    $0x10,%esp
f04060b8:	83 ec 0c             	sub    $0xc,%esp
f04060bb:	6a 21                	push   $0x21
f04060bd:	e8 b3 f3 ff ff       	call   f0405475 <cpu_in8>
f04060c2:	83 c4 10             	add    $0x10,%esp
f04060c5:	90                   	nop
f04060c6:	c9                   	leave
f04060c7:	c3                   	ret

f04060c8 <karch_i8259_eoi>:
f04060c8:	55                   	push   %ebp
f04060c9:	89 e5                	mov    %esp,%ebp
f04060cb:	83 ec 08             	sub    $0x8,%esp
f04060ce:	83 7d 08 07          	cmpl   $0x7,0x8(%ebp)
f04060d2:	77 11                	ja     f04060e5 <karch_i8259_eoi+0x1d>
f04060d4:	83 ec 08             	sub    $0x8,%esp
f04060d7:	6a 20                	push   $0x20
f04060d9:	6a 20                	push   $0x20
f04060db:	e8 cc f3 ff ff       	call   f04054ac <cpu_out8>
f04060e0:	83 c4 10             	add    $0x10,%esp
f04060e3:	eb 21                	jmp    f0406106 <karch_i8259_eoi+0x3e>
f04060e5:	83 ec 08             	sub    $0x8,%esp
f04060e8:	6a 20                	push   $0x20
f04060ea:	6a 20                	push   $0x20
f04060ec:	e8 bb f3 ff ff       	call   f04054ac <cpu_out8>
f04060f1:	83 c4 10             	add    $0x10,%esp
f04060f4:	83 ec 08             	sub    $0x8,%esp
f04060f7:	6a 20                	push   $0x20
f04060f9:	68 a0 00 00 00       	push   $0xa0
f04060fe:	e8 a9 f3 ff ff       	call   f04054ac <cpu_out8>
f0406103:	83 c4 10             	add    $0x10,%esp
f0406106:	90                   	nop
f0406107:	c9                   	leave
f0406108:	c3                   	ret

f0406109 <karch_get_hwint_i8259>:
f0406109:	55                   	push   %ebp
f040610a:	89 e5                	mov    %esp,%ebp
f040610c:	83 ec 04             	sub    $0x4,%esp
f040610f:	8b 45 08             	mov    0x8(%ebp),%eax
f0406112:	88 45 fc             	mov    %al,-0x4(%ebp)
f0406115:	80 7d fc 0f          	cmpb   $0xf,-0x4(%ebp)
f0406119:	76 07                	jbe    f0406122 <karch_get_hwint_i8259+0x19>
f040611b:	b8 00 00 00 00       	mov    $0x0,%eax
f0406120:	eb 31                	jmp    f0406153 <karch_get_hwint_i8259+0x4a>
f0406122:	83 7d 0c 00          	cmpl   $0x0,0xc(%ebp)
f0406126:	74 10                	je     f0406138 <karch_get_hwint_i8259+0x2f>
f0406128:	0f b6 45 fc          	movzbl -0x4(%ebp),%eax
f040612c:	8b 14 85 c0 14 41 f0 	mov    -0xfbeeb40(,%eax,4),%edx
f0406133:	8b 45 0c             	mov    0xc(%ebp),%eax
f0406136:	89 10                	mov    %edx,(%eax)
f0406138:	83 7d 10 00          	cmpl   $0x0,0x10(%ebp)
f040613c:	74 10                	je     f040614e <karch_get_hwint_i8259+0x45>
f040613e:	0f b6 45 fc          	movzbl -0x4(%ebp),%eax
f0406142:	8b 14 85 00 15 41 f0 	mov    -0xfbeeb00(,%eax,4),%edx
f0406149:	8b 45 10             	mov    0x10(%ebp),%eax
f040614c:	89 10                	mov    %edx,(%eax)
f040614e:	b8 01 00 00 00       	mov    $0x1,%eax
f0406153:	c9                   	leave
f0406154:	c3                   	ret

f0406155 <karch_set_hwint_i8259>:
f0406155:	55                   	push   %ebp
f0406156:	89 e5                	mov    %esp,%ebp
f0406158:	83 ec 04             	sub    $0x4,%esp
f040615b:	8b 45 08             	mov    0x8(%ebp),%eax
f040615e:	88 45 fc             	mov    %al,-0x4(%ebp)
f0406161:	80 7d fc 0f          	cmpb   $0xf,-0x4(%ebp)
f0406165:	76 07                	jbe    f040616e <karch_set_hwint_i8259+0x19>
f0406167:	b8 00 00 00 00       	mov    $0x0,%eax
f040616c:	eb 21                	jmp    f040618f <karch_set_hwint_i8259+0x3a>
f040616e:	0f b6 45 fc          	movzbl -0x4(%ebp),%eax
f0406172:	8b 55 0c             	mov    0xc(%ebp),%edx
f0406175:	89 14 85 c0 14 41 f0 	mov    %edx,-0xfbeeb40(,%eax,4)
f040617c:	0f b6 45 fc          	movzbl -0x4(%ebp),%eax
f0406180:	8b 55 10             	mov    0x10(%ebp),%edx
f0406183:	89 14 85 00 15 41 f0 	mov    %edx,-0xfbeeb00(,%eax,4)
f040618a:	b8 01 00 00 00       	mov    $0x1,%eax
f040618f:	c9                   	leave
f0406190:	c3                   	ret

f0406191 <karch_i8259_hwint>:
f0406191:	55                   	push   %ebp
f0406192:	89 e5                	mov    %esp,%ebp
f0406194:	83 ec 28             	sub    $0x28,%esp
f0406197:	c7 45 f4 00 80 0b 00 	movl   $0xb8000,-0xc(%ebp)
f040619e:	8b 45 f4             	mov    -0xc(%ebp),%eax
f04061a1:	83 c0 02             	add    $0x2,%eax
f04061a4:	66 c7 00 68 0f       	movw   $0xf68,(%eax)
f04061a9:	8b 45 08             	mov    0x8(%ebp),%eax
f04061ac:	8b 04 85 c0 14 41 f0 	mov    -0xfbeeb40(,%eax,4),%eax
f04061b3:	85 c0                	test   %eax,%eax
f04061b5:	74 35                	je     f04061ec <karch_i8259_hwint+0x5b>
f04061b7:	8b 45 08             	mov    0x8(%ebp),%eax
f04061ba:	89 45 e4             	mov    %eax,-0x1c(%ebp)
f04061bd:	8b 45 0c             	mov    0xc(%ebp),%eax
f04061c0:	89 45 e8             	mov    %eax,-0x18(%ebp)
f04061c3:	8b 45 10             	mov    0x10(%ebp),%eax
f04061c6:	89 45 ec             	mov    %eax,-0x14(%ebp)
f04061c9:	8b 45 08             	mov    0x8(%ebp),%eax
f04061cc:	8b 04 85 00 15 41 f0 	mov    -0xfbeeb00(,%eax,4),%eax
f04061d3:	89 45 f0             	mov    %eax,-0x10(%ebp)
f04061d6:	8b 45 08             	mov    0x8(%ebp),%eax
f04061d9:	8b 04 85 c0 14 41 f0 	mov    -0xfbeeb40(,%eax,4),%eax
f04061e0:	83 ec 0c             	sub    $0xc,%esp
f04061e3:	8d 55 e4             	lea    -0x1c(%ebp),%edx
f04061e6:	52                   	push   %edx
f04061e7:	ff d0                	call   *%eax
f04061e9:	83 c4 10             	add    $0x10,%esp
f04061ec:	83 ec 0c             	sub    $0xc,%esp
f04061ef:	ff 75 08             	push   0x8(%ebp)
f04061f2:	e8 d1 fe ff ff       	call   f04060c8 <karch_i8259_eoi>
f04061f7:	83 c4 10             	add    $0x10,%esp
f04061fa:	90                   	nop
f04061fb:	c9                   	leave
f04061fc:	c3                   	ret

f04061fd <karch_init_idt>:
f04061fd:	55                   	push   %ebp
f04061fe:	89 e5                	mov    %esp,%ebp
f0406200:	83 ec 08             	sub    $0x8,%esp
f0406203:	83 ec 04             	sub    $0x4,%esp
f0406206:	68 00 08 00 00       	push   $0x800
f040620b:	6a 00                	push   $0x0
f040620d:	68 48 15 41 f0       	push   $0xf0411548
f0406212:	e8 5d 04 00 00       	call   f0406674 <kmemset>
f0406217:	83 c4 10             	add    $0x10,%esp
f040621a:	b8 48 15 41 f0       	mov    $0xf0411548,%eax
f040621f:	a3 42 15 41 f0       	mov    %eax,0xf0411542
f0406224:	66 c7 05 40 15 41 f0 	movw   $0x7ff,0xf0411540
f040622b:	ff 07 
f040622d:	90                   	nop
f040622e:	c9                   	leave
f040622f:	c3                   	ret

f0406230 <karch_flush_idt>:
f0406230:	55                   	push   %ebp
f0406231:	89 e5                	mov    %esp,%ebp
f0406233:	83 ec 08             	sub    $0x8,%esp
f0406236:	83 ec 0c             	sub    $0xc,%esp
f0406239:	68 40 15 41 f0       	push   $0xf0411540
f040623e:	e8 1c f2 ff ff       	call   f040545f <load_idt>
f0406243:	83 c4 10             	add    $0x10,%esp
f0406246:	90                   	nop
f0406247:	c9                   	leave
f0406248:	c3                   	ret

f0406249 <karch_set_idt>:
f0406249:	55                   	push   %ebp
f040624a:	89 e5                	mov    %esp,%ebp
f040624c:	83 ec 14             	sub    $0x14,%esp
f040624f:	8b 45 08             	mov    0x8(%ebp),%eax
f0406252:	88 45 ec             	mov    %al,-0x14(%ebp)
f0406255:	0f b6 45 ec          	movzbl -0x14(%ebp),%eax
f0406259:	c1 e0 03             	shl    $0x3,%eax
f040625c:	05 48 15 41 f0       	add    $0xf0411548,%eax
f0406261:	89 45 fc             	mov    %eax,-0x4(%ebp)
f0406264:	8b 45 0c             	mov    0xc(%ebp),%eax
f0406267:	89 c2                	mov    %eax,%edx
f0406269:	8b 45 fc             	mov    -0x4(%ebp),%eax
f040626c:	66 89 10             	mov    %dx,(%eax)
f040626f:	8b 45 0c             	mov    0xc(%ebp),%eax
f0406272:	c1 e8 10             	shr    $0x10,%eax
f0406275:	89 c2                	mov    %eax,%edx
f0406277:	8b 45 fc             	mov    -0x4(%ebp),%eax
f040627a:	66 89 50 06          	mov    %dx,0x6(%eax)
f040627e:	8b 45 fc             	mov    -0x4(%ebp),%eax
f0406281:	66 c7 40 02 08 00    	movw   $0x8,0x2(%eax)
f0406287:	8b 45 10             	mov    0x10(%ebp),%eax
f040628a:	89 c2                	mov    %eax,%edx
f040628c:	8b 45 fc             	mov    -0x4(%ebp),%eax
f040628f:	88 50 05             	mov    %dl,0x5(%eax)
f0406292:	90                   	nop
f0406293:	c9                   	leave
f0406294:	c3                   	ret

f0406295 <karch_load_idt_gatevec>:
f0406295:	55                   	push   %ebp
f0406296:	89 e5                	mov    %esp,%ebp
f0406298:	53                   	push   %ebx
f0406299:	83 ec 14             	sub    $0x14,%esp
f040629c:	8b 45 0c             	mov    0xc(%ebp),%eax
f040629f:	88 45 e8             	mov    %al,-0x18(%ebp)
f04062a2:	eb 3f                	jmp    f04062e3 <karch_load_idt_gatevec+0x4e>
f04062a4:	8b 45 08             	mov    0x8(%ebp),%eax
f04062a7:	8d 50 08             	lea    0x8(%eax),%edx
f04062aa:	89 55 08             	mov    %edx,0x8(%ebp)
f04062ad:	89 45 f8             	mov    %eax,-0x8(%ebp)
f04062b0:	8b 45 f8             	mov    -0x8(%ebp),%eax
f04062b3:	0f b6 40 05          	movzbl 0x5(%eax),%eax
f04062b7:	0f b6 c0             	movzbl %al,%eax
f04062ba:	c1 e0 05             	shl    $0x5,%eax
f04062bd:	0c 8e                	or     $0x8e,%al
f04062bf:	89 c1                	mov    %eax,%ecx
f04062c1:	8b 45 f8             	mov    -0x8(%ebp),%eax
f04062c4:	8b 00                	mov    (%eax),%eax
f04062c6:	89 c2                	mov    %eax,%edx
f04062c8:	8b 45 f8             	mov    -0x8(%ebp),%eax
f04062cb:	0f b6 58 04          	movzbl 0x4(%eax),%ebx
f04062cf:	0f b6 45 e8          	movzbl -0x18(%ebp),%eax
f04062d3:	01 d8                	add    %ebx,%eax
f04062d5:	0f b6 c0             	movzbl %al,%eax
f04062d8:	51                   	push   %ecx
f04062d9:	52                   	push   %edx
f04062da:	50                   	push   %eax
f04062db:	e8 69 ff ff ff       	call   f0406249 <karch_set_idt>
f04062e0:	83 c4 0c             	add    $0xc,%esp
f04062e3:	83 7d 08 00          	cmpl   $0x0,0x8(%ebp)
f04062e7:	74 09                	je     f04062f2 <karch_load_idt_gatevec+0x5d>
f04062e9:	8b 45 08             	mov    0x8(%ebp),%eax
f04062ec:	8b 00                	mov    (%eax),%eax
f04062ee:	85 c0                	test   %eax,%eax
f04062f0:	75 b2                	jne    f04062a4 <karch_load_idt_gatevec+0xf>
f04062f2:	90                   	nop
f04062f3:	8b 5d fc             	mov    -0x4(%ebp),%ebx
f04062f6:	c9                   	leave
f04062f7:	c3                   	ret

f04062f8 <karch_init_page>:
f04062f8:	55                   	push   %ebp
f04062f9:	89 e5                	mov    %esp,%ebp
f04062fb:	83 ec 08             	sub    $0x8,%esp
f04062fe:	83 ec 0c             	sub    $0xc,%esp
f0406301:	ff 75 08             	push   0x8(%ebp)
f0406304:	e8 29 00 00 00       	call   f0406332 <karch_page_identity>
f0406309:	83 c4 10             	add    $0x10,%esp
f040630c:	83 ec 0c             	sub    $0xc,%esp
f040630f:	ff 75 08             	push   0x8(%ebp)
f0406312:	e8 7f 00 00 00       	call   f0406396 <karch_page_remap_kernel>
f0406317:	83 c4 10             	add    $0x10,%esp
f040631a:	8b 45 08             	mov    0x8(%ebp),%eax
f040631d:	8b 80 24 03 00 00    	mov    0x324(%eax),%eax
f0406323:	83 ec 0c             	sub    $0xc,%esp
f0406326:	50                   	push   %eax
f0406327:	e8 a1 f0 ff ff       	call   f04053cd <write_cr3>
f040632c:	83 c4 10             	add    $0x10,%esp
f040632f:	90                   	nop
f0406330:	c9                   	leave
f0406331:	c3                   	ret

f0406332 <karch_page_identity>:
f0406332:	55                   	push   %ebp
f0406333:	89 e5                	mov    %esp,%ebp
f0406335:	83 ec 10             	sub    $0x10,%esp
f0406338:	c7 45 fc 00 00 00 00 	movl   $0x0,-0x4(%ebp)
f040633f:	eb 48                	jmp    f0406389 <karch_page_identity+0x57>
f0406341:	c7 45 f8 87 00 00 00 	movl   $0x87,-0x8(%ebp)
f0406348:	8b 45 fc             	mov    -0x4(%ebp),%eax
f040634b:	c1 e0 16             	shl    $0x16,%eax
f040634e:	89 45 f4             	mov    %eax,-0xc(%ebp)
f0406351:	8b 45 08             	mov    0x8(%ebp),%eax
f0406354:	8b 00                	mov    (%eax),%eax
f0406356:	25 00 00 c0 ff       	and    $0xffc00000,%eax
f040635b:	8b 55 f4             	mov    -0xc(%ebp),%edx
f040635e:	81 e2 00 00 c0 ff    	and    $0xffc00000,%edx
f0406364:	39 c2                	cmp    %eax,%edx
f0406366:	72 04                	jb     f040636c <karch_page_identity+0x3a>
f0406368:	83 4d f8 18          	orl    $0x18,-0x8(%ebp)
f040636c:	8b 45 08             	mov    0x8(%ebp),%eax
f040636f:	8b 80 24 03 00 00    	mov    0x324(%eax),%eax
f0406375:	8b 55 fc             	mov    -0x4(%ebp),%edx
f0406378:	c1 e2 02             	shl    $0x2,%edx
f040637b:	01 c2                	add    %eax,%edx
f040637d:	8b 45 f4             	mov    -0xc(%ebp),%eax
f0406380:	0b 45 f8             	or     -0x8(%ebp),%eax
f0406383:	89 02                	mov    %eax,(%edx)
f0406385:	83 45 fc 01          	addl   $0x1,-0x4(%ebp)
f0406389:	81 7d fc ff 03 00 00 	cmpl   $0x3ff,-0x4(%ebp)
f0406390:	76 af                	jbe    f0406341 <karch_page_identity+0xf>
f0406392:	90                   	nop
f0406393:	90                   	nop
f0406394:	c9                   	leave
f0406395:	c3                   	ret

f0406396 <karch_page_remap_kernel>:
f0406396:	55                   	push   %ebp
f0406397:	89 e5                	mov    %esp,%ebp
f0406399:	83 ec 10             	sub    $0x10,%esp
f040639c:	c7 45 fc 00 00 00 00 	movl   $0x0,-0x4(%ebp)
f04063a3:	c7 45 f8 00 00 40 00 	movl   $0x400000,-0x8(%ebp)
f04063aa:	b8 00 00 40 f0       	mov    $0xf0400000,%eax
f04063af:	c1 e8 16             	shr    $0x16,%eax
f04063b2:	89 45 f4             	mov    %eax,-0xc(%ebp)
f04063b5:	eb 2b                	jmp    f04063e2 <karch_page_remap_kernel+0x4c>
f04063b7:	8b 45 08             	mov    0x8(%ebp),%eax
f04063ba:	8b 80 24 03 00 00    	mov    0x324(%eax),%eax
f04063c0:	8b 55 f4             	mov    -0xc(%ebp),%edx
f04063c3:	c1 e2 02             	shl    $0x2,%edx
f04063c6:	01 d0                	add    %edx,%eax
f04063c8:	8b 55 f8             	mov    -0x8(%ebp),%edx
f04063cb:	80 ca 83             	or     $0x83,%dl
f04063ce:	89 10                	mov    %edx,(%eax)
f04063d0:	81 45 fc 00 00 40 00 	addl   $0x400000,-0x4(%ebp)
f04063d7:	81 45 f8 00 00 40 00 	addl   $0x400000,-0x8(%ebp)
f04063de:	83 45 f4 01          	addl   $0x1,-0xc(%ebp)
f04063e2:	b8 49 24 01 00       	mov    $0x12449,%eax
f04063e7:	39 45 fc             	cmp    %eax,-0x4(%ebp)
f04063ea:	72 cb                	jb     f04063b7 <karch_page_remap_kernel+0x21>
f04063ec:	8b 45 08             	mov    0x8(%ebp),%eax
f04063ef:	8b 55 f4             	mov    -0xc(%ebp),%edx
f04063f2:	89 90 28 03 00 00    	mov    %edx,0x328(%eax)
f04063f8:	90                   	nop
f04063f9:	c9                   	leave
f04063fa:	c3                   	ret

f04063fb <karch_init_tss>:
f04063fb:	55                   	push   %ebp
f04063fc:	89 e5                	mov    %esp,%ebp
f04063fe:	83 ec 08             	sub    $0x8,%esp
f0406401:	83 ec 04             	sub    $0x4,%esp
f0406404:	68 c0 06 00 00       	push   $0x6c0
f0406409:	6a 00                	push   $0x0
f040640b:	68 48 1d 41 f0       	push   $0xf0411d48
f0406410:	e8 5f 02 00 00       	call   f0406674 <kmemset>
f0406415:	83 c4 10             	add    $0x10,%esp
f0406418:	83 ec 04             	sub    $0x4,%esp
f040641b:	6a 40                	push   $0x40
f040641d:	6a 00                	push   $0x0
f040641f:	68 08 24 41 f0       	push   $0xf0412408
f0406424:	e8 4b 02 00 00       	call   f0406674 <kmemset>
f0406429:	83 c4 10             	add    $0x10,%esp
f040642c:	c6 05 48 24 41 f0 00 	movb   $0x0,0xf0412448
f0406433:	83 ec 0c             	sub    $0xc,%esp
f0406436:	6a 11                	push   $0x11
f0406438:	e8 de ec ff ff       	call   f040511b <kcpuinfo>
f040643d:	83 c4 10             	add    $0x10,%esp
f0406440:	85 c0                	test   %eax,%eax
f0406442:	0f 95 c0             	setne  %al
f0406445:	0f b6 c0             	movzbl %al,%eax
f0406448:	89 c2                	mov    %eax,%edx
f040644a:	0f b6 05 48 24 41 f0 	movzbl 0xf0412448,%eax
f0406451:	09 d0                	or     %edx,%eax
f0406453:	a2 48 24 41 f0       	mov    %al,0xf0412448
f0406458:	83 ec 0c             	sub    $0xc,%esp
f040645b:	6a 12                	push   $0x12
f040645d:	e8 b9 ec ff ff       	call   f040511b <kcpuinfo>
f0406462:	83 c4 10             	add    $0x10,%esp
f0406465:	85 c0                	test   %eax,%eax
f0406467:	74 07                	je     f0406470 <karch_init_tss+0x75>
f0406469:	b8 02 00 00 00       	mov    $0x2,%eax
f040646e:	eb 05                	jmp    f0406475 <karch_init_tss+0x7a>
f0406470:	b8 00 00 00 00       	mov    $0x0,%eax
f0406475:	89 c2                	mov    %eax,%edx
f0406477:	0f b6 05 48 24 41 f0 	movzbl 0xf0412448,%eax
f040647e:	09 d0                	or     %edx,%eax
f0406480:	a2 48 24 41 f0       	mov    %al,0xf0412448
f0406485:	83 ec 08             	sub    $0x8,%esp
f0406488:	68 00 10 41 f0       	push   $0xf0411000
f040648d:	6a 00                	push   $0x0
f040648f:	e8 2d 00 00 00       	call   f04064c1 <karch_setup_tss>
f0406494:	83 c4 10             	add    $0x10,%esp
f0406497:	90                   	nop
f0406498:	c9                   	leave
f0406499:	c3                   	ret

f040649a <karch_get_tss>:
f040649a:	55                   	push   %ebp
f040649b:	89 e5                	mov    %esp,%ebp
f040649d:	83 ec 04             	sub    $0x4,%esp
f04064a0:	8b 45 08             	mov    0x8(%ebp),%eax
f04064a3:	88 45 fc             	mov    %al,-0x4(%ebp)
f04064a6:	80 7d fc 0f          	cmpb   $0xf,-0x4(%ebp)
f04064aa:	76 07                	jbe    f04064b3 <karch_get_tss+0x19>
f04064ac:	b8 00 00 00 00       	mov    $0x0,%eax
f04064b1:	eb 0c                	jmp    f04064bf <karch_get_tss+0x25>
f04064b3:	0f b6 45 fc          	movzbl -0x4(%ebp),%eax
f04064b7:	6b c0 6c             	imul   $0x6c,%eax,%eax
f04064ba:	05 48 1d 41 f0       	add    $0xf0411d48,%eax
f04064bf:	c9                   	leave
f04064c0:	c3                   	ret

f04064c1 <karch_setup_tss>:
f04064c1:	55                   	push   %ebp
f04064c2:	89 e5                	mov    %esp,%ebp
f04064c4:	83 ec 38             	sub    $0x38,%esp
f04064c7:	8b 45 08             	mov    0x8(%ebp),%eax
f04064ca:	88 45 d4             	mov    %al,-0x2c(%ebp)
f04064cd:	0f b6 45 d4          	movzbl -0x2c(%ebp),%eax
f04064d1:	50                   	push   %eax
f04064d2:	e8 c3 ff ff ff       	call   f040649a <karch_get_tss>
f04064d7:	83 c4 04             	add    $0x4,%esp
f04064da:	89 45 f4             	mov    %eax,-0xc(%ebp)
f04064dd:	0f b6 45 d4          	movzbl -0x2c(%ebp),%eax
f04064e1:	83 c0 06             	add    $0x6,%eax
f04064e4:	0f b6 c0             	movzbl %al,%eax
f04064e7:	83 ec 0c             	sub    $0xc,%esp
f04064ea:	50                   	push   %eax
f04064eb:	e8 13 f5 ff ff       	call   f0405a03 <karch_get_gdt>
f04064f0:	83 c4 10             	add    $0x10,%esp
f04064f3:	89 45 f0             	mov    %eax,-0x10(%ebp)
f04064f6:	83 7d f0 00          	cmpl   $0x0,-0x10(%ebp)
f04064fa:	74 06                	je     f0406502 <karch_setup_tss+0x41>
f04064fc:	83 7d 0c 00          	cmpl   $0x0,0xc(%ebp)
f0406500:	75 0a                	jne    f040650c <karch_setup_tss+0x4b>
f0406502:	b8 00 00 00 00       	mov    $0x0,%eax
f0406507:	e9 66 01 00 00       	jmp    f0406672 <karch_setup_tss+0x1b1>
f040650c:	8b 45 0c             	mov    0xc(%ebp),%eax
f040650f:	83 e8 08             	sub    $0x8,%eax
f0406512:	89 45 ec             	mov    %eax,-0x14(%ebp)
f0406515:	8b 45 f4             	mov    -0xc(%ebp),%eax
f0406518:	6a 00                	push   $0x0
f040651a:	6a 6c                	push   $0x6c
f040651c:	50                   	push   %eax
f040651d:	ff 75 f0             	push   -0x10(%ebp)
f0406520:	e8 8c f5 ff ff       	call   f0405ab1 <karch_set_gdt_data>
f0406525:	83 c4 10             	add    $0x10,%esp
f0406528:	8b 45 f0             	mov    -0x10(%ebp),%eax
f040652b:	c6 40 05 89          	movb   $0x89,0x5(%eax)
f040652f:	83 ec 04             	sub    $0x4,%esp
f0406532:	6a 6c                	push   $0x6c
f0406534:	6a 00                	push   $0x0
f0406536:	ff 75 f4             	push   -0xc(%ebp)
f0406539:	e8 36 01 00 00       	call   f0406674 <kmemset>
f040653e:	83 c4 10             	add    $0x10,%esp
f0406541:	8b 45 f4             	mov    -0xc(%ebp),%eax
f0406544:	c7 40 08 02 00 00 00 	movl   $0x2,0x8(%eax)
f040654b:	8b 45 f4             	mov    -0xc(%ebp),%eax
f040654e:	8b 50 08             	mov    0x8(%eax),%edx
f0406551:	8b 45 f4             	mov    -0xc(%ebp),%eax
f0406554:	89 50 5c             	mov    %edx,0x5c(%eax)
f0406557:	8b 45 f4             	mov    -0xc(%ebp),%eax
f040655a:	8b 50 5c             	mov    0x5c(%eax),%edx
f040655d:	8b 45 f4             	mov    -0xc(%ebp),%eax
f0406560:	89 50 58             	mov    %edx,0x58(%eax)
f0406563:	8b 45 f4             	mov    -0xc(%ebp),%eax
f0406566:	8b 50 58             	mov    0x58(%eax),%edx
f0406569:	8b 45 f4             	mov    -0xc(%ebp),%eax
f040656c:	89 50 48             	mov    %edx,0x48(%eax)
f040656f:	8b 45 f4             	mov    -0xc(%ebp),%eax
f0406572:	8b 50 48             	mov    0x48(%eax),%edx
f0406575:	8b 45 f4             	mov    -0xc(%ebp),%eax
f0406578:	89 50 54             	mov    %edx,0x54(%eax)
f040657b:	8b 45 f4             	mov    -0xc(%ebp),%eax
f040657e:	c7 40 4c 01 00 00 00 	movl   $0x1,0x4c(%eax)
f0406585:	8b 45 f4             	mov    -0xc(%ebp),%eax
f0406588:	c7 40 68 6c 00 00 00 	movl   $0x6c,0x68(%eax)
f040658f:	0f b6 45 d4          	movzbl -0x2c(%ebp),%eax
f0406593:	8b 55 ec             	mov    -0x14(%ebp),%edx
f0406596:	89 14 85 08 24 41 f0 	mov    %edx,-0xfbedbf8(,%eax,4)
f040659d:	8b 04 85 08 24 41 f0 	mov    -0xfbedbf8(,%eax,4),%eax
f04065a4:	89 c2                	mov    %eax,%edx
f04065a6:	8b 45 f4             	mov    -0xc(%ebp),%eax
f04065a9:	89 50 04             	mov    %edx,0x4(%eax)
f04065ac:	0f b6 55 d4          	movzbl -0x2c(%ebp),%edx
f04065b0:	8b 45 ec             	mov    -0x14(%ebp),%eax
f04065b3:	89 50 04             	mov    %edx,0x4(%eax)
f04065b6:	8b 45 ec             	mov    -0x14(%ebp),%eax
f04065b9:	c7 00 00 00 00 00    	movl   $0x0,(%eax)
f04065bf:	0f b6 05 48 24 41 f0 	movzbl 0xf0412448,%eax
f04065c6:	0f b6 c0             	movzbl %al,%eax
f04065c9:	83 e0 01             	and    $0x1,%eax
f04065cc:	85 c0                	test   %eax,%eax
f04065ce:	74 41                	je     f0406611 <karch_setup_tss+0x150>
f04065d0:	83 ec 04             	sub    $0x4,%esp
f04065d3:	6a 08                	push   $0x8
f04065d5:	6a 00                	push   $0x0
f04065d7:	68 74 01 00 00       	push   $0x174
f04065dc:	e8 5f ee ff ff       	call   f0405440 <write_msr>
f04065e1:	83 c4 10             	add    $0x10,%esp
f04065e4:	8b 45 f4             	mov    -0xc(%ebp),%eax
f04065e7:	8b 40 04             	mov    0x4(%eax),%eax
f04065ea:	83 ec 04             	sub    $0x4,%esp
f04065ed:	50                   	push   %eax
f04065ee:	6a 00                	push   $0x0
f04065f0:	68 75 01 00 00       	push   $0x175
f04065f5:	e8 46 ee ff ff       	call   f0405440 <write_msr>
f04065fa:	83 c4 10             	add    $0x10,%esp
f04065fd:	83 ec 04             	sub    $0x4,%esp
f0406600:	6a 00                	push   $0x0
f0406602:	6a 00                	push   $0x0
f0406604:	68 76 01 00 00       	push   $0x176
f0406609:	e8 32 ee ff ff       	call   f0405440 <write_msr>
f040660e:	83 c4 10             	add    $0x10,%esp
f0406611:	0f b6 05 48 24 41 f0 	movzbl 0xf0412448,%eax
f0406618:	0f b6 c0             	movzbl %al,%eax
f040661b:	83 e0 02             	and    $0x2,%eax
f040661e:	85 c0                	test   %eax,%eax
f0406620:	74 50                	je     f0406672 <karch_setup_tss+0x1b1>
f0406622:	83 ec 04             	sub    $0x4,%esp
f0406625:	8d 45 e8             	lea    -0x18(%ebp),%eax
f0406628:	50                   	push   %eax
f0406629:	8d 45 e4             	lea    -0x1c(%ebp),%eax
f040662c:	50                   	push   %eax
f040662d:	68 80 00 00 c0       	push   $0xc0000080
f0406632:	e8 f3 ed ff ff       	call   f040542a <read_msr>
f0406637:	83 c4 10             	add    $0x10,%esp
f040663a:	8b 45 e8             	mov    -0x18(%ebp),%eax
f040663d:	83 c8 01             	or     $0x1,%eax
f0406640:	89 45 e8             	mov    %eax,-0x18(%ebp)
f0406643:	8b 55 e8             	mov    -0x18(%ebp),%edx
f0406646:	8b 45 e4             	mov    -0x1c(%ebp),%eax
f0406649:	83 ec 04             	sub    $0x4,%esp
f040664c:	52                   	push   %edx
f040664d:	50                   	push   %eax
f040664e:	68 80 00 00 c0       	push   $0xc0000080
f0406653:	e8 e8 ed ff ff       	call   f0405440 <write_msr>
f0406658:	83 c4 10             	add    $0x10,%esp
f040665b:	83 ec 04             	sub    $0x4,%esp
f040665e:	6a 00                	push   $0x0
f0406660:	68 08 00 1b 00       	push   $0x1b0008
f0406665:	68 81 00 00 c0       	push   $0xc0000081
f040666a:	e8 d1 ed ff ff       	call   f0405440 <write_msr>
f040666f:	83 c4 10             	add    $0x10,%esp
f0406672:	c9                   	leave
f0406673:	c3                   	ret

f0406674 <kmemset>:
f0406674:	55                   	push   %ebp
f0406675:	89 e5                	mov    %esp,%ebp
f0406677:	83 ec 14             	sub    $0x14,%esp
f040667a:	8b 45 0c             	mov    0xc(%ebp),%eax
f040667d:	88 45 ec             	mov    %al,-0x14(%ebp)
f0406680:	c7 45 f4 00 00 00 00 	movl   $0x0,-0xc(%ebp)
f0406687:	8d 45 f4             	lea    -0xc(%ebp),%eax
f040668a:	0f b6 55 ec          	movzbl -0x14(%ebp),%edx
f040668e:	88 10                	mov    %dl,(%eax)
f0406690:	8d 45 f4             	lea    -0xc(%ebp),%eax
f0406693:	83 c0 01             	add    $0x1,%eax
f0406696:	0f b6 55 ec          	movzbl -0x14(%ebp),%edx
f040669a:	88 10                	mov    %dl,(%eax)
f040669c:	8d 45 f4             	lea    -0xc(%ebp),%eax
f040669f:	83 c0 02             	add    $0x2,%eax
f04066a2:	0f b6 55 ec          	movzbl -0x14(%ebp),%edx
f04066a6:	88 10                	mov    %dl,(%eax)
f04066a8:	8d 45 f4             	lea    -0xc(%ebp),%eax
f04066ab:	83 c0 03             	add    $0x3,%eax
f04066ae:	0f b6 55 ec          	movzbl -0x14(%ebp),%edx
f04066b2:	88 10                	mov    %dl,(%eax)
f04066b4:	8b 45 08             	mov    0x8(%ebp),%eax
f04066b7:	89 45 f8             	mov    %eax,-0x8(%ebp)
f04066ba:	c7 45 fc 00 00 00 00 	movl   $0x0,-0x4(%ebp)
f04066c1:	eb 11                	jmp    f04066d4 <kmemset+0x60>
f04066c3:	8b 55 f8             	mov    -0x8(%ebp),%edx
f04066c6:	8b 45 fc             	mov    -0x4(%ebp),%eax
f04066c9:	01 c2                	add    %eax,%edx
f04066cb:	8b 45 f4             	mov    -0xc(%ebp),%eax
f04066ce:	89 02                	mov    %eax,(%edx)
f04066d0:	83 45 fc 04          	addl   $0x4,-0x4(%ebp)
f04066d4:	8b 45 fc             	mov    -0x4(%ebp),%eax
f04066d7:	3b 45 10             	cmp    0x10(%ebp),%eax
f04066da:	72 e7                	jb     f04066c3 <kmemset+0x4f>
f04066dc:	eb 12                	jmp    f04066f0 <kmemset+0x7c>
f04066de:	8b 55 f8             	mov    -0x8(%ebp),%edx
f04066e1:	8b 45 fc             	mov    -0x4(%ebp),%eax
f04066e4:	01 c2                	add    %eax,%edx
f04066e6:	0f b6 45 ec          	movzbl -0x14(%ebp),%eax
f04066ea:	88 02                	mov    %al,(%edx)
f04066ec:	83 45 fc 01          	addl   $0x1,-0x4(%ebp)
f04066f0:	8b 45 fc             	mov    -0x4(%ebp),%eax
f04066f3:	3b 45 10             	cmp    0x10(%ebp),%eax
f04066f6:	72 e6                	jb     f04066de <kmemset+0x6a>
f04066f8:	90                   	nop
f04066f9:	90                   	nop
f04066fa:	c9                   	leave
f04066fb:	c3                   	ret

f04066fc <kmemcpy>:
f04066fc:	55                   	push   %ebp
f04066fd:	89 e5                	mov    %esp,%ebp
f04066ff:	83 ec 10             	sub    $0x10,%esp
f0406702:	8b 45 08             	mov    0x8(%ebp),%eax
f0406705:	89 45 fc             	mov    %eax,-0x4(%ebp)
f0406708:	8b 45 0c             	mov    0xc(%ebp),%eax
f040670b:	89 45 f8             	mov    %eax,-0x8(%ebp)
f040670e:	eb 1a                	jmp    f040672a <kmemcpy+0x2e>
f0406710:	8b 55 f8             	mov    -0x8(%ebp),%edx
f0406713:	8d 42 04             	lea    0x4(%edx),%eax
f0406716:	89 45 f8             	mov    %eax,-0x8(%ebp)
f0406719:	8b 45 fc             	mov    -0x4(%ebp),%eax
f040671c:	8d 48 04             	lea    0x4(%eax),%ecx
f040671f:	89 4d fc             	mov    %ecx,-0x4(%ebp)
f0406722:	8b 12                	mov    (%edx),%edx
f0406724:	89 10                	mov    %edx,(%eax)
f0406726:	83 6d 10 04          	subl   $0x4,0x10(%ebp)
f040672a:	83 7d 10 03          	cmpl   $0x3,0x10(%ebp)
f040672e:	77 e0                	ja     f0406710 <kmemcpy+0x14>
f0406730:	8b 45 fc             	mov    -0x4(%ebp),%eax
f0406733:	89 45 f4             	mov    %eax,-0xc(%ebp)
f0406736:	8b 45 f8             	mov    -0x8(%ebp),%eax
f0406739:	89 45 f0             	mov    %eax,-0x10(%ebp)
f040673c:	eb 1b                	jmp    f0406759 <kmemcpy+0x5d>
f040673e:	8b 55 f0             	mov    -0x10(%ebp),%edx
f0406741:	8d 42 01             	lea    0x1(%edx),%eax
f0406744:	89 45 f0             	mov    %eax,-0x10(%ebp)
f0406747:	8b 45 f4             	mov    -0xc(%ebp),%eax
f040674a:	8d 48 01             	lea    0x1(%eax),%ecx
f040674d:	89 4d f4             	mov    %ecx,-0xc(%ebp)
f0406750:	0f b6 12             	movzbl (%edx),%edx
f0406753:	88 10                	mov    %dl,(%eax)
f0406755:	83 6d 10 01          	subl   $0x1,0x10(%ebp)
f0406759:	83 7d 10 00          	cmpl   $0x0,0x10(%ebp)
f040675d:	75 df                	jne    f040673e <kmemcpy+0x42>
f040675f:	90                   	nop
f0406760:	90                   	nop
f0406761:	c9                   	leave
f0406762:	c3                   	ret

f0406763 <kmemmove>:
f0406763:	55                   	push   %ebp
f0406764:	89 e5                	mov    %esp,%ebp
f0406766:	83 ec 10             	sub    $0x10,%esp
f0406769:	83 7d 10 00          	cmpl   $0x0,0x10(%ebp)
f040676d:	74 7c                	je     f04067eb <kmemmove+0x88>
f040676f:	8b 45 08             	mov    0x8(%ebp),%eax
f0406772:	3b 45 0c             	cmp    0xc(%ebp),%eax
f0406775:	73 13                	jae    f040678a <kmemmove+0x27>
f0406777:	ff 75 10             	push   0x10(%ebp)
f040677a:	ff 75 0c             	push   0xc(%ebp)
f040677d:	ff 75 08             	push   0x8(%ebp)
f0406780:	e8 77 ff ff ff       	call   f04066fc <kmemcpy>
f0406785:	83 c4 0c             	add    $0xc,%esp
f0406788:	eb 62                	jmp    f04067ec <kmemmove+0x89>
f040678a:	8b 55 08             	mov    0x8(%ebp),%edx
f040678d:	8b 45 10             	mov    0x10(%ebp),%eax
f0406790:	01 d0                	add    %edx,%eax
f0406792:	89 45 fc             	mov    %eax,-0x4(%ebp)
f0406795:	8b 55 0c             	mov    0xc(%ebp),%edx
f0406798:	8b 45 10             	mov    0x10(%ebp),%eax
f040679b:	01 d0                	add    %edx,%eax
f040679d:	89 45 f8             	mov    %eax,-0x8(%ebp)
f04067a0:	eb 16                	jmp    f04067b8 <kmemmove+0x55>
f04067a2:	83 6d f8 04          	subl   $0x4,-0x8(%ebp)
f04067a6:	83 6d fc 04          	subl   $0x4,-0x4(%ebp)
f04067aa:	8b 45 f8             	mov    -0x8(%ebp),%eax
f04067ad:	8b 10                	mov    (%eax),%edx
f04067af:	8b 45 fc             	mov    -0x4(%ebp),%eax
f04067b2:	89 10                	mov    %edx,(%eax)
f04067b4:	83 6d 10 04          	subl   $0x4,0x10(%ebp)
f04067b8:	83 7d 10 03          	cmpl   $0x3,0x10(%ebp)
f04067bc:	77 e4                	ja     f04067a2 <kmemmove+0x3f>
f04067be:	8b 45 fc             	mov    -0x4(%ebp),%eax
f04067c1:	89 45 f4             	mov    %eax,-0xc(%ebp)
f04067c4:	8b 45 f8             	mov    -0x8(%ebp),%eax
f04067c7:	89 45 f0             	mov    %eax,-0x10(%ebp)
f04067ca:	eb 17                	jmp    f04067e3 <kmemmove+0x80>
f04067cc:	83 6d f0 01          	subl   $0x1,-0x10(%ebp)
f04067d0:	83 6d f4 01          	subl   $0x1,-0xc(%ebp)
f04067d4:	8b 45 f0             	mov    -0x10(%ebp),%eax
f04067d7:	0f b6 10             	movzbl (%eax),%edx
f04067da:	8b 45 f4             	mov    -0xc(%ebp),%eax
f04067dd:	88 10                	mov    %dl,(%eax)
f04067df:	83 6d 10 01          	subl   $0x1,0x10(%ebp)
f04067e3:	83 7d 10 00          	cmpl   $0x0,0x10(%ebp)
f04067e7:	75 e3                	jne    f04067cc <kmemmove+0x69>
f04067e9:	eb 01                	jmp    f04067ec <kmemmove+0x89>
f04067eb:	90                   	nop
f04067ec:	c9                   	leave
f04067ed:	c3                   	ret

f04067ee <kmemcmp>:
f04067ee:	55                   	push   %ebp
f04067ef:	89 e5                	mov    %esp,%ebp
f04067f1:	83 ec 30             	sub    $0x30,%esp
f04067f4:	8b 45 08             	mov    0x8(%ebp),%eax
f04067f7:	89 45 fc             	mov    %eax,-0x4(%ebp)
f04067fa:	8b 45 0c             	mov    0xc(%ebp),%eax
f04067fd:	89 45 f8             	mov    %eax,-0x8(%ebp)
f0406800:	c7 45 ec 00 00 00 00 	movl   $0x0,-0x14(%ebp)
f0406807:	eb 2f                	jmp    f0406838 <kmemcmp+0x4a>
f0406809:	8b 45 fc             	mov    -0x4(%ebp),%eax
f040680c:	8d 50 04             	lea    0x4(%eax),%edx
f040680f:	89 55 fc             	mov    %edx,-0x4(%ebp)
f0406812:	8b 00                	mov    (%eax),%eax
f0406814:	89 45 e8             	mov    %eax,-0x18(%ebp)
f0406817:	8b 45 f8             	mov    -0x8(%ebp),%eax
f040681a:	8d 50 04             	lea    0x4(%eax),%edx
f040681d:	89 55 f8             	mov    %edx,-0x8(%ebp)
f0406820:	8b 00                	mov    (%eax),%eax
f0406822:	89 45 e4             	mov    %eax,-0x1c(%ebp)
f0406825:	8b 45 e8             	mov    -0x18(%ebp),%eax
f0406828:	2b 45 e4             	sub    -0x1c(%ebp),%eax
f040682b:	89 45 ec             	mov    %eax,-0x14(%ebp)
f040682e:	83 7d ec 00          	cmpl   $0x0,-0x14(%ebp)
f0406832:	75 0c                	jne    f0406840 <kmemcmp+0x52>
f0406834:	83 6d 10 04          	subl   $0x4,0x10(%ebp)
f0406838:	83 7d 10 03          	cmpl   $0x3,0x10(%ebp)
f040683c:	77 cb                	ja     f0406809 <kmemcmp+0x1b>
f040683e:	eb 01                	jmp    f0406841 <kmemcmp+0x53>
f0406840:	90                   	nop
f0406841:	8b 45 fc             	mov    -0x4(%ebp),%eax
f0406844:	89 45 f4             	mov    %eax,-0xc(%ebp)
f0406847:	8b 45 f8             	mov    -0x8(%ebp),%eax
f040684a:	89 45 f0             	mov    %eax,-0x10(%ebp)
f040684d:	eb 3c                	jmp    f040688b <kmemcmp+0x9d>
f040684f:	8b 45 f4             	mov    -0xc(%ebp),%eax
f0406852:	8d 50 01             	lea    0x1(%eax),%edx
f0406855:	89 55 f4             	mov    %edx,-0xc(%ebp)
f0406858:	0f b6 00             	movzbl (%eax),%eax
f040685b:	0f b6 c0             	movzbl %al,%eax
f040685e:	89 45 e0             	mov    %eax,-0x20(%ebp)
f0406861:	8b 45 f0             	mov    -0x10(%ebp),%eax
f0406864:	8d 50 01             	lea    0x1(%eax),%edx
f0406867:	89 55 f0             	mov    %edx,-0x10(%ebp)
f040686a:	0f b6 00             	movzbl (%eax),%eax
f040686d:	0f b6 c0             	movzbl %al,%eax
f0406870:	89 45 dc             	mov    %eax,-0x24(%ebp)
f0406873:	8b 45 e0             	mov    -0x20(%ebp),%eax
f0406876:	2b 45 dc             	sub    -0x24(%ebp),%eax
f0406879:	89 45 ec             	mov    %eax,-0x14(%ebp)
f040687c:	83 7d ec 00          	cmpl   $0x0,-0x14(%ebp)
f0406880:	74 05                	je     f0406887 <kmemcmp+0x99>
f0406882:	8b 45 ec             	mov    -0x14(%ebp),%eax
f0406885:	eb 0f                	jmp    f0406896 <kmemcmp+0xa8>
f0406887:	83 6d 10 01          	subl   $0x1,0x10(%ebp)
f040688b:	83 7d 10 00          	cmpl   $0x0,0x10(%ebp)
f040688f:	75 be                	jne    f040684f <kmemcmp+0x61>
f0406891:	b8 00 00 00 00       	mov    $0x0,%eax
f0406896:	c9                   	leave
f0406897:	c3                   	ret

f0406898 <kmain>:
f0406898:	55                   	push   %ebp
f0406899:	89 e5                	mov    %esp,%ebp
f040689b:	83 ec 10             	sub    $0x10,%esp
f040689e:	c7 45 fc 00 80 0b 00 	movl   $0xb8000,-0x4(%ebp)
f04068a5:	8b 45 fc             	mov    -0x4(%ebp),%eax
f04068a8:	66 c7 00 61 0f       	movw   $0xf61,(%eax)
f04068ad:	90                   	nop
f04068ae:	c9                   	leave
f04068af:	c3                   	ret

Disassembly of section .unpaged.rodata:

f04071a8 <.unpaged.rodata>:
f04071a8:	70 61                	jo     f040720b <gv_i8259_slave+0xab>
f04071aa:	6e                   	outsb  %ds:(%esi),(%dx)
f04071ab:	69 63 3a 20 6d 75 6c 	imul   $0x6c756d20,0x3a(%ebx),%esp
f04071b2:	74 69                	je     f040721d <gv_i8259_slave+0xbd>
f04071b4:	62 6f 6f             	bound  %ebp,0x6f(%edi)
f04071b7:	74 20                	je     f04071d9 <gv_i8259_slave+0x79>
f04071b9:	6d                   	insl   (%dx),%es:(%edi)
f04071ba:	61                   	popa
f04071bb:	67 69 63 20 6d 69 73 	imul   $0x6d73696d,0x20(%bp,%di),%esp
f04071c2:	6d 
f04071c3:	61                   	popa
f04071c4:	74 63                	je     f0407229 <gv_i8259_slave+0xc9>
f04071c6:	68 2e 0a 00 00       	push   $0xa2e
f04071cb:	00 70 61             	add    %dh,0x61(%eax)
f04071ce:	6e                   	outsb  %ds:(%esi),(%dx)
f04071cf:	69 63 3a 20 6e 6f 20 	imul   $0x206f6e20,0x3a(%ebx),%esp
f04071d6:	6d                   	insl   (%dx),%es:(%edi)
f04071d7:	6d                   	insl   (%dx),%es:(%edi)
f04071d8:	61                   	popa
f04071d9:	70 20                	jo     f04071fb <gv_i8259_slave+0x9b>
f04071db:	73 6c                	jae    f0407249 <gv_i8259_slave+0xe9>
f04071dd:	6f                   	outsl  %ds:(%esi),(%dx)
f04071de:	74 20                	je     f0407200 <gv_i8259_slave+0xa0>
f04071e0:	61                   	popa
f04071e1:	76 61                	jbe    f0407244 <gv_i8259_slave+0xe4>
f04071e3:	69 6c 61 62 6c 65 2e 	imul   $0xa2e656c,0x62(%ecx,%eiz,2),%ebp
f04071ea:	0a 
	...

Disassembly of section .unpaged.debug_info:

00000000 <.unpaged.debug_info>:
   0:	66 09 00             	or     %ax,(%eax)
   3:	00 05 00 01 04 00    	add    %al,0x40100
   9:	00 00                	add    %al,(%eax)
   b:	00 1d da 03 00 00    	add    %bl,0x3da
  11:	0c 00                	or     $0x0,%al
  13:	00 00                	add    %al,(%eax)
  15:	00 0b                	add    %cl,(%ebx)
  17:	00 00                	add    %al,(%eax)
  19:	00 00                	add    %al,(%eax)
  1b:	10 40 00             	adc    %al,0x0(%eax)
  1e:	b6 05                	mov    $0x5,%dh
  20:	00 00                	add    %al,(%eax)
  22:	00 00                	add    %al,(%eax)
  24:	00 00                	add    %al,(%eax)
  26:	06                   	push   %es
  27:	01 06                	add    %eax,(%esi)
  29:	1b 03                	sbb    (%ebx),%eax
  2b:	00 00                	add    %al,(%eax)
  2d:	1e                   	push   %ds
  2e:	26 00 00             	add    %al,%es:(%eax)
  31:	00 06                	add    %al,(%esi)
  33:	02 05 68 00 00 00    	add    0x68,%al
  39:	1f                   	pop    %ds
  3a:	04 05                	add    $0x5,%al
  3c:	69 6e 74 00 06 08 05 	imul   $0x5080600,0x74(%esi),%ebp
  43:	0d 02 00 00 06       	or     $0x6000002,%eax
  48:	01 08                	add    %ecx,(%eax)
  4a:	12 03                	adc    (%ebx),%al
  4c:	00 00                	add    %al,(%eax)
  4e:	03 d0                	add    %eax,%edx
  50:	01 00                	add    %eax,(%eax)
  52:	00 02                	add    %al,(%edx)
  54:	0c 1d                	or     $0x1d,%al
  56:	5a                   	pop    %edx
  57:	00 00                	add    %al,(%eax)
  59:	00 06                	add    %al,(%esi)
  5b:	02 07                	add    (%edi),%al
  5d:	ad                   	lods   %ds:(%esi),%eax
  5e:	03 00                	add    (%eax),%eax
  60:	00 03                	add    %al,(%ebx)
  62:	90                   	nop
  63:	01 00                	add    %eax,(%eax)
  65:	00 02                	add    %al,(%edx)
  67:	0d 1d 6d 00 00       	or     $0x6d1d,%eax
  6c:	00 06                	add    %al,(%esi)
  6e:	04 07                	add    $0x7,%al
  70:	6d                   	insl   (%dx),%es:(%edi)
  71:	03 00                	add    (%eax),%eax
  73:	00 03                	add    %al,(%ebx)
  75:	ce                   	into
  76:	04 00                	add    $0x0,%al
  78:	00 02                	add    %al,(%edx)
  7a:	0e                   	push   %cs
  7b:	1d 80 00 00 00       	sbb    $0x80,%eax
  80:	06                   	push   %es
  81:	08 07                	or     %al,(%edi)
  83:	63 03                	arpl   %eax,(%ebx)
  85:	00 00                	add    %al,(%eax)
  87:	08 08                	or     %cl,(%eax)
  89:	03 0a                	add    (%edx),%ecx
  8b:	aa                   	stos   %al,%es:(%edi)
  8c:	00 00                	add    %al,(%eax)
  8e:	00 01                	add    %al,(%ecx)
  90:	9c                   	pushf
  91:	04 00                	add    $0x0,%al
  93:	00 03                	add    %al,(%ebx)
  95:	0b 0e                	or     (%esi),%ecx
  97:	61                   	popa
  98:	00 00                	add    %al,(%eax)
  9a:	00 00                	add    %al,(%eax)
  9c:	0d 6c 65 6e 00       	or     $0x6e656c,%eax
  a1:	03 0c 0e             	add    (%esi,%ecx,1),%ecx
  a4:	61                   	popa
  a5:	00 00                	add    %al,(%eax)
  a7:	00 04 00             	add    %al,(%eax,%eax,1)
  aa:	03 be 02 00 00 03    	add    0x3000002(%esi),%edi
  b0:	0d 03 87 00 00       	or     $0x8703,%eax
  b5:	00 0f                	add    %cl,(%edi)
  b7:	6d                   	insl   (%dx),%es:(%edi)
  b8:	00 00                	add    %al,(%eax)
  ba:	00 03                	add    %al,(%ebx)
  bc:	12 0e                	adc    (%esi),%cl
  be:	cf                   	iret
  bf:	00 00                	add    %al,(%eax)
  c1:	00 02                	add    %al,(%edx)
  c3:	ee                   	out    %al,(%dx)
  c4:	04 00                	add    $0x0,%al
  c6:	00 00                	add    %al,(%eax)
  c8:	02 d7                	add    %bh,%dl
  ca:	00 00                	add    %al,(%eax)
  cc:	00 01                	add    %al,(%ecx)
  ce:	00 08                	add    %cl,(%eax)
  d0:	18 03                	sbb    %al,(%ebx)
  d2:	1a 0c 01             	sbb    (%ecx,%eax,1),%cl
  d5:	00 00                	add    %al,(%eax)
  d7:	01 61 04             	add    %esp,0x4(%ecx)
  da:	00 00                	add    %al,(%eax)
  dc:	03 1b                	add    (%ebx),%ebx
  de:	0e                   	push   %cs
  df:	61                   	popa
  e0:	00 00                	add    %al,(%eax)
  e2:	00 00                	add    %al,(%eax)
  e4:	01 9c 04 00 00 03 1c 	add    %ebx,0x1c030000(%esp,%eax,1)
  eb:	0e                   	push   %cs
  ec:	74 00                	je     ee <SEG_KERN_CS+0xe6>
  ee:	00 00                	add    %al,(%eax)
  f0:	04 0d                	add    $0xd,%al
  f2:	6c                   	insb   (%dx),%es:(%edi)
  f3:	65 6e                	outsb  %gs:(%esi),(%dx)
  f5:	00 03                	add    %al,(%ebx)
  f7:	1d 0e 74 00 00       	sbb    $0x740e,%eax
  fc:	00 0c 01             	add    %cl,(%ecx,%eax,1)
  ff:	b9 02 00 00 03       	mov    $0x3000002,%ecx
 104:	1e                   	push   %ds
 105:	0e                   	push   %cs
 106:	61                   	popa
 107:	00 00                	add    %al,(%eax)
 109:	00 14 00             	add    %dl,(%eax,%eax,1)
 10c:	03 43 03             	add    0x3(%ebx),%eax
 10f:	00 00                	add    %al,(%eax)
 111:	03 1f                	add    (%edi),%ebx
 113:	03 cf                	add    %edi,%ecx
 115:	00 00                	add    %al,(%eax)
 117:	00 20                	add    %ah,(%eax)
 119:	2c 03                	sub    $0x3,%al
 11b:	03 27                	add    (%edi),%esp
 11d:	09 a5 01 00 00 01    	or     %esp,0x1000001(%ebp)
 123:	3e 02 00             	add    %ds:(%eax),%al
 126:	00 03                	add    %al,(%ebx)
 128:	28 0e                	sub    %cl,(%esi)
 12a:	61                   	popa
 12b:	00 00                	add    %al,(%eax)
 12d:	00 00                	add    %al,(%eax)
 12f:	01 04 05 00 00 03 2b 	add    %eax,0x2b030000(,%eax,1)
 136:	0e                   	push   %cs
 137:	61                   	popa
 138:	00 00                	add    %al,(%eax)
 13a:	00 04 01             	add    %al,(%ecx,%eax,1)
 13d:	a2 02 00 00 03       	mov    %al,0x3000002
 142:	2c 10                	sub    $0x10,%al
 144:	aa                   	stos   %al,%es:(%edi)
 145:	00 00                	add    %al,(%eax)
 147:	00 08                	add    %cl,(%eax)
 149:	01 83 01 00 00 03    	add    %eax,0x3000001(%ebx)
 14f:	2f                   	das
 150:	10 aa 00 00 00 10    	adc    %ch,0x10000000(%edx)
 156:	01 54 00 00          	add    %edx,0x0(%eax,%eax,1)
 15a:	00 03                	add    %al,(%ebx)
 15c:	32 0e                	xor    (%esi),%cl
 15e:	61                   	popa
 15f:	00 00                	add    %al,(%eax)
 161:	00 18                	add    %bl,(%eax)
 163:	01 fe                	add    %edi,%esi
 165:	01 00                	add    %eax,(%eax)
 167:	00 03                	add    %al,(%ebx)
 169:	33 0e                	xor    (%esi),%ecx
 16b:	61                   	popa
 16c:	00 00                	add    %al,(%eax)
 16e:	00 1c 01             	add    %bl,(%ecx,%eax,1)
 171:	da 02                	fiaddl (%edx)
 173:	00 00                	add    %al,(%eax)
 175:	03 36                	add    (%esi),%esi
 177:	16                   	push   %ss
 178:	a5                   	movsl  %ds:(%esi),%es:(%edi)
 179:	01 00                	add    %eax,(%eax)
 17b:	00 20                	add    %ah,(%eax)
 17d:	11 79 02             	adc    %edi,0x2(%ecx)
 180:	00 00                	add    %al,(%eax)
 182:	37                   	aaa
 183:	0e                   	push   %cs
 184:	61                   	popa
 185:	00 00                	add    %al,(%eax)
 187:	00 20                	add    %ah,(%eax)
 189:	03 11                	add    (%ecx),%edx
 18b:	ed                   	in     (%dx),%eax
 18c:	01 00                	add    %eax,(%eax)
 18e:	00 3a                	add    %bh,(%edx)
 190:	0f bc 01             	bsf    (%ecx),%eax
 193:	00 00                	add    %al,(%eax)
 195:	24 03                	and    $0x3,%al
 197:	11 e5                	adc    %esp,%ebp
 199:	01 00                	add    %eax,(%eax)
 19b:	00 3b                	add    %bh,(%ebx)
 19d:	0e                   	push   %cs
 19e:	61                   	popa
 19f:	00 00                	add    %al,(%eax)
 1a1:	00 28                	add    %ch,(%eax)
 1a3:	03 00                	add    (%eax),%eax
 1a5:	14 0c                	adc    $0xc,%al
 1a7:	01 00                	add    %eax,(%eax)
 1a9:	00 b5 01 00 00 21    	add    %dh,0x21000001(%ebp)
 1af:	b5 01                	mov    $0x1,%ch
 1b1:	00 00                	add    %al,(%eax)
 1b3:	1f                   	pop    %ds
 1b4:	00 06                	add    %al,(%esi)
 1b6:	04 07                	add    $0x7,%al
 1b8:	68 03 00 00 0b       	push   $0xb000003
 1bd:	61                   	popa
 1be:	00 00                	add    %al,(%eax)
 1c0:	00 03                	add    %al,(%ebx)
 1c2:	00 00                	add    %al,(%eax)
 1c4:	00 00                	add    %al,(%eax)
 1c6:	03 3c 03             	add    (%ebx,%eax,1),%edi
 1c9:	18 01                	sbb    %al,(%ecx)
 1cb:	00 00                	add    %al,(%eax)
 1cd:	03 2e                	add    (%esi),%ebp
 1cf:	05 00 00 04 07       	add    $0x7040000,%eax
 1d4:	1d 47 00 00 00       	sbb    $0x47,%eax
 1d9:	03 cd                	add    %ebp,%ecx
 1db:	01 00                	add    %eax,(%eax)
 1dd:	00 04 08             	add    %al,(%eax,%ecx,1)
 1e0:	1d 5a 00 00 00       	sbb    $0x5a,%eax
 1e5:	03 8d 01 00 00 04    	add    0x4000001(%ebp),%ecx
 1eb:	09 1d 6d 00 00 00    	or     %ebx,0x6d
 1f1:	03 cb                	add    %ebx,%ecx
 1f3:	04 00                	add    $0x0,%al
 1f5:	00 04 0a             	add    %al,(%edx,%ecx,1)
 1f8:	1d 80 00 00 00       	sbb    $0x80,%eax
 1fd:	08 10                	or     %dl,(%eax)
 1ff:	04 33                	add    $0x33,%al
 201:	3a 02                	cmp    (%edx),%al
 203:	00 00                	add    %al,(%eax)
 205:	01 a1 04 00 00 04    	add    %esp,0x4000004(%ecx)
 20b:	34 11                	xor    $0x11,%al
 20d:	e5 01                	in     $0x1,%eax
 20f:	00 00                	add    %al,(%eax)
 211:	00 01                	add    %al,(%ecx)
 213:	21 01                	and    %eax,(%ecx)
 215:	00 00                	add    %al,(%eax)
 217:	04 35                	add    $0x35,%al
 219:	11 e5                	adc    %esp,%ebp
 21b:	01 00                	add    %eax,(%eax)
 21d:	00 04 01             	add    %al,(%ecx,%eax,1)
 220:	9c                   	pushf
 221:	04 00                	add    $0x0,%al
 223:	00 04 36             	add    %al,(%esi,%esi,1)
 226:	11 e5                	adc    %esp,%ebp
 228:	01 00                	add    %eax,(%eax)
 22a:	00 08                	add    %cl,(%eax)
 22c:	0d 72 73 76 00       	or     $0x767372,%eax
 231:	04 37                	add    $0x37,%al
 233:	11 e5                	adc    %esp,%ebp
 235:	01 00                	add    %eax,(%eax)
 237:	00 0c 00             	add    %cl,(%eax,%eax,1)
 23a:	03 bc 01 00 00 04 38 	add    0x38040000(%ecx,%eax,1),%edi
 241:	03 fd                	add    %ebp,%edi
 243:	01 00                	add    %eax,(%eax)
 245:	00 08                	add    %cl,(%eax)
 247:	10 04 3d 83 02 00 00 	adc    %al,0x283(,%edi,1)
 24e:	0d 6e 75 6d 00       	or     $0x6d756e,%eax
 253:	04 3e                	add    $0x3e,%al
 255:	11 e5                	adc    %esp,%ebp
 257:	01 00                	add    %eax,(%eax)
 259:	00 00                	add    %al,(%eax)
 25b:	01 61 04             	add    %esp,0x4(%ecx)
 25e:	00 00                	add    %al,(%eax)
 260:	04 3f                	add    $0x3f,%al
 262:	11 e5                	adc    %esp,%ebp
 264:	01 00                	add    %eax,(%eax)
 266:	00 04 01             	add    %al,(%ecx,%eax,1)
 269:	9c                   	pushf
 26a:	04 00                	add    $0x0,%al
 26c:	00 04 40             	add    %al,(%eax,%eax,2)
 26f:	11 e5                	adc    %esp,%ebp
 271:	01 00                	add    %eax,(%eax)
 273:	00 08                	add    %cl,(%eax)
 275:	01 d1                	add    %edx,%ecx
 277:	00 00                	add    %al,(%eax)
 279:	00 04 41             	add    %al,(%ecx,%eax,2)
 27c:	11 e5                	adc    %esp,%ebp
 27e:	01 00                	add    %eax,(%eax)
 280:	00 0c 00             	add    %cl,(%eax,%eax,1)
 283:	03 2c 04             	add    (%esp,%eax,1),%ebp
 286:	00 00                	add    %al,(%eax)
 288:	04 42                	add    $0x42,%al
 28a:	03 46 02             	add    0x2(%esi),%eax
 28d:	00 00                	add    %al,(%eax)
 28f:	0f 6d                	(bad)
 291:	00 00                	add    %al,(%eax)
 293:	00 04 47             	add    %al,(%edi,%eax,2)
 296:	0e                   	push   %cs
 297:	ef                   	out    %eax,(%dx)
 298:	02 00                	add    (%eax),%al
 29a:	00 02                	add    %al,(%edx)
 29c:	9a 00 00 00 01 02 12 	lcall  $0x1202,$0x1000000
 2a3:	01 00                	add    %eax,(%eax)
 2a5:	00 02                	add    %al,(%edx)
 2a7:	02 98 03 00 00 04    	add    0x4000003(%eax),%bl
 2ad:	02 b2 00 00 00 08    	add    0x8000000(%edx),%dh
 2b3:	02 ef                	add    %bh,%ch
 2b5:	02 00                	add    (%eax),%al
 2b7:	00 10                	add    %dl,(%eax)
 2b9:	02 a9 04 00 00 20    	add    0x20000004(%ecx),%ch
 2bf:	02 a5 01 00 00 40    	add    0x40000001(%ebp),%ah
 2c5:	02 66 05             	add    0x5(%esi),%ah
 2c8:	00 00                	add    %al,(%eax)
 2ca:	80 0e 44             	orb    $0x44,(%esi)
 2cd:	00 00                	add    %al,(%eax)
 2cf:	00 00                	add    %al,(%eax)
 2d1:	01 0e                	add    %ecx,(%esi)
 2d3:	58                   	pop    %eax
 2d4:	05 00 00 00 02       	add    $0x2000000,%eax
 2d9:	0e                   	push   %cs
 2da:	c0 03 00             	rolb   $0x0,(%ebx)
 2dd:	00 00                	add    %al,(%eax)
 2df:	04 0e                	add    $0xe,%al
 2e1:	df 02                	filds  (%edx)
 2e3:	00 00                	add    %al,(%eax)
 2e5:	00 08                	add    %cl,(%eax)
 2e7:	0e                   	push   %cs
 2e8:	c1 00 00             	roll   $0x0,(%eax)
 2eb:	00 00                	add    %al,(%eax)
 2ed:	10 00                	adc    %al,(%eax)
 2ef:	15 10 6c 0d 03       	adc    $0x30d6c10,%eax
 2f4:	00 00                	add    %al,(%eax)
 2f6:	16                   	push   %ss
 2f7:	27                   	daa
 2f8:	04 00                	add    $0x0,%al
 2fa:	00 6d 1a             	add    %ch,0x1a(%ebp)
 2fd:	3a 02                	cmp    (%edx),%al
 2ff:	00 00                	add    %al,(%eax)
 301:	16                   	push   %ss
 302:	3f                   	aas
 303:	00 00                	add    %al,(%eax)
 305:	00 6e 17             	add    %ch,0x17(%esi)
 308:	83 02 00             	addl   $0x0,(%edx)
 30b:	00 00                	add    %al,(%eax)
 30d:	08 08                	or     %cl,(%eax)
 30f:	04 93                	add    $0x93,%al
 311:	30 03                	xor    %al,(%ebx)
 313:	00 00                	add    %al,(%eax)
 315:	01 cf                	add    %ecx,%edi
 317:	03 00                	add    (%eax),%eax
 319:	00 04 94             	add    %al,(%esp,%edx,4)
 31c:	19 e5                	sbb    %esp,%ebp
 31e:	01 00                	add    %eax,(%eax)
 320:	00 00                	add    %al,(%eax)
 322:	01 0c 00             	add    %ecx,(%eax,%eax,1)
 325:	00 00                	add    %al,(%eax)
 327:	04 95                	add    $0x95,%al
 329:	19 d9                	sbb    %ebx,%ecx
 32b:	01 00                	add    %eax,(%eax)
 32d:	00 04 00             	add    %al,(%eax,%eax,1)
 330:	08 06                	or     %al,(%esi)
 332:	04 98                	add    $0x98,%al
 334:	87 03                	xchg   %eax,(%ebx)
 336:	00 00                	add    %al,(%eax)
 338:	01 09                	add    %ecx,(%ecx)
 33a:	03 00                	add    (%eax),%eax
 33c:	00 04 99             	add    %al,(%ecx,%ebx,4)
 33f:	19 cd                	sbb    %ecx,%ebp
 341:	01 00                	add    %eax,(%eax)
 343:	00 00                	add    %al,(%eax)
 345:	01 35 02 00 00 04    	add    %esi,0x4000002
 34b:	9a 19 cd 01 00 00 01 	lcall  $0x100,$0x1cd19
 352:	01 72 04             	add    %esi,0x4(%edx)
 355:	00 00                	add    %al,(%eax)
 357:	04 9b                	add    $0x9b,%al
 359:	19 cd                	sbb    %ecx,%ebp
 35b:	01 00                	add    %eax,(%eax)
 35d:	00 02                	add    %al,(%edx)
 35f:	01 85 03 00 00 04    	add    %eax,0x4000003(%ebp)
 365:	9c                   	pushf
 366:	19 cd                	sbb    %ecx,%ebp
 368:	01 00                	add    %eax,(%eax)
 36a:	00 03                	add    %al,(%ebx)
 36c:	01 f5                	add    %esi,%ebp
 36e:	01 00                	add    %eax,(%eax)
 370:	00 04 9d 19 cd 01 00 	add    %al,0x1cd19(,%ebx,4)
 377:	00 04 01             	add    %al,(%ecx,%eax,1)
 37a:	09 01                	or     %eax,(%ecx)
 37c:	00 00                	add    %al,(%eax)
 37e:	04 9e                	add    $0x9e,%al
 380:	19 cd                	sbb    %ecx,%ebp
 382:	01 00                	add    %eax,(%eax)
 384:	00 05 00 15 08 92    	add    %al,0x92081500
 38a:	99                   	cltd
 38b:	03 00                	add    (%eax),%eax
 38d:	00 17                	add    %dl,(%edi)
 38f:	0d 03 00 00 17       	or     $0x17000003,%eax
 394:	30 03                	xor    %al,(%ebx)
 396:	00 00                	add    %al,(%eax)
 398:	00 08                	add    %cl,(%eax)
 39a:	78 04                	js     3a0 <SEG_KERN_CS+0x398>
 39c:	5a                   	pop    %edx
 39d:	00 05 00 00 01 5d    	add    %al,0x5d010000
 3a3:	03 00                	add    (%eax),%eax
 3a5:	00 04 5b             	add    %al,(%ebx,%ebx,2)
 3a8:	11 e5                	adc    %esp,%ebp
 3aa:	01 00                	add    %eax,(%eax)
 3ac:	00 00                	add    %al,(%eax)
 3ae:	01 ac 02 00 00 04 5e 	add    %ebp,0x5e040000(%edx,%eax,1)
 3b5:	11 e5                	adc    %esp,%ebp
 3b7:	01 00                	add    %eax,(%eax)
 3b9:	00 04 01             	add    %al,(%ecx,%eax,1)
 3bc:	29 01                	sub    %eax,(%ecx)
 3be:	00 00                	add    %al,(%eax)
 3c0:	04 5f                	add    $0x5f,%al
 3c2:	11 e5                	adc    %esp,%ebp
 3c4:	01 00                	add    %eax,(%eax)
 3c6:	00 08                	add    %cl,(%eax)
 3c8:	01 b4 01 00 00 04 62 	add    %esi,0x62040000(%ecx,%eax,1)
 3cf:	11 e5                	adc    %esp,%ebp
 3d1:	01 00                	add    %eax,(%eax)
 3d3:	00 0c 01             	add    %cl,(%ecx,%eax,1)
 3d6:	39 05 00 00 04 65    	cmp    %eax,0x65040000
 3dc:	11 e5                	adc    %esp,%ebp
 3de:	01 00                	add    %eax,(%eax)
 3e0:	00 10                	add    %dl,(%eax)
 3e2:	01 20                	add    %esp,(%eax)
 3e4:	03 00                	add    (%eax),%eax
 3e6:	00 04 68             	add    %al,(%eax,%ebp,2)
 3e9:	11 e5                	adc    %esp,%ebp
 3eb:	01 00                	add    %eax,(%eax)
 3ed:	00 14 01             	add    %dl,(%ecx,%eax,1)
 3f0:	eb 00                	jmp    3f2 <SEG_KERN_CS+0x3ea>
 3f2:	00 00                	add    %al,(%eax)
 3f4:	04 69                	add    $0x69,%al
 3f6:	11 e5                	adc    %esp,%ebp
 3f8:	01 00                	add    %eax,(%eax)
 3fa:	00 18                	add    %bl,(%eax)
 3fc:	18 ef                	sbb    %ch,%bh
 3fe:	02 00                	add    (%eax),%al
 400:	00 1c 01             	add    %bl,(%ecx,%eax,1)
 403:	41                   	inc    %ecx
 404:	05 00 00 04 72       	add    $0x72040000,%eax
 409:	11 e5                	adc    %esp,%ebp
 40b:	01 00                	add    %eax,(%eax)
 40d:	00 2c 01             	add    %ch,(%ecx,%eax,1)
 410:	ff 02                	incl   (%edx)
 412:	00 00                	add    %al,(%eax)
 414:	04 73                	add    $0x73,%al
 416:	11 e5                	adc    %esp,%ebp
 418:	01 00                	add    %eax,(%eax)
 41a:	00 30                	add    %dh,(%eax)
 41c:	01 29                	add    %ebp,(%ecx)
 41e:	03 00                	add    (%eax),%eax
 420:	00 04 76             	add    %al,(%esi,%esi,2)
 423:	11 e5                	adc    %esp,%ebp
 425:	01 00                	add    %eax,(%eax)
 427:	00 34 01             	add    %dh,(%ecx,%eax,1)
 42a:	54                   	push   %esp
 42b:	01 00                	add    %eax,(%eax)
 42d:	00 04 77             	add    %al,(%edi,%esi,2)
 430:	11 e5                	adc    %esp,%ebp
 432:	01 00                	add    %eax,(%eax)
 434:	00 38                	add    %bh,(%eax)
 436:	01 60 01             	add    %esp,0x1(%eax)
 439:	00 00                	add    %al,(%eax)
 43b:	04 7a                	add    $0x7a,%al
 43d:	11 e5                	adc    %esp,%ebp
 43f:	01 00                	add    %eax,(%eax)
 441:	00 3c 01             	add    %bh,(%ecx,%eax,1)
 444:	99                   	cltd
 445:	01 00                	add    %eax,(%eax)
 447:	00 04 7d 11 e5 01 00 	add    %al,0x1e511(,%edi,2)
 44e:	00 40 01             	add    %al,0x1(%eax)
 451:	82 02 00             	addb   $0x0,(%edx)
 454:	00 04 80             	add    %al,(%eax,%eax,4)
 457:	11 e5                	adc    %esp,%ebp
 459:	01 00                	add    %eax,(%eax)
 45b:	00 44 01 28          	add    %al,0x28(%ecx,%eax,1)
 45f:	02 00                	add    (%eax),%al
 461:	00 04 83             	add    %al,(%ebx,%eax,4)
 464:	11 e5                	adc    %esp,%ebp
 466:	01 00                	add    %eax,(%eax)
 468:	00 48 01             	add    %cl,0x1(%eax)
 46b:	89 04 00             	mov    %eax,(%eax,%eax,1)
 46e:	00 04 84             	add    %al,(%esp,%eax,4)
 471:	11 e5                	adc    %esp,%ebp
 473:	01 00                	add    %eax,(%eax)
 475:	00 4c 01 54          	add    %cl,0x54(%ecx,%eax,1)
 479:	03 00                	add    (%eax),%eax
 47b:	00 04 85 11 d9 01 00 	add    %al,0x1d911(,%eax,4)
 482:	00 50 01             	add    %dl,0x1(%eax)
 485:	59                   	pop    %ecx
 486:	02 00                	add    (%eax),%al
 488:	00 04 86             	add    %al,(%esi,%eax,4)
 48b:	11 d9                	adc    %ebx,%ecx
 48d:	01 00                	add    %eax,(%eax)
 48f:	00 52 01             	add    %dl,0x1(%edx)
 492:	69 01 00 00 04 87    	imul   $0x87040000,(%ecx),%eax
 498:	11 d9                	adc    %ebx,%ecx
 49a:	01 00                	add    %eax,(%eax)
 49c:	00 54 01 1b          	add    %dl,0x1b(%ecx,%eax,1)
 4a0:	02 00                	add    (%eax),%al
 4a2:	00 04 88             	add    %al,(%eax,%ecx,4)
 4a5:	11 d9                	adc    %ebx,%ecx
 4a7:	01 00                	add    %eax,(%eax)
 4a9:	00 56 01             	add    %dl,0x1(%esi)
 4ac:	97                   	xchg   %eax,%edi
 4ad:	04 00                	add    $0x0,%al
 4af:	00 04 8b             	add    %al,(%ebx,%ecx,4)
 4b2:	11 f1                	adc    %esi,%ecx
 4b4:	01 00                	add    %eax,(%eax)
 4b6:	00 58 01             	add    %bl,0x1(%eax)
 4b9:	7a 03                	jp     4be <SEG_KERN_CS+0x4b6>
 4bb:	00 00                	add    %al,(%eax)
 4bd:	04 8c                	add    $0x8c,%al
 4bf:	11 e5                	adc    %esp,%ebp
 4c1:	01 00                	add    %eax,(%eax)
 4c3:	00 60 01             	add    %ah,0x1(%eax)
 4c6:	6e                   	outsb  %ds:(%esi),(%dx)
 4c7:	02 00                	add    (%eax),%al
 4c9:	00 04 8d 11 e5 01 00 	add    %al,0x1e511(,%ecx,4)
 4d0:	00 64 01 3a          	add    %ah,0x3a(%ecx,%eax,1)
 4d4:	04 00                	add    $0x0,%al
 4d6:	00 04 8e             	add    %al,(%esi,%ecx,4)
 4d9:	11 e5                	adc    %esp,%ebp
 4db:	01 00                	add    %eax,(%eax)
 4dd:	00 68 01             	add    %ch,0x1(%eax)
 4e0:	ab                   	stos   %eax,%es:(%edi)
 4e1:	05 00 00 04 8f       	add    $0x8f040000,%eax
 4e6:	11 cd                	adc    %ecx,%ebp
 4e8:	01 00                	add    %eax,(%eax)
 4ea:	00 6c 01 b4          	add    %ch,-0x4c(%ecx,%eax,1)
 4ee:	02 00                	add    (%eax),%al
 4f0:	00 04 90             	add    %al,(%eax,%edx,4)
 4f3:	11 cd                	adc    %ecx,%ebp
 4f5:	01 00                	add    %eax,(%eax)
 4f7:	00 6d 18             	add    %ch,0x18(%ebp)
 4fa:	87 03                	xchg   %eax,(%ebx)
 4fc:	00 00                	add    %al,(%eax)
 4fe:	70 00                	jo     500 <SEG_KERN_CS+0x4f8>
 500:	03 5f 00             	add    0x0(%edi),%ebx
 503:	00 00                	add    %al,(%eax)
 505:	04 a1                	add    $0xa1,%al
 507:	03 99 03 00 00 0f    	add    0xf000003(%ecx),%ebx
 50d:	6d                   	insl   (%dx),%es:(%edi)
 50e:	00 00                	add    %al,(%eax)
 510:	00 04 b8             	add    %al,(%eax,%edi,4)
 513:	0e                   	push   %cs
 514:	37                   	aaa
 515:	05 00 00 02 f5       	add    $0xf5020000,%eax
 51a:	00 00                	add    %al,(%eax)
 51c:	00 01                	add    %al,(%ecx)
 51e:	02 b4 05 00 00 02 02 	add    0x2020000(%ebp,%eax,1),%dh
 525:	66 04 00             	data16 add $0x0,%al
 528:	00 03                	add    %al,(%ebx)
 52a:	02 52 04             	add    0x4(%edx),%dl
 52d:	00 00                	add    %al,(%eax)
 52f:	04 02                	add    $0x2,%al
 531:	82 05 00 00 05 00 22 	addb   $0x22,0x50000
 538:	d9 01                	flds   (%ecx)
 53a:	00 00                	add    %al,(%eax)
 53c:	18 04 c3             	sbb    %al,(%ebx,%eax,8)
 53f:	08 79 05             	or     %bh,0x5(%ecx)
 542:	00 00                	add    %al,(%eax)
 544:	01 61 04             	add    %esp,0x4(%ecx)
 547:	00 00                	add    %al,(%eax)
 549:	04 c4                	add    $0xc4,%al
 54b:	11 e5                	adc    %esp,%ebp
 54d:	01 00                	add    %eax,(%eax)
 54f:	00 00                	add    %al,(%eax)
 551:	01 9c 04 00 00 04 c5 	add    %ebx,-0x3afc0000(%esp,%eax,1)
 558:	11 f1                	adc    %esi,%ecx
 55a:	01 00                	add    %eax,(%eax)
 55c:	00 04 0d 6c 65 6e 00 	add    %al,0x6e656c(,%ecx,1)
 563:	04 c6                	add    $0xc6,%al
 565:	11 f1                	adc    %esi,%ecx
 567:	01 00                	add    %eax,(%eax)
 569:	00 0c 01             	add    %cl,(%ecx,%eax,1)
 56c:	b9 02 00 00 04       	mov    $0x4000002,%ecx
 571:	c7                   	(bad)
 572:	11 e5                	adc    %esp,%ebp
 574:	01 00                	add    %eax,(%eax)
 576:	00 14 00             	add    %dl,(%eax,%eax,1)
 579:	03 db                	add    %ebx,%ebx
 57b:	01 00                	add    %eax,(%eax)
 57d:	00 04 c9             	add    %al,(%ecx,%ecx,8)
 580:	1c 37                	sbb    $0x37,%al
 582:	05 00 00 09 8c       	add    $0x8c090000,%eax
 587:	00 00                	add    %al,(%eax)
 589:	00 0a                	add    %cl,(%edx)
 58b:	8f 05 00 00 23 04    	pop    0x4230000
 591:	09 4a 05             	or     %ecx,0x5(%edx)
 594:	00 00                	add    %al,(%eax)
 596:	0b 8f 05 00 00 09    	or     0x9000005(%edi),%ecx
 59c:	b9 04 00 00 0d       	mov    $0xd000004,%ecx
 5a1:	8f 05 00 00 09 32    	pop    0x32090000
 5a7:	01 00                	add    %eax,(%eax)
 5a9:	00 0e                	add    %cl,(%esi)
 5ab:	8f 05 00 00 09 8e    	pop    0x8e090000
 5b1:	03 00                	add    (%eax),%eax
 5b3:	00 0f                	add    %cl,(%edi)
 5b5:	8f 05 00 00 09 66    	pop    0x66090000
 5bb:	02 00                	add    (%eax),%al
 5bd:	00 10                	add    %dl,(%eax)
 5bf:	8f 05 00 00 09 5d    	pop    0x5d090000
 5c5:	04 00                	add    $0x0,%al
 5c7:	00 11                	add    %dl,(%ecx)
 5c9:	8f 05 00 00 14 61    	pop    0x61140000
 5cf:	00 00                	add    %al,(%eax)
 5d1:	00 de                	add    %bl,%dh
 5d3:	05 00 00 24 b5       	add    $0xb5240000,%eax
 5d8:	01 00                	add    %eax,(%eax)
 5da:	00 ff                	add    %bh,%bh
 5dc:	03 00                	add    (%eax),%eax
 5de:	25 ed 01 00 00       	and    $0x1ed,%eax
 5e3:	01 09                	add    %ecx,(%ecx)
 5e5:	11 cd                	adc    %ecx,%ebp
 5e7:	05 00 00 00 10       	add    $0x10000000,%eax
 5ec:	05 03 00 40 40       	add    $0x40400003,%eax
 5f1:	00 26                	add    %ah,(%esi)
 5f3:	7b 04                	jnp    5f9 <SEG_KERN_CS+0x5f1>
 5f5:	00 00                	add    %al,(%eax)
 5f7:	01 0a                	add    %ecx,(%edx)
 5f9:	0d c1 01 00 00       	or     $0x1c1,%eax
 5fe:	05 03 00 30 40       	add    $0x40300003,%eax
 603:	00 0f                	add    %cl,(%edi)
 605:	6d                   	insl   (%dx),%es:(%edi)
 606:	00 00                	add    %al,(%eax)
 608:	00 01                	add    %al,(%ecx)
 60a:	18 06                	sbb    %al,(%esi)
 60c:	1d 06 00 00 02       	sbb    $0x2000006,%eax
 611:	76 01                	jbe    614 <SEG_KERN_CS+0x60c>
 613:	00 00                	add    %al,(%eax)
 615:	01 02                	add    %eax,(%edx)
 617:	90                   	nop
 618:	05 00 00 02 00       	add    $0x20000,%eax
 61d:	10 9d 05 00 00 0b    	adc    %bl,0xb000005(%ebp)
 623:	2d 06 00 00 0a       	sub    $0xa000006,%eax
 628:	61                   	popa
 629:	00 00                	add    %al,(%eax)
 62b:	00 00                	add    %al,(%eax)
 62d:	10 74 05 00          	adc    %dh,0x0(%ebp,%eax,1)
 631:	00 09                	add    %cl,(%ecx)
 633:	3d 06 00 00 0a       	cmp    $0xa000006,%eax
 638:	61                   	popa
 639:	00 00                	add    %al,(%eax)
 63b:	00 00                	add    %al,(%eax)
 63d:	19 4c 02 00          	sbb    %ecx,0x0(%edx,%eax,1)
 641:	00 07                	add    %al,(%edi)
 643:	61                   	popa
 644:	00 00                	add    %al,(%eax)
 646:	00 4d 06             	add    %cl,0x6(%ebp)
 649:	00 00                	add    %al,(%eax)
 64b:	1a 00                	sbb    (%eax),%al
 64d:	19 21                	sbb    %esp,(%ecx)
 64f:	05 00 00 06 61       	add    $0x61060000,%eax
 654:	00 00                	add    %al,(%eax)
 656:	00 5d 06             	add    %bl,0x6(%ebp)
 659:	00 00                	add    %al,(%eax)
 65b:	1a 00                	sbb    (%eax),%al
 65d:	10 a8 00 00 00 0d    	adc    %ch,0xd000000(%eax)
 663:	7c 06                	jl     66b <SEG_KERN_CS+0x663>
 665:	00 00                	add    %al,(%eax)
 667:	0a bc 01 00 00 0a bc 	or     -0x43f60000(%ecx,%eax,1),%bh
 66e:	01 00                	add    %eax,(%eax)
 670:	00 0a                	add    %cl,(%edx)
 672:	bc 01 00 00 0a       	mov    $0xa000001,%esp
 677:	bc 01 00 00 00       	mov    $0x1,%esp
 67c:	10 13                	adc    %dl,(%ebx)
 67e:	05 00 00 0a 8c       	add    $0x8c0a0000,%eax
 683:	06                   	push   %es
 684:	00 00                	add    %al,(%eax)
 686:	0a 61 00             	or     0x0(%ecx),%ah
 689:	00 00                	add    %al,(%eax)
 68b:	00 27                	add    %ah,(%edi)
 68d:	8a 02                	mov    (%edx),%al
 68f:	00 00                	add    %al,(%eax)
 691:	01 d3                	add    %edx,%ebx
 693:	06                   	push   %es
 694:	05 15 40 00 b1       	add    $0xb1004015,%eax
 699:	00 00                	add    %al,(%eax)
 69b:	00 01                	add    %al,(%ecx)
 69d:	9c                   	pushf
 69e:	cd 06                	int    $0x6
 6a0:	00 00                	add    %al,(%eax)
 6a2:	05 3a 00 00 00       	add    $0x3a,%eax
 6a7:	d4 0e                	aam    $0xe
 6a9:	61                   	popa
 6aa:	00 00                	add    %al,(%eax)
 6ac:	00 02                	add    %al,(%edx)
 6ae:	91                   	xchg   %eax,%ecx
 6af:	68 04 63 72 30       	push   $0x30726304
 6b4:	00 d5                	add    %dl,%ch
 6b6:	0e                   	push   %cs
 6b7:	61                   	popa
 6b8:	00 00                	add    %al,(%eax)
 6ba:	00 02                	add    %al,(%edx)
 6bc:	91                   	xchg   %eax,%ecx
 6bd:	64 04 63             	fs add $0x63,%al
 6c0:	72 34                	jb     6f6 <SEG_KERN_CS+0x6ee>
 6c2:	00 d5                	add    %dl,%ch
 6c4:	13 61 00             	adc    0x0(%ecx),%esp
 6c7:	00 00                	add    %al,(%eax)
 6c9:	02 91 6c 00 28 2a    	add    0x2a28006c(%ecx),%dl
 6cf:	00 00                	add    %al,(%eax)
 6d1:	00 01                	add    %al,(%ecx)
 6d3:	b9 0a 61 00 00       	mov    $0x610a,%ecx
 6d8:	00 89 14 40 00 7c    	add    %cl,0x7c004014(%ecx)
 6de:	00 00                	add    %al,(%eax)
 6e0:	00 01                	add    %al,(%ecx)
 6e2:	9c                   	pushf
 6e3:	2e 07                	cs pop %es
 6e5:	00 00                	add    %al,(%eax)
 6e7:	04 65                	add    $0x65,%al
 6e9:	61                   	popa
 6ea:	78 00                	js     6ec <SEG_KERN_CS+0x6e4>
 6ec:	ba 0e 61 00 00       	mov    $0x610e,%edx
 6f1:	00 02                	add    %al,(%edx)
 6f3:	91                   	xchg   %eax,%ecx
 6f4:	68 04 65 62 78       	push   $0x78626504
 6f9:	00 ba 17 61 00 00    	add    %bh,0x6117(%edx)
 6ff:	00 02                	add    %al,(%edx)
 701:	91                   	xchg   %eax,%ecx
 702:	64 04 65             	fs add $0x65,%al
 705:	64 78 00             	fs js  708 <SEG_KERN_CS+0x700>
 708:	ba 1c 61 00 00       	mov    $0x611c,%edx
 70d:	00 02                	add    %al,(%edx)
 70f:	91                   	xchg   %eax,%ecx
 710:	60                   	pusha
 711:	04 65                	add    $0x65,%al
 713:	63 78 00             	arpl   %edi,0x0(%eax)
 716:	ba 21 61 00 00       	mov    $0x6121,%edx
 71b:	00 02                	add    %al,(%edx)
 71d:	91                   	xchg   %eax,%ecx
 71e:	5c                   	pop    %esp
 71f:	05 02 01 00 00       	add    $0x102,%eax
 724:	c5 0e                	lds    (%esi),%ecx
 726:	61                   	popa
 727:	00 00                	add    %al,(%eax)
 729:	00 02                	add    %al,(%edx)
 72b:	91                   	xchg   %eax,%ecx
 72c:	6c                   	insb   (%dx),%es:(%edi)
 72d:	00 12                	add    %dl,(%edx)
 72f:	77 00                	ja     731 <SEG_KERN_CS+0x729>
 731:	00 00                	add    %al,(%eax)
 733:	a7                   	cmpsl  %es:(%edi),%ds:(%esi)
 734:	24 14                	and    $0x14,%al
 736:	40                   	inc    %eax
 737:	00 65 00             	add    %ah,0x0(%ebp)
 73a:	00 00                	add    %al,(%eax)
 73c:	01 9c 7b 07 00 00 07 	add    %ebx,0x7000007(%ebx,%edi,2)
 743:	92                   	xchg   %eax,%edx
 744:	04 00                	add    $0x0,%al
 746:	00 a7 28 7b 07 00    	add    %ah,0x77b28(%edi)
 74c:	00 02                	add    %al,(%edx)
 74e:	91                   	xchg   %eax,%ecx
 74f:	00 05 c9 02 00 00    	add    %al,0x2c9
 755:	a8 0e                	test   $0xe,%al
 757:	61                   	popa
 758:	00 00                	add    %al,(%eax)
 75a:	00 02                	add    %al,(%edx)
 75c:	91                   	xchg   %eax,%ecx
 75d:	74 05                	je     764 <SEG_KERN_CS+0x75c>
 75f:	47                   	inc    %edi
 760:	02 00                	add    (%eax),%al
 762:	00 a8 1a 61 00 00    	add    %ch,0x611a(%eax)
 768:	00 02                	add    %al,(%edx)
 76a:	91                   	xchg   %eax,%ecx
 76b:	70 04                	jo     771 <SEG_KERN_CS+0x769>
 76d:	70 64                	jo     7d3 <SEG_KERN_CS+0x7cb>
 76f:	65 00 a9 0e 61 00 00 	add    %ch,%gs:0x610e(%ecx)
 776:	00 02                	add    %al,(%edx)
 778:	91                   	xchg   %eax,%ecx
 779:	6c                   	insb   (%dx),%es:(%edi)
 77a:	00 0b                	add    %cl,(%ebx)
 77c:	c1 01 00             	roll   $0x0,(%ecx)
 77f:	00 12                	add    %dl,(%edx)
 781:	17                   	pop    %ss
 782:	00 00                	add    %al,(%eax)
 784:	00 95 c0 13 40 00    	add    %dl,0x4013c0(%ebp)
 78a:	64 00 00             	add    %al,%fs:(%eax)
 78d:	00 01                	add    %al,(%ecx)
 78f:	9c                   	pushf
 790:	df 07                	filds  (%edi)
 792:	00 00                	add    %al,(%eax)
 794:	07                   	pop    %es
 795:	92                   	xchg   %eax,%edx
 796:	04 00                	add    $0x0,%al
 798:	00 95 26 7b 07 00    	add    %dl,0x77b26(%ebp)
 79e:	00 02                	add    %al,(%edx)
 7a0:	91                   	xchg   %eax,%ecx
 7a1:	00 13                	add    %dl,(%ebx)
 7a3:	c6                   	(bad)
 7a4:	13 40 00             	adc    0x0(%eax),%eax
 7a7:	5a                   	pop    %edx
 7a8:	00 00                	add    %al,(%eax)
 7aa:	00 04 69             	add    %al,(%ecx,%ebp,2)
 7ad:	00 97 12 61 00 00    	add    %dl,0x6112(%edi)
 7b3:	00 02                	add    %al,(%edx)
 7b5:	91                   	xchg   %eax,%ecx
 7b6:	74 13                	je     7cb <SEG_KERN_CS+0x7c3>
 7b8:	cf                   	iret
 7b9:	13 40 00             	adc    0x0(%eax),%eax
 7bc:	44                   	inc    %esp
 7bd:	00 00                	add    %al,(%eax)
 7bf:	00 05 5d 03 00 00    	add    %al,0x35d
 7c5:	98                   	cwtl
 7c6:	12 61 00             	adc    0x0(%ecx),%ah
 7c9:	00 00                	add    %al,(%eax)
 7cb:	02 91 70 05 47 02    	add    0x2470570(%ecx),%dl
 7d1:	00 00                	add    %al,(%eax)
 7d3:	9d                   	popf
 7d4:	12 61 00             	adc    0x0(%ecx),%ah
 7d7:	00 00                	add    %al,(%eax)
 7d9:	02 91 6c 00 00 00    	add    0x6c(%ecx),%dl
 7df:	1b d0                	sbb    %eax,%edx
 7e1:	02 00                	add    (%eax),%al
 7e3:	00 75 54             	add    %dh,0x54(%ebp)
 7e6:	12 40 00             	adc    0x0(%eax),%al
 7e9:	6c                   	insb   (%dx),%es:(%edi)
 7ea:	01 00                	add    %eax,(%eax)
 7ec:	00 01                	add    %al,(%ecx)
 7ee:	9c                   	pushf
 7ef:	38 08                	cmp    %cl,(%eax)
 7f1:	00 00                	add    %al,(%eax)
 7f3:	07                   	pop    %es
 7f4:	e9 04 00 00 75       	jmp    750007fd <MAGIC+0x595257fb>
 7f9:	22 7b 07             	and    0x7(%ebx),%bh
 7fc:	00 00                	add    %al,(%eax)
 7fe:	02 91 00 07 9c 04    	add    0x49c0700(%ecx),%dl
 804:	00 00                	add    %al,(%eax)
 806:	75 31                	jne    839 <SEG_KERN_CS+0x831>
 808:	74 00                	je     80a <SEG_KERN_CS+0x802>
 80a:	00 00                	add    %al,(%eax)
 80c:	02 91 58 0c 6c 65    	add    0x656c0c58(%ecx),%dl
 812:	6e                   	outsb  %ds:(%esi),(%dx)
 813:	00 75 40             	add    %dh,0x40(%ebp)
 816:	74 00                	je     818 <SEG_KERN_CS+0x810>
 818:	00 00                	add    %al,(%eax)
 81a:	02 91 50 04 6e 00    	add    0x6e0450(%ecx),%dl
 820:	86 0e                	xchg   %cl,(%esi)
 822:	61                   	popa
 823:	00 00                	add    %al,(%eax)
 825:	00 02                	add    %al,(%edx)
 827:	91                   	xchg   %eax,%ecx
 828:	6c                   	insb   (%dx),%es:(%edi)
 829:	05 30 02 00 00       	add    $0x230,%eax
 82e:	8f                   	(bad)
 82f:	0e                   	push   %cs
 830:	61                   	popa
 831:	00 00                	add    %al,(%eax)
 833:	00 02                	add    %al,(%edx)
 835:	91                   	xchg   %eax,%ecx
 836:	68 00 1c d7 04       	push   $0x4d71c00
 83b:	00 00                	add    %al,(%eax)
 83d:	71 61                	jno    8a0 <SEG_KERN_CS+0x898>
 83f:	00 00                	add    %al,(%eax)
 841:	00 40 12             	add    %al,0x12(%eax)
 844:	40                   	inc    %eax
 845:	00 14 00             	add    %dl,(%eax,%eax,1)
 848:	00 00                	add    %al,(%eax)
 84a:	01 9c 69 08 00 00 0c 	add    %ebx,0xc000008(%ecx,%ebp,2)
 851:	6e                   	outsb  %ds:(%esi),(%dx)
 852:	00 71 24             	add    %dh,0x24(%ecx)
 855:	61                   	popa
 856:	00 00                	add    %al,(%eax)
 858:	00 02                	add    %al,(%edx)
 85a:	91                   	xchg   %eax,%ecx
 85b:	00 0c 76             	add    %cl,(%esi,%esi,2)
 85e:	00 71 30             	add    %dh,0x30(%ecx)
 861:	61                   	popa
 862:	00 00                	add    %al,(%eax)
 864:	00 02                	add    %al,(%edx)
 866:	91                   	xchg   %eax,%ecx
 867:	04 00                	add    $0x0,%al
 869:	1c 34                	sbb    $0x34,%al
 86b:	03 00                	add    (%eax),%eax
 86d:	00 69 61             	add    %ch,0x61(%ecx)
 870:	00 00                	add    %al,(%eax)
 872:	00 13                	add    %dl,(%ebx)
 874:	12 40 00             	adc    0x0(%eax),%al
 877:	2d 00 00 00 01       	sub    $0x1000000,%eax
 87c:	9c                   	pushf
 87d:	9a 08 00 00 0c 6e 00 	lcall  $0x6e,$0xc000008
 884:	69 22 61 00 00 00    	imul   $0x61,(%edx),%esp
 88a:	02 91 00 0c 76 00    	add    0x760c00(%ecx),%dl
 890:	69 2e 61 00 00 00    	imul   $0x61,(%esi),%ebp
 896:	02 91 04 00 1b 42    	add    0x421b0004(%ecx),%dl
 89c:	01 00                	add    %eax,(%eax)
 89e:	00 3d b5 10 40 00    	add    %bh,0x4010b5
 8a4:	5e                   	pop    %esi
 8a5:	01 00                	add    %eax,(%eax)
 8a7:	00 01                	add    %al,(%ecx)
 8a9:	9c                   	pushf
 8aa:	e3 08                	jecxz  8b4 <SEG_KERN_CS+0x8ac>
 8ac:	00 00                	add    %al,(%eax)
 8ae:	07                   	pop    %es
 8af:	e9 04 00 00 3d       	jmp    3d0008b8 <MAGIC+0x215258b6>
 8b4:	25 7b 07 00 00       	and    $0x77b,%eax
 8b9:	02 91 00 07 92 04    	add    0x4920700(%ecx),%dl
 8bf:	00 00                	add    %al,(%eax)
 8c1:	3d 35 e3 08 00       	cmp    $0x8e335,%eax
 8c6:	00 02                	add    %al,(%edx)
 8c8:	91                   	xchg   %eax,%ecx
 8c9:	04 13                	add    $0x13,%al
 8cb:	53                   	push   %ebx
 8cc:	11 40 00             	adc    %eax,0x0(%eax)
 8cf:	71 00                	jno    8d1 <SEG_KERN_CS+0x8c9>
 8d1:	00 00                	add    %al,(%eax)
 8d3:	05 da 02 00 00       	add    $0x2da,%eax
 8d8:	54                   	push   %esp
 8d9:	14 e8                	adc    $0xe8,%al
 8db:	08 00                	or     %al,(%eax)
 8dd:	00 02                	add    %al,(%edx)
 8df:	91                   	xchg   %eax,%ecx
 8e0:	6c                   	insb   (%dx),%es:(%edi)
 8e1:	00 00                	add    %al,(%eax)
 8e3:	0b 00                	or     (%eax),%eax
 8e5:	05 00 00 0b 79       	add    $0x790b0000,%eax
 8ea:	05 00 00 12 46       	add    $0x46120000,%eax
 8ef:	04 00                	add    $0x0,%al
 8f1:	00 32                	add    %dh,(%edx)
 8f3:	73 10                	jae    905 <SEG_KERN_CS+0x8fd>
 8f5:	40                   	inc    %eax
 8f6:	00 42 00             	add    %al,0x0(%edx)
 8f9:	00 00                	add    %al,(%eax)
 8fb:	01 9c 1e 09 00 00 07 	add    %ebx,0x7000009(%esi,%ebx,1)
 902:	72 00                	jb     904 <SEG_KERN_CS+0x8fc>
 904:	00 00                	add    %al,(%eax)
 906:	32 1e                	xor    (%esi),%bl
 908:	1e                   	push   %ds
 909:	09 00                	or     %eax,(%eax)
 90b:	00 02                	add    %al,(%edx)
 90d:	91                   	xchg   %eax,%ecx
 90e:	00 04 76             	add    %al,(%esi,%esi,2)
 911:	67 61                	addr16 popa
 913:	00 33                	add    %dh,(%ebx)
 915:	0f 23 09             	mov    %ecx,%db1
 918:	00 00                	add    %al,(%eax)
 91a:	02 91 74 00 0b 2d    	add    0x2d0b0074(%ecx),%dl
 920:	00 00                	add    %al,(%eax)
 922:	00 0b                	add    %cl,(%ebx)
 924:	4e                   	dec    %esi
 925:	00 00                	add    %al,(%eax)
 927:	00 29                	add    %ch,(%ecx)
 929:	e8 04 00 00 01       	call   1000932 <_mb_unpaged_end+0xbfb932>
 92e:	21 0e                	and    %ecx,(%esi)
 930:	7b 07                	jnp    939 <SEG_KERN_CS+0x931>
 932:	00 00                	add    %al,(%eax)
 934:	00 10                	add    %dl,(%eax)
 936:	40                   	inc    %eax
 937:	00 73 00             	add    %dh,0x0(%ebx)
 93a:	00 00                	add    %al,(%eax)
 93c:	01 9c 07 a7 03 00 00 	add    %ebx,0x3a7(%edi,%eax,1)
 943:	21 1d 61 00 00 00    	and    %ebx,0x61
 949:	02 91 00 0c 65 62    	add    0x62650c00(%ecx),%dl
 94f:	78 00                	js     951 <SEG_KERN_CS+0x949>
 951:	21 2d 61 00 00 00    	and    %ebp,0x61
 957:	02 91 04 05 e9 04    	add    0x4e90504(%ecx),%dl
 95d:	00 00                	add    %al,(%eax)
 95f:	26 12 7b 07          	adc    %es:0x7(%ebx),%bh
 963:	00 00                	add    %al,(%eax)
 965:	02                   	.byte 0x2
 966:	91                   	xchg   %eax,%ecx
 967:	6c                   	insb   (%dx),%es:(%edi)
	...

Disassembly of section .unpaged.debug_abbrev:

00000000 <.unpaged.debug_abbrev>:
   0:	01 0d 00 03 0e 3a    	add    %ecx,0x3a0e0300
   6:	0b 3b                	or     (%ebx),%edi
   8:	0b 39                	or     (%ecx),%edi
   a:	0b 49 13             	or     0x13(%ecx),%ecx
   d:	38 0b                	cmp    %cl,(%ebx)
   f:	00 00                	add    %al,(%eax)
  11:	02 28                	add    (%eax),%ch
  13:	00 03                	add    %al,(%ebx)
  15:	0e                   	push   %cs
  16:	1c 0b                	sbb    $0xb,%al
  18:	00 00                	add    %al,(%eax)
  1a:	03 16                	add    (%esi),%edx
  1c:	00 03                	add    %al,(%ebx)
  1e:	0e                   	push   %cs
  1f:	3a 0b                	cmp    (%ebx),%cl
  21:	3b 0b                	cmp    (%ebx),%ecx
  23:	39 0b                	cmp    %ecx,(%ebx)
  25:	49                   	dec    %ecx
  26:	13 00                	adc    (%eax),%eax
  28:	00 04 34             	add    %al,(%esp,%esi,1)
  2b:	00 03                	add    %al,(%ebx)
  2d:	08 3a                	or     %bh,(%edx)
  2f:	21 01                	and    %eax,(%ecx)
  31:	3b 0b                	cmp    (%ebx),%ecx
  33:	39 0b                	cmp    %ecx,(%ebx)
  35:	49                   	dec    %ecx
  36:	13 02                	adc    (%edx),%eax
  38:	18 00                	sbb    %al,(%eax)
  3a:	00 05 34 00 03 0e    	add    %al,0xe030034
  40:	3a 21                	cmp    (%ecx),%ah
  42:	01 3b                	add    %edi,(%ebx)
  44:	0b 39                	or     (%ecx),%edi
  46:	0b 49 13             	or     0x13(%ecx),%ecx
  49:	02 18                	add    (%eax),%bl
  4b:	00 00                	add    %al,(%eax)
  4d:	06                   	push   %es
  4e:	24 00                	and    $0x0,%al
  50:	0b 0b                	or     (%ebx),%ecx
  52:	3e 0b 03             	or     %ds:(%ebx),%eax
  55:	0e                   	push   %cs
  56:	00 00                	add    %al,(%eax)
  58:	07                   	pop    %es
  59:	05 00 03 0e 3a       	add    $0x3a0e0300,%eax
  5e:	21 01                	and    %eax,(%ecx)
  60:	3b 0b                	cmp    (%ebx),%ecx
  62:	39 0b                	cmp    %ecx,(%ebx)
  64:	49                   	dec    %ecx
  65:	13 02                	adc    (%edx),%eax
  67:	18 00                	sbb    %al,(%eax)
  69:	00 08                	add    %cl,(%eax)
  6b:	13 01                	adc    (%ecx),%eax
  6d:	0b 0b                	or     (%ebx),%ecx
  6f:	3a 0b                	cmp    (%ebx),%cl
  71:	3b 0b                	cmp    (%ebx),%ecx
  73:	39 21                	cmp    %esp,(%ecx)
  75:	09 01                	or     %eax,(%ecx)
  77:	13 00                	adc    (%eax),%eax
  79:	00 09                	add    %cl,(%ecx)
  7b:	34 00                	xor    $0x0,%al
  7d:	03 0e                	add    (%esi),%ecx
  7f:	3a 21                	cmp    (%ecx),%ah
  81:	05 3b 0b 39 21       	add    $0x21390b3b,%eax
  86:	0e                   	push   %cs
  87:	49                   	dec    %ecx
  88:	13 3f                	adc    (%edi),%edi
  8a:	19 3c 19             	sbb    %edi,(%ecx,%ebx,1)
  8d:	00 00                	add    %al,(%eax)
  8f:	0a 05 00 49 13 00    	or     0x134900,%al
  95:	00 0b                	add    %cl,(%ebx)
  97:	0f 00 0b             	str    (%ebx)
  9a:	21 04 49             	and    %eax,(%ecx,%ecx,2)
  9d:	13 00                	adc    (%eax),%eax
  9f:	00 0c 05 00 03 08 3a 	add    %cl,0x3a080300(,%eax,1)
  a6:	21 01                	and    %eax,(%ecx)
  a8:	3b 0b                	cmp    (%ebx),%ecx
  aa:	39 0b                	cmp    %ecx,(%ebx)
  ac:	49                   	dec    %ecx
  ad:	13 02                	adc    (%edx),%eax
  af:	18 00                	sbb    %al,(%eax)
  b1:	00 0d 0d 00 03 08    	add    %cl,0x803000d
  b7:	3a 0b                	cmp    (%ebx),%cl
  b9:	3b 0b                	cmp    (%ebx),%ecx
  bb:	39 0b                	cmp    %ecx,(%ebx)
  bd:	49                   	dec    %ecx
  be:	13 38                	adc    (%eax),%edi
  c0:	0b 00                	or     (%eax),%eax
  c2:	00 0e                	add    %cl,(%esi)
  c4:	28 00                	sub    %al,(%eax)
  c6:	03 0e                	add    (%esi),%ecx
  c8:	1c 05                	sbb    $0x5,%al
  ca:	00 00                	add    %al,(%eax)
  cc:	0f 04                	(bad)
  ce:	01 3e                	add    %edi,(%esi)
  d0:	21 07                	and    %eax,(%edi)
  d2:	0b 21                	or     (%ecx),%esp
  d4:	04 49                	add    $0x49,%al
  d6:	13 3a                	adc    (%edx),%edi
  d8:	0b 3b                	or     (%ebx),%edi
  da:	0b 39                	or     (%ecx),%edi
  dc:	0b 01                	or     (%ecx),%eax
  de:	13 00                	adc    (%eax),%eax
  e0:	00 10                	add    %dl,(%eax)
  e2:	2e 01 3f             	add    %edi,%cs:(%edi)
  e5:	19 03                	sbb    %eax,(%ebx)
  e7:	0e                   	push   %cs
  e8:	3a 21                	cmp    (%ecx),%ah
  ea:	06                   	push   %es
  eb:	3b 0b                	cmp    (%ebx),%ecx
  ed:	39 21                	cmp    %esp,(%ecx)
  ef:	0d 27 19 3c 19       	or     $0x193c1927,%eax
  f4:	01 13                	add    %edx,(%ebx)
  f6:	00 00                	add    %al,(%eax)
  f8:	11 0d 00 03 0e 3a    	adc    %ecx,0x3a0e0300
  fe:	21 03                	and    %eax,(%ebx)
 100:	3b 0b                	cmp    (%ebx),%ecx
 102:	39 0b                	cmp    %ecx,(%ebx)
 104:	49                   	dec    %ecx
 105:	13 38                	adc    (%eax),%edi
 107:	05 00 00 12 2e       	add    $0x2e120000,%eax
 10c:	01 3f                	add    %edi,(%edi)
 10e:	19 03                	sbb    %eax,(%ebx)
 110:	0e                   	push   %cs
 111:	3a 21                	cmp    (%ecx),%ah
 113:	01 3b                	add    %edi,(%ebx)
 115:	0b 39                	or     (%ecx),%edi
 117:	21 06                	and    %eax,(%esi)
 119:	27                   	daa
 11a:	19 11                	sbb    %edx,(%ecx)
 11c:	01 12                	add    %edx,(%edx)
 11e:	06                   	push   %es
 11f:	40                   	inc    %eax
 120:	18 7a 19             	sbb    %bh,0x19(%edx)
 123:	01 13                	add    %edx,(%ebx)
 125:	00 00                	add    %al,(%eax)
 127:	13 0b                	adc    (%ebx),%ecx
 129:	01 11                	add    %edx,(%ecx)
 12b:	01 12                	add    %edx,(%edx)
 12d:	06                   	push   %es
 12e:	00 00                	add    %al,(%eax)
 130:	14 01                	adc    $0x1,%al
 132:	01 49 13             	add    %ecx,0x13(%ecx)
 135:	01 13                	add    %edx,(%ebx)
 137:	00 00                	add    %al,(%eax)
 139:	15 17 01 0b 0b       	adc    $0xb0b0117,%eax
 13e:	3a 21                	cmp    (%ecx),%ah
 140:	04 3b                	add    $0x3b,%al
 142:	0b 39                	or     (%ecx),%edi
 144:	21 05 01 13 00 00    	and    %eax,0x1301
 14a:	16                   	push   %ss
 14b:	0d 00 03 0e 3a       	or     $0x3a0e0300,%eax
 150:	21 04 3b             	and    %eax,(%ebx,%edi,1)
 153:	0b 39                	or     (%ecx),%edi
 155:	0b 49 13             	or     0x13(%ecx),%ecx
 158:	00 00                	add    %al,(%eax)
 15a:	17                   	pop    %ss
 15b:	0d 00 49 13 00       	or     $0x134900,%eax
 160:	00 18                	add    %bl,(%eax)
 162:	0d 00 49 13 38       	or     $0x38134900,%eax
 167:	0b 00                	or     (%eax),%eax
 169:	00 19                	add    %bl,(%ecx)
 16b:	2e 01 3f             	add    %edi,%cs:(%edi)
 16e:	19 03                	sbb    %eax,(%ebx)
 170:	0e                   	push   %cs
 171:	3a 21                	cmp    (%ecx),%ah
 173:	06                   	push   %es
 174:	3b 0b                	cmp    (%ebx),%ecx
 176:	39 21                	cmp    %esp,(%ecx)
 178:	11 49 13             	adc    %ecx,0x13(%ecx)
 17b:	3c 19                	cmp    $0x19,%al
 17d:	01 13                	add    %edx,(%ebx)
 17f:	00 00                	add    %al,(%eax)
 181:	1a 18                	sbb    (%eax),%bl
 183:	00 00                	add    %al,(%eax)
 185:	00 1b                	add    %bl,(%ebx)
 187:	2e 01 3f             	add    %edi,%cs:(%edi)
 18a:	19 03                	sbb    %eax,(%ebx)
 18c:	0e                   	push   %cs
 18d:	3a 21                	cmp    (%ecx),%ah
 18f:	01 3b                	add    %edi,(%ebx)
 191:	0b 39                	or     (%ecx),%edi
 193:	21 06                	and    %eax,(%esi)
 195:	27                   	daa
 196:	19 11                	sbb    %edx,(%ecx)
 198:	01 12                	add    %edx,(%edx)
 19a:	06                   	push   %es
 19b:	40                   	inc    %eax
 19c:	18 7c 19 01          	sbb    %bh,0x1(%ecx,%ebx,1)
 1a0:	13 00                	adc    (%eax),%eax
 1a2:	00 1c 2e             	add    %bl,(%esi,%ebp,1)
 1a5:	01 3f                	add    %edi,(%edi)
 1a7:	19 03                	sbb    %eax,(%ebx)
 1a9:	0e                   	push   %cs
 1aa:	3a 21                	cmp    (%ecx),%ah
 1ac:	01 3b                	add    %edi,(%ebx)
 1ae:	0b 39                	or     (%ecx),%edi
 1b0:	21 0a                	and    %ecx,(%edx)
 1b2:	27                   	daa
 1b3:	19 49 13             	sbb    %ecx,0x13(%ecx)
 1b6:	11 01                	adc    %eax,(%ecx)
 1b8:	12 06                	adc    (%esi),%al
 1ba:	40                   	inc    %eax
 1bb:	18 7a 19             	sbb    %bh,0x19(%edx)
 1be:	01 13                	add    %edx,(%ebx)
 1c0:	00 00                	add    %al,(%eax)
 1c2:	1d 11 01 25 0e       	sbb    $0xe250111,%eax
 1c7:	13 0b                	adc    (%ebx),%ecx
 1c9:	03 1f                	add    (%edi),%ebx
 1cb:	1b 1f                	sbb    (%edi),%ebx
 1cd:	11 01                	adc    %eax,(%ecx)
 1cf:	12 06                	adc    (%esi),%al
 1d1:	10 17                	adc    %dl,(%edi)
 1d3:	00 00                	add    %al,(%eax)
 1d5:	1e                   	push   %ds
 1d6:	26 00 49 13          	add    %cl,%es:0x13(%ecx)
 1da:	00 00                	add    %al,(%eax)
 1dc:	1f                   	pop    %ds
 1dd:	24 00                	and    $0x0,%al
 1df:	0b 0b                	or     (%ebx),%ecx
 1e1:	3e 0b 03             	or     %ds:(%ebx),%eax
 1e4:	08 00                	or     %al,(%eax)
 1e6:	00 20                	add    %ah,(%eax)
 1e8:	13 01                	adc    (%ecx),%eax
 1ea:	0b 05 3a 0b 3b 0b    	or     0xb3b0b3a,%eax
 1f0:	39 0b                	cmp    %ecx,(%ebx)
 1f2:	01 13                	add    %edx,(%ebx)
 1f4:	00 00                	add    %al,(%eax)
 1f6:	21 21                	and    %esp,(%ecx)
 1f8:	00 49 13             	add    %cl,0x13(%ecx)
 1fb:	2f                   	das
 1fc:	0b 00                	or     (%eax),%eax
 1fe:	00 22                	add    %ah,(%edx)
 200:	13 01                	adc    (%ecx),%eax
 202:	03 0e                	add    (%esi),%ecx
 204:	0b 0b                	or     (%ebx),%ecx
 206:	3a 0b                	cmp    (%ebx),%cl
 208:	3b 0b                	cmp    (%ebx),%ecx
 20a:	39 0b                	cmp    %ecx,(%ebx)
 20c:	01 13                	add    %edx,(%ebx)
 20e:	00 00                	add    %al,(%eax)
 210:	23 0f                	and    (%edi),%ecx
 212:	00 0b                	add    %cl,(%ebx)
 214:	0b 00                	or     (%eax),%eax
 216:	00 24 21             	add    %ah,(%ecx,%eiz,1)
 219:	00 49 13             	add    %cl,0x13(%ecx)
 21c:	2f                   	das
 21d:	05 00 00 25 34       	add    $0x34250000,%eax
 222:	00 03                	add    %al,(%ebx)
 224:	0e                   	push   %cs
 225:	3a 0b                	cmp    (%ebx),%cl
 227:	3b 0b                	cmp    (%ebx),%ecx
 229:	39 0b                	cmp    %ecx,(%ebx)
 22b:	49                   	dec    %ecx
 22c:	13 88 01 05 02 18    	adc    0x18020501(%eax),%ecx
 232:	00 00                	add    %al,(%eax)
 234:	26 34 00             	es xor $0x0,%al
 237:	03 0e                	add    (%esi),%ecx
 239:	3a 0b                	cmp    (%ebx),%cl
 23b:	3b 0b                	cmp    (%ebx),%ecx
 23d:	39 0b                	cmp    %ecx,(%ebx)
 23f:	49                   	dec    %ecx
 240:	13 3f                	adc    (%edi),%edi
 242:	19 02                	sbb    %eax,(%edx)
 244:	18 00                	sbb    %al,(%eax)
 246:	00 27                	add    %ah,(%edi)
 248:	2e 01 3f             	add    %edi,%cs:(%edi)
 24b:	19 03                	sbb    %eax,(%ebx)
 24d:	0e                   	push   %cs
 24e:	3a 0b                	cmp    (%ebx),%cl
 250:	3b 0b                	cmp    (%ebx),%ecx
 252:	39 0b                	cmp    %ecx,(%ebx)
 254:	11 01                	adc    %eax,(%ecx)
 256:	12 06                	adc    (%esi),%al
 258:	40                   	inc    %eax
 259:	18 7c 19 01          	sbb    %bh,0x1(%ecx,%ebx,1)
 25d:	13 00                	adc    (%eax),%eax
 25f:	00 28                	add    %ch,(%eax)
 261:	2e 01 3f             	add    %edi,%cs:(%edi)
 264:	19 03                	sbb    %eax,(%ebx)
 266:	0e                   	push   %cs
 267:	3a 0b                	cmp    (%ebx),%cl
 269:	3b 0b                	cmp    (%ebx),%ecx
 26b:	39 0b                	cmp    %ecx,(%ebx)
 26d:	49                   	dec    %ecx
 26e:	13 11                	adc    (%ecx),%edx
 270:	01 12                	add    %edx,(%edx)
 272:	06                   	push   %es
 273:	40                   	inc    %eax
 274:	18 7c 19 01          	sbb    %bh,0x1(%ecx,%ebx,1)
 278:	13 00                	adc    (%eax),%eax
 27a:	00 29                	add    %ch,(%ecx)
 27c:	2e 01 3f             	add    %edi,%cs:(%edi)
 27f:	19 03                	sbb    %eax,(%ebx)
 281:	0e                   	push   %cs
 282:	3a 0b                	cmp    (%ebx),%cl
 284:	3b 0b                	cmp    (%ebx),%ecx
 286:	39 0b                	cmp    %ecx,(%ebx)
 288:	27                   	daa
 289:	19 49 13             	sbb    %ecx,0x13(%ecx)
 28c:	11 01                	adc    %eax,(%ecx)
 28e:	12 06                	adc    (%esi),%al
 290:	40                   	inc    %eax
 291:	18 7c 19 00          	sbb    %bh,0x0(%ecx,%ebx,1)
	...

Disassembly of section .unpaged.debug_aranges:

00000000 <.unpaged.debug_aranges>:
   0:	1c 00                	sbb    $0x0,%al
   2:	00 00                	add    %al,(%eax)
   4:	02 00                	add    (%eax),%al
   6:	00 00                	add    %al,(%eax)
   8:	00 00                	add    %al,(%eax)
   a:	04 00                	add    $0x0,%al
   c:	00 00                	add    %al,(%eax)
   e:	00 00                	add    %al,(%eax)
  10:	00 10                	add    %dl,(%eax)
  12:	40                   	inc    %eax
  13:	00 b6 05 00 00 00    	add    %dh,0x5(%esi)
  19:	00 00                	add    %al,(%eax)
  1b:	00 00                	add    %al,(%eax)
  1d:	00 00                	add    %al,(%eax)
	...

Disassembly of section .unpaged.debug_line:

00000000 <.unpaged.debug_line>:
   0:	bd 02 00 00 05       	mov    $0x5000002,%ebp
   5:	00 04 00             	add    %al,(%eax,%eax,1)
   8:	4f                   	dec    %edi
   9:	00 00                	add    %al,(%eax)
   b:	00 01                	add    %al,(%ecx)
   d:	01 01                	add    %eax,(%ecx)
   f:	fb                   	sti
  10:	0e                   	push   %cs
  11:	0d 00 01 01 01       	or     $0x1010100,%eax
  16:	01 00                	add    %eax,(%eax)
  18:	00 00                	add    %al,(%eax)
  1a:	01 00                	add    %eax,(%eax)
  1c:	00 01                	add    %al,(%ecx)
  1e:	01 01                	add    %eax,(%ecx)
  20:	1f                   	pop    %ds
  21:	04 0b                	add    $0xb,%al
  23:	00 00                	add    %al,(%eax)
  25:	00 2f                	add    %ch,(%edi)
  27:	00 00                	add    %al,(%eax)
  29:	00 33                	add    %dh,(%ebx)
  2b:	00 00                	add    %al,(%eax)
  2d:	00 68 00             	add    %ch,0x0(%eax)
  30:	00 00                	add    %al,(%eax)
  32:	02 01                	add    (%ecx),%al
  34:	1f                   	pop    %ds
  35:	02 0f                	add    (%edi),%cl
  37:	07                   	pop    %es
  38:	04 00                	add    $0x0,%al
  3a:	00 00                	add    %al,(%eax)
  3c:	01 04 00             	add    %eax,(%eax,%eax,1)
  3f:	00 00                	add    %al,(%eax)
  41:	01 a6 00 00 00 02    	add    %esp,0x2000000(%esi)
  47:	b3 00                	mov    $0x0,%bl
  49:	00 00                	add    %al,(%eax)
  4b:	02 ae 00 00 00 03    	add    0x3000000(%esi),%ch
  51:	ba 00 00 00 03       	mov    $0x3000000,%edx
  56:	c4 00                	les    (%eax),%eax
  58:	00 00                	add    %al,(%eax)
  5a:	01 05 32 00 05 02    	add    %eax,0x2050032
  60:	00 10                	add    %dl,(%eax)
  62:	40                   	inc    %eax
  63:	00 03                	add    %al,(%ebx)
  65:	20 01                	and    %al,(%ecx)
  67:	05 08 67 05 09       	add    $0x9056708,%eax
  6c:	91                   	xchg   %eax,%ecx
  6d:	05 12 f5 05 05       	add    $0x505f512,%eax
  72:	76 08                	jbe    7c <SEG_KERN_CS+0x74>
  74:	21 d8                	and    %ebx,%eax
  76:	05 22 d7 05 05       	add    $0x505d722,%eax
  7b:	90                   	nop
  7c:	bc 05 0c 59 05       	mov    $0x5590c05,%esp
  81:	01 3d 05 24 30 05    	add    %edi,0x5302405
  87:	0f 67 05 0b 75 05 12 	packuswb 0x1205750b,%mm0
  8e:	2f                   	das
  8f:	05 18 82 05 0d       	add    $0xd058218,%eax
  94:	58                   	pop    %eax
  95:	05 18 90 05 10       	add    $0x10059018,%eax
  9a:	2e 05 0d 3d 05 11    	cs add $0x11053d0d,%eax
  a0:	48                   	dec    %eax
  a1:	05 14 00 02 04       	add    $0x4020014,%eax
  a6:	01 66 05             	add    %esp,0x5(%esi)
  a9:	11 00                	adc    %eax,(%eax)
  ab:	02 04 01             	add    (%ecx,%eax,1),%al
  ae:	66 05 0a 6c          	add    $0x6c0a,%ax
  b2:	05 3b 31 05 19       	add    $0x1905313b,%eax
  b7:	75 05                	jne    be <SEG_KERN_CS+0xb6>
  b9:	13 91 c9 05 1c ca    	adc    -0x35e3fa37(%ecx),%edx
  bf:	05 1a 58 05 1c       	add    $0x1c05581a,%eax
  c4:	67 05 1a 58 05 1b    	addr16 add $0x1b05581a,%eax
  ca:	67 05 19 58 05 1c    	addr16 add $0x1c055819,%eax
  d0:	68 05 1a 58 05       	push   $0x5581a05
  d5:	1b 67 05             	sbb    0x5(%edi),%esp
  d8:	2c 58                	sub    $0x58,%al
  da:	05 2a 58 05 19       	add    $0x1905582a,%eax
  df:	2e 05 18 6d 05 31    	cs add $0x31056d18,%eax
  e5:	58                   	pop    %eax
  e6:	05 20 66 05 16       	add    $0x16056620,%eax
  eb:	2e 05 1a 67 05 14    	cs add $0x1405671a,%eax
  f1:	9f                   	lahf
  f2:	05 0e cb 05 16       	add    $0x1605cb0e,%eax
  f7:	58                   	pop    %eax
  f8:	05 08 3c 05 2c       	add    $0x2c053c08,%eax
  fd:	4b                   	dec    %ebx
  fe:	05 14 66 05 0e       	add    $0xe056614,%eax
 103:	3d 05 15 2f 05       	cmp    $0x52f1505,%eax
 108:	10 66 05             	adc    %ah,0x5(%esi)
 10b:	3a 59 05             	cmp    0x5(%ecx),%bl
 10e:	25 58 05 34 3c       	and    $0x3c340558,%eax
 113:	05 41 2e 05 16       	add    $0x16052e41,%eax
 118:	3c 05                	cmp    $0x5,%al
 11a:	11 3d 05 0d 31 05    	adc    %edi,0x5310d05
 120:	36 02 24 13          	add    %ss:(%ebx,%edx,1),%ah
 124:	05 21 58 05 30       	add    $0x30055821,%eax
 129:	3c 05                	cmp    $0x5,%al
 12b:	3d 2e 05 12 3c       	cmp    $0x3c12052e,%eax
 130:	05 24 03 79 3c       	add    $0x3c790324,%eax
 135:	05 36 66 05 30       	add    $0x30056636,%eax
 13a:	66 05 1e 2e          	add    $0x2e1e,%ax
 13e:	05 01 03 12 74       	add    $0x74120301,%eax
 143:	05 25 03 7a 2e       	add    $0x2e7a0325,%eax
 148:	05 2f 66 05 09       	add    $0x905662f,%eax
 14d:	3c 05                	cmp    $0x5,%al
 14f:	2c 08                	sub    $0x8,%al
 151:	85 05 37 66 05 09    	test   %eax,0x9056637
 157:	3c 05                	cmp    $0x5,%al
 159:	01 08                	add    %ecx,(%eax)
 15b:	af                   	scas   %es:(%edi),%eax
 15c:	05 31 68 05 0c       	add    $0xc056831,%eax
 161:	3d 05 08 c8 05       	cmp    $0x5c80805,%eax
 166:	13 4b 05             	adc    0x5(%ebx),%ecx
 169:	17                   	pop    %ss
 16a:	ac                   	lods   %ds:(%esi),%al
 16b:	05 1c 3c 05 0c       	add    $0xc053c1c,%eax
 170:	69 05 01 3d 05 33 30 	imul   $0x3d0f0530,0x33053d01,%eax
 177:	05 0f 3d 
 17a:	05 14 ac 05 01       	add    $0x105ac14,%eax
 17f:	4b                   	dec    %ebx
 180:	05 45 30 05 08       	add    $0x8053045,%eax
 185:	08 d8                	or     %bl,%al
 187:	05 0e 08 5c 05       	add    $0x55c080e,%eax
 18c:	08 f2                	or     %dh,%dl
 18e:	05 16 f3 05 0d       	add    $0xd05f316,%eax
 193:	f2 05 08 08 77 05    	repnz add $0x5770808,%eax
 199:	0c be                	or     $0xbe,%al
 19b:	05 0a 00 02 04       	add    $0x402000a,%eax
 1a0:	01 08                	add    %ecx,(%eax)
 1a2:	12 05 0b 9f 05 09    	adc    0x9059f0b,%al
 1a8:	00 02                	add    %al,(%edx)
 1aa:	04 01                	add    $0x1,%al
 1ac:	08 12                	or     %dl,(%edx)
 1ae:	05 16 a0 05 20       	add    $0x2005a016,%eax
 1b3:	90                   	nop
 1b4:	05 0e ba 05 08       	add    $0x805ba0e,%eax
 1b9:	3d 05 09 67 05       	cmp    $0x5670905,%eax
 1be:	18 cb                	sbb    %cl,%bl
 1c0:	05 17 08 e5 05       	add    $0x5e50817,%eax
 1c5:	18 08                	sbb    %cl,(%eax)
 1c7:	e5 05                	in     $0x5,%eax
 1c9:	1a 08                	sbb    (%eax),%cl
 1cb:	92                   	xchg   %eax,%edx
 1cc:	05 0e 66 05 14       	add    $0x1405660e,%eax
 1d1:	59                   	pop    %ecx
 1d2:	05 08 58 05 1d       	add    $0x1d055808,%eax
 1d7:	59                   	pop    %ecx
 1d8:	05 09 03 67 9e       	add    $0x9e670309,%eax
 1dd:	44                   	inc    %esp
 1de:	05 01 03 13 20       	add    $0x20130301,%eax
 1e3:	05 2c 5a 05 12       	add    $0x12055a2c,%eax
 1e8:	68 05 05 74 05       	push   $0x5740505
 1ed:	12 2f                	adc    (%edi),%ch
 1ef:	79 05                	jns    1f6 <SEG_KERN_CS+0x1ee>
 1f1:	0d 92 05 33 9e       	or     $0x9e330592,%eax
 1f6:	05 0c 90 05 13       	add    $0x1305900c,%eax
 1fb:	4b                   	dec    %ebx
 1fc:	05 0d 4d 05 16       	add    $0x16054d0d,%eax
 201:	90                   	nop
 202:	05 21 82 05 1a       	add    $0x1a058221,%eax
 207:	66 05 32 00          	add    $0x32,%ax
 20b:	02 04 02             	add    (%edx,%eax,1),%al
 20e:	03 74 2e 05          	add    0x5(%esi,%ebp,1),%esi
 212:	1b 00                	sbb    (%eax),%eax
 214:	02 04 01             	add    (%ecx,%eax,1),%al
 217:	4a                   	dec    %edx
 218:	05 01 03 0e 90       	add    $0x900e0301,%eax
 21d:	05 2e 4c 05 0e       	add    $0xe054c2e,%eax
 222:	67 05 1a 74 05 14    	addr16 add $0x1405741a,%eax
 228:	75 05                	jne    22f <SEG_KERN_CS+0x227>
 22a:	0e                   	push   %cs
 22b:	58                   	pop    %eax
 22c:	05 0b 68 05 0d       	add    $0xd05680b,%eax
 231:	2f                   	das
 232:	05 16 90 05 1f       	add    $0x1f059016,%eax
 237:	84 05 0d 65 05 10    	test   %al,0x1005650d
 23d:	32 05 0e 75 05 0c    	xor    0xc05750e,%al
 243:	75 05                	jne    24a <SEG_KERN_CS+0x242>
 245:	15 03 78 4a 05       	adc    $0x54a7803,%eax
 24a:	13 58 03             	adc    0x3(%eax),%ebx
 24d:	0b 58 05             	or     0x5(%eax),%ebx
 250:	01 bb 05 21 3e 05    	add    %edi,0x53e2105(%ebx)
 256:	0e                   	push   %cs
 257:	67 05 05 75 05 0d    	addr16 add $0xd057505,%eax
 25d:	08 76 05             	or     %dh,0x5(%esi)
 260:	08 3c 05 10 4b 05 09 	or     %bh,0x9054b10(,%eax,1)
 267:	77 05                	ja     26e <SEG_KERN_CS+0x266>
 269:	05 75 05 0e 08       	add    $0x80e0575,%eax
 26e:	77 75                	ja     2e5 <SEG_KERN_CS+0x2dd>
 270:	05 08 82 05 10       	add    $0x10058208,%eax
 275:	4c                   	dec    %esp
 276:	05 0e 4d 05 08       	add    $0x8054d0e,%eax
 27b:	66 05 10 4c          	add    $0x4c10,%ax
 27f:	05 0c 4d 05 01       	add    $0x1054d0c,%eax
 284:	3d 05 20 30 05       	cmp    $0x5302005,%eax
 289:	15 67 05 0b 85       	adc    $0x850b0567,%eax
 28e:	83 05 05 03 09 82 08 	addl   $0x8,0x82090305
 295:	3d 05 0b 08 14       	cmp    $0x14080b05,%eax
 29a:	83 05 09 84 05 05 4b 	addl   $0x4b,0x5058409
 2a1:	05 09 d8 05 05       	add    $0x505d809,%eax
 2a6:	75 05                	jne    2ad <SEG_KERN_CS+0x2a5>
 2a8:	09 d8                	or     %ebx,%eax
 2aa:	05 05 75 05 0e       	add    $0xe057505,%eax
 2af:	d8 05 08 66 05 0d    	fadds  0xd056608
 2b5:	4b                   	dec    %ebx
 2b6:	05 05 77 05 01       	add    $0x1057705,%eax
 2bb:	d7                   	xlat   %ds:(%ebx)
 2bc:	02 03                	add    (%ebx),%al
 2be:	00 01                	add    %al,(%ecx)
 2c0:	01                   	.byte 0x1

Disassembly of section .unpaged.debug_str:

00000000 <.unpaged.debug_str>:
   0:	6b 62 6f 6f          	imul   $0x6f,0x6f(%edx),%esp
   4:	74 69                	je     6f <SEG_KERN_CS+0x67>
   6:	6e                   	outsb  %ds:(%esi),(%dx)
   7:	66 6f                	outsw  %ds:(%esi),(%dx)
   9:	5f                   	pop    %edi
   a:	74 00                	je     c <SEG_KERN_CS+0x4>
   c:	66 62 75 66          	bound  %si,0x66(%ebp)
  10:	5f                   	pop    %edi
  11:	70 6e                	jo     81 <SEG_KERN_CS+0x79>
  13:	63 6f 6c             	arpl   %ebp,0x6c(%edi)
  16:	00 6b 62             	add    %ch,0x62(%ebx)
  19:	6f                   	outsl  %ds:(%esi),(%dx)
  1a:	6f                   	outsl  %ds:(%esi),(%dx)
  1b:	74 5f                	je     7c <SEG_KERN_CS+0x74>
  1d:	74 70                	je     8f <SEG_KERN_CS+0x87>
  1f:	67 5f                	addr16 pop %edi
  21:	69 64 65 6e 74 69 74 	imul   $0x79746974,0x6e(%ebp,%eiz,2),%esp
  28:	79 
  29:	00 6b 62             	add    %ch,0x62(%ebx)
  2c:	6f                   	outsl  %ds:(%esi),(%dx)
  2d:	6f                   	outsl  %ds:(%esi),(%dx)
  2e:	74 5f                	je     8f <SEG_KERN_CS+0x87>
  30:	74 70                	je     a2 <SEG_KERN_CS+0x9a>
  32:	67 5f                	addr16 pop %edi
  34:	63 68 65             	arpl   %ebp,0x65(%eax)
  37:	63 6b 5f             	arpl   %ebp,0x5f(%ebx)
  3a:	63 70 75             	arpl   %esi,0x75(%eax)
  3d:	66 00 65 6c          	data16 add %ah,0x6c(%ebp)
  41:	66 73 00             	data16 jae 44 <SEG_KERN_CS+0x3c>
  44:	4d                   	dec    %ebp
  45:	42                   	inc    %edx
  46:	49                   	dec    %ecx
  47:	4e                   	dec    %esi
  48:	46                   	inc    %esi
  49:	4f                   	dec    %edi
  4a:	5f                   	pop    %edi
  4b:	43                   	inc    %ebx
  4c:	4f                   	dec    %edi
  4d:	4e                   	dec    %esi
  4e:	46                   	inc    %esi
  4f:	5f                   	pop    %edi
  50:	54                   	push   %esp
  51:	42                   	inc    %edx
  52:	4c                   	dec    %esp
  53:	00 6b 65             	add    %ch,0x65(%ebx)
  56:	72 6e                	jb     c6 <SEG_KERN_CS+0xbe>
  58:	5f                   	pop    %edi
  59:	61                   	popa
  5a:	6c                   	insb   (%dx),%es:(%edi)
  5b:	6c                   	insb   (%dx),%es:(%edi)
  5c:	6f                   	outsl  %ds:(%esi),(%dx)
  5d:	63 00                	arpl   %eax,(%eax)
  5f:	6d                   	insl   (%dx),%es:(%edi)
  60:	62 69 6e             	bound  %ebp,0x6e(%ecx)
  63:	66 6f                	outsw  %ds:(%esi),(%dx)
  65:	5f                   	pop    %edi
  66:	74 00                	je     68 <SEG_KERN_CS+0x60>
  68:	73 68                	jae    d2 <SEG_KERN_CS+0xca>
  6a:	6f                   	outsl  %ds:(%esi),(%dx)
  6b:	72 74                	jb     e1 <SEG_KERN_CS+0xd9>
  6d:	20 69 6e             	and    %ch,0x6e(%ecx)
  70:	74 00                	je     72 <SEG_KERN_CS+0x6a>
  72:	74 65                	je     d9 <SEG_KERN_CS+0xd1>
  74:	78 74                	js     ea <SEG_KERN_CS+0xe2>
  76:	00 6b 62             	add    %ch,0x62(%ebx)
  79:	6f                   	outsl  %ds:(%esi),(%dx)
  7a:	6f                   	outsl  %ds:(%esi),(%dx)
  7b:	74 5f                	je     dc <SEG_KERN_CS+0xd4>
  7d:	74 70                	je     ef <SEG_KERN_CS+0xe7>
  7f:	67 5f                	addr16 pop %edi
  81:	6d                   	insl   (%dx),%es:(%edi)
  82:	61                   	popa
  83:	70 5f                	jo     e4 <SEG_KERN_CS+0xdc>
  85:	6b 65 72 6e          	imul   $0x6e,0x72(%ebp),%esp
  89:	65 6c                	gs insb (%dx),%es:(%edi)
  8b:	00 5f 6d             	add    %bl,0x6d(%edi)
  8e:	62 5f 70             	bound  %ebx,0x70(%edi)
  91:	68 79 73 5f 62       	push   $0x625f7379
  96:	61                   	popa
  97:	73 65                	jae    fe <SEG_KERN_CS+0xf6>
  99:	00 4d 42             	add    %cl,0x42(%ebp)
  9c:	49                   	dec    %ecx
  9d:	4e                   	dec    %esi
  9e:	46                   	inc    %esi
  9f:	4f                   	dec    %edi
  a0:	5f                   	pop    %edi
  a1:	4d                   	dec    %ebp
  a2:	45                   	inc    %ebp
  a3:	4d                   	dec    %ebp
  a4:	4f                   	dec    %edi
  a5:	52                   	push   %edx
  a6:	59                   	pop    %ecx
  a7:	00 74 70 67          	add    %dh,0x67(%eax,%esi,2)
  ab:	5f                   	pop    %edi
  ac:	63 70 75             	arpl   %esi,0x75(%eax)
  af:	69 64 00 4d 42 49 4e 	imul   $0x464e4942,0x4d(%eax,%eax,1),%esp
  b6:	46 
  b7:	4f                   	dec    %edi
  b8:	5f                   	pop    %edi
  b9:	4d                   	dec    %ebp
  ba:	4f                   	dec    %edi
  bb:	44                   	inc    %esp
  bc:	55                   	push   %ebp
  bd:	4c                   	dec    %esp
  be:	45                   	inc    %ebp
  bf:	53                   	push   %ebx
  c0:	00 4d 42             	add    %cl,0x42(%ebp)
  c3:	49                   	dec    %ecx
  c4:	4e                   	dec    %esi
  c5:	46                   	inc    %esi
  c6:	4f                   	dec    %edi
  c7:	5f                   	pop    %edi
  c8:	46                   	inc    %esi
  c9:	52                   	push   %edx
  ca:	41                   	inc    %ecx
  cb:	4d                   	dec    %ebp
  cc:	45                   	inc    %ebp
  cd:	42                   	inc    %edx
  ce:	55                   	push   %ebp
  cf:	46                   	inc    %esi
  d0:	00 73 68             	add    %dh,0x68(%ebx)
  d3:	6e                   	outsb  %ds:(%esi),(%dx)
  d4:	64 78 00             	fs js  d7 <SEG_KERN_CS+0xcf>
  d7:	4b                   	dec    %ebx
  d8:	42                   	inc    %edx
  d9:	4f                   	dec    %edi
  da:	4f                   	dec    %edi
  db:	54                   	push   %esp
  dc:	4d                   	dec    %ebp
  dd:	4d                   	dec    %ebp
  de:	41                   	inc    %ecx
  df:	50                   	push   %eax
  e0:	5f                   	pop    %edi
  e1:	41                   	inc    %ecx
  e2:	56                   	push   %esi
  e3:	41                   	inc    %ecx
  e4:	49                   	dec    %ecx
  e5:	4c                   	dec    %esp
  e6:	41                   	inc    %ecx
  e7:	42                   	inc    %edx
  e8:	4c                   	dec    %esp
  e9:	45                   	inc    %ebp
  ea:	00 6d 6f             	add    %ch,0x6f(%ebp)
  ed:	64 73 5f             	fs jae 14f <SEG_KERN_CS+0x147>
  f0:	61                   	popa
  f1:	64 64 72 00          	fs fs jb f5 <SEG_KERN_CS+0xed>
  f5:	4d                   	dec    %ebp
  f6:	42                   	inc    %edx
  f7:	4d                   	dec    %ebp
  f8:	4d                   	dec    %ebp
  f9:	41                   	inc    %ecx
  fa:	50                   	push   %eax
  fb:	5f                   	pop    %edi
  fc:	41                   	inc    %ecx
  fd:	56                   	push   %esi
  fe:	41                   	inc    %ecx
  ff:	49                   	dec    %ecx
 100:	4c                   	dec    %esp
 101:	00 72 65             	add    %dh,0x65(%edx)
 104:	74 76                	je     17c <SEG_KERN_CS+0x174>
 106:	61                   	popa
 107:	6c                   	insb   (%dx),%es:(%edi)
 108:	00 66 62             	add    %ah,0x62(%esi)
 10b:	75 66                	jne    173 <SEG_KERN_CS+0x16b>
 10d:	5f                   	pop    %edi
 10e:	62 6d 73             	bound  %ebp,0x73(%ebp)
 111:	00 4d 42             	add    %cl,0x42(%ebp)
 114:	49                   	dec    %ecx
 115:	4e                   	dec    %esi
 116:	46                   	inc    %esi
 117:	4f                   	dec    %edi
 118:	5f                   	pop    %edi
 119:	42                   	inc    %edx
 11a:	4f                   	dec    %edi
 11b:	4f                   	dec    %edi
 11c:	54                   	push   %esp
 11d:	44                   	inc    %esp
 11e:	45                   	inc    %ebp
 11f:	56                   	push   %esi
 120:	00 73 74             	add    %dh,0x74(%ebx)
 123:	72 73                	jb     198 <SEG_KERN_CS+0x190>
 125:	69 7a 65 00 6d 65 6d 	imul   $0x6d656d00,0x65(%edx),%edi
 12c:	5f                   	pop    %edi
 12d:	68 69 67 68 00       	push   $0x686769
 132:	5f                   	pop    %edi
 133:	6d                   	insl   (%dx),%es:(%edi)
 134:	62 5f 75             	bound  %ebx,0x75(%edi)
 137:	6e                   	outsb  %ds:(%esi),(%dx)
 138:	70 61                	jo     19b <SEG_KERN_CS+0x193>
 13a:	67 65 64 5f          	addr16 gs fs pop %edi
 13e:	65 6e                	outsb  %gs:(%esi),(%dx)
 140:	64 00 6b 62          	add    %ch,%fs:0x62(%ebx)
 144:	6f                   	outsl  %ds:(%esi),(%dx)
 145:	6f                   	outsl  %ds:(%esi),(%dx)
 146:	74 5f                	je     1a7 <SEG_KERN_CS+0x19f>
 148:	72 65                	jb     1af <SEG_KERN_CS+0x1a7>
 14a:	61                   	popa
 14b:	64 5f                	fs pop %edi
 14d:	6d                   	insl   (%dx),%es:(%edi)
 14e:	62 69 6e             	bound  %ebp,0x6e(%ecx)
 151:	66 6f                	outsw  %ds:(%esi),(%dx)
 153:	00 64 72 69          	add    %ah,0x69(%edx,%esi,2)
 157:	76 65                	jbe    1be <SEG_KERN_CS+0x1b6>
 159:	73 5f                	jae    1ba <SEG_KERN_CS+0x1b2>
 15b:	61                   	popa
 15c:	64 64 72 00          	fs fs jb 160 <SEG_KERN_CS+0x158>
 160:	63 6f 6e             	arpl   %ebp,0x6e(%edi)
 163:	66 5f                	pop    %di
 165:	74 62                	je     1c9 <SEG_KERN_CS+0x1c1>
 167:	6c                   	insb   (%dx),%es:(%edi)
 168:	00 76 62             	add    %dh,0x62(%esi)
 16b:	65 5f                	gs pop %edi
 16d:	69 6e 74 66 5f 6f 66 	imul   $0x666f5f66,0x74(%esi),%ebp
 174:	66 00 54 50 47       	data16 add %dl,0x47(%eax,%edx,2)
 179:	5f                   	pop    %edi
 17a:	43                   	inc    %ebx
 17b:	50                   	push   %eax
 17c:	55                   	push   %ebp
 17d:	46                   	inc    %esi
 17e:	5f                   	pop    %edi
 17f:	50                   	push   %eax
 180:	41                   	inc    %ecx
 181:	45                   	inc    %ebp
 182:	00 62 6f             	add    %ah,0x6f(%edx)
 185:	6f                   	outsl  %ds:(%esi),(%dx)
 186:	74 73                	je     1fb <SEG_KERN_CS+0x1f3>
 188:	74 72                	je     1fc <SEG_KERN_CS+0x1f4>
 18a:	61                   	popa
 18b:	70 00                	jo     18d <SEG_KERN_CS+0x185>
 18d:	6d                   	insl   (%dx),%es:(%edi)
 18e:	62 5f 75             	bound  %ebx,0x75(%edi)
 191:	69 6e 74 33 32 5f 74 	imul   $0x745f3233,0x74(%esi),%ebp
 198:	00 6c 6f 61          	add    %ch,0x61(%edi,%ebp,2)
 19c:	64 65 72 5f          	fs gs jb 1ff <SEG_KERN_CS+0x1f7>
 1a0:	6e                   	outsb  %ds:(%esi),(%dx)
 1a1:	61                   	popa
 1a2:	6d                   	insl   (%dx),%es:(%edi)
 1a3:	65 00 4d 42          	add    %cl,%gs:0x42(%ebp)
 1a7:	49                   	dec    %ecx
 1a8:	4e                   	dec    %esi
 1a9:	46                   	inc    %esi
 1aa:	4f                   	dec    %edi
 1ab:	5f                   	pop    %edi
 1ac:	4d                   	dec    %ebp
 1ad:	45                   	inc    %ebp
 1ae:	4d                   	dec    %ebp
 1af:	5f                   	pop    %edi
 1b0:	4d                   	dec    %ebp
 1b1:	41                   	inc    %ecx
 1b2:	50                   	push   %eax
 1b3:	00 62 6f             	add    %ah,0x6f(%edx)
 1b6:	6f                   	outsl  %ds:(%esi),(%dx)
 1b7:	74 64                	je     21d <SEG_KERN_CS+0x215>
 1b9:	65 76 00             	gs jbe 1bc <SEG_KERN_CS+0x1b4>
 1bc:	6d                   	insl   (%dx),%es:(%edi)
 1bd:	62 5f 61             	bound  %ebx,0x61(%edi)
 1c0:	6f                   	outsl  %ds:(%esi),(%dx)
 1c1:	75 74                	jne    237 <SEG_KERN_CS+0x22f>
 1c3:	5f                   	pop    %edi
 1c4:	73 79                	jae    23f <SEG_KERN_CS+0x237>
 1c6:	6d                   	insl   (%dx),%es:(%edi)
 1c7:	74 62                	je     22b <SEG_KERN_CS+0x223>
 1c9:	6c                   	insb   (%dx),%es:(%edi)
 1ca:	5f                   	pop    %edi
 1cb:	74 00                	je     1cd <SEG_KERN_CS+0x1c5>
 1cd:	6d                   	insl   (%dx),%es:(%edi)
 1ce:	62 5f 75             	bound  %ebx,0x75(%edi)
 1d1:	69 6e 74 31 36 5f 74 	imul   $0x745f3631,0x74(%esi),%ebp
 1d8:	00 5f 5f             	add    %bl,0x5f(%edi)
 1db:	6d                   	insl   (%dx),%es:(%edi)
 1dc:	62 5f 6d             	bound  %ebx,0x6d(%edi)
 1df:	6d                   	insl   (%dx),%es:(%edi)
 1e0:	61                   	popa
 1e1:	70 5f                	jo     242 <SEG_KERN_CS+0x23a>
 1e3:	74 00                	je     1e5 <SEG_KERN_CS+0x1dd>
 1e5:	66 72 65             	data16 jb 24d <SEG_KERN_CS+0x245>
 1e8:	65 70 64             	gs jo  24f <SEG_KERN_CS+0x247>
 1eb:	65 00 70 61          	add    %dh,%gs:0x61(%eax)
 1ef:	67 65 64 69 72 00 66 	gs imul $0x66756266,%fs:0x0(%bp,%si),%esi
 1f6:	62 75 66 
 1f9:	5f                   	pop    %edi
 1fa:	62 66 70             	bound  %esp,0x70(%esi)
 1fd:	00 6b 65             	add    %ch,0x65(%ebx)
 200:	72 6e                	jb     270 <SEG_KERN_CS+0x268>
 202:	5f                   	pop    %edi
 203:	61                   	popa
 204:	6c                   	insb   (%dx),%es:(%edi)
 205:	6c                   	insb   (%dx),%es:(%edi)
 206:	6f                   	outsl  %ds:(%esi),(%dx)
 207:	63 5f 64             	arpl   %ebx,0x64(%edi)
 20a:	79 6e                	jns    27a <SEG_KERN_CS+0x272>
 20c:	00 6c 6f 6e          	add    %ch,0x6e(%edi,%ebp,2)
 210:	67 20 6c 6f          	and    %ch,0x6f(%si)
 214:	6e                   	outsb  %ds:(%esi),(%dx)
 215:	67 20 69 6e          	and    %ch,0x6e(%bx,%di)
 219:	74 00                	je     21b <SEG_KERN_CS+0x213>
 21b:	76 62                	jbe    27f <SEG_KERN_CS+0x277>
 21d:	65 5f                	gs pop %edi
 21f:	69 6e 74 66 5f 6c 65 	imul   $0x656c5f66,0x74(%esi),%ebp
 226:	6e                   	outsb  %ds:(%esi),(%dx)
 227:	00 76 62             	add    %dh,0x62(%esi)
 22a:	65 5f                	gs pop %edi
 22c:	63 74 6c 00          	arpl   %esi,0x0(%esp,%ebp,2)
 230:	6d                   	insl   (%dx),%es:(%edi)
 231:	61                   	popa
 232:	72 6b                	jb     29f <SEG_KERN_CS+0x297>
 234:	00 66 62             	add    %ah,0x62(%esi)
 237:	75 66                	jne    29f <SEG_KERN_CS+0x297>
 239:	5f                   	pop    %edi
 23a:	72 6d                	jb     2a9 <SEG_KERN_CS+0x2a1>
 23c:	73 00                	jae    23e <SEG_KERN_CS+0x236>
 23e:	6d                   	insl   (%dx),%es:(%edi)
 23f:	65 6d                	gs insl (%dx),%es:(%edi)
 241:	5f                   	pop    %edi
 242:	68 69 67 68 5f       	push   $0x5f686769
 247:	70 68                	jo     2b1 <SEG_KERN_CS+0x2a9>
 249:	79 73                	jns    2be <SEG_KERN_CS+0x2b6>
 24b:	00 74 70 67          	add    %dh,0x67(%eax,%esi,2)
 24f:	5f                   	pop    %edi
 250:	72 65                	jb     2b7 <SEG_KERN_CS+0x2af>
 252:	61                   	popa
 253:	64 5f                	fs pop %edi
 255:	63 72 34             	arpl   %esi,0x34(%edx)
 258:	00 76 62             	add    %dh,0x62(%esi)
 25b:	65 5f                	gs pop %edi
 25d:	69 6e 74 66 5f 73 65 	imul   $0x65735f66,0x74(%esi),%ebp
 264:	67 00 5f 6d          	add    %bl,0x6d(%bx)
 268:	62 5f 65             	bound  %ebx,0x65(%edi)
 26b:	6e                   	outsb  %ds:(%esi),(%dx)
 26c:	64 00 66 62          	add    %ah,%fs:0x62(%esi)
 270:	75 66                	jne    2d8 <SEG_KERN_CS+0x2d0>
 272:	5f                   	pop    %edi
 273:	77 69                	ja     2de <SEG_KERN_CS+0x2d6>
 275:	64 74 68             	fs je  2e0 <SEG_KERN_CS+0x2d8>
 278:	00 6d 6d             	add    %ch,0x6d(%ebp)
 27b:	61                   	popa
 27c:	70 5f                	jo     2dd <SEG_KERN_CS+0x2d5>
 27e:	63 6e 74             	arpl   %ebp,0x74(%esi)
 281:	00 61 70             	add    %ah,0x70(%ecx)
 284:	6d                   	insl   (%dx),%es:(%edi)
 285:	5f                   	pop    %edi
 286:	74 62                	je     2ea <SEG_KERN_CS+0x2e2>
 288:	6c                   	insb   (%dx),%es:(%edi)
 289:	00 6b 62             	add    %ch,0x62(%ebx)
 28c:	6f                   	outsl  %ds:(%esi),(%dx)
 28d:	6f                   	outsl  %ds:(%esi),(%dx)
 28e:	74 5f                	je     2ef <SEG_KERN_CS+0x2e7>
 290:	74 70                	je     302 <SEG_KERN_CS+0x2fa>
 292:	67 5f                	addr16 pop %edi
 294:	65 6e                	outsb  %gs:(%esi),(%dx)
 296:	61                   	popa
 297:	62 6c 65 5f          	bound  %ebp,0x5f(%ebp,%eiz,2)
 29b:	70 61                	jo     2fe <SEG_KERN_CS+0x2f6>
 29d:	67 69 6e 67 00 6b 65 	imul   $0x72656b00,0x67(%bp),%ebp
 2a4:	72 
 2a5:	6e                   	outsb  %ds:(%esi),(%dx)
 2a6:	5f                   	pop    %edi
 2a7:	76 69                	jbe    312 <SEG_KERN_CS+0x30a>
 2a9:	72 74                	jb     31f <SEG_KERN_CS+0x317>
 2ab:	00 6d 65             	add    %ch,0x65(%ebp)
 2ae:	6d                   	insl   (%dx),%es:(%edi)
 2af:	5f                   	pop    %edi
 2b0:	6c                   	insb   (%dx),%es:(%edi)
 2b1:	6f                   	outsl  %ds:(%esi),(%dx)
 2b2:	77 00                	ja     2b4 <SEG_KERN_CS+0x2ac>
 2b4:	66 62 75 66          	bound  %si,0x66(%ebp)
 2b8:	5f                   	pop    %edi
 2b9:	74 79                	je     334 <SEG_KERN_CS+0x32c>
 2bb:	70 65                	jo     322 <SEG_KERN_CS+0x31a>
 2bd:	00 6b 62             	add    %ch,0x62(%ebx)
 2c0:	6f                   	outsl  %ds:(%esi),(%dx)
 2c1:	6f                   	outsl  %ds:(%esi),(%dx)
 2c2:	74 6d                	je     331 <SEG_KERN_CS+0x329>
 2c4:	65 6d                	gs insl (%dx),%es:(%edi)
 2c6:	5f                   	pop    %edi
 2c7:	74 00                	je     2c9 <SEG_KERN_CS+0x2c1>
 2c9:	6d                   	insl   (%dx),%es:(%edi)
 2ca:	61                   	popa
 2cb:	70 70                	jo     33d <SEG_KERN_CS+0x335>
 2cd:	65 64 00 6b 62       	gs add %ch,%fs:0x62(%ebx)
 2d2:	6f                   	outsl  %ds:(%esi),(%dx)
 2d3:	6f                   	outsl  %ds:(%esi),(%dx)
 2d4:	74 5f                	je     335 <SEG_KERN_CS+0x32d>
 2d6:	61                   	popa
 2d7:	64 64 5f             	fs fs pop %edi
 2da:	6d                   	insl   (%dx),%es:(%edi)
 2db:	6d                   	insl   (%dx),%es:(%edi)
 2dc:	61                   	popa
 2dd:	70 00                	jo     2df <SEG_KERN_CS+0x2d7>
 2df:	4d                   	dec    %ebp
 2e0:	42                   	inc    %edx
 2e1:	49                   	dec    %ecx
 2e2:	4e                   	dec    %esi
 2e3:	46                   	inc    %esi
 2e4:	4f                   	dec    %edi
 2e5:	5f                   	pop    %edi
 2e6:	56                   	push   %esi
 2e7:	42                   	inc    %edx
 2e8:	45                   	inc    %ebp
 2e9:	5f                   	pop    %edi
 2ea:	49                   	dec    %ecx
 2eb:	4e                   	dec    %esi
 2ec:	46                   	inc    %esi
 2ed:	4f                   	dec    %edi
 2ee:	00 4d 42             	add    %cl,0x42(%ebp)
 2f1:	49                   	dec    %ecx
 2f2:	4e                   	dec    %esi
 2f3:	46                   	inc    %esi
 2f4:	4f                   	dec    %edi
 2f5:	5f                   	pop    %edi
 2f6:	41                   	inc    %ecx
 2f7:	4d                   	dec    %ebp
 2f8:	4f                   	dec    %edi
 2f9:	55                   	push   %ebp
 2fa:	54                   	push   %esp
 2fb:	53                   	push   %ebx
 2fc:	59                   	pop    %ecx
 2fd:	4d                   	dec    %ebp
 2fe:	00 6d 6d             	add    %ch,0x6d(%ebp)
 301:	61                   	popa
 302:	70 5f                	jo     363 <SEG_KERN_CS+0x35b>
 304:	61                   	popa
 305:	64 64 72 00          	fs fs jb 309 <SEG_KERN_CS+0x301>
 309:	66 62 75 66          	bound  %si,0x66(%ebp)
 30d:	5f                   	pop    %edi
 30e:	72 66                	jb     376 <SEG_KERN_CS+0x36e>
 310:	70 00                	jo     312 <SEG_KERN_CS+0x30a>
 312:	75 6e                	jne    382 <SEG_KERN_CS+0x37a>
 314:	73 69                	jae    37f <SEG_KERN_CS+0x377>
 316:	67 6e                	outsb  %ds:(%si),(%dx)
 318:	65 64 20 63 68       	gs and %ah,%fs:0x68(%ebx)
 31d:	61                   	popa
 31e:	72 00                	jb     320 <SEG_KERN_CS+0x318>
 320:	6d                   	insl   (%dx),%es:(%edi)
 321:	6f                   	outsl  %ds:(%esi),(%dx)
 322:	64 73 5f             	fs jae 384 <SEG_KERN_CS+0x37c>
 325:	63 6e 74             	arpl   %ebp,0x74(%esi)
 328:	00 64 72 69          	add    %ah,0x69(%edx,%esi,2)
 32c:	76 65                	jbe    393 <SEG_KERN_CS+0x38b>
 32e:	73 5f                	jae    38f <SEG_KERN_CS+0x387>
 330:	6c                   	insb   (%dx),%es:(%edi)
 331:	65 6e                	outsb  %gs:(%esi),(%dx)
 333:	00 6b 62             	add    %ch,0x62(%ebx)
 336:	6f                   	outsl  %ds:(%esi),(%dx)
 337:	6f                   	outsl  %ds:(%esi),(%dx)
 338:	74 5f                	je     399 <SEG_KERN_CS+0x391>
 33a:	72 6f                	jb     3ab <SEG_KERN_CS+0x3a3>
 33c:	75 6e                	jne    3ac <SEG_KERN_CS+0x3a4>
 33e:	64 5f                	fs pop %edi
 340:	75 70                	jne    3b2 <SEG_KERN_CS+0x3aa>
 342:	00 6b 62             	add    %ch,0x62(%ebx)
 345:	6f                   	outsl  %ds:(%esi),(%dx)
 346:	6f                   	outsl  %ds:(%esi),(%dx)
 347:	74 69                	je     3b2 <SEG_KERN_CS+0x3aa>
 349:	6e                   	outsb  %ds:(%esi),(%dx)
 34a:	66 6f                	outsw  %ds:(%esi),(%dx)
 34c:	5f                   	pop    %edi
 34d:	6d                   	insl   (%dx),%es:(%edi)
 34e:	6d                   	insl   (%dx),%es:(%edi)
 34f:	61                   	popa
 350:	70 5f                	jo     3b1 <SEG_KERN_CS+0x3a9>
 352:	74 00                	je     354 <SEG_KERN_CS+0x34c>
 354:	76 62                	jbe    3b8 <SEG_KERN_CS+0x3b0>
 356:	65 5f                	gs pop %edi
 358:	6d                   	insl   (%dx),%es:(%edi)
 359:	6f                   	outsl  %ds:(%esi),(%dx)
 35a:	64 65 00 66 6c       	fs add %ah,%gs:0x6c(%esi)
 35f:	61                   	popa
 360:	67 73 00             	addr16 jae 363 <SEG_KERN_CS+0x35b>
 363:	6c                   	insb   (%dx),%es:(%edi)
 364:	6f                   	outsl  %ds:(%esi),(%dx)
 365:	6e                   	outsb  %ds:(%esi),(%dx)
 366:	67 20 6c 6f          	and    %ch,0x6f(%si)
 36a:	6e                   	outsb  %ds:(%esi),(%dx)
 36b:	67 20 75 6e          	and    %dh,0x6e(%di)
 36f:	73 69                	jae    3da <SEG_KERN_CS+0x3d2>
 371:	67 6e                	outsb  %ds:(%si),(%dx)
 373:	65 64 20 69 6e       	gs and %ch,%fs:0x6e(%ecx)
 378:	74 00                	je     37a <SEG_KERN_CS+0x372>
 37a:	66 62 75 66          	bound  %si,0x66(%ebp)
 37e:	5f                   	pop    %edi
 37f:	70 69                	jo     3ea <SEG_KERN_CS+0x3e2>
 381:	74 63                	je     3e6 <SEG_KERN_CS+0x3de>
 383:	68 00 66 62 75       	push   $0x75626600
 388:	66 5f                	pop    %di
 38a:	67 6d                	insl   (%dx),%es:(%di)
 38c:	73 00                	jae    38e <SEG_KERN_CS+0x386>
 38e:	5f                   	pop    %edi
 38f:	6d                   	insl   (%dx),%es:(%edi)
 390:	62 5f 73             	bound  %ebx,0x73(%edi)
 393:	74 61                	je     3f6 <SEG_KERN_CS+0x3ee>
 395:	72 74                	jb     40b <SEG_KERN_CS+0x403>
 397:	00 4d 42             	add    %cl,0x42(%ebp)
 39a:	49                   	dec    %ecx
 39b:	4e                   	dec    %esi
 39c:	46                   	inc    %esi
 39d:	4f                   	dec    %edi
 39e:	5f                   	pop    %edi
 39f:	43                   	inc    %ebx
 3a0:	4d                   	dec    %ebp
 3a1:	44                   	inc    %esp
 3a2:	4c                   	dec    %esp
 3a3:	49                   	dec    %ecx
 3a4:	4e                   	dec    %esi
 3a5:	45                   	inc    %ebp
 3a6:	00 6d 61             	add    %ch,0x61(%ebp)
 3a9:	67 69 63 00 73 68 6f 	imul   $0x726f6873,0x0(%bp,%di),%esp
 3b0:	72 
 3b1:	74 20                	je     3d3 <SEG_KERN_CS+0x3cb>
 3b3:	75 6e                	jne    423 <SEG_KERN_CS+0x41b>
 3b5:	73 69                	jae    420 <SEG_KERN_CS+0x418>
 3b7:	67 6e                	outsb  %ds:(%si),(%dx)
 3b9:	65 64 20 69 6e       	gs and %ch,%fs:0x6e(%ecx)
 3be:	74 00                	je     3c0 <SEG_KERN_CS+0x3b8>
 3c0:	4d                   	dec    %ebp
 3c1:	42                   	inc    %edx
 3c2:	49                   	dec    %ecx
 3c3:	4e                   	dec    %esi
 3c4:	46                   	inc    %esi
